(lp0
VApparently they approve nastiness https://t.co/bL6m8RNr8F
p1
aVRT @BetoORourke: We're going to serve every single veteran who served every single one of us. https://t.co/LhMSw0S3ML
p2
aVRT @sally_field: Tuesday is my 72nd birthday. I want one great big gift that can only come from you. \u000a\u000aVote. Like our lives depend on it. B\u2026
p3
aVRT @brianklaas: A key lesson from my research on authoritarianism: democracy doesn\u2019t usually die when a demagogue wins power. It usually be\u2026
p4
aVI\u2019m going to assume then Fox News is as anti Semitic as the Pittsburgh killer, of course I\u2019m sure their getting the\u2026 https://t.co/Dc370DS0Pb
p5
aVRT @VoteCasten: We're all juggling a lot before Election Day, but we need to make time to Get Out The Vote and #FlipThe6th for @SeanCasten.\u2026
p6
aVRT @CNN: "They promised they were going to take on corruption in Washington. Instead, they've racked up enough indictments to field a footb\u2026
p7
aVRT @johnlegend: Great to be back in my home state of Ohio supporting amazing Democrats running for office this year. If you live in Ohio, b\u2026
p8
aVRT @BetteMidler: You changed your clocks today?!? Change your politicians on Tuesday!!  \u000a#VOTEBLUE!!
p9
aVDo we have any other orange folks! https://t.co/NC8T5vIfy8
p10
aVRT @AC360: .@andersoncooper: There may be no election more consequential than the one a day-and-a-half from tonight. https://t.co/Pu8mjQNuJ\u2026
p11
aVRT @BetoORourke: On the road to all 254 counties of Texas. No one written off. No one taken for granted. Watch our new ad featuring Willie\u2026
p12
aVI would guess he sees something in it for himself He\u2019s hardly an altruist. Pres will promise anything to anyone if\u2026 https://t.co/8Hq4UihAoW
p13
aVRT @Comey: VOTE in 2 days: \u201cElections belong to the people. It's their decision. If they decide to turn their back on the fire and burn the\u2026
p14
aVRT @Austin101blog: .@betoorourke today in Austin at the last rally before the election was SOOOO inspiring! People of all faiths, cultures,\u2026
p15
aVRT @lizakoshy: Voting is easier than marching. So easy, I can show you how to become a more educated voter, in less than a minute. Do ya jo\u2026
p16
aVRT @kenolin1: If you\u2019re a woman you can\u2019t vote for a candidate who supports Trump. \u000aYou certainly can\u2019t if you\u2019re a person of color. And if\u2026
p17
aVYet another outrage. https://t.co/rAnPRtlDV1
p18
aVRT @CNNSitRoom: "In two days, Illinois, in two days you get to vote in what might be the most important election of our lifetimes, maybe mo\u2026
p19
aVRT @astrokeely: Sharing a great experience of hearing @BetoORourke speak today in Austin with the kids. Inspiring, let\u2019s keep fighting. #Vo\u2026
p20
aVRT @JoeBiden: The work we began that night ten years ago in Grant Park is unfinished. \u000a\u000aIf you still believe, as I do, that hope is more po\u2026
p21
aVRT @BetoORourke: We will not only protect those with pre-existing conditions but we will ensure every Texan can see a doctor, afford their\u2026
p22
aVIf you make it up Mr President then it is not a fact. https://t.co/PDi5FGjyVJ
p23
aVOh!!!!! https://t.co/fqGjcHhMw1
p24
aVThen you certainly don\u2019t deserve to be a Senator. How is it that a legislator takes an oath to support the constitu\u2026 https://t.co/PX6sEPuaox
p25
aVRT @nytimes: In Opinion\u000a\u000aContributing Opinion Writer Michael Tomasky writes that Democrats need to "construct a story about how the economy\u2026
p26
aVBrave men and women vote their conscience, not a party. Republican voters BE BRAVE, vote for civility https://t.co/auDegybyoZ
p27
aVRT @Conserv4Casten: This race is neck and neck. If we win or lose by half a percentage point, that's probably about 1400 votes. The differe\u2026
p28
aVRT @nytimes: For 2 decades, U.S. law enforcement has failed to see the rising threat of white nationalism. Now they don't know how to stop\u2026
p29
aVRT @USATODAY: Montel Williams in @usatodayopinion: "I was once a proud Republican. But on health care, the Republican Party has left me and\u2026
p30
aVRT @HillaryClinton: .@VotoLatino &amp; @Lyft are providing free rides to the polls in Arizona, California, Colorado, Georgia, Kansas, Florida,\u2026
p31
aVRT @CNN: \u201cIf you get a dollar more in your paycheck and the cost of gasoline, the cost of healthcare, the cost of housing goes up by $3, yo\u2026
p32
aVRT @CNN: Stacey Abrams on Georgia Secretary of State\u2019s office opening an investigation into the Democratic party of Georgia for possible al\u2026
p33
aVOh so desperate Mr Kemp! https://t.co/qWNrSaAmcF
p34
aVRT @HillaryClinton: Share this with any friends or family members who think their vote doesn't matter. https://t.co/kmwFxw4bIe
p35
aVOh really he doesn\u2019t have any positions, but is only committed the moment and how it looks nes his pocket and pets\u2026 https://t.co/t4woh2wCDL
p36
aVRT @StephenKing: Iowans, for personal reasons I hope you\u2019ll vote Steve King out. I\u2019m tired of being confused with this racist dumbbell.
p37
aVRT @CNNPolitics: Florida Democratic gubernatorial candidate Andrew Gillum says President Trump, his opponent Ron DeSantis and others should\u2026
p38
aVI live in Massachusetts, yet if I could be there I would Citizens of Texas people all over the country are watching\u2026 https://t.co/2PeYb4MmfL
p39
aVThis is just pure desperation on Kemp\u2019s part. https://t.co/lwyAAq084x
p40
aVImpressed by Ms Abrams cool and articulate response under the pressure from another obnoxious republican. https://t.co/mFMfwZckMG
p41
aVRT @SeanCasten: "There's nothing about the Tax Cuts and Jobs Act or Peter Roskam's record on tax cuts that's pro-business, pro-growth, or p\u2026
p42
aVRT @BetoORourke: Newspapers across this state have enthusiastically endorsed our campaign to have a senator who represents all Texans. Take\u2026
p43
aVRT @BetoORourke: This moment calls for the people of Texas. And Brownsville, McAllen, Laredo, Del Rio, El Paso, the communities of the bord\u2026
p44
aVRT @SteveKerr: I\u2019ve lost count of how many moments of silence we\u2019ve had for mass shooting victims before our games the past few years. Our\u2026
p45
aVRT @Ocasio2018: What makes America great isn\u2019t the notion that a man born into wealth can become President.\u000a\u000aIt\u2019s that a child born into po\u2026
p46
aVRT @jkass99: We had rocks thrown at us all the time in Afghanistan. Responding with lethal force is a fucking war crime. https://t.co/CqKYW\u2026
p47
aVRT @Mikel_Jollett: Republicans,\u000a\u000a11 people were KILLED. It was the largest antisemitic attack in US HISTORY.\u000a\u000aYour monster of a President i\u2026
p48
aVRT @_ElizabethMay: Just a reminder that neither of Marco Rubio's parents were US citizens at the time of his birth. https://t.co/nbGFnotIoT
p49
aVRT @Ocasio2018: She gave me my very own communicator \U0001f62d\U0001f596\U0001f3fd\u2728 https://t.co/IdSXZhohcR
p50
aVRT @BetoORourke: Met Jenna while block walking. She's 15 but has been working on convincing her dad to join our campaign. He voted for Cruz\u2026
p51
aVRT @Ocasio2018: For young people, the thought of maintaining the status quo for our entire lives is unthinkable.\u000a\u000aMore than anyone else, WE\u2026
p52
aVRT @Maria_Hinojosa: This president is lying everyday about immigrants and immigration policy. It is the job of journalists to call out the\u2026
p53
aVRT @AndrewGillum: \u201cRepublicans can\u2019t hear you boo \u2014 but they can hear you vote.\u201d \u000a\u000aAmen, @BarackObama.
p54
aVDon\u2019t you wonder how he lives with himself https://t.co/CtfcSG64xW
p55
aVCannot lie, this President is a despicable human being. https://t.co/szX7xJajFt
p56
aVRT @NathanHRubin: Rick Scott has spent $51 million of his *own money* in his Senate race. \u000a\u000aWhere did he get so much money? \u000a\u000aOh right. He\u2026
p57
aVThis is outstanding. Thank you for the smile. These times are oppressive and saddening. https://t.co/tLA8m5WvRs
p58
aVTo Montana voters. Don\u2019t sell Sen Tester short. He does his job well ! Vote appropriately. Save your state
p59
aVWhat\u2019s so difficult about making more polling places available. Where does it say in the constitution you can vote\u2026 https://t.co/5jWzXpcKJa
p60
aVSpread the word. Loud a, clear and now!!!! https://t.co/6nT2YJEt3L
p61
aVRT @RealTimers: "...Dignity for all human beings, equality under the law, respect for dissent, love of truth. These are the things we are l\u2026
p62
aVRT @JoeBiden: Voting restrictions in Georgia weren\u2019t meant to protect the sanctity of our vote, but to suppress turnout. I applaud the cour\u2026
p63
aVThis is the Trump effect, walk away from the Republicans and vote Democratic, restore balance and humanity to our g\u2026 https://t.co/bRBLuzPcGy
p64
aVThis is shocking and embarrassing. https://t.co/eRmkG1qLxA
p65
aVRT @BarackObama: Speaking of preexisting conditions, open enrollment starts today. If you or someone you know needs health care, visit http\u2026
p66
aVWould be the best possible outcome for all Floridians https://t.co/pMaOrXanhH
p67
aVRT @byshondaland: - \u201c\u2026If you care about something but you don\u2019t make your voice heard, this democracy will move on without you. That\u2019s how\u2026
p68
aVRT @ABC: "When truth doesn't matter, when people can just lie with abandon, democracy can't work," former Pres. Obama says.\u000a\u000a"And that's wh\u2026
p69
aVRT @ABC: A federal judge rules Georgia must make it easier for voters flagged as potential non-citizens to prove their U.S. citizenship at\u2026
p70
aVCongratulations https://t.co/Djn0QVokk9
p71
aVRT @_pamcampos: I\u2019m a birthright citizen. I\u2019m of proud Central American &amp; Mayan roots. I\u2019m a patriot. I\u2019m a fighter. I\u2019m what these United\u2026
p72
aVRT @kylegriffin1: Obama: "Suddenly Republicans are saying they're gonna protect your pre-existing conditions when they've literally been do\u2026
p73
aVwhat we are seeing from last minute campaigning is DESPERATION,\u000adesperation breeds contempt. Trump supporters have\u2026 https://t.co/6Uad4avEoc
p74
aVAmericans need to be proud, that's impossible when we are humiliated everyday by the rhetoric from the White House.\u2026 https://t.co/8JJjqLxXle
p75
aVRT @KamalaHarris: Spread the word: voters in these states have the opportunity to register in person on Election Day. https://t.co/PejQcR04\u2026
p76
aVwell that's no surprise, to the country's African American community, vote for yourselves by voting Democrats into\u2026 https://t.co/mmIgNGR1xp
p77
aVRT @VP: Discussed the roaring American economy with @Trish_Regan on @FoxBusiness. Under @POTUS, we're setting one record after another. We'\u2026
p78
aVRT @sangerkatz: A lot of Republicans are saying they support protections for pre-existing conditions. What do their records say? https://t.\u2026
p79
aVhow about adequate pay and benefits https://t.co/CZH3A1s9jT
p80
aVRT @BetoORourke: We want to represent everyone in the state of Texas. All 28 million people in all 254 counties. No one will be written off\u2026
p81
aVRT @BetoORourke: You can't vote tomorrow. \u000aYou can't vote on Sunday. \u000aBut you can vote today!\u000aFind your nearest early voting location by go\u2026
p82
aVRT @ABC: "Why is it that the folks that won the last election are so mad all the time?" former Pres. Obama asks at Miami rally.\u000a\u000a"When I wo\u2026
p83
aVAbuse of the system does not require abuse of the human race... there are better ways to solve  such a mammoth prob\u2026 https://t.co/n4EzLwzGhm
p84
aVLying is his favorite sport Good at , he practices ALOT https://t.co/Dbf0K3vdlL
p85
aVReplace Sen Flake with a women who would have voted against the Kavanaugh confirmation https://t.co/yYNFH2AWGC
p86
aV@seancasten Science is not a gut topic, as Pres Trump unbelievably says. Let\u2019s bring Sean Casten  to Washington and\u2026 https://t.co/6zuEFFIr6O
p87
aVDeb Cruz should go home and practice licking his wounds Vote Beto O Rourke for a meaningful future. Cruz is dated a\u2026 https://t.co/Oxt1Gj7qZ5
p88
aVWow this seems incredibly unimportant https://t.co/0VQUal4hiS
p89
aVThat would include all women! Only 100 years ago we could not vote. All women must be heard . Do not fill the legis\u2026 https://t.co/dQ3CGnMQmP
p90
aVRT @sjcloobeck: We need to vote. For compassion. For unity. For love.\u000aOur country depends on it. @nytimes\u000ahttps://t.co/ODQ573LuA4
p91
aVRT @BetteMidler: #Millennials!  I am 72 years old and won't be here when the water runs out. YOU'RE GOING TO BE AWFULLY THIRSTY IF YOU DON'\u2026
p92
aVRT @TheRaDR: Automatic voter registration \u000a\u000aNational holiday for voting\u000a\u000aAbolish the Electoral College \u000a\u000aEradicate voter ID laws \u000a\u000aNone of\u2026
p93
aVDo not allow a white supremacist walk back into the senate chambers https://t.co/4wu77Rju0a
p94
aVThat\u2019s nice, but most of these jobs don\u2019t adequately pay enough to cover basic needs Don\u2019t be fooled by the numbers\u2026 https://t.co/jjWmQ3Trm9
p95
aVFantastic,take control of your future and then you will not have regrets, AND if you can take an elderly voter with\u2026 https://t.co/xGVErBZrR4
p96
aVHelp those who cannot get out alone to the polls https://t.co/HyXxzxlbeY
p97
aVReally your not. But you just keep telling yourself that. https://t.co/zOcS1pSEa9
p98
aVYou are going to ask decent family people, soldiers who serve their country to callously fire on a rock !!!In awe o\u2026 https://t.co/QAlH1Lp4Um
p99
aVRT @DemRedistrict: Nearly 800 of the state legislators who will decide on redistricting in 2021 will be elected in just a few weeks. The ti\u2026
p100
aVThe President came to office officially with an already lost mind . Exacerbated by his obsession with power. The id\u2026 https://t.co/HirYc8Qq8A
p101
aVNo surprise there. However, many seem to choose his lies over the truth. Boggles the mind https://t.co/JAT9pN4asZ
p102
aVBig deals aren\u2019t puppets for someon else, they have minds on f their own. You are just the Presidents mouthpiece https://t.co/Ddjlm9RHGa
p103
aVAvery happy bday to you. May your wishes come true https://t.co/aaDY9jMED5
p104
aVWhat an outrage! Judges are supposed to uphold the law... the supreme law, the constitution gives everyone the righ\u2026 https://t.co/tmMN9p0xcG
p105
aVAnd yet you sound the same. Can you stand yourself https://t.co/Qyaz8bQeQg
p106
aVRT @ABC: Oprah Winfrey: "If you're a woman you need to recognize it hasn't even been a hundred years since we even had the right to vote...\u2026
p107
aVRT @CNN: "...Controversies that might otherwise blaze for days are being forgotten. One that should remain in our minds is the appearance o\u2026
p108
aVRT @elizabethforma: We joined young people across the country in the #marchforourlives. Now we must march to the polls. On Election Day we\u2026
p109
aVRT @nytimes: Democrats are preparing to use an obscure law to try to obtain a copy of President Trump\u2019s tax returns if they win control of\u2026
p110
aVWhere is the common sense https://t.co/cofDkb3Fqy
p111
aVOutstanding If you are old enough  \u000aVOTE you will feel empowered https://t.co/rcbtCROJy8
p112
aVMr Vice President have you one original thought in your head https://t.co/rc71zyEbnp
p113
aVPeople lose their s..t when they\u2019ve been called out. Reminder in general to all white supremacists. This country be\u2026 https://t.co/hRcRqzcrfd
p114
aVWill he deport his Mar Largo and Trump property employees I want an accounting No tolerance policy for Presidential\u2026 https://t.co/LE7yQBjHQs
p115
aV@TheDailyEdge @axios @realDonaldTrump @NicolleDWallace @K_JeanPierre @DonnyDeutsch He is stuck at the emotional lev\u2026 https://t.co/dyFJ9zQGFg
p116
aVReasonable Senators can come together and make effective and reasonable policy. Vote for reason , not over the top\u2026 https://t.co/q7QfKWu5tq
p117
aVTruth as one sees it becomes perspective or opinion. In Mr Trumps case its fairy tales. https://t.co/f1x3tWKlJu
p118
aV@andersoncooper This President thinks he\u2019s good at everything...has a gut feeling for science...someone needs to sh\u2026 https://t.co/zmJdf3gfPY
p119
aVSure would be great if he could find his office and get some work done https://t.co/L3W8aMBKeY
p120
aV#SteveKing Iowans listen up.. intel has withdrawn support from heinous Steve King for his abhorrent attitude toward\u2026 https://t.co/CUou5TXqNW
p121
aVRT @SpockResists: @realDonaldTrump You mean like the Hillary Clinton email release a week before the elections in 2016. Deal with it like s\u2026
p122
aVRT @Rosie: thank u sully #VoteBlueToSaveAmerica https://t.co/rOAx5LXJ5u
p123
aVRT @votevets: FIFTY MILLION. Maybe more.\u000a\u000aDonald Trump isn't just abusing our military, by taking them away from crucial training, to do bu\u2026
p124
aVRT @ProudResister: The math is very simple:\u000a\u000aVOTE + DEM + NOV 6 = SAVE AMERICA \U0001f1fa\U0001f1f8\u000a\u000a#VoteDem #VoteBlueToSaveAmerica
p125
aVRT @mmpadellan: Hey @realDonaldTrump!\u000a\u000aI see your 15,000 troops and I RAISE you 65,000,000 ANGRY voters.\u000a\u000aOur ballots are better than bulle\u2026
p126
aVRT @ProudResister: Dear @GOP,\u000a\u000aFirst you gave us Donald Trump.\u000a\u000aThen you gave us a tax scam bill.\u000a\u000aThen you gave us a $2 trillion deficit a\u2026
p127
aVWell now I\u2019ve better things to do How about you? https://t.co/awNgGrCCsN
p128
aVNow this makes me proud Thankyou federal judges. To this who have benefitted Do Not waste this opportunity Go to th\u2026 https://t.co/YEKhmKL2A4
p129
aVLadies if we miss this opportunity generations of women will pay for it. Vote Gilliam for yourselves,daughters,gran\u2026 https://t.co/s9uYdEeNA2
p130
aVRT @AndrewGillum: You can't be a governor of the state of Florida unless you are willing to represent all of the state of Florida. That\u2019s w\u2026
p131
aVStay fired up, don\u2019t lose momentum, Mayor Gilliam for Governet https://t.co/LhFCgXxqdM
p132
aV@USATODAY Give this some serious thought Mr Trump uses the plane supported by our taxes to campaign for Republicans\u2026 https://t.co/6Q0ARCNcyQ
p133
aVCall this man Governor Andrew Gilliam and life will improve for all Floridians VOTE Gillium https://t.co/NkxlT8HtuT
p134
aVMine too https://t.co/T0Fb9p0D1C
p135
aVBroad sweeping statements need to be backed up with proof Where\u2019s the proof? https://t.co/iq3qyNgPZG
p136
aVWell except for the administrations meddling. Pres uses Air ForcOne to get to his rallies. I personally don\u2019t want\u2026 https://t.co/k28gn15PXW
p137
aVRT @LetsTalk59: @CNN Amen @Oprah!!! \U0001f44f\U0001f3fe\U0001f44f\U0001f3fe\U0001f44f\U0001f3fe\U0001f44f\U0001f3fe\U0001f44f\U0001f3fe\U0001f44f\U0001f3feThe fact that there was a time when ppl of color couldn\u2019t vote in \U0001f1fa\U0001f1f8 is the very reason why\u2026
p138
aVBrilliant!  Anything else earthshaking to share? https://t.co/sn6JIQBqex
p139
aVSo they should appreciate it that much more . Come to Massachusetts walk the FREEDOM trail . https://t.co/4tTAQZEyDt
p140
aVMy grandad came to America from Russia after escaping from the czar. Do you even know about the czar? Do not think\u2026 https://t.co/Aub5TRhXLw
p141
aVWow you really have to learn how the system works! Go back to school, I think you missed government. Or travel a bi\u2026 https://t.co/IyA4oZOUS5
p142
aVThat is an ignorant comment Clearly you do not understand the sentiment at all. If everyone felt the same way this\u2026 https://t.co/rOktg6ZRhv
p143
aVDemocratic women get thee to the voting booth. Suffragettes worked tirelessly for you. Show your appreciation and s\u2026 https://t.co/g8KjU1fFiq
p144
aV@CNN Please find any way to get to the polls, it is your right according to the constitution. Be heard Take advanta\u2026 https://t.co/lnBf8XUdgc
p145
aVThe Pres has many faces. I would suggest they are insincere and play to his specific audience I am sad he was able\u2026 https://t.co/IRrJrSJbKb
p146
aVOf course it is the elitists who support the inhumanity of the border policies. https://t.co/dI3VQHAnsM
p147
aVAm always shocked by the look on the faces of those who stand behind Mr Trump at rallies. Beware followers you are\u2026 https://t.co/5V2xMEoLLx
p148
aVup to each person to vote in a manneris reflective of the moral compass  set forth by those who have come before. I\u2026 https://t.co/qovvjvCpkh
p149
aVRT @AC360: .@andersoncooper: President Trump is entitled to make stuff up and that's exactly what he's doing. \u000a\u000aWhat he's not entitled to d\u2026
p150
aVRT @nytimes: With the hashtag #ShowUpForShabbat, Jewish leaders are encouraging Jews and non-Jews alike to attend services on Friday night\u2026
p151
aVRT @OutFrontCNN: .@VanJones68 slams Trump's threat of an executive order on birthright citizenship calling it "one of the worst ideas in th\u2026
p152
aVWell they have the privilege of voting They should take advantage of this moment and help secure a clear safe and s\u2026 https://t.co/Ng306IPGat
p153
aVRT @JuddLegum: I'm sure it's just a coincidence that ending birthright citizenship is a cornerstone of white nationalism
p154
aV@ChrisCuomo Please make sure Iowans are aware of Land o Lakes and Purinas financial withdrawal from Steve Kings rac\u2026 https://t.co/vtQgzj0fdJ
p155
aVRT @CuomoPrimeTime: .@ChrisCuomo: Will there be New Colossus? Will there be lady with the lamp? Will she be painted gold and called the las\u2026
p156
aVThank you @purina for dedicating yourselves to the equality of all by removing financial support from Steve King co\u2026 https://t.co/iEjjA9zh8k
p157
aVRT @CNN: Land O'Lakes and Purina, the two companies that dumped Iowa Rep. Steve King this week over his incendiary comments, learned what a\u2026
p158
aV@elizacollins1 @USATODAY @DonaldJTrumpJr @kimguilfoyle Oh this has got to be a joke, you can\u2019t possibly believe this
p159
aVRT @realDonaldTrump: The World is using our laws to our detriment. They laugh at the Stupidity they see!
p160
aVthese are faces faces of desperation not competence, vote for competence https://t.co/UfridnodLp
p161
aVvote, push back, push back with as many voters as you can get to the polls, https://t.co/UfridnodLp
p162
aVAgain crowd size is your issue, it is the true conviction of the people of Pittsburgh  to be admired, not denigrate\u2026 https://t.co/w4v0f23sbn
p163
aVRT @nytimes: \u201cWe must stand up against white supremacy and hate in all forms." The head of the Republican House campaign arm all but jettis\u2026
p164
aVHe\u2019s on his own planet. Do you think he even noticed? https://t.co/2iHvZKWZk7
p165
aVRT @eugenegu: If Trump nullifies the 14th Amendment to eliminate birthright citizenship, none of our rights in the Constitution are secure.\u2026
p166
aVRT @SusanEn89402285: @ProudResister Sarah Sanders is Trump's mouthpiece! https://t.co/hMgkoocvWV
p167
aVRT @belle_desert: @ProudResister Did you stop by Starbucks? \u000aYou have time to vote. \u000aDid you get your nails done? \u000aYou have time to vote.\u2026
p168
aVRT @EmmaCottNYT: How do you comply with a strict voter ID law on a Native American reservation where the streets have no names? We went to\u2026
p169
aVRT @CNNSitRoom: "The office of consoler-in-chief is vacant right now in America," says Democratic Rep. Eric Swalwell about President Trump.\u2026
p170
aV@Paul Ryan you should be ashamed of yourself supporting Steve King
p171
aVReminder to @SteveKing This nation never belonged to whites in the first place. Supremacists take note. https://t.co/ds3S8FCm9L
p172
aVother corporate supporters of SteveKing, follow land o lakes lead, withdraw donations now, we are watching you. Con\u2026 https://t.co/BuGK7q5otA
p173
aVWhy because his last name is Greenblat? What exactly does mr Trump@think he can do https://t.co/Dk5yLAU1gR
p174
aVRT @CNN: "Call it what it is: a desperate midterm election Hail Mary -- President Donald Trump floating a proposal to eliminate birthright\u2026
p175
aVRT @CNNnewsroom: "Words matter," says former New Orleans Mayor @MitchLandrieu: "If you continue to demonize, dehumanize, individuals based\u2026
p176
aVRT @BuzzFeedNews: Pharell Williams has sent Trump a legal warning to prevent him from playing his "Happy" at his political rallies\u000ahttps://\u2026
p177
aVDon\u2019t you feel used by your dad and father in law https://t.co/1qB0ZLacvj
p178
aVGosh hope President can remember NOT to pump his fists in the air when he deplanes! https://t.co/1qB0ZLacvj
p179
aV@SteveKing Iowans if you return this man to office it is tantamount to be a bigot yourself
p180
aV@steveking you are a pig, you have no place with decent people https://t.co/S4CkWCXBwI
p181
aV@landolakes Say it loud , make it be known you have withdrawn your support of SteveKing Now before Election Day. Io\u2026 https://t.co/jFcYUcuyyK
p182
aVRT @RepSteveStivers: Congressman Steve King\u2019s recent comments, actions, and retweets are completely inappropriate. We must stand up against\u2026
p183
aV@Out Steve King Democrats get thee to the polls https://t.co/yLRGtmzIfU
p184
aVRT @DavidAFrench: Defeat Steve King. https://t.co/9hEVgadbfd
p185
aVRT @pattonoswalt: Yes!!! @Scholten4Iowa is closing the gap! I want Steve King to have a stressful Halloween, a devastating Election Day, a\u2026
p186
aV@beatsteveking only a very small person belittles others in the ugly baseless manner of Steve King, vote Democrat i\u2026 https://t.co/el5WTiq258
p187
aVWould have been an excellent pharoh https://t.co/72EVfRiRH2
p188
aVPres does not appear to genuinely cherish anything why is #Sarah Sanders so willing to puppet his insincerity for h\u2026 https://t.co/zTV9jZOFRs
p189
aVFertile imagination. Stop making things up to be ncite anger and negative thinking https://t.co/0p6BAt5NEj
p190
aVRT @AoDespair: Eleven Jewish Americans are murdered for being Jews in their house of worship and Mike fucking Pence marks the tragedy by ha\u2026
p191
aVRT @HeatherAntos: "LIKE" if you think @jack/@twitter removing the "like" button is a dumb idea. "RETWEET" if you think they should start ba\u2026
p192
aVOh Sen Graham have you seen the fourteenth ammendment lately. Did you not say during Kavanaugh hearings that you kn\u2026 https://t.co/1I3BeiqLoJ
p193
aVWhat does he plan to do about the fourteenth amendment? Whiteout maybe! https://t.co/zqAcvox5eC
p194
aVAnd he\u2019s taking his token family Jews with him, personally I find this insulting, how naive does he thought no we a\u2026 https://t.co/OYiaMKcpNR
p195
aVRT @AndrewGillum: I heard @realDonaldTrump ran home to @FoxNews to lie about me. But as my grandmother told me \u2014 never wrestle with a pig.\u2026
p196
aVRT @adamdavidson: Dear Media, here is the clear truth:\u000a\u000aDonald Trump is explicitly seeking to turn America into a white Ethnostate. \u000a\u000aHe is\u2026
p197
aVIs anyone really surprised? https://t.co/0WkRlJHn9J
p198
aVRT @nytimes: Pittsburgh Mayor William Peduto warned that President Trump would be a distraction from funerals taking place Tuesday https://\u2026
p199
aVThe President is so lacking in appropriate behaviors, he is Blind to the unbearable anguish of those burying their\u2026 https://t.co/OaBSTWBSjA
p200
aVHow very sad . Thank you for trying https://t.co/WebPtU4ZxD
p201
aVThat\u2019s just eloquent and beautiful. I would expect nothing less from Anderson Cooper. https://t.co/yy1aUXpnWX
p202
aVRT @jewishaction: We must remember ALL victims of white supremacist violence.\u000a\u000aVickie Lee Jones. Maurice E. Stallard. They were targeted be\u2026
p203
aVOh please let these people grieve in peace! Stay away, absolutely no place for politics https://t.co/wEeKhodErQ
p204
aVRT @billyeichner: IF YOU\u2019RE 18 OR OVER AND YOU HAVE TIME TO DRESS UP FOR HALLOWEEN, YOU HAVE TIME TO VOTE.
p205
aVAnd if he does, would you actually buy it https://t.co/EWKWACg829
p206
aVWho could possibly want them there https://t.co/R78qUOeM84
p207
aVNever Again ! Just words unless all religions fight to make it so. It can happen to any ethnic or religious group.\u2026 https://t.co/hOvYYd4tXL
p208
aVMr Trump has never demonstrated any ability to feel genuine emotion and sincerity Empty souls are poor leaders. https://t.co/h4eIIzveNa
p209
aVPres is the single most prolific perpetrator of False Info anywhere. https://t.co/Y1Y9PdhjGm
p210
aVWise woman https://t.co/4JiJ8Bgatn
p211
aVTurn off Fox Now!  Think for yourself https://t.co/BDsa128dTW
p212
aV@ChuckGrassley your comments are abhorrent and demonstrate a dark and ugly side https://t.co/KzZD5dxSab
p213
aVBeautiful thoughts https://t.co/Joq5V9LNRI
p214
aVConstantly struck by how much Mr Trumps tweets sound like kids on a playground. Emotionally stuck around 7yrs. Do w\u2026 https://t.co/IyzsG9ZTjp
p215
aV@DanRather Eloquent
p216
aVOregon democrats get out and vote , u will feel serious regret down the road if u don\u2019t act now https://t.co/PvwRp8llIH
p217
aVRT @EdKrassen: A President who can\u2019t figure out how to close an umbrella probably shouldn\u2019t be given nuclear codes.  Just saying....  https\u2026
p218
aVRT @neenprovo: @EdwardGLuce Fox is the greatest threat to our democracy. For millions it\u2019s their only source of \u201cnews\u201d. I agree. Boycott co\u2026
p219
aVRT @putinsclown: @EdwardGLuce Accounts diligent in tracking-promoting Fox sponsor boycotts, corporate and media accountability:\u000a\u000a\U0001f516@consumer\u2026
p220
aVEncourage gyms, bars, waiting rooms, airport lounges and anywhere a tv is available to the public NOT to play Fox n\u2026 https://t.co/yVQRZNvgLZ
p221
aVRT @StockScout1: #Boycott all things @ATT a simple fix. https://t.co/HiJhg39HZh
p222
aVRT @TXHiker: #BoycottFoxNews #Boycott \U0001f447\U0001f3fd Stop the fucking insanity #VoteBlueToSaveAmerica \U0001f1fa\U0001f1f8 https://t.co/XkJw6HISlC
p223
aVBecause the concept comes from self serving hypocrites such as yourself. Politics is a dishonorable profession, do\u2026 https://t.co/RYsyi2lETx
p224
aVRT @TheDailyEdge: Trump is a disgusting, dishonest, corrupt, perverted, misogynistic, sad white nationalist who, after losing one election\u2026
p225
aVRT @InactionNever: The KKK is currently spreading vitriolic fliers at voting locations in black and Jewish communities throughout Georgia.\u2026
p226
aVWill no longer be purchasing anything from Kohl\u2019s. You can buy from retailers who do not support white nationalists\u2026 https://t.co/ktvmDcrStm
p227
aVPlenty of butter out there, will no longer be baking or cooking with yours https://t.co/LiukvpAbvu
p228
aVRT @alejoenlondres: @EdwardGLuce @pattibarfield @foxnews are NOT news! I will NOT buy any of these products as long as they advertise there\u2026
p229
aVRT @puxxled: @EdwardGLuce @DRKaplowitz Not necessary to post a video of you burning your Sleep Number bed. \u000a\u000aTop Brands on @FoxNews (02/201\u2026
p230
aVWill do this. Everyone make a list of Fox advertisers and share any way possible, so boycott will be effective. You\u2026 https://t.co/hNri6Gr5MN
p231
aVFools all! https://t.co/QsLxBGUp84
p232
aVRT @GCRGIZBOR51: Today I lost an important person in my life. My uncle was murdered doing what he loved, praying to G-D. I don\u2019t want to li\u2026
p233
aVRT @EricHolder: Be aware. The \u201cblue wave\u201d is going to hit gerrymandered walls. It is not certain that the wave will reach the shores of jus\u2026
p234
aVRT @JoeNBC: How heartbreaking that Jews have faced hatred and violence for thousands of years. Even 75 years after the Holocaust, alt-right\u2026
p235
aVRT @MuslimIQ: White Supremacists inspired by far right media &amp; politicians have killed:\u000a\u20228 Jews at a Pittsburgh Synagogue\u000a\u20226 Muslims at a Q\u2026
p236
aVWhat do I say to my granddaughters They want to know why some people don\u2019t like them Shall I telll them because the\u2026 https://t.co/QOdULLNcv7
p237
aV@JessicaValenti Deeply saddened, intensely angry, the entire legislature are so lost in political rhetoric and savi\u2026 https://t.co/kdzKMyVbc3
p238
aVMaybe me Trump will be so kind as to Shasta the secret service with those of us who actually pay for it https://t.co/olc0hTfORb
p239
aVAnd his hair! https://t.co/jOHBGkQKm1
p240
aVBet that goes over well at the Kushnerd https://t.co/ZfnnJhvynY
p241
aVRT @kwoodsome: Front page of @washingtonpost right now. The United States would be issuing travel warnings against countries with this kind\u2026
p242
aVPresident insults all of everyday https://t.co/huW3wsDhtZ
p243
aVImplore psychiatric community to speak up, you must see it too. Come together and call For removal of a dysfunction\u2026 https://t.co/Gqnj3wHIMO
p244
aVHe reaps what he sows https://t.co/mlAAiouWtp
p245
aV@JohnBrennan To John Brennan : beautifully articulate, thank you
p246
aV@realDonaldTrump Fifth grader? That is generous! Hey
p247
aV@realDonaldTrump Plz stop whining....I\u2019ve heard less whining at a kids bday party
p248
aV@realDonaldTrump #bombstuff ru kidding me bomb stuff! Could prez be anymore insensitive? Of course he can ...just wait an hour
p249
aV@don\u2019t believe it for a second https://t.co/QYUpRACTpA
p250
aV@maddiecarlisle2 @fivefifths Voter suppression is also voter fraud.
p251
aVApalled by those seated behind mr Trump at rally....they continue to feed his ego and seperate him further from rea\u2026 https://t.co/21IA8sPeGb
p252
aV@ outrageous, a master of self deception, all the hostility is initiated by and condoned by our white house https://t.co/YST5F6KwAq
p253
aV@donlemon people who can\u2019t help themselves, have impulse control problems, inability to self censor, frontal lobe p\u2026 https://t.co/BgdFPzf0qv
p254
aVRT @FooteSteppes: Never ever ever forget that 217 House Republicans voted to gut protections for preexisting conditions, then held a gleefu\u2026
p255
aV@proud resister: couldn\u2019t agree more ...to those of u with yourhead in the sand, by the time u come for air it will\u2026 https://t.co/mVsLGxUuYk
p256
aVAre u kidding! https://t.co/OGMsnHl4jf
p257
aV@annechoy @CNN #support anti nepotism legislation
p258
aV@CNN Nobody values what u say....ur just a daughter with an obsessed dad when it comes to u ...suggest going back t\u2026 https://t.co/nrcB1Q8saV
p259
aV# all psychiatrists begging please expose the president for the ill person he is, he\u2019s killing us all with hate, ly\u2026 https://t.co/zX1bRy2Ma1
p260
aVThen how can he stand behind the Pres and support policies so very contrary to treating people with grace and kindn\u2026 https://t.co/4JWUZblm6Z
p261
aV@ wow just wow , he IS the one who replaced Janet Yellin. https://t.co/YxqIOTDXyQ
p262
aVGuys not exactly a looker https://t.co/cB5RYnvsRF
p263
aVAgreed. Peak crazy people supporting it https://t.co/hlsCuYvRos
p264
aVRT @USATODAY: In a new poll commissioned by The Washington Post and ABC News, a majority of Americans don't approve of Kavanaugh and would\u2026
p265
aVNo wonder we have a deficit. Really, pay your taxes. Americans with less should not shoulder the burden for  the gr\u2026 https://t.co/X09wWNvf4Y
p266
aVRT @chelseahandler: The Republican Party is willing to win by allowing Russia\u2019s interference and voter suppression. If you are voting Repub\u2026
p267
aVWait a minute does Flotus actually think what she does as First Lady is important. Let\u2019s see a list https://t.co/oPMwonXawG
p268
aVReally what did you expect her to say? Admit that she\u2019s furious or possibly humiliated . https://t.co/HtAREyTVdm
p269
aVRT @_SJPeace_: Her body language is telling the entire story. \u000a\u000aRETWEET IF YOU SEE WHAT I SEE? https://t.co/8A8lSqQMPB
p270
aV@electionland It is everyone\u2019s responsibility that not one American loses their right to vote through malicious man\u2026 https://t.co/y0WRHf4fSW
p271
aV@realDonaldTrump Have you seen this? People Do Not \u201chave everything they want\u201d Hunger in your country, move it, mov\u2026 https://t.co/xU88KcsYRC
p272
aVProbably will tell him he loves him too https://t.co/cv6RsrrdQa
p273
aVCould not agree more. Have donated to Susan Collins opponent and I too do not live in that state https://t.co/OhuxJsU9h6
p274
aVEveryday I am more and more saddened by the disgraceful actions of this administration. They are so huh in , so nar\u2026 https://t.co/YFWyHXrk32
p275
aVRT @GavinNewsom: Hey @realDonaldTrump, California has a message for you:\u000a\u000aWe're not backing down. We will fight for healthcare as a human r\u2026
p276
aVBeen in other countries lately? Have a chat with the locals, that\u2019s seriously embarrassing, how did we hereTrump su\u2026 https://t.co/QSn9NUgfDq
p277
aVRT @CNNTonight: Former spy-chief James Clappers calls President Trump\u2019s response to the suspicious disappearance of a Saudi journalist a \u201cc\u2026
p278
aVRT @CuomoPrimeTime: "This President needs his ego stoked every single day."\u000a\u000aCNN commentator @ninaturner slams President Trump for "having\u2026
p279
aVLack of ability to empathize is characteristic of both sociopaths and those on the spectrum. https://t.co/w9S7iwjGT3
p280
aVRT @JRubinBlogger: I\u2019m with Max. The GOP is losing those who once had hope for it but now recognize the GOP is hopelessly corrupt. Smaller\u2026
p281
aVis there any group President will not pander to for a vote https://t.co/Arx6wBekRe
p282
aVOne could say you really need to think about what it is really like to be bullied. Children who are bullied are oft\u2026 https://t.co/hjVYMurUQZ
p283
aVRave reviews? NOT a Broadway show! Everything people could want is their homes, belongings, businesses, schools. Af\u2026 https://t.co/kn5q1Vurmd
p284
aVOh dear, would a designer Binkie  and blankie help ? https://t.co/QVLKOLHhWP
p285
aVThank you https://t.co/tf8KWA3MnH
p286
aVAppalled at this latest attempt to belittle native Americans. Frankly they may be the MOST entitled to vote https://t.co/CcxiqUXXb2
p287
aVWow Can anyone say conflict of interest!  How is it that one person alone is allowed to make such an arbitrary rule\u2026 https://t.co/QaWvw3QiHl
p288
aVRT @bessbell: I don't mean to sound dramatic but please vote or our children will die in an apocalyptic wasteland plagued by famine and med\u2026
p289
aVFrankly what we need all over Washington is to replace all the babies with grown ups. All of you sound like two yea\u2026 https://t.co/KpPWAXHbXA
p290
aVWell Surpise an outrage from the Supreme Court already.\u000aAmerican citizens deserve to have their freedoms protected. https://t.co/QuSRlajkqf
p291
aVIf he\u2019s all that and so much, why is the White House\u000aAlways keeping him in the background https://t.co/gLdfUvroXG
p292
aVDoes anyone think Mr. Trump would actually sit down to lunch with any black man that is not famous and wealthy? https://t.co/lKKeyqCOC5
p293
aVAre u kidding me! Don\u2019t recall asking Trump to speak on my behalf How unbelievably presumptuous. Kavas pain and suf\u2026 https://t.co/kHh7HCNW7v
p294
aVBrilliant https://t.co/Z9qY7K0Y9V
p295
aVRT @AmyBrenneman: 8 Democrats in Senate races who could use any Kavanaugh rage dollars you are looking to spend.\u000aJoe Donnelly, Indiana\u000aHeid\u2026
p296
aVRT @cprandoni_: donald trump was accused of sexual assault and became president of the united states \u000a\u000abrett kavanagh was accused of sexual\u2026
p297
aVTake heart she looks ridiculous possibly it\u2019s a remake of Out of Africa!!!!???? https://t.co/wWUD0Spte7
p298
aVthese four people are excesing their first ammendment rights, shame on the phoenix police https://t.co/gA1ylkqpge
p299
aVmore people need to know about this, if you reading the the tweet regarding tomorrow...Pass it on, Be there, Be Hea\u2026 https://t.co/JDHGFX6jzL
p300
aVHeck yeah!!!!! https://t.co/22kZSisX1M
p301
aVRT @womensmarch: Dozens of women &amp; survivors arrested outside @JeffFlake\u2019s office following his support of Kavanaugh.\u000a\u000aIf Flake votes to co\u2026
p302
aVexciting to see a new generation of young men standing with women, agrfeat future awaits those who work together. V\u2026 https://t.co/AZPK7UTUmT
p303
aV@senator flake,@senator collins,#senator manchin\u000aCongratulations to the ABA, make it happen, you have the power of\u2026 https://t.co/Cr83NeOmdo
p304
aV#me too...ME too!!!!!!!! This will be your last hurrah in politics, women have a huge voting presence https://t.co/wtndAY3VJi
p305
aV@SenatorCollins please say you had lunch wi5th this despicable man to tell him you stand with women against a possi\u2026 https://t.co/K8F2mD5aEr
p306
aVRT @JRubinBlogger: Her female colleagues recognized a higher bar: the dignity of women and the legitimacy of the courts. The vote will defi\u2026
p307
aVRT @AdyBarkan: At 3pm, @SenatorCollins will announce her vote in a speech on the Senate floor.\u000a\u000aLet\u2019s make clear to her that if she votes y\u2026
p308
aV@SenatorCollins This afternoon will be your moment, make it count Vote NO tomorrow, you will survive, women are sur\u2026 https://t.co/9psKZndSFE
p309
aVAgreed I want to believe Senator Collins will show the same https://t.co/HAH4JI5QxO
p310
aV@jeffflake Big!! What could possibly be bigger than traumatized women baring their souls, bigger than all  the unce\u2026 https://t.co/T9C9AsLtyB
p311
aV@senatorlisamurkowski please spend every moment left\u000ato ensure Senator Collins votes as you have, thank you
p312
aV@JeffFlake #jeffflake Shame on you. You lead us to believe you have a soul.  Women will never vote for you again ,\u2026 https://t.co/24OcmqseoW
p313
aV@senatormanchin@usatoday You have just manage to seriously alienate the tenacious and strong women in this country,\u2026 https://t.co/Ab9MSMMBfn
p314
aV@JeffFlake if your aspirations r higher than your current office, don\u2019t alienate the women of this country. We are\u2026 https://t.co/CQyQgM2Lya
p315
aVRT @EdKrassen: So now Trump not only is blaming women for trying to upend his Supreme Court nominee, but now he's officially blaming Jewish\u2026
p316
aV@ Georgesoros@realdonaldtrump\u000aanyone surprised Pres. blaming Jews now!  Has a huge list not worthy of being in his\u2026 https://t.co/GkmQTDMjt3
p317
aV#senatormanchin only hope u r trying to\u000ato end this mess by moving to a vote, and you will actually vote NO tomorro\u2026 https://t.co/WxzzsK0qIT
p318
aVMr. Trump you are so out of touch. \u201cProfessional signs\u201d \u201ccan be made at Staples  etc. in minutes. Have you ever bee\u2026 https://t.co/BvKyR0dEhL
p319
aVAnd yet Sen. Sasse is supporting Mr Kavanaugh....hypocrites all of you https://t.co/6YfQagWHxC
p320
aV#KavanaughCoverUp  two year olds do this after they have a tantrum too...do you kick and scream in the supermarket\u2026 https://t.co/B3rrkf9M9V
p321
aV#KavanaughHearings A FEW? https://t.co/UvYmyLYrAx
p322
aV##Grassley  those in the armed forces serve their country...you and Kavanaugh are just plain self serving, he s bei\u2026 https://t.co/megUrXOb3p
p323
aVFor the first time she looks genuinely happy, no fan of her spouse but I\u2019m pleased for her I just know she suffers\u2026 https://t.co/NZoJdOv7Et
p324
aVRT @FastCompany: \u201cIt wasn't Jeff Bezos reaching into the depths of his heart and being like, \u2018I should pay my workers more.\u2019 It was like, \u2018\u2026
p325
aV#OrrinHatch ur the epitome of a dirty old man
p326
aVHe let his own cat out of the bag,just another example of his lack of self control and lack of self censorship, rec\u2026 https://t.co/M5xjobnFfv
p327
aVRT @sjcloobeck: Great read from my friend @AlyssaMilano. \u000a\u000aWe can't let bullies like Trump and Kavanaugh be the face of our country - so GO\u2026
p328
aVWell, that\u2019s an astute observation. https://t.co/Hm2GRYaNhJ
p329
aVRT @CNNTonight: Democratic Sen. @CoryBooker tells @DonLemon that Supreme Court nominee Brett Kavanaugh "surrendered all of aspects of impar\u2026
p330
aVOh yes! https://t.co/1V3J1zuvI2
p331
aVRT @CWAUnion: We're heading to SCOTUS to make our rejection of Kavanaugh's nomination known! Brett Kavanaugh is a threat to organized labor\u2026
p332
aV#JeffFlake #SusanCollins #LisaMurkowski #stevemanuchin https://t.co/UOGj2354xi
p333
aVRT @debbie_dease: @CNNPolitics @CNN Did it for Trump and obviously is really how he feels. Not fit for a Judge.
p334
aVRT @brittany_artus: @CNNPolitics Outbursts under questioning I could possibly excuse, but he was belligerent right out of the gate and espo\u2026
p335
aVRT @OnTheCaseMan: @CNNPolitics EXCELLENT POINT: That 45 minute temper tantrum #Kavanaugh threw to start his testimony wasn't off-the-cuff.\u2026
p336
aVRT @jeffgoldesq: @CNNPolitics And unlike what he said which was that he was a father and a husband yeah but he was a candidate for Supreme\u2026
p337
aVRT @CNNPolitics: Sen. Richard Blumenthal on Brett Kavanaugh's op-ed defending his emotions during his testimony: "This op-ed in no way remo\u2026
p338
aVRT @ABC: "I am angry on behalf of women who have been told to sit down and shut up."\u000a\u000aSen. Elizabeth Warren joins anti-Kavanaugh protesters\u2026
p339
aVRT @ACLU: To the senators who want to plow through this nomination process even after hearing Dr. Ford's testimony and regardless of what t\u2026
p340
aVEventually u will all be out...how will survive...do you even know who are.....what happens when you are revealed,l\u2026 https://t.co/Tld98QgsP8
p341
aVRT @ACLU: \U0001f4e3 Women\u2019s voices must be heard. #StopKavanaugh https://t.co/PfoZd50Ydo
p342
aVRT @everywhereist: The fate of America has once again come down to citizens calling their Senators and begging them to acknowledge their hu\u2026
p343
aVRT @NBCTheVoice: #BlakeShelton is ROYALTY. \U0001f934\u000a\u000aRETWEET to vote him #TheCountryArtist at the #PCAs! \U0001f3b6 https://t.co/tdQQ0yBQCI
p344
aVWhat an incredibly demeaning and sad term https://t.co/jCK8zq9JRw
p345
aVIf you\u2019re thinking yes, note, Justice Stevens has the courage knowledge and insight to change his mind.\u000aFollow his\u2026 https://t.co/0LpH7qgUmP
p346
aVRT @USATODAY: It's rare for a retired justice to weigh in on a pending nomination.  https://t.co/JHliFDeDts
p347
aVRT @TODAYshow: \u201cThere\u2019s no time and no place for remarks like that. But to discuss something this sensitive at a political rally is just no\u2026
p348
aV#senatorflake look to your own quote https://t.co/kMnzL3z63Z
p349
aV#senatormanchin if u can\u2019t make up your mind, look to your heart.....there are better opportunities for u then the\u2026 https://t.co/SbhWbkf8Cq
p350
aVRT @ABC: "We all know that the president cannot lead us through this time."\u000a\u000aGOP Sen. Ben Sasse gives passionate speech about "important #M\u2026
p351
aVRT @luvsoaej: #jeffflake#susancollins#lisamurkowski, this should leave u in serious doubt that the FBI did their job without bias\u000aAnd a Whi\u2026
p352
aVThis is outstanding! https://t.co/q5yg5G0wcC
p353
aVRT @ilyamerica: \u201cSenators, years from now you\u2019re going to be asked if you were at the party. And guess what? This is the party.\u201d\u000a\u000acc: @Sena\u2026
p354
aVRT @emilynussbaum: I hate that everybody is offering up their most painful memories to help stop this and it\u2019s not going to stop this.
p355
aVRT @JuddApatow: The whole family should be in jail.  For real.  You would be in jail if you did this.  People go to jail for shoplifting.\u2026
p356
aVWell that\u2019s a shame! https://t.co/ce9GkLl9ii
p357
aVRT @ABC: NEW: Sen. Chuck Schumer: "To say that this investigation exonerates Judge Kavanaugh, or to say that this is a complete investigati\u2026
p358
aVRT @LEBassett: FBI: Can anyone corroborate these allegations? \u000a**50 hands go up**\u000aFBI: No? No one?
p359
aVRT @SoulStealer25: Dear Mr President\U0001f595\U0001f3fc\u000a\u000aI completed 4 tours\u000a\u000a2 in Iraq \U0001f1ee\U0001f1f6 \u000a2 in Afghanistan \U0001f1e6\U0001f1eb \u000a\u000aIt\u2019s mother fuckers like you that make it\u2026
p360
aV#jeffflake#susancollins#lisamurkowski, this should leave u in serious doubt that the FBI did their job without bias\u2026 https://t.co/zpLsbs7obz
p361
aV#jeffflake#lisamurkowsi#susancollins have u seen this,\u000aIt should be a giant red flag to u....this is a man who serv\u2026 https://t.co/t2J8bvJAkO
p362
aVDon,t quit on us, it\u2019s not over until the White,old,\u000aEntitled SOBs sing https://t.co/ZrJdXv2rRo
p363
aVRT @USATODAY: Three Republican senators are still undecided as of Thursday afternoon.   https://t.co/g7cmdnW4cv
p364
aVTo all 3 undecided, if you are still struggling, it\u2019s your\u000aSoul vs re-election. Go with your soul...u r bright, tal\u2026 https://t.co/LZLn92UBnW
p365
aVRT @ezraklein: "Choosing to rape isn\u2019t normal. Assault is not an inherent quality of being a man. It is vital that we identify this behavio\u2026
p366
aVRT @CNN: Sen. Heidi Heitkamp of North Dakota -- a red state Democrat who had been an undecided vote -- announced Thursday that she will opp\u2026
p367
aV#jeffFlake#lisamurkowski#susancollins Follow SenatorHeitkamp to a no vote your soul will thank you and ultimately y\u2026 https://t.co/HLDuC81QYX
p368
aVAs it should be, all of the self seeking, entitled senators more concerned with reelection than country have indeed\u2026 https://t.co/aTiocQkV78
p369
aV#senatorheitkampThank you for your integrity,for looking inside yourself and making a decision you CAN live with.\u000aF\u2026 https://t.co/CmpxrQ13V9
p370
aVRT @seungminkim: Yowza -- Senate Dems say in new letter that there is information in Kavanaugh's past FBI background checks that involve ei\u2026
p371
aV#lisamurkowsi#jeffflake#susancollins I have3grandaughters old enuf to ask questions.\u000aWhat do u want me to tell them\u2026 https://t.co/OGJwDSe4pV
p372
aVRT @carolinesimon66: .@AnaMariaArchil2, who confronted @JeffFlake in the elevator last week, on stage. \u201cWe have an opportunity right now, i\u2026
p373
aV#jeffflake#susancollins#murkowski,\u000aCan we really swear in a liar, can we really let this man\u000aIssue as well. as take\u2026 https://t.co/mh1RX3XZHr
p374
aV#Senator Murkowski Don,t let this travesty happen. you will have to live with yourself, can you really? Pleeez.\u000aHow\u2026 https://t.co/4QNEauw5sZ
p375
aV#SenatorCollins U MUST stop the confirmation.\u000aVote NO. If u vote yes, u will have to live with yourself , can\u000ayou really
p376
aVRT @luvsoaej: @nytimes #JeffFlake you will have to live with yourself, can you really?
p377
aVHe could care less about you Tom https://t.co/MfNPURupT7
p378
aVAmy this man will stomp on your ovaries, u should wipe that smile off your face https://t.co/KUqTcSB00g
p379
aV@ABC Oh so disappointed in the F B I....Trump is a steamroller
p380
aVRT @ABC: Sen. Dianne Feinstein on FBI report about sexual misconduct allegations against Brett Kavanaugh:"The most notable part of this rep\u2026
p381
aV@nytimes #JeffFlake you will have to live with yourself, can you really?
p382
aVPlease find a way. We MUST stop this vote! If you believe in our democracy, don\u2019t let this happen https://t.co/Ek5yeagS6T
p383
aVYour turn to be squashed WILL come.Your\u000aPomposity and lack of respect for women is abhorrent.\u000aWhat goes around come\u2026 https://t.co/YJbBDfY0OR
p384
aVWe MUST stop this vote, all Americans should be horrified,\u000aAnother manipulation by the White House,  all Americans\u2026 https://t.co/VaZ0FCFN4E
p385
aVRT @JuddLegum: An investigation where you don\u2019t talk to the alleged perpetrator or victim(s) is not a real investigation.\u000a\u000aIt\u2019s a sham.
p386
aVNo surprise the First Lady has left the country, wow how embarrassing to be married to this mean spirited man https://t.co/3jEvr1f9HB
p387
aVIs it no wonder flouts has left the country https://t.co/loDERtGSBm
p388
aVRT @martymonaghan27: @DonaldJTrumpJr @CNN @JeffreyToobin \u201c sons \u201c jr wasn\u2019t to worried about his kids when he was out cheating on his wife\u2026
p389
aVRT @LouiseSchul1009: @DonaldJTrumpJr @CNN @JeffreyToobin What about Central Park Five u ignorant little  mushroom- your father ruined their\u2026
p390
aVRT @Disgusted_Indie: @DonaldJTrumpJr @CNN @JeffreyToobin I worry about your sons for a different reason.  You, like your father, are an ent\u2026
p391
aVRT @PortiaMcGonagal: @DonaldJTrumpJr @CNN @JeffreyToobin You could start by teaching those sons about consent and they won't have anything\u2026
p392
aVRT @AntonioDrumsX: @DonaldJTrumpJr @CNN @JeffreyToobin Well, you are a douchebag and a tool. Sorry.
p393
aVRT @toddcnyc: @DonaldJTrumpJr @HenryHigginsJr @CNN @JeffreyToobin Shhhh... relax Donnie... and let the adults speak for a while ...OK bud?
p394
aVRT @darylblanksma: @DonaldJTrumpJr @CNN @JeffreyToobin Ask your dad about the Central Park Five, or better yet, check out his full page ad\u2026
p395
aVRT @AngeloStAngelo: @DonaldJTrumpJr @CNN @JeffreyToobin Donald Trump Jr. is more concerned about being a great son to his misogynistic &amp; co\u2026
p396
aVRT @lisalvsu2: @DonaldJTrumpJr @CNN @JeffreyToobin Teach ur boys women are equal to men and that men are not allowed to touch women w/o per\u2026
p397
aVRT @hencough: @DonaldJTrumpJr @CNN @JeffreyToobin Talk to your dad about the central park 5, you expired bottle of hair gel.
p398
aVRT @sueincc: @DonaldJTrumpJr @CNN @JeffreyToobin BWAHAHAHAHA! Poor lil nasty, entitled creep, donnie, can't understand why it's not OK to s\u2026
p399
aVRT @Heckbound: @DonaldJTrumpJr @CNN @JeffreyToobin #CentralPark5\u000aInnocent until proven guilty.\u000aKavanaugh is not being criminally prosecuted\u2026
p400
aVRT @DCNicholson: @DonaldJTrumpJr @CNN @JeffreyToobin Did you worry when your dad called for the death penalty of the central park 5 who are\u2026
p401
aVdoes this surprise anyone? https://t.co/H07OKpy1Hb
p402
aV@CNN Sen Graham , have u had a ct scan lately,  only possible explanation for your convoluted thinking, distortion of the brain matter
p403
aVRT @JesseLehrich: KAVANAUGH: "I have the well unanimous, well-qualified rating from the ABA"\u000a\u000a \u279e ABA: Delay the vote for an FBI investigati\u2026
p404
aVRT @kenolin1: Brett - this might be a good time to bow out, \u201cfor the sake of your family.\u201d
p405
aVRT @Susan_Hennessey: An FBI investigation is fine and may help develop a factual record. But we don\u2019t need any kind of investigation to kno\u2026
p406
aVRT @DanRather: It\u2019s amazing how many of the process arguments Republican senators are making can be countered with just two words: Merrick\u2026
p407
aVwho gets a lifetime appt. to their job.. we need limits, term limits...\u000asenators not always looking to be reelected\u2026 https://t.co/enWC0IV792
p408
aVRT @Alyssa_Milano: I will say this...if a woman were to yell, interrupt and cry while being questioned, people would call her unhinged or s\u2026
p409
aVCharlie Baker is an honorable man...follow his lead https://t.co/a8GOVer8PV
p410
aVRT @MichaelSkolnik: 9AM Friday To Do:\u000a\u000aCall:\u000a\u000aLisa Murkowski 202-224-6665\u000aSusan Collins: 202-224-2523\u000aBob Corker: 202-224-3344\u000aJeff Flake:\u2026
p411
aVthese phone lines are open for messages....i called.....have you.......not to late to to short circuit this debacle https://t.co/xOP4hSliKj
p412
aVRT @jonlovett: If this is an orchestrated political hit, revenge on behalf of the Clintons, why did none of this happen to Neil Gorsuch?
p413
aVRT @JMillzDC: To be clear about what happened today: Republicans had NO PROBLEM using a prosecutor to put a victim of sexual assault on tri\u2026
p414
aVwell, no surprise there.....the system so broken https://t.co/Zte76wVELR
p415
aVRT @ABC: Asked how she could be sure Brett Kavanaugh was her alleged attacker, Dr. Christine Blasey Ford tells Sen. Feinstein, "The same wa\u2026
p416
aVHypocrisy is a hot commodity in Washington. Most of us do not have your ill gotten power, but we do have our integr\u2026 https://t.co/NBACGvZaKj
p417
aVRT @EllenBarkin: I have seen men cry like kavanaugh, the one who cried at my feet after smashing my face thru a glass coffee table, the one\u2026
p418
aVSenators,  you look foolish. Believing in your nominee means u should have "no worries" regarding taking a little m\u2026 https://t.co/6VwHfu0K4w
p419
aVWhy are u hiding Mark Judge?  One can only assume udon't want to share whst u know to be true. Do the right thing. https://t.co/5qRxejHwvv
p420
aVRT @AnaCabrera: A Yale classmate of Kavanaugh\u2019s, Lynne Brookes, just told @ChrisCuomo that Kavanaugh was \u201cblatantly lying\u201d about his drinki\u2026
p421
aVRT @KamalaHarris: Sign our petition opposing Brett Kavanaugh\u2019s nomination to the Supreme Court of the United States.
p422
aVthis is it in a nutshell isn't it https://t.co/iwGksKkSdM
p423
aVRT @ezraklein: The most crazymaking thing about this hearing:\u000a\u000aEvery Republican agrees Ford very likely was assaulted, but is misrememberin\u2026
p424
aVRT @eugenegu: Lindsey Graham is the epitome of everything wrong with the Republican party. He refuses to support an FBI investigation yet c\u2026
p425
aVRT @DougJones: I have called for:\u000a\u2014Complete disclosure of all documents\u000a\u2014Subpoena Mark Judge\u000a\u2014Postpone the vote\u000aDr. Ford was credible &amp; cou\u2026
p426
aVRT @IdahoIndependen: @mog7546 #WillieNelson has awesome choice in who he supports! I stand with Willie and Beto!
p427
aVRT @bryanboyne: @TinaMorphis @RawStory @GOP @WillieNelson These so called conservative 'fans' that are so outraged apparently have not been\u2026
p428
aVRT @Isomco: @johnson_ringo @the_silverfox1 @WillieNelson VOTE BETO! As @realDonaldTrump said \u201cWhy would anyone vote for lying Ted Cruz?\u201d
p429
aVRT @PaulBegala: .@WillieNelson, the most beloved man in Texas, takes on @tedcruz, umm, well, not the most beloved.  Where I come from, we h\u2026
p430
aVRT @JRittereiser: I dare you to find a cooler political photo than this. I\u2019m a @BetoORourke and @WillieNelson fan, and I join 97% of Americ\u2026
p431
aVRT @KentJeffreys: Mama, don\u2019t let your babies grow up to be Cruz voters. \u000a\u000a#WillieNelson https://t.co/mYDKmEBknf
p432
aVRT @WesSmith123: As #TedCruz crawls on his hands &amp; knees begging for help from the guy he once called a Sniveling Coward.\u000a\u000aBeto O\u2019Rourke ge\u2026
p433
aVRT @JeffreyGrrr: @WillieNelson Good for you man! I admire you standing up for what you believe is right, regardless of what your fans/criti\u2026
p434
aVTrump a petty little man. How very very shallow. I didn\u2019t think anything could surpass his arrogance and pomposity,\u2026 https://t.co/D0vOSRfGAY
p435
aVDeflection will not work. Use your Executive Function ( look it up), not uncensored executive power. https://t.co/jW69WOU9Cj
p436
aVRT @DanRather: To GOP officials who are speaking out about today's "Farce in Finland" - unless you start putting your votes and subpoena po\u2026
p437
aVRT @USATODAY: In case President Trump needs reminding, Republican lawmakers let loose on Monday with a refresher: Russia is not our friend.\u2026
p438
aVRT @DanRather: The President of the United States trusts the word of a former KGB agent over the consensus of the American intelligence com\u2026
p439
aVRT @nytopinion: Even in a presidency replete with disgraceful moments, Trump\u2019s comments on Monday stand out. https://t.co/hivx9ILc0S
p440
aVRT @TODAYshow: \u201cMany allies in agreement that by aligning himself with Vladimir Putin over his own intelligence agencies, President Trump a\u2026
p441
aVRT @CNN: "This was the day an American president stood on foreign soil next to a murderous lying thug and refused to back his own country.\u2026
p442
aVSo many words, how about backing them up with some action ? https://t.co/zP1COF6T72
p443
aVHuge betrayal of oath of office ! https://t.co/rjZRs7PNnW
p444
aVEvery American citizen should be horrified https://t.co/Xggmw0gGfQ
p445
aVIs anyone really surprised? Get your heads out of the sand people https://t.co/OjHJS2PkPi
p446
aVRT @AdamSchiffCA: Russia attacked the heart of our democracy: our elections. Yet President Trump accepts Putin\u2019s denials. That's a betrayal\u2026
p447
aVRT @Tim_Canova: Amazon CEO Jeff Bezos is the richest man in the world, and yet Amazon workers are grossly underpaid while working in harsh\u2026
p448
aVNo https://t.co/XXBNrMZWs8
p449
aVHow many terrible mistakes is he allowed to apologize for and who thinks there is any sincerity behind them! https://t.co/dlklGr6qIs
p450
aVPlz all Congress persons, todays actions by Trump are a slap in the face to the oath of office, stand up for democr\u2026 https://t.co/FkqIwoWdFz
p451
aVDon\u2019t aspire to be a women who stays with a man with no respect for women , just so you can have beautiful clothes! https://t.co/A8Y08xYGJk
p452
aVPresident needs to review the oath of office.....you too congress https://t.co/rV0UEuOzou
p453
aVRT @JoeBiden: Our president had the chance to confront an adversary who continues to attack our democracy &amp; our allies. He didn\u2019t. Instead\u2026
p454
aVDoes anyone think he knows what he said about protecting and defending all enemy\u2019s foreign....when taking the oath,\u2026 https://t.co/162MXg8v5j
p455
aVRT @observingsarah: #VoiceSaveBritton\u000aFirst Tweet since 2011!  That speaks volumes!  Britton is the one!!! https://t.co/YVosgTslMK
p456
aVRT @EdwardSGParham: It\u2019s gotta be #voicesavebritton https://t.co/M9jMydQTaA
p457
aVRT @youngblood_134: #VoiceSaveBritton come one ppl save this angel https://t.co/bRJutgY18A
p458
aVRT @KatilynMiller: #VoiceSaveBritton @BrittonBuchanan LIKE EVERYONE LOOK AT THIS SMILE\U0001f60d\U0001f62d HELP HIM PLEASE!!! https://t.co/9gUWj8yG6g
p459
aVRT @iamfeliciakirby: Great performer, Retweet #VoiceSaveBritton https://t.co/OJek3obzmy
p460
aVRT @sharoncole571: #VoiceSaveBritton\u000aWhat an amazing job Britton. Save Britton America he's incredible.
p461
aVRT @HillJennied0311: Never imagined Britton would be in the bottom. RT to save!! #VoiceSaveBritton
p462
aVRT @sabrina_leanne: #VoiceSaveBritton PLEASE GET HIM INTO THE FINAL. RETWEET RETWEET\U0001f602 https://t.co/m8nb7iOF5y
p463
aVRT @SBradleyRealtor: 17 and full of talent! #VoiceSaveBritton https://t.co/nhJWlvM9Df
p464
aVRT @aliciakeys: RT to save my boy @BrittonBuchanan!! We only have 5 mins to get as many RTs as we can, let's gooo!! \U0001f3a4\U0001f3a4 #VoiceSaveBritton
p465
aVRT @BrittonBuchanan: RT to #VoiceSaveBritton
p466
aVRT @NBCTheVoice: Retweet to #VoiceSaveBritton https://t.co/aS7tLQEL5K
p467
aVRT @USATODAY: Dick's Sporting Goods is set to ban sales of assault weapons after the #ParklandShooting. https://t.co/Sy58yEHRTW
p468
aVRT @NBCNews: NEW: DICK's Sporting Goods says they will no longer sell assault-style rifles or high-capacity magazines and will not sell fir\u2026
p469
aVRT @marty_walsh: Boston's heart breaks as we support Florida during this horrific time. My thoughts and prayers are with each and every per\u2026
p470
aVRT @GavinNewsom: Our children are dying and we're doing nothing to stop it. I'm running out of words to describe my anger, frustration, and\u2026
p471
aVRT @denise76300: @impeachreplace @markberman @IH8Traitors What\u2019s scary is he doesn\u2019t even know how inappropriate this is.
p472
aVRT @Michell45129550: @impeachreplace @markberman @IH8Traitors You nailed it!!! I will add despicable, inhumane, deplorable, ignorant, disgu\u2026
p473
aVRT @impeachreplace: @markberman @IH8Traitors What a vile excuse for a human being...he is totally empty inside
p474
aVRT @JudLounsbury: Trump just appointed this unqualified person to run the Great Lakes region for the EPA-- 85% of America's fresh water sup\u2026
p475
aVRT @CNN: "The President says he is not going to see a dime from the tax bill he is about to sign. That might be true, but only if he keeps\u2026
p476
aVRT @nytimes: With the Children\u2019s Health Insurance Program running out of money, parents are begging Congress: "Do the right thing" https://\u2026
p477
aV@ABC Hey Congress... does your new tax plan keep cold Americans warm....you\u2019re all to self involved.....so disappoi\u2026 https://t.co/yOkfvgBpBl
p478
aV@ABC Check this out potus... this is a good person.....u could stand to learn from her
p479
aVRT @TAB2RD: @ABC Bless her!
p480
aVRT @SallyRMc: @ABC This is the America I know. Thank you good, kind, lady!
p481
aVRT @OhanaPT: @Rorymon @edveritas @ABC I\u2019m glad she did, because otherwise I\u2019d not have seen this. This is the antidote to the endless stori\u2026
p482
aVRT @NBCTheVoice: .@ChloeKohanski picks the perfect song for her unique voice. She\u2019s taking the stage one last time to perform \u201cBette Davis\u2026
p483
aVRT @NBCTheVoice: After perfecting many country classics, @redmarlow is ready to give us one of his own with his original song, \u201cI Pray.\u201d Y\u2019\u2026
p484
aVRT @NBCTheVoice: Bring on the rain if that\u2019s what it sounds like. RETWEET if you\u2019re sending @AddisonAgen your votes because you think she\u2019s\u2026
p485
aVRT @NBCTheVoice: RT if you love when the country king takes The Voice stage. \U0001f60d #VoiceFinale https://t.co/ZViD6Mwn4q
p486
aVRT @NBCTheVoice: RT if you\u2019re voting for @ChloeKohanski tonight because she continues to prove that she\u2019s in it to win it. #VoiceFinale htt\u2026
p487
aVRT @NBCTheVoice: .@AddisonAgen reminds us of what\u2019s important in life in her stunning performance of @TheTimMcgraw\u2019s \u201cHumble and Kind.\u201d #Vo\u2026
p488
aVRT @NBCTheVoice: .@ChloeKohanski delivers an emotional performance and proves she\u2019s a true icon in her new original song \u201cWish I Didn\u2019t Lov\u2026
p489
aVRT @NBCTheVoice: .@AddisonAgen chooses to go a little country this week by bringing her own personal touch to a @TheTimMcGraw classic, \u201cHum\u2026
p490
aVRT @NBCTheVoice: .@ChloeKohanski is taking to stage to perform the first original song of the night. We have a feeling \u201cWish I Didn\u2019t Love\u2026
p491
aVRT @NBCTheVoice: If you weren\u2019t heartbroken before that song, you probably are now and we are ABOUT IT. \U0001f60d RETWEET if you\u2019re sending @ChloeK\u2026
p492
aVRT @SandyRollTide14: @NBCTheVoice when @ChloeKohanski sings she sounds like she\u2019s telling a story-it\u2019s so haunting &amp; dramatic I get goosebu\u2026
p493
aVRT @blakeshelton: Alright y\u2019all.. get to votin for @chloekohanski!! #TeamBlake #VoiceFinale  @NBCTheVoice\u000a\u000aVote at https://t.co/qT72PSIzhV\u2026
p494
aVRT @NBCTheVoice: Get your hearts prepared for @AddisonAgen and @adamlevine\u2019s duet of \u201cFalling Slowly\u201d by @Glen_Hansard and @MarketaIrglova.\u2026
p495
aVRT @ashley_mercuri: @redmarlow song \u201cI Pray\u201d could be on country radio tomorrow, what a great song. Well done, man! @blakeshelton #thevoice\u2026
p496
aVRT @NBCTheVoice: Does it get any better than seeing @ChloeKohanski and @blakeshelton perform together? Get ready for them to rock out to \u201cY\u2026
p497
aVRT @NBCTheVoice: You know who\u2019s got it!? @ChloeKohanski and @blakeshelton singing together. They were the most adorable in that performance\u2026
p498
aVRT @NBCTheVoice: .@redmarlow is adding his country twist to a @bobdylan classic. For his LAST performance of the season he\u2019s singing \u201cMake\u2026
p499
aVRT @NBCTheVoice: RETWEET if @redmarlow just made you feel his love so you\u2019re sending him ALL your votes tonight. #VoiceFinale https://t.co/\u2026
p500
aVRT @ElMitnOtis: @NBCTheVoice @redmarlow @blakeshelton Feel My Love was gorgeous; could feel the emotion behind the song. Loved it!! #TeamBl\u2026
p501
aVPineapple thumbprint painting! Perfect for summer fun! Camp? Day Care? VBS? Back to School? fun, fun https://t.co/m2rIpmdLrE
p502
aVLoving the cabinetry and the narrow island and the cup pulls...yep, digging on this kitchen a lot! https://t.co/kCJVSHwoR9
p503
aVThe light-suffused entry at Matthew Caughy\u2019sbeach house sets off the home\u2019s welcoming, at-ease vibe https://t.co/BMTzm1HNNT
p504
aVCape Cod Beach House Tour - Love the striped fishes ;) https://t.co/EkhRyG75Tm
p505
aVInterior design &amp; architectural advisement by Chango &amp; Co. Architecture by Thomas H Heine Architect  https://t.co/7CHzvJs3CQ
p506
aV10 Things you Need on your Front Porch | a handy list of items that will add amazing curb appeal to  https://t.co/C7RMpljk3S
p507
aV65 Beachy Porches and Patios https://t.co/NZ6d4VjSpG
p508
aVFun, beachy baskets for stylish storage! Sea them here: https://t.co/q67bi9GOOY https://t.co/6bDMvvFtUl
p509
aVFixer Upper | The Takeaways - A Thoughtful Place https://t.co/GdrBClkb8Z
p510
aVClassic Coastal Bedroom - https://t.co/8DZ6CeGnKo Love the clean look of this blue and white bedroom. https://t.co/VHQ5nq51ss
p511
aVRehoboth Beach Collection https://t.co/TcVzmlpCzA
p512
aVBeach Living Room Ideas | These beach themed living room ideas will help you create a space that ... https://t.co/mg1KXMp1xk
p513
aV~Daisy Cottage Love~ https://t.co/MAyNYHNutA
p514
aVGet tips on how to style a shelf from Courtney @frnchcntrycttge a HomeGoods blogger. A few coastal c https://t.co/ybPfUGq9U8
p515
aVLOVE this colour scheme. https://t.co/4TEEUoUlNf
p516
aVTake a different approach to spring style with our top nature-inspired color combinations. https://t.co/JpjbYzlEIW
p517
aVTake a different approach to spring style with our top nature-inspired color combinations. https://t.co/fKkj1DD77Z
p518
aVTake a different approach to spring style with our top nature-inspired color combinations. https://t.co/nPgy43w02X
p519
aVRT @blakeshelton: Voting is now open! - Team BS #VoiceTop10 https://t.co/m6EmFJOYTE
p520
aVBarn Door Hardware -- bypass doors on a single rail.  This would work to replace the closet doors on https://t.co/Zy1B3ICJLM
p521
aVMurphy Bed with IKEA cabinets.  Would love to do this in the basement... https://t.co/YhhQ2Cmegf
p522
aVMurphy Bed - twin https://t.co/oG0eHlgYax
p523
aVMurphy bed for playroom or basement rec. room.  I love the colors used in this house! https://t.co/ThUTBBZcQ9
p524
aVTwo Twin Murphy Beds https://t.co/67Z6yJqWWb
p525
aVOur Twin over Full Trundle Bunk Beds in white feature a fun circles design to brigten up your child' https://t.co/upGmSatXzB
p526
aVFold down twin beds. More room to play for kids or great in a guest room. https://t.co/Z9T7aNa5rN
p527
aVIdeally we could find you shelves that would fit on either side of the bed to go to the soffit. They https://t.co/DsY4ym9tIW
p528
aVbrilliant-ideas-for-tiny-bedroom-7 https://t.co/JQzGb4MvXf
p529
aVMattress Size Chart | good place to start your project is with a bed size chart https://t.co/EwHEc4PhOI
p530
aVpossible bedroom design for basement.. Cape Cod Basement Renovation - transitional - Basement - Bost https://t.co/rd9wspOa5t
p531
aVJamie\u2019s beach house renovation:A hide-clad daybed provides the perfect spot for Jamie to get creativ https://t.co/0F87yv7HlR
p532
aVOffice/ master bedroom https://t.co/W1WMFjeECE
p533
aVdaybed tucked under sloped ceiling Carrier and Company Positively Chic Interiors https://t.co/ov6f6LYHOS
p534
aVpinterest homes with daybeds | bedrooms - Daybed, Pottery Barn Daybed https://t.co/OrHWKwQBjc
p535
aVSo Dreamy! So Stylish! These Daybeds Will Make Guests Swoon! \u2014 DESIGNED https://t.co/RQtsheNjNe
p536
aVBrowse photos of 10 daybeds, perfect for curling up with a favorite book or just catching a few Z's. https://t.co/knSYI3lxHM
p537
aVPlay room with two twin beds serves as deep banquette daybed. https://t.co/2qXoOxPS4m
p538
aVDaybead with storage underneath. Our bed has drawers under it, it's a great way to have tons of stor https://t.co/6KojVwTIgq
p539
aVIkea Hemnes Day bed - The bolster pillows and structured bedding give this non-descript daybed some  https://t.co/6Icu6XuVy5
p540
aVDaybed nook with mini bookshelf. What a great place to curl up on bad days. https://t.co/4J3PNEWibL
p541
aVHomelegance Tadley Metal Daybed - Your day room should celebrate natural light and the Homelegance T https://t.co/xJAdqn6RZR
p542
aVTufted Upholstered Daybed with Trundle. Leave out the footboard though (only two sides) https://t.co/oAYXDqPROk
p543
aVReading Nook with Built in Daybed https://t.co/dL5TSinQBq
p544
aVBuchanan Twin Sleeper Chair | Pottery Barn- The bed tucks in perfectly to make a cute armchair! Love https://t.co/W53KaJGgnE
p545
aVDaybeds, Futons &amp; Sleeper Sofas: 12 Resources for Small Space Sleeping | Apartment Therapy https://t.co/xPkETPZrIL
p546
aVThis would be a space saving idea for our computer/homework room, so that it could also function as  https://t.co/FEHigiReDJ
p547
aVKarnes puts to rest the idea that sleeper sofas can't look sleek or sleep in comfort. Tucked inside  https://t.co/FJFDiQSS8f
p548
aVCreate Lovely Little Nooks for Reading &amp; Sleeping | Apartment Therapy https://t.co/eemKZjFS7C
p549
aVDaybeds, Futons &amp; Sleeper Sofas: 12 Resources for Small Space Sleeping https://t.co/c1SM06p8Hd
p550
aVNightlife Premier Sofa Queen  size Sleep Sofa Overall size H: 39.5";W: 77.5";D: 37.5";seating area h https://t.co/QSKFvO6UlP
p551
aVStompa Casa 4 High Sleeper with Sofa Bed &amp; Pull Out Desk https://t.co/0q8XImnnDU
p552
aVLove this fun couch swing daybed. They've wrapped the chains with rope - just awesome https://t.co/QI2MBuD2J5
p553
aVThe mattress on the Willow and Hall Bishopstrow chaise storage sofa-bed has an impressive 14cm mattr https://t.co/BqzIGaY7ij
p554
aVThe best sleeper sofa.  Why buy one unless it is comfortable?  Let me know if you know a better befo https://t.co/TXkTb2sEx0
p555
aVGus Flipside Sofabed https://t.co/mPHYVPFogG
p556
aVThe Top 15 Best Sleeper Sofas &amp; Sofa Beds \u2014 Annual Guide 2016 https://t.co/6840SMb1ps
p557
aVSuper soft + comfy sofa ($598). With tufted detailing in a modern curved design. Set on a wood frame https://t.co/dFGJardmxG
p558
aVGray Shiplap https://t.co/uY16LQw2Vq
p559
aVImprove the value of your bathroom with this easy tutorial on How to Frame a Bathroom Mirror! https://t.co/AubUccN8tD
p560
aVZesty Lime Shrimp and Avocado Salad: 1 lb jumbo cooked shrimp, peeled and deveined, chopped* 1 mediu https://t.co/b2bKiozWpC
p561
aVThis website lets you search by color and then see real rooms with the paint names listed. https://t.co/YK2DINkooS
p562
aVhouse name sign https://t.co/Qmq93YMmhq
p563
aVI would have the names of beaches but I love it! https://t.co/pAFrNLiPhZ
p564
aVUPDATING THE KITCHEN \u2013 CITRINELIVING A kitchen with no upper cabinets can be a true statement maker! https://t.co/kUcVmQmwD9
p565
aVDriftwood Ocean Beach House Coastal Seashore Wall Clocks https://t.co/5EjeJcDqru
p566
aVAwesome beach theme bathroom redo for Kids bathroom. Like the lower white or beadboard. https://t.co/sPuvBnYAP4
p567
aVBeach House Sign Family Name Sign Carved by SmokyMountainSigns https://t.co/p1WEdozhtw
p568
aVBeach house sign by RichardMalacek on Etsy                                                           https://t.co/yp5buf3l2c
p569
aVThe name I submitted for the 'fish' was chosen by the beach home owner!  His name is Finley!  Owner  https://t.co/cWGUbBaNuX
p570
aVLake Decor Personalized Lake House Family Name Sign Lake Life Our Happy Place Custom Wood Signs Lati https://t.co/nOLtaF6vWm
p571
aVBeach House Sign Family Name Sign Carved by SmokyMountainSigns                                       https://t.co/fOwn3UuhmP
p572
aVShiplap, bunk beds, and nautical lamps give the impression you're sleeping aboard a ship at The Shoe https://t.co/ClRGntEyLP
p573
aVI could seriously make this...we need a serious flip flop intervention at my house. https://t.co/wbP0Ej5J1N
p574
aVBeach house names https://t.co/iVQxbq3zrN
p575
aVSpring is here ...order your  beach house Quarterboard " name board" now! Go to https://t.co/cnseI7wJnX https://t.co/aImyzcYkBI
p576
aVhttps://t.co/noMK7ju5rX
p577
aVSpike plant, Sweet Potato Vine and Petunia. https://t.co/vZqGtjsUKw
p578
aVThese Glazed Apple Hand Pies are the perfect fall treat. And in only 30 minutes, you'll have one of  https://t.co/xnlYUpdg9O
p579
aVCHIC COASTAL tracy sent this newel for lakehouse at venture lane https://t.co/AyfcMKPC9w
p580
aVApple Pecan Feta Spinach Salad https://t.co/0sIT4ZI6L8
p581
aV7 ideas con fotos para lavabos sobre encimera de madera https://t.co/xz5bCEPdNz
p582
aVShiplap or bust! https://t.co/Znj5HU8HJI
p583
aVThis coastal white bungalow has a light, airy feel. It has a nautical theme and features both blue a https://t.co/4OgBTpBA6E
p584
aVIt's no secret that Chip and Joanna Gaines are fans of designing with shiplap, a rough-sawn pine pan https://t.co/Wk0hXvCjTD
p585
aVAs the hub of the kitchen, a great island is part prep station, part gathering spot and part dining  https://t.co/hl87ibPY25
p586
aVI've always wanted my future home to be navy, but now that I see it with this coral painted door.... https://t.co/Pmkg65QUxS
p587
aV30 Cool Small Front Porch Design Ideas | DigsDigs https://t.co/OfRS70Vl5v
p588
aVcolor your world | my masterpiece...LOVE this color scheme using the red for the front door https://t.co/DsbtZBxBxM
p589
aVThinking about painting my door yellow... https://t.co/wUr6tYiHBn
p590
aVSerenbe Real Estate - https://t.co/u0arFBuNou https://t.co/LUNlttJkOR
p591
aVfront porch https://t.co/FJoVnL1UvE
p592
aVfront porches and front porch swings. https://t.co/WXeBaLjvJQ
p593
aVCedar shingles + shutters {colors} https://t.co/lq0E0Hc0ng
p594
aVlove porch swings https://t.co/qLteB1QNjv
p595
aVvia @Sarah Chintomby Chintomby Chintomby Elizabeth https://t.co/lSceyy5oXJ
p596
aVgarden deco https://t.co/zvBQR5MZcO
p597
aVPorch https://t.co/7q9IW92yiv
p598
aVhttps://t.co/CFsvoFyK3k
p599
aVSouthern Charm https://t.co/YwHCnKHUQz
p600
aVInviting porch. From Living Villa. https://t.co/L2CAKWI3Wa
p601
aV1900 Victorian Farmhouse Front Porch Transformation via https://t.co/MTikZiiWAa https://t.co/jowl42xuIn
p602
aV25 Beautiful Porch &amp; Patio DesignLooks - Style Estate - https://t.co/OTEqPzI3yx
p603
aVGreat site. Checkout 19 best pergola plants for your garden. These climbing plants for pergolas and  https://t.co/U3IhdYCapM
p604
aV935259_592191890821553_16869598_n.jpg 550733 pixels https://t.co/EVsllREcZG
p605
aVPergula = perfect way to add some coverage in a backyard. Whether its from the rain or sun, making t https://t.co/lwrrSRuBNo
p606
aVDecks with Gazebos Decks with Pergolas Porch Decks https://t.co/meCN6cLYdG
p607
aVDIY Pergola \u2013 Get Yourself An Outdoor Living Room https://t.co/z0CxYcCanS
p608
aVHinged table, great for extra guests and looks much more chic than most drop leaf tables. https://t.co/fZaE3njKL9
p609
aVDIY Pergola Plans - build a pergola in your backyard garden with these 51 free DIY pergola plans. https://t.co/7Vf2H4UtHk
p610
aVA little structure makes a patio feel like an outdoor room. Consider a paved or loose-stone floor, a https://t.co/xGpPNy8zCf
p611
aVbbc538d565e80f0f5ddb0e41e09c67e0.jpg 604453 pixels https://t.co/ogkFU37dQd
p612
aVhttps://t.co/7vqVUVtGAR 22 Ridiculously Clever Recycled Entertainment Ce https://t.co/FbRpNYIqo2
p613
aVRope lights, rope lighting is fabulous for holiday lights, christmas lights, patio lights, and up li https://t.co/DTvST69kcQ
p614
aVDale un giro a tus ideas y logra un ambiente de vanguardia y confort en tus #espacios https://t.co/wuTifhHFIe
p615
aVChocolate Chip Coffee Cake | Can't Stay Out of the Kitchen | this easy &amp; delicious #coffeecake has a https://t.co/P64vtiBjEm
p616
aVBaking soda neutralizes the ph in the soil and nothing will grow there. use baking soda around all o https://t.co/kmSAnOiKt7
p617
aVLearn how to boost appeal with house numbers and entry lighting. https://t.co/5kvfcW6TCX
p618
aVRustic Wood Kitchen with Stone Backdrop https://t.co/Q2jHJ5CITj
p619
aVBeach House Sign Last Name Sign Family by SaltyDogsWoodSigns https://t.co/U4fYvVSxpp
p620
aVfront porch pergola Porch Craftsman with arbor cedar deck charming https://t.co/cB4xDdG310
p621
aVhow to add curb appeal with a portico side door https://t.co/YCGk0WFUEj
p622
aVBuild a window box planter in 5 easy steps! Add curb appeal and improve your home exterior with a be https://t.co/FTsvujjEhp
p623
aVThe exterior color is Benjamin Moore Hale Navy. The stone is from Hedberg in Golden Valley, MN. It i https://t.co/MJ4eMJseNr
p624
aVportico.jpg (540960) https://t.co/hjl29nNiGf
p625
aVhttps://t.co/isOOeIVCrV
p626
aVincludes "brick" panels to cover foundation, shutters adn window boxes https://t.co/48XskgNyYJ
p627
aVThe charming beach community of Seabrook Washington sits on a bluff with breathtaking views of the P https://t.co/3iaXD5bFw1
p628
aVOutdoor patio https://t.co/KDME8oe4NX
p629
aVHoney Lime Chicken \u2013 crazy delicious chicken with honey lime. The BEST chicken that you can make for https://t.co/gY7jQbi5OK
p630
aVDIY Mirror Frames for a bathroom makeover. Mounting a mirror frame with double-sided tape. https://t.co/UsGaEzvpd2
p631
aVFarina Bay Oak - Waterproof Wood-Look Tile! https://t.co/NoNHGFnand
p632
aVcreating well for french door in basement for egress | Egress Windows and Door Photo Gallery https://t.co/e8ZHb7No15
p633
aVBeautiful and made to last, the Serta Dream Thomas Convertible Sofa features three cushions, a soft  https://t.co/DWmapTQJ7R
p634
aVWahoo Walls is a basement finishing paneling system. It is water and fire resistant, supposedly has  https://t.co/3DcRA0wTEo
p635
aVwalk out french doors - Google Search https://t.co/xIOCEijXan
p636
aVElite Lid mounted Roller Hideaway System https://t.co/IUx6HE9ezB
p637
aVExposed Aggregate  Concrete Pool Decks  New England Hardscapes Inc  Acton, MA https://t.co/IuoevtlXGw
p638
aVDIY:  How to Install Deck Skirting and Fascia - this is a great tutorial and a pretty way to dress u https://t.co/pPGOCXtYeu
p639
aVpavers for patio | Rumos Tile &amp; Pool - Services https://t.co/jSQjzEKvrk
p640
aVCoping free pool by Westend Concrete https://t.co/3kuBSJmbKF
p641
aVBathing Beauty &lt;br /&gt; - Summer Showers - Coastal Living https://t.co/ct0H4IThwk
p642
aVgrey travertine pavers - Google Search https://t.co/cru8xQ55jO
p643
aVPaver Patio with Grill surround and Fire Pit https://t.co/ksuPNd3yw6
p644
aVTerrific Non Slip Pool Deck Materials with Travertine Around Swimming Pools and Wood Shadow Box Fenc https://t.co/rjgcDheuCC
p645
aVSelecting your pool surround tile can be a little tricky - but aftera few basic considerationsyou  https://t.co/aF9XEDPlot
p646
aVLove this pool deck https://t.co/4jJHHfUuZs
p647
aVTwo toned pool pavers Swimming Pools And Spas - page 2 https://t.co/FGqQ7SLm0o
p648
aVconcrete pool deck ideas | natural flagstone decking pavers available in many colors and patterns https://t.co/uCFf98yuKb
p649
aVCube Planter Contemporary garden patio living home decor gardens plants flowers diy outdoor house mo https://t.co/wqQ4XhnD1D
p650
aVPool Deck Surrounds - Sundek Concrete Coatings and Concrete Repair https://t.co/D3kgO30ZAV
p651
aVhttps://t.co/EcjsaKtokQ
p652
aVEntry/door color, ceiling detail, Torrance Mitchell design, Paint Color: Benjamin Moore, Gentlemans  https://t.co/dNbHuJs8rZ
p653
aVBefore and After Kitchen Remodeling - Sebring Services https://t.co/kQC4tthG2c
p654
aVCape Cod Cottage Remodel                                                                             https://t.co/HWwPBhnANx
p655
aVLibelle Moodboard Keukenwedstrijd #libelle https://t.co/EqTvGrUQ1L
p656
aVLED undercabinet lighting used in my kitchen remodel, angled so as not to reflect into the counterto https://t.co/MtOqJTHVyU
p657
aVlaundry room | WeldenField and Rowe Custom Homes https://t.co/xe9zbVxB3f
p658
aV24VDC Dimmable LED Undercabinet Lightbar - GM Lighting https://t.co/bs9OljRWyU
p659
aVundercabinet lighting is low-profile LED (light-emitting diode) strip lights. LED lighting technolog https://t.co/N26lBOe3EI
p660
aVThese sliding doors have beautiful glass in them. They would add so much character as a room divider https://t.co/THHs434fQ9
p661
aVDoor painted in Benjamin Moore Wrought Iron. One of the best dark door and trim colors. #BenjaminMoo https://t.co/z3LzMpXbAs
p662
aVnavy front door interior | rustic decor | farmhouse chic | wood light fixture | entry bench | home d https://t.co/tYvzlgZMPl
p663
aVDIY wooden doormat - match it to your decor! https://t.co/hwG8mfDCRZ
p664
aVcool amazing nice doors-front-door-color-ideas-home-front-door-ideas-for-stucco-homes-front-door-ide https://t.co/WjpNUgKZB0
p665
aVFireplace Makeover https://t.co/KIPhiaq4EX
p666
aVBenjamin Moore - Ocean Air - Beach House Paint Color https://t.co/XiVrBjBPIm
p667
aVLove this tile with Sea &amp; Sand colors. I searched Google Images ... https://t.co/OyLHOtVToo
p668
aVLove this tile with Sea &amp; Sand colors. I searched Google Images ... https://t.co/vlFyFoB9Q3
p669
aVCORAL ROCK 032 //another PERFECT BM paint for YOUR beach house selected by jannino painting + design https://t.co/7difWuZPYX
p670
aVOcean Sunrise - Color Palettes https://t.co/25xE7sSjyg
p671
aVGet crafty with your craft room. https://t.co/LHi7sDtqhh
p672
aVSimple beach deor in ths pastel green bedroom                                                        https://t.co/6sb2zi7J7R
p673
aVI design a lot of coastal color palettes for my clients and every now and then there\u2019s one that even https://t.co/q1YpTOo5U8
p674
aVBreathtaking shingle style beach house in Watersound, Florida https://t.co/D9DntEjdNX
p675
aVInspiring Interior Paint Color Ideas | Coastal Colors https://t.co/aiYPaXMBg4
p676
aVwhole house paint scheme beach theme - Google Search https://t.co/zh0eiOdQJl
p677
aVturquoise garage doors https://t.co/jn54R77LGL
p678
aVBeach chic decorating ideas.....Coastal Style blog https://t.co/IxDEmPxgki
p679
aVSea Glass Inspired Decor\u2026Bringing the Beach Indoors June 3, 2013 Sara Silver . Home Design, Inspirat https://t.co/GgYJtSWFli
p680
aVBeachy Hues with white for my dream beach house. https://t.co/tv1lMG12kG
p681
aVI love this detail on the stairs.. Many choices can be made to beautify any part of our home. https://t.co/uC1YVU7g5O
p682
aVAluminum Pool Fence - White looks nicer than the black plain fences for pools. https://t.co/Cqa6M02aO8
p683
aVchrome Pool fence going through planting https://t.co/Epu7IEKrCf
p684
aV6'x6' White Vinyl PicketLock Pool Fence Spaced picket fence panel kit https://t.co/DiOUdDiaoZ
p685
aVVinyl/Composite Fence https://t.co/qByFLJaxZK
p686
aVlove the fence around pool and the flower beds https://t.co/ugsT54gRbq
p687
aVPrivacy with Plants! \u2022 Tips and ideas on how to use plants to create privacy in your garden or yard! https://t.co/ZZ4KAMQKRT
p688
aVPoolside California-style formality in Venice Beach. https://t.co/YSGfgwNgr7
p689
aVprivacy fence ideas - Bing Images by laverne https://t.co/nmze32qTum
p690
aVblack square lattice fence https://t.co/y3BxtLQiWY
p691
aVNice half fence to separate our driveway from the backyard! #PinMyDreamBackyard https://t.co/J57FfsACO0
p692
aVNew England Woodworkers, Custom Fence Company for Picket Fences, Privacy Fences and Lattice Fencing, https://t.co/n24SZXPjL8
p693
aVliving fences for privacy | 20 Green Fence Designs, Plants to Beautify Garden Design and Yard ... https://t.co/JpWLQb7uWP
p694
aVPotted bamboo for the back deck by hot tub https://t.co/DCrNl9ntbA
p695
aVC Fencing, I want  a side gate this, someday. https://t.co/5a5XSWKIo7
p696
aVhornbeam trees can become a living fence and hide you from everyone https://t.co/7f2KCPTo8c
p697
aVNew England Woodworkers, Custom Fence Company for Picket Fences, Privacy Fences and Lattice Fencing, https://t.co/Q4b4ArbUB6
p698
aVNew England Woodworkers, Custom Fence Company for Picket Fences, Privacy Fences and Lattice Fencing, https://t.co/6WbBg37L1U
p699
aVNew England Woodworkers, Custom Fence Company for Picket Fences, Privacy Fences and Lattice Fencing, https://t.co/MWLQUZkXrf
p700
aVLemon grass is a natural mosquito repellent and grows quite tall. Plant it in large planters next to https://t.co/306fn9G6gv
p701
aVAdore this!! LOVE the fence, and general feel of this garden! Would love to do something similar!! # https://t.co/me6XP4NT48
p702
aVPrivacy Fence Design,how to tie in fence styles old and new and to add privacy by layering boards https://t.co/yfkdKxKbAq
p703
aVPVC Vinyl wood grain fence that looks like real wood! Eastern White Cedar grain privacy fence from I https://t.co/i1qrVq2bnp
p704
aVLove This Unique Idea For a Fence. Spacing Between Slats at the Top and Bottom with Overlap in the M https://t.co/k4gnZpwYhr
p705
aVWood garden gate  Linda, this fence looks similar to yours. I love the GATE. https://t.co/XaBkDnVLa2
p706
aVTrex Seclusions 90-1/2 in. x 4 in. x 72 in. Winchester Grey Privacy Fence Kit-TFGSECT68 - The Home D https://t.co/OiDvnq3cmO
p707
aVI love this fence idea. privacy yet   neighborly. Trellis and architecture all in one. small amount  https://t.co/JiIkkHMQTa
p708
aVNew England Woodworkers, Custom Fence Company for Picket Fences, Privacy Fences and Lattice Fencing, https://t.co/kkO9f9CLOR
p709
aVScreening fence in -23 garden ideas on how to preserve privacy https://t.co/wQSnnBkzKh
p710
aVWhat a welcoming entry. https://t.co/lt6KogqCfR
p711
aVBenjamin Moore's Gentleman's Gray adorns the front door of this fantastic classic home. https://t.co/AADyCtnC17
p712
aVadd stone to front - large windows and overhang - circular drive right to the front door - could do  https://t.co/5DOdQWEWSW
p713
aV#12. Add a pergola over your garage! ~ 17 Impressive Curb Appeal Ideas (cheap and easy!) for the new https://t.co/gmElTH3R4U
p714
aVHomes With Great Curb Appeal in Austin, Texas | Landscaping Ideas and Hardscape Design | HGTV https://t.co/7Bjtp49vSc
p715
aVciao! newport beach: home tour curb appeal https://t.co/WEJqBBOiZQ
p716
aVLike fencing. Give your home an easy makeover with AZEK Trim and Moulding. Our premium, weather resi https://t.co/2BDcEwcI3m
p717
aVBeach,Coastal living,Seaside home decor,Charming coastal home. https://t.co/gugCUUmE6E
p718
aVTake your shoes off, run/feel the grass, smell the sea air! https://t.co/Q6IerPItuG
p719
aVBeach House with Fixer Upper style                              \u2026 https://t.co/fPZriasguA
p720
aVGive your front yard a fresh makeover that looks like a fairytale place. https://t.co/ueZ46Bh8RR
p721
aVamazing https://t.co/Dd5bsamq8N
p722
aVSliding patio doors. https://t.co/8YWr1QzzmB
p723
aVscreened sliding doors... nice touch! https://t.co/jPocXnMICH
p724
aVLiving room builtins, fireplace, chunky beamed mantle &lt;3 https://t.co/FYq5Iq99KD
p725
aVhttps://t.co/gvO5n2Uwy1
p726
aVGuest Room Makeover | Sherwin Williams Sea Salt Color https://t.co/Of3cb77aKL
p727
aVBefore and After Kitchen Remodeling Naperville - Sebring Services https://t.co/cUY3FIYAOy
p728
aVInterior to Steal: Understairs Seating Ideas That Are Inspiring https://t.co/OQkqMijKhp
p729
aVTrapbekleding: waar kies je voor? - Makeover.nl: https://t.co/z0s1VAaIXx
p730
aVThis could look good under lower level stairs! https://t.co/YyK5YOjAE3
p731
aVLes escaliers https://t.co/y9GDKwI8V4
p732
aVLove the cable railing on this staircase! https://t.co/Ls71g0koLn
p733
aVMonica's fireplace makeover\u2026beautifully whitewashed brick.  For us, grey washed brick with a lighter https://t.co/8Uy45VAGn8
p734
aVThis inspired me to paint my 90s fireplace. It was a easy DIY project. Turned out awesome. https://t.co/5SJEFa9VOJ
p735
aVPaint Your Brick Fireplace a Pretty Gray Color!  https://t.co/Kl7RjqpdDn. https://t.co/7etyUQvVIq
p736
aVNo longer is white the only color for a mantel. Update your room with the easy but effective room ga https://t.co/jlSSgeoyHr
p737
aVUnder Stairs Storage https://t.co/3VYkpV5sGJ
p738
aVI need to get rid of the railing in our bedroom and replace it with this! https://t.co/p1KF9U7DTy
p739
aVwroght iron modern rails | Page 10 .. Metal Balusters Page 11 .. Stair Anatomy Page 12 ... https://t.co/IWUEjZVWYs
p740
aVWe have new stair railing! | Jenna Sue Design Blog https://t.co/ni0702AhY5
p741
aVCustom Built Modern Farmhouse Home Tour with Household No 6 | Landing with iron railing https://t.co/uad62IobQt
p742
aVdark kitchen, light floors, with the loft! https://t.co/efsugrX171
p743
aVwhite millwork gray walls https://t.co/jePlaKmHwp
p744
aVBeautiful Family Home with Trendy Interiors - Home Bunch - An Interior Design &amp; Luxury Homes Blog https://t.co/LssIt9Wndl
p745
aVHow To Gel Stain (ugly) Oak Banisters Without Sanding https://t.co/pLb7ofPUmg
p746
aVStair Railing Makeover DIY Baluster https://t.co/Gek32Db1FF
p747
aVCustom Built Modern Farmhouse Home Tour with Household No 6 | Great room open kitchen with island, r https://t.co/bY6Fq62oNX
p748
aVDIY: How to Stain and Paint an OAK Banister, Spindles, and Newel Posts (the shortcut method...no san https://t.co/DrqWKNccbu
p749
aVOwner Building a Home: The Momplex | Stainless Steel Cable and Wood Railing https://t.co/qdYc6GUZa1
p750
aV111816003222481579 Entryway with gray stair rail and white ballusters. Crystal entry chandelier. https://t.co/MxxprbizQl
p751
aVA simple and stylish way to make the staircase look simple yet chic and eye-catching is to use contr https://t.co/BFEprOZcsf
p752
aVNewel Post and railings. Wires instead of balusters is probably too modern.                          https://t.co/yLkSybQ6pH
p753
aVBook nook ! - a work+desk+and+integrated+bookshelves+are+tucked+neatly+under+the+newly+reconfigured+ https://t.co/iYbl5mVJPo
p754
aVCustom Reclaimed Stair Railings by Stone Creek Cabinetry, Llc ... https://t.co/KWGcMje8Ko
p755
aVStair Railings | another example of cable stair railing &amp; stained handrail &amp; treads. https://t.co/fA1ZkGQ8wj
p756
aVStunning Stair Railings https://t.co/orBV1mJ557
p757
aV/ https://t.co/nJgxVIeOv3
p758
aVBest Ever No Mayo Broccoli Salad with Blueberries and Apple! This healthy and easy side dish has a c https://t.co/ET93HsFekT
p759
aVpergola walkway - from garage to house https://t.co/EpiVAYXBvm
p760
aVbest white paint colors to paint shiplap; sherwin williams alabaster | https://t.co/l1ADanXtQ8 https://t.co/ll5smSn5QF
p761
aV24 Inspiring DIY Backyard Pergola Ideas To Enhance The Outdoor Life https://t.co/WP9dTksCS8
p762
aVSheet Pan Shrimp Boil - Easiest shrimp boil ever! And it's mess-free using a single sheet pan. That' https://t.co/x4vGuzWumr
p763
aVOne Pan Lemon Parmesan Chicken and Asparagus https://t.co/PZr5jptLxS
p764
aVChanneling the flavors of some of some of my favorite restaurant salads, this tasty Blueberry Brocco https://t.co/RAC15nIkRr
p765
aVToe Kick Drawers for additional storage below cabinets! https://t.co/5kL1LT1IN5
p766
aVBack Porch Project - The Endearing Home. Looks  like the Peaceful  Retreat  Porch, New Lower Rates f https://t.co/zG7X6kXBHB
p767
aVLow maintenance screened #porch with AZEK Building Products flooring and white vinyl ceiling. https://t.co/huaUoJ0GDu
p768
aVNot all storage needs to have a door -- showcase some of your pieces on easy-to-install corner shelv https://t.co/NHtyXd8uDK
p769
aVConverting Your Patio Into a Screen Porch: A Foundation For Success | The Bainbridge Crew Blog https://t.co/3SXDcavzGL
p770
aVStained or left bare, wood makes a low-ceilinged attic feel snug and cozy. | Photo: Bruce Hemming/IP https://t.co/BCzSl6F0eZ
p771
aV2016 Screened In Porch Cost | Screened In Porch Prices, Cost to Build https://t.co/kO7sdlC62X
p772
aVwood cielings. love them inside and out. https://t.co/h5AQlSQ4YC
p773
aVPainted Ceilings in Every Room | The Distinctive Cottage Blog | Cottage &amp; Coastal Style https://t.co/g7uxWWO5Ff
p774
aVCool Basement Ceiling Idea. Basement ceiling idea could be really cool if there was tube lights or l https://t.co/q95pxJR58i
p775
aVCoffered ceiling- https://t.co/Y4I4onGZVM  Call us and let us supply you with the material to create y https://t.co/1uuOhwg7xM
p776
aVCeiling art fits easily into your dropped ceiling or suspended ceiling grid and provides not only ea https://t.co/jGJjy8qsRV
p777
aVScreened porch idea- I like the lower porch railing and posts on this view https://t.co/Hedfeb4Lh9
p778
aVWhite but warm kitchen.  Love the planked ceiling and brick cook area.  I would want driftwood color https://t.co/gx7qJIcatK
p779
aVJenna Sue how to build faux beams https://t.co/594b4ju4Ba
p780
aVShiplap ceiling. Living room with shiplap ceiling. Living room with wood paneled ceiling and floor-t https://t.co/J7UZ9qpmmv
p781
aVReally like the color of the floors. The ceiling is amazing. Love the lights and overall look of roo https://t.co/bqjWOw0YeY
p782
aVBuild cabinets around fridge https://t.co/DUgqblvTe4
p783
aV33 Home Repair Secrets From the Pros - Plank A Popcorn Ceiling - Home Repair Ideas, Home Repairs On  https://t.co/EnmGDksJ17
p784
aVFarmhouse kitchen- this one is truly beautiful! #farmhouse #kitchen #interiordesign https://t.co/mNPdt6zwro
p785
aVCraftsman Sliding Screen Porch Panels - Innovative Construction, Inc., General Contractors, Atlanta, https://t.co/MDrYgRs93Z
p786
aVEmily's room https://t.co/huwF0u8uJY
p787
aVSunroom: It would scare me to paint the ceiling blue without seeing it first, but this room is stunn https://t.co/l4g1tbZ36U
p788
aVBasement Ceiling Installation - no more cobwebs in my hair!! https://t.co/p0k9H8xKcN
p789
aVFind the best of Love It or List It from HGTV https://t.co/05yT5JFpcM
p790
aVFind the best of Love It or List It from HGTV https://t.co/iKqO1PFQqQ
p791
aVFind the best of Love It or List It from HGTV https://t.co/mykXu8ijlg
p792
aVattic bathroom sloped ceiling - Google Search https://t.co/i5P55KJaIp
p793
aVAttic Bedroom https://t.co/bdTiqvxMeF
p794
aVFinished Attic Renovation | Attic Remodeling "Ups" Your Living Space - T&amp;K Contractors, Freehold ... https://t.co/GDgfzuOF0C
p795
aVwooden staircase with storage drawers https://t.co/tASoshai41
p796
aVAttic Idea DECO a homes world https://t.co/Gt069FJFsG
p797
aVSkylights along the ridge of the attic/master suite https://t.co/iDxfVjtTX8
p798
aVVaulted bead board ceiling! Perfect idea for the ceiling in my attic renovation dream crafts room: i https://t.co/R7fbIk6zAJ
p799
aVAwesome guest space/reading retreat. Attic Renovation Ideas Design Ideas, Pictures, Remodel, and Dec https://t.co/WVrK6NNTSd
p800
aVhouse architecture attic remodel shed dormer ideas house addition https://t.co/Sug6Y5TtK3
p801
aVwood and white https://t.co/SGMf6imhaK
p802
aVpictures of converted attics | Attic conversion photos https://t.co/yivMuw8Ywh
p803
aVAwesome Attic Transformations \u2022 Great tips, ideas and before &amp; afters! https://t.co/gdJFfhlgKX
p804
aVCred: @marzena.marideko                                                                              https://t.co/6ToQVV6928
p805
aVGable Roof with Shed Dormer....for front of house (open to stairwell and enlarge closet) https://t.co/nUuIiMbscd
p806
aVTrimitsis Woodworking : storage in the eaves https://t.co/Pv7dMwceJW
p807
aVconverted attic master - really like this but would try to avoid the pedestals since I have them in  https://t.co/aTiGyuGsPr
p808
aVKid-Friendly Attic Renovation | POPSUGAR Home https://t.co/MutP4JeX1V
p809
aVBest of Pinterest - Becki Owens                                                                      https://t.co/6woiEc99IW
p810
aVAttic renovations https://t.co/XkWzKMAkDO
p811
aV16 Smart Attic Bedroom Design Ideas Makes me wish for a loft conversion...But\u2026 https://t.co/RsSrgyXcKn
p812
aVattic shower/bathroom inspiration, love the light and color in the shower https://t.co/uKANqQzw7s
p813
aVATTIC LOFT BEDROOM Twin Bed https://t.co/oIXSBYUoY2
p814
aVwood beams, wood floor, stone fireplace, lighting https://t.co/kodumlbkFA
p815
aVCoziest attic bedroom. Great use of space with the built-in bed/storage. I want this in my attic! https://t.co/0vvbITtVDR
p816
aVmakes me want one! Attic Bedroom Closet Design, Pictures, Remodel, Decor and Ideas - page 9 https://t.co/vHf9Plddfz
p817
aVPainted plank attic--simple and clean. https://t.co/ZjmUhVrtIP
p818
aV. https://t.co/R6CYC1Yusl
p819
aVattic room https://t.co/N8OBoDqLyZ
p820
aVFrom Dump to Dream Beach House https://t.co/bVdwgiX68u
p821
aVLaidback Summer Style: 10 Perfect Porches | Apartment Therapy https://t.co/TeJ4iTQbfu
p822
aVO is for Outdoor Shower - Beach House Renovation Guide - Coastal Living https://t.co/HNFl8iNf0v
p823
aVCoastal Style Deck https://t.co/bfVXFVS2bv
p824
aVCompletely Coastal: 10 Most Popular Coastal Posts of 2015 https://t.co/0gd0Xb4biG
p825
aVBeach House laundry with barn sliding door https://t.co/cevI0DgdXz
p826
aV31 Hardwood Flooring Ideas With Pros And Cons https://t.co/cZKTkM6vw4
p827
aVcoastal bedroom - ceiling, walls https://t.co/X9ryiau3FB
p828
aVcece caldwell's memphis blue paint on table with dark wax to know down the blue brightness https://t.co/wkJSXLylao
p829
aVStunning seaside renovation | The divine teal green exterior is actually a relic of the original hou https://t.co/kiVIRccOSv
p830
aV2194B-102.jpg | Brian Vanden Brink - Architectural Photographer https://t.co/6k7WIRHeI5
p831
aVDining room round https://t.co/bgk92n6ZSE
p832
aV.windows, bench seating,wicker chairs.. but chairs aren't so comfy.. but pretty :) https://t.co/I49MCbZsgM
p833
aVExterior by Bowley Builders | white shutters with black trim | exterior home design ideas | backyard https://t.co/ajvMIm1VgC
p834
aVLove these doors that go outside. https://t.co/sNm8v5J3FR
p835
aV&lt;input type="hidden" value="" data-frizzlyPostContainer="" data-frizzlyPostUrl="http://www.decoratio https://t.co/g0W28fM0Ou
p836
aVFabulous pool house - interiors by @Eric Lee Cohler LOVE! https://t.co/K5qdW5l5lt
p837
aVLake House With a Classic Coastal Feel - Living Room. Amazing View https://t.co/6eHO34iPpA
p838
aVAffordable Industrial Farmhouse Pipe Curtain Rods https://t.co/wqcMSpo54A
p839
aVCool covered patio with fireplace &amp; TV ... yep that'll work! #outdoorliving #outdoorspace www.HomeCh https://t.co/CrAlOyPHfC
p840
aVBlue Color Palettes, bright yellow, dark-blue, light yellow, Orange Color Palettes, pastel yellow, p https://t.co/cqKQkGpPZP
p841
aVFresh Hues via @designseeds https://t.co/eXuTuYSKKw
p842
aVfixer-upper-paint-antique-rose https://t.co/1K7hj3GWSA
p843
aVFamily room color palette: benjamin moore colors Barran plain, coral gables, woodlawn green, newbury https://t.co/8ceHSwHoHP
p844
aVWelcome to addinktive designs and our very first Colour INKspiration Blog Hop! I\u2019m so excited to joi https://t.co/p9v6WkSfCS
p845
aVColor Palette #2814 | Color Palette Ideas | Bloglovin\u2019 https://t.co/C1fbSndnRf
p846
aVTropical Tones - https://t.co/6SUlx8RSNq https://t.co/KjKy9bu00r
p847
aV\u0424\u043e\u0442\u043e\u0433\u0440\u0430\u0444\u0438\u044f: \u0414\u0435\u0442\u0441\u043a\u0430\u044f \u0432 \u0441\u0442\u0438\u043b\u0435 \u0421\u043e\u0432\u0440\u0435\u043c\u0435\u043d\u043d\u044b\u0439, \u041a\u0443\u0445\u043d\u044f \u0438 \u0441\u0442\u043e\u043b\u043e\u0432\u0430\u044f, \u0421\u043a\u0430\u043d\u0434\u0438\u043d\u0430\u0432\u0441\u043a\u0438\u0439, \u041a\u0432\u0430\u0440\u0442\u0438\u0440\u0430, \u041f\u043b\u0430\u043d\u0438\u0440\u043e\u0432\u043a\u0438, Eame https://t.co/TbHmpOghqf
p848
aVthese are my fave colors....where to put them in the house? :) https://t.co/NfQFgtOCI0
p849
aVSally Lee by the Sea | Freshen Up Your Home With These Bright Colors! | http://nauticalcottageblog.c https://t.co/CiJgfgw8tS
p850
aVCouleurs ... https://t.co/YsgSVSjMdM
p851
aVShower Curtain in Navy, Coral Pink, Aqua, Gray Floral Standard and Extra Long Lengths 70, 74, 78, 84 https://t.co/H7KfhflDSS
p852
aVLearn how to build your own fabulous interior color scheme, plus gett inspiration from three designe https://t.co/15ivzMKM1g
p853
aVso i may be obsessed with succulents at home... but i've never had the opportunity to use them in we https://t.co/kpaKqYC6CS
p854
aVParmesan Crusted Tilapia https://t.co/SS8bcwILun
p855
aVA Nice Chicago Outdoor Kitchen in my article \u2026..  \u201cDressed to Grill\u201d \u2026 Sophisticated Skewers (Part 2 https://t.co/wsFghK06io
p856
aVinground rectangle classic pools - Google Search https://t.co/811DqVjGNQ
p857
aVtanning ledges pools | Tanning Ledge https://t.co/SJjA7UrCMo https://t.co/sFnguw4RZY
p858
aVModern white kitchen https://t.co/eOp2C2DFBu
p859
aVAttic End wall - great for that space at the end of a room with the awkward roof/ceiling https://t.co/TE7f8zeHjz
p860
aVTerasa s oh\u0148om https://t.co/4sNjKe8SuC
p861
aVcottage https://t.co/OpMKS4mIYc
p862
aVMesmerizing Nantucket-inspired coastal cottage on Lake Rosseau https://t.co/zNECtlr7Fa
p863
aVCalacatta Gold ? https://t.co/me0H4HonPT
p864
aVOcean blue floor tiles! GORGEOUS!!!!!! https://t.co/FkRwcKneuy
p865
aVRoman shape https://t.co/GuE1ndZ4oG
p866
aVHinged lid on pool pump enclosure https://t.co/hNtbRZ3uXT
p867
aVPool to set in garden corner https://t.co/X31idvWAyj
p868
aVJoanna Gaines' laundry room (Fixer Upper) https://t.co/ciYl4PxLvk
p869
aVpool inground seat https://t.co/6y8loSWzdZ
p870
aVThese water bottle penguins are SO CUTE and are really easy to make! What a perfect winter craft for https://t.co/DYGgipmoxH
p871
aVDr. Seuss One Fish Two Fish Red Fish Blue Fish - make a fishbowl using a paper plate and goldfish cr https://t.co/Bqx7zFGLSG
p872
aV44 Valentine\u2019s Day Gifts for Him! {Fun &amp; Romantic} https://t.co/JWRWFJ7XQc
p873
aVawesome pool design with blue tile floor ideas for swimming pool designs for small yards https://t.co/LnRnUmkMbA
p874
aVColors I like best Lucayan Blue, Aspin Mist, Calm Sea, Pebble Beach https://t.co/MtSN56NqKW
p875
aV4 Indoor Decorating Moves to Take Outside  - https://t.co/b9c5n5Bh1h https://t.co/kbYw9BtSFP
p876
aVTanning shelf in vinyl pool. WOW! | Flickr - Photo Sharing! https://t.co/wMWOo3WkGN
p877
aVCaviar &amp; Cocktails...Okay, but I would rather have Good Scotch Whiskey and cheese. https://t.co/BbNvf6sg3O
p878
aVBeach bungalow- Florida Architects - Watersound, Watercolor, Rosemary Beach | Archiscapes https://t.co/r4NXvAkz7L
p879
aVKitchen- open floor plan. https://t.co/JsplRK97lR
p880
aVLong wait is over, you can easily have your own backyard pool today. https://t.co/Tac4P3Ihrq
p881
aVBenjamin Moore Herbal Escape 1487 Classic Color Collection I have in my cottage master. Thinking of  https://t.co/tdDvqVIEkN
p882
aVPool #065 by Dolphin Pools And Spas https://t.co/Bwm0aTetNe
p883
aVChicken Fajita Pizza Recipe https://t.co/fSxSzH3Ln9
p884
aVLast day of the blog y'all! See more of this @handsome_properties listing in #charlestonsc on #danie https://t.co/xY4TNHlOFY
p885
aVbeautiful backyard https://t.co/x7rTB77PTC
p886
aVTraditional Inground Pool from Summer 2011.  Super clean, simple and perfect.  Traditional never has https://t.co/HmoJa6oyEn
p887
aVFlowers made from Suckers Valentine Treat https://t.co/54QFAi68Pn
p888
aVRectangle Pool Wisconsin | Rectangle Pool Designs | Rectangular Swimming Pools | Custom Inground Swi https://t.co/GHUPVDrx0s
p889
aVZero entry pool for the kiddos! https://t.co/4tWfY9g8z2
p890
aVUsing the same idea as pizza crust, it's easy to make a low carb cheesy cauliflower breadsticks reci https://t.co/Jz1F4kDp4r
p891
aVPinned onto PuppiesBoard in Dogs Category https://t.co/AwFMLTK335
p892
aVgolden cocker retriever full grown. It's a puppy that looks like a puppy forever. by patric https://t.co/fP09oPbYIP
p893
aVFull grown Golden Cocker Retriever...They stay puppies forever!? I WANT ONE https://t.co/4EqeJjuecD
p894
aVFor the sake of the kids, is not a sign of strength https://t.co/VzMCb2QA68
p895
aVHomemade Soft Pretzel Bites Recipe on https://t.co/5PTTsEGvmJ Easy to make at home and perfect https://t.co/1AXreysZN0
p896
aVFrench Onion Beef Sliders For A Crowd. This is one appetizer recipe you don't want to skip. Serve it https://t.co/UhgCgdTrlo
p897
aVRT @SundanceHead: Man that was amazing I hope you enjoyed the song and received the LOVE I'm throwing at ya....
p898
aVThis. Kitchen. Is. Everything. https://t.co/cWqWR39hGc
p899
aVMud Room connects to Bathroom. House Planning. Floor plan. Layout. Blue Water Home Builders. https://t.co/sm76VnyfNd
p900
aVUtility Armoire = GENIUS! - These clever homeowners repurposed a $20 yard sale purchase to hide thei https://t.co/GuQsvRmmvy
p901
aVThe 10 Best Hand Embroidery Stitches to Learn https://t.co/UDxg9Y3vfw
p902
aVBasement entertainment wall https://t.co/BtIDJoXelc
p903
aVgorgeous stairs https://t.co/a72PoHtDZf
p904
aVThis is our fabulous new screened porch! We had the door custom made to hang on the Rustica Hardware https://t.co/JDyBaaal5d
p905
aVThis thing is awesome! https://t.co/v3yUwFGwtr
p906
aVHoney Garlic Baked Cauliflower. An easy and delicious weeknight meal! - I can\u2019t get enough of this h https://t.co/LhRpsaqk1A
p907
aVStir Fry Zucchini Noodles | https://t.co/4tbhCwRhw8 | Delicious, low-carb, healthy Stir Fry made with spira https://t.co/h5MzlMfBjE
p908
aV@political_mash @nytimes  you don't understand, this not a dictatorship, he definitely cannot do whatever he wants.
p909
aVRT @FastCompany: Consumer "interest" in @IvankaTrump's brand has fallen since the boycott began https://t.co/Z98Oc5dlmp https://t.co/B2vZ7D\u2026
p910
aV@nytimes things might improve without KAC#get rid of KAC
p911
aVRT @matthewlbrmn: @nytimes She might want to look at it herself.
p912
aVRT @Mikel_Jollett: @nytimes \u000a\u000a100% agree. Look at the full resume of hateful, violent, sexist, racist, antisemitic things he's said and don\u2026
p913
aVdoesn't say much about Conway   She needs to clear her cobwebs and not defend a heinous man ,KAC  clearly a racist too
p914
aVRT @ginoque: @nytimes Funny but @KellyannePolls should have advised American voters to look at her boss Trump's full rsum too.
p915
aVRT @PeterArnottGlas: @nytimes How about the interview where he equates progressive women with "a bunch of dykes" https://t.co/r1r2BoCueG
p916
aVRT @egomro4: @nytimes @KellyannePolls yeah overlook the white blanket &amp; white hood look at his resume .... ugh #Deploable
p917
aVRT @JSYK: @nytimes He's not just a plain old racist, he's a successful, articulate racist!  Relax, everyone.
p918
aVMabley Handler Interior Design - The Beach House Dining Room at the 2012 Hampton Designer Showhouse. https://t.co/vCPjDD1F0s
p919
aVA sense of freshness and elegance. I love the touch of black around the mirror. Meredith Heron desig https://t.co/fiPFWBw4K2
p920
aVSink drawers - much more useful than sink cupboards! https://t.co/KSU3qmLUNh
p921
aVLaundry Room. Laundry Room Ideas. Laundry room machine ideas that are easy on your back. Enclosed Wa https://t.co/IaIAjrVvf0
p922
aVWalls: Benjamin Moore AF-500 Atmospheric https://t.co/rYiyLOdTY0
p923
aVUnique Wall Shelf Wood White Contemporary Floating Shelves Intersecting Decor https://t.co/BmMTmli06r
p924
aVgray shiplap walls, black windows, stone fireplace with bench on side saved from https://t.co/8BdVJcNb8z indulgen https://t.co/HBg85WuAZI
p925
aVRT @ABC: Lady Gaga urges fans to support electoral college petition that could prevent Trump from becoming the next president https://t.co/\u2026
p926
aVRT @SarahKSilverman: SERIOUSLY THOUGH. This is only PART of why he should HAVE TO reveal his taxes. IS THIS REAL LIFE https://t.co/2B3GrafM\u2026
p927
aVkitchen cabinet drawer for waste baskets https://t.co/rpnVIrLJra
p928
aVStone veneer over existing ugly brick on your fireplace https://t.co/twQNXKBZL7
p929
aVDIY Shaker Door - Take a plain slab door and turn it into a charming-yet-modern shaker door with som https://t.co/Cv0ehoY9aI
p930
aVSome inspiration for mounting all of those family photos you can't figure you what to do with! https://t.co/i39NVELDg3
p931
aVRT @SarahKSilverman: Anger &amp;rage &amp;fear &amp; blame is exactly what got us here.  So let's pause &amp; think &amp; then organize.
p932
aVPerfect for a beach house guest room https://t.co/sik5mDtA6e
p933
aVInterior Design Ideas https://t.co/TpYy4z9Wqg
p934
aVLove the built ins and the tub inside the shower. Plus the gray and white is tranquil and relaxing https://t.co/3NXx8g71oo
p935
aVdoctors-keep-simple-recipe-away-public-heres-get-rid-bunions-completely-natural https://t.co/jvvNq3VYPx
p936
aVCottage by the Sea. Just bought my beach house! Your all invited to come over \u2661\u2661\u2661 @jazindia @mom_of_ https://t.co/n4nPRZiVsH
p937
aVEasy Tips for Growing Lavender. https://t.co/cj0RGHC6i1
p938
aVRT @EricaSmegs: Don't worry, Mom, I'll remember to vote today even though ur not here to remind me. Love you. This one is for you. https://\u2026
p939
aVRT @elizabethforma: That's what this election is about: who we are as a people &amp; what kind of country we want to build for our kids. Let's\u2026
p940
aVRT @billmaher: Pls vote for Hillary today. Even if you don't like her, its necessary to block a dangerous lunatic ultimate power. #ThisTime\u2026
p941
aVRT @WadeN43: @USATODAY I can't decide if he willlfully tried to sway the election or was just stupid. Either one isn't good for an FBI dire\u2026
p942
aVRT @USATODAY: Republican John Kasich is a man of his word. https://t.co/R344kkHa9s
p943
aVRT @HillaryClinton: It's time for Trump to answer serious questions about his ties to Russia. https://t.co/D8oSmyVAR4 https://t.co/07dRyEmP\u2026
p944
aVRT @HillaryClinton: "The thought of Donald Trump with nuclear weapons scares me to death. It should scare everyone." https://t.co/E77BgjQGj7
p945
aVRT @HillaryClinton: With just 8 days left, this can\u2019t wait. RT if you agree Trump should immediately disclose all of his ties and connectio\u2026
p946
aVRT @DrJillStein: Indebted members of the class of 2016 average over $37,000 in student debt. That's $37K more than Trump pays in taxes. #En\u2026
p947
aV@HillaryClinton if u can't vote for Hillary Just DONT vote for Trump
p948
aVRT @HillaryClinton: With just 10 days to go, Republicans are pulling out all the stops to try to bring Hillary down. RT this to help get ou\u2026
p949
aVRT @MMFlint: I'm on Bill Maher tonight. HBO. Live. 10pm ET. Our promise back in May: 2 "personally stop Trump, 2 stand in front of WH door\u2026
p950
aVWhatever the season, this amazing back patio is sure to get a lot of use, whether for entertaining g https://t.co/8aJN5JkQAh
p951
aVUndercounter DrawerMicro Oven - VMOD - Viking Range Corporation - What a great idea... I've never he https://t.co/Kev72AIdc8
p952
aVKitchenAid mircowave with slow cook warming drawer below. https://t.co/B58MS4uSP9
p953
aVSharp drawer microwave and warming drawer for island https://t.co/uI8NTmZ6Wc
p954
aVThe secret to nailing that just-out-of-the-oven taste \u2014 whether dinner is homemade or store-bought \u2014 https://t.co/zrclCbfoza
p955
aVdrawer microwaves | Drawer Microwave in Kitchen Island | Lake Kitchen Ideas https://t.co/33Cis3f7LP
p956
aVSharp Microwave Drawer https://t.co/z9GdCyJrp4
p957
aVtwo storey canal home designs floor plans https://t.co/Y9e5QjaF4T
p958
aVGreat nook with built in storage at top of staircase landing. Dogfish Bar &gt; Hutker Architects \u2014 Mart https://t.co/Y22Pkc8YXy
p959
aVHere's an idea: How about deliberately mismatched seats in your breakfast nook? https://t.co/GfOKobtEUK
p960
aVOur last home was a Cape Cod and the attic space was converted into bedrooms. The dormers and slante https://t.co/A5FWj8rpMb
p961
aVGoogle Image Result for https://t.co/WlYVmjXG3E https://t.co/MSLcgJOnvf
p962
aVWe wrap up our #pintour with a look at the gorgeous back patio.  Perfect for entertaining, the patio https://t.co/gC1Pm9CqZJ
p963
aVCasabella Interiors Interior Design Photo Gallery Cape Cod Massachusetts https://t.co/fJrG5rzrpv
p964
aVLattice holy cow this is a pretty house.  see the rose lattice on the wall.  the hydrangeas.  gorgeo https://t.co/5hBNoctiNO
p965
aVCape Cod Beach House-Hutker Architects-13-1 Kindesign https://t.co/kSehdBR6ns
p966
aVSearch for "Cottage" - 15/213 - Home Bunch - An Interior Design &amp; Luxury Homes Blog https://t.co/OR6MTwkF8E
p967
aVCape Cod Beach House Tour: https://t.co/TE80JZu8RI https://t.co/sk8kY8t4Ya
p968
aVThis is how you share a room. Still somewhat private and maximizing space. Need more ceiling height. https://t.co/qXXbDT0sQx
p969
aVRT @HillaryClinton: It's appalling that a presidential nominee of a major party is undermining the pillar of our democracy\u2014just because he\u2026
p970
aV@BuzzFeedNews @BuzzFeed #ifhewins. Unreal,\u000aUnhinged and UNAMERICAN
p971
aVRT @HillaryClinton: "Hillary...crushed Donald Trump in the most effective series of debate performances in modern political history." https\u2026
p972
aVGreat ice canyon ~ Iceland. Iceland is definitely the place I want to travel to almost as badly as I https://t.co/tSOYbrUw3D
p973
aVSee Costa Rica differently: stargaze like never before through a GPS-guided\u2026 https://t.co/m6kHbBso6q
p974
aVLake Como, Italy. https://t.co/WHwSzcxDhW
p975
aVScotland Castle https://t.co/msjGWuBrms
p976
aVLuxurious Le Meridien Bora Bora Resort https://t.co/vQWHiOxYhG
p977
aVThis 10-day itinerary for the South of France includes Roman ruins, the markets of Provence, a drive https://t.co/zjCyJ6mmzL
p978
aVWinter shot of German Castle Burg Eltz   |   The 20 Most Stunning Fairytale Castles in Winter https://t.co/MLGaKvTEBj
p979
aVSchramberg, Baden-Wrttemberg, Germany | by Sadegh Miri https://t.co/jmdOVnC6Vl
p980
aV10 Breathtaking Natural Sights You'll Want To Explore In Iceland - Hand Luggage Only - Travel, Food  https://t.co/tGjOAwDGLM
p981
aVarticle: 25 things to do in auckland https://t.co/paPuepD9S4
p982
aVLausanne, Switzerland https://t.co/iRyLwer7Kl
p983
aV\u201cThe Cambrian Hotel Ski Resort and Spa, Switzerland. Via @Success.Coach | By @loucosporviagem\u201d https://t.co/hlVBcHKmcO
p984
aVLIKULIKU LAGOON RESORT, MALOLO ISLAND FIJI https://t.co/sQMnBGwXfD
p985
aVGeirangerfjord, Norway https://t.co/zn6lxnGKzR
p986
aVLaucala Island - Fiji https://t.co/UQxrXkGSps
p987
aVGrimentz Old Town, Val d'Anniviers, Switzerland. I love finding these little, charming storybook vil https://t.co/8gxTrNKggY
p988
aVBali Indonesia https://t.co/1DGbkn5H79
p989
aV101 Things to Do in Charleston, South Carolina | https://t.co/ajPaeIowRV https://t.co/57XnkAtXsy
p990
aVFrom a fairytale, the old village of Hallstatt, Austria on a snowy day. https://t.co/8N7XSDUcgu
p991
aVLake Lucern, Switzerland https://t.co/QVySyHWUdE
p992
aVAspen, Colorado! https://t.co/CJEpCiJnut
p993
aVCobblestone Street, Edinburgh, Scotland Found @myalltme favoriet https://t.co/gKDF3veAN2 https://t.co/Pitz8lwMB8
p994
aVCozy moments at lake Seealpsee, Switzerland by Jon Guler https://t.co/XZHNlHnW10
p995
aVMirabell Gardens, Salzburg, Austria https://t.co/iuZjALI3YL
p996
aVPlitvice Lakes National Park, Croatia https://t.co/ExxqtGaHal
p997
aVTravel Portugal - Beat the Beach Crunch: Porto Covo, Portugal. Europe has a long list of beach desti https://t.co/So7IANhE4r
p998
aVArt Nouveau facades in Prague, Czech Republic / Photo: Prague - Art Nouveau by Frengo2.0, via Flickr https://t.co/5Rem5Qjqya
p999
aVThe Peacock Room Castle Sammezzano, Tuscany Italy https://t.co/BRWIskE865
p1000
aV20 Photos that scream Visit Cinque Terre https://t.co/uBuyXwl5hA
p1001
aVMont St Michel, Normandy, France https://t.co/KkUH4aHc5P
p1002
aV6 Tips for Travel Within Asia - #travel #Asia #traveltips #vacation #trip https://t.co/owkbTuu20j
p1003
aVDon't want the usual tourist trip to Rome? Here are the top 10 must-see places in Rome that aren\u2019t o https://t.co/9yV8llmrrg
p1004
aV27 Places In The U.S. That Foreigners Are Crazy About  Northern Lights, Alaska https://t.co/QND8b5xuyL
p1005
aVPonta da Piedade on Algarve Coast, Portugal the perfect place for a writing retreat https://t.co/oDl4oI1jz0
p1006
aVCroatia Travel Guide | Easy Planet Travel - World travel made simple https://t.co/5PZa6FGXc0
p1007
aVIn love with this cheerful and colourful beach house space! https://t.co/gYLx46cd8k
p1008
aVRT @SarahKSilverman: Outward Bound need a program 4 adults who don't know that others exist outside his own self interest ya I'm talkin bou\u2026
p1009
aVThe best lifehacks for Thanksgiving out there that will make hosting Thanksgiving dinner a breeze. https://t.co/hgNjY9MpTx
p1010
aVs 18 amazing tablescapes to copy this thanksgiving, seasonal holiday decor, thanksgiving decorations https://t.co/9jH4WiqUG9
p1011
aVThanksgiving isn't just about turkey\u2014we were sold at "Reisling-peach." Pin it. https://t.co/gpkIEka8eW
p1012
aVThis Thanksgiving Shepherd's Pie with Stuffing Crust Recipe just may be the ultimate Thanksgiving le https://t.co/3VV5KKgBTf
p1013
aVCrock Pot Maple Brown Sugar Ham, Hard to believe something so easy can be so delicious! |Recipe by L https://t.co/R5Ty8sEz5O
p1014
aVEasy Garlic and Herb Roasted Turkey | https://t.co/C1HPC7bcvL https://t.co/HTzg8lMFVg
p1015
aVMy Grandma's Thanksgiving Turkey Stuffing has stood the test of time. This buttery, savory, melt-in- https://t.co/CNmS0nhL5S
p1016
aVThis Sweet Potato Casserole is my absolute FAVORITE side dish at Thanksgiving or anytime really! It  https://t.co/cCahAaiacm
p1017
aVHoney Roasted Butternut Squash with Cranberries and Feta :: so easy + delicious you have to try it! https://t.co/DMS9c11ypH
p1018
aVFall Shredded Brussels Sprouts Salad - Crispy and crunchy, and full of fresh and savory flavors! https://t.co/3KAPpEH8CX
p1019
aVCheesy, creamy broccoli casserole with a cheesy breadcrumb topping. This is our favorite holiday sid https://t.co/2K1roIThh9
p1020
aVMade this! Fall Leaf, Mason Jar Candle Holder | 35 DIY Fall Decorating Ideas for the Home | Fall Cra https://t.co/5RTKTfgdBS
p1021
aVOven Roasted Brussels Sprouts with Bacon - A simple and super flavorful recipe! Perfect side dish fo https://t.co/YYskcQBqJO
p1022
aVRoasted Carrots with Honey and Fresh Herbs from Creative Culinary. Find this recipe and others at ht https://t.co/6WHm2XXTNB
p1023
aVFamily will gobble up this easy #ThanksgivingHack! Take a 2\u201d biscuit cutter to four Sam\u2019s Club pumpk https://t.co/hIflWqxDOm
p1024
aVLook at this amazing rustic fall cheese and fruit tray my friend Lindsay made! Fall cheese tray; Tha https://t.co/wpVyQO0yXA
p1025
aVUpholstery Tips &amp; Tricks | LiveLoveDIY https://t.co/cyMzSxAOVF
p1026
aVWhether your once new and celebrated furniture inevitably fades, or you're just looking to add some  https://t.co/cCh9DNEQul
p1027
aVI so want to do this!   Hand font stenciled chair update | A Subtle Revelry https://t.co/SLt7OxTjMQ
p1028
aVDYI, Recover Your Dining Chairs with Waterproof, Wipeable Fabrics. TWO 24" Squares of Laminated Cott https://t.co/Mc9F7KFt9B
p1029
aVHow to Recover A Chair Seat in 5 Easy Steps - for kitchen chairs and bar stools https://t.co/LpskjwIAu9
p1030
aVCozy.Cottage.Cute.: How to Recover a Chair All By Yourself (Mostly) https://t.co/qbAZKkFxSZ
p1031
aVUse a picnic tablecloth to recover your outdoor furniture! Upholstery Tips &amp; Tricks You Should Know! https://t.co/6gKxwnLIb8
p1032
aVVideo Tutorial: How to Reupholster Dining Chairs and Protect the Fabric https://t.co/08Rkj3ocl4
p1033
aVRecovered bar stool seats https://t.co/aa1P6IwOe1
p1034
aVHow Much Fabric Do I Need to Reupholster This Chair, Sofa or Stool ? \u2014 Butler K. Fabric Yardage Char https://t.co/TK5sFjzCA2
p1035
aVHow to upholster a chair seat I'm going to need to do this to my dining room chairs in the near futu https://t.co/FI8cBYfHsF
p1036
aVBeautiful Back Porch - 65 Beachy Porches and Patios - Coastal Living https://t.co/KP90hj7eaT
p1037
aVPatio with fire pit https://t.co/w8oiRRzQup
p1038
aVIf you're lucky enough to have open floorspace under the stairs, reclaim it by creating a cozy nook. https://t.co/XigKVUenSt
p1039
aVUNIVERSAL DESIGN https://t.co/6zYNUCUyeQ
p1040
aVDevon Clock - The antique inspired Devon Clock makes a bold statement, oversized at 42."&amp;nbsp; Perfe https://t.co/sz2Jdislww
p1041
aVRT @paulkrugman: Let's be clear: a candidate for president promised to put his opponent in jail if he wins. Everything else is secondary.
p1042
aVRT @HillaryClinton: Trump talks tough on trade and Chinese steel hurting American workers\u2014but he bought Chinese steel for two of his last t\u2026
p1043
aVComo hacer unos bonitos pompones de papel despues los podeis utilizar para otros cumpleaos o simple https://t.co/btFUZpKW3t
p1044
aVAre you looking for a fun arts and craft idea to do with your kids? You will love this easy recipe  https://t.co/9PvAQu2Pqg
p1045
aVRT @goldengateblond: "We have a very divided nation," says the man who spent years peddling the lie our first black president didn't deserv\u2026
p1046
aV#debate Find myself checking out. Cannot listen anymore
p1047
aVRT @SarahKSilverman: Someone should show him what disaster is.  He's maybe not experienced actual disaster  #debate
p1048
aV#debate  Donald, the kids on my granddaughters playground are lest infantile than you
p1049
aV#debate So sad. European friends and bus. assoc. want to know, What in God's name is going on in your country. Please Donald slither away
p1050
aV@realdonaldtrump  No absolute power for Pres. 3Branches of gov"t. Look it up!!!! Donald
p1051
aV#debate locker room talk is pass the soap pleas.
p1052
aV#debate Donald wake up, Secretary Clinton helped elect and served\u000aan African American President
p1053
aVHow to Paint Kitchen Cabinets the RIGHT way from Confessions of a Serial Do-it-Yourselfer https://t.co/zGkGKwVj1k
p1054
aVEnjoy these delicious and easy to make corn dog muffins. Great appetizers for parties, or when the k https://t.co/sSfk9WnIIx
p1055
aVcheesy-cauliflower-breadsticks-collage3 https://t.co/9N1NVQVqNj
p1056
aVConceal a Drop Ceiling..if you have one in the basement, a great way to dress it up https://t.co/NwVRyyGSzO
p1057
aVContactDMCA DisclaimerPrivacy Policy  All materials, unless otherwise noted, were taken from the In https://t.co/vdyitvfpix
p1058
aVSmall laundry ideas | https://t.co/5JMsKv6iYu https://t.co/QcpqEFEbxT
p1059
aVawesome Interior Design Ideas for your Home - Home Bunch - An Interior Design &amp; Luxury Homes Blog https://t.co/w0cEbTn5k2
p1060
aVBeautiful Laundry Room Ideas Stacked Washer Dryer With Stackable Washer And Dryer Decorating Ideas F https://t.co/xfoVQIvefx
p1061
aVWasher and Dryer Significantly Higher Off The Ground/ Pull-Out To Support Baskets/ Have Them Side By https://t.co/GXjPHlwUF3
p1062
aVLook very closely, and NOTE:  how there are doors ***********  recessed that pull **  out and cover  https://t.co/bU1aBZ9gGm
p1063
aVLaundry room with cement floor tile. Tile is from @porcelanosa_grupo. JShomedesign https://t.co/9xeARINXtd
p1064
aV11 Creative and Clever Laundry Storage Ideas for Small Spaces | Small Room Ideas https://t.co/YlSg3VqK8R
p1065
aVCome get some inspiration on a few of the spaces that have inspired me this week. There are so many  https://t.co/SKfhz1aTp9
p1066
aV5 Laundry Room Ideas from Designer Gillian Pinchin Photos | Architectural Digest https://t.co/rXnBOXwon3
p1067
aVsmall laundry rooms | Enlarged Laundry Room &amp; New Mudroom Lockers | https://t.co/hBbjPo6jWo | CASE ... https://t.co/AMdYjeDAFW
p1068
aVLaundry Room Makeover Photos And Ideas For Your Home https://t.co/iI45Nvo2Li
p1069
aVThis is easily my favorite breakfast of ALL TIME. The recipe only has three ingredients and it could https://t.co/GuYVVlZmUF
p1070
aVThanksgiving appetizers aren\u2019t usually the talk of the table, but that\u2019s about to change with this c https://t.co/Hda7MjfQZc
p1071
aV"The Couple Next Door" by Shari Lapena https://t.co/Za6ONBiWyI
p1072
aVSlow Cooker Lemon-Garlic Chicken, Diabetic Recipe https://t.co/9BemsUl4Bu
p1073
aVBowtie Chicken Caesar Salad - a great way to bulk up a salad is to add cooked pasta to it! Try it an https://t.co/XIdcad09go
p1074
aVI'd like to keep these in my phone to empower myself from time to time. https://t.co/OBIbB8F2G9
p1075
aVRemodeling is a great way to make you realize your dream home without investing a lot of money. It i https://t.co/j3wD7KKiCF
p1076
aVCoastal Kitchen Makeover - Sand and Sisal https://t.co/CLibzYnZoo https://t.co/IcA8IoZQi5
p1077
aVLove the overlapping frames, master bedroom, or maybe in living room? https://t.co/iUqBHoNFLY
p1078
aVOven-Barbecued Beef Brisket- so smoky and flavorful, no one will ever believe it was cooked in the o https://t.co/ZBl8tR0VYA
p1079
aVQuick and Easy Black Bean Wrap - vegan and gluten free - sure to become one of your favorite lunch s https://t.co/7vaBQxyP4U
p1080
aVRecipe for Homemade Chocolate Covered Cherries - These chocolate covered cherry cordials are exactly https://t.co/fls1cqWNws
p1081
aV@nytimes #terrified too,petrified at the thought of Trump Presidency SPEAK UP
p1082
aV@nytimes Donald 3x married, unmitigated gaul to call out others marital/fidelity records.
p1083
aVHGTV Remodels shows you how to get organized by creating a basement laundry room that's packed with  https://t.co/FI75LALao0
p1084
aVHGTV Remodels shows you how to get organized by creating a basement laundry room that's packed with  https://t.co/ry3EwZxBI2
p1085
aVHGTV Remodels shows you how to get organized by creating a basement laundry room that's packed with  https://t.co/sfhbxTi565
p1086
aVCheck out these tips for keeping your basement feeling light, bright and full of color at https://t.co/mFxGwlaYld. https://t.co/mrMC3mv7Qw
p1087
aV51bd083bd9127e264b0019bc._w.540_s.fit_ https://t.co/lzirIv8NaP
p1088
aVLarge Window Seat https://t.co/hTmDYyCdHp
p1089
aVNetflix Has A Ton Of Secret Movie Categories And Here\u2019s How To Access Them https://t.co/4WgrJJj5kO
p1090
aV#quotes https://t.co/xx8JlqpQwX
p1091
aVKnow that you can start late, look different, be uncertain and still succeed https://t.co/rCUT3GOrC4
p1092
aVCorn and Potato Chowder Recipe for the Crock Pot Slow Cooker https://t.co/oThrrz1A5h
p1093
aVHappy Friday everyone!! I hope you all had a great week &amp; thank you for\u2026 https://t.co/BFgZaYw4wm
p1094
aVAre You Looking For Some Great Compact Bathroom Designs and ... https://t.co/TljaGWbhEw
p1095
aVMulticolored coleus -- shade-friendly, for when we finally do the backyard bed https://t.co/PVB4lc9Caa
p1096
aVGreat site. Checkout 19 best pergola plants for your garden. These climbing\u2026 https://t.co/2KOiibxtZH
p1097
aVI absolutely love this linen/towel closet inside of the bathroom and with\u2026 https://t.co/uSEi27auuO
p1098
aVBeach House https://t.co/kVx6y7DJq7
p1099
aVIf you have a small garden or you live in a colder region, plant lemon tree in\u2026 https://t.co/mkeHj8pQCU
p1100
aVGarden Pruning Guide | List of easy to grow plants and when to prune from a DIY\u2026 https://t.co/HXiT3ZVIWQ
p1101
aVCheck out these 18 Flowering Ground Cover Plants, you\u2019ll find some best low\u2026 https://t.co/sxmPqRo1id
p1102
aVJust as we enjoy perennials that bloom in spring or summer, there are also\u2026 https://t.co/bXBA18CA9q
p1103
aVFind out which low-maintenance perennials need little dividing to keep them\u2026 https://t.co/ZBLhrVW2Bm
p1104
aVThe Best New Shade Perennials for 2014 https://t.co/uAFo85rTld
p1105
aVThe Best Perennials for Shade https://t.co/YT41i6bXHu
p1106
aVI have planted these and they are awesome! Persian Shield- gorgeous colors in\u2026 https://t.co/LJpm3iwiLu
p1107
aVOne of my favorite plants ... Oxalis Triangularis "Sunny" https://t.co/GSwJYquS7h
p1108
aVLearn about full sun perennials, including daylily, Shasta daisy and penstemon\u2026 https://t.co/DeZVFjJaGZ
p1109
aVFind out which low-maintenance perennials need little dividing to keep them\u2026 https://t.co/cqebiTLTG7
p1110
aVBeautiful sheer grommet panel with attached pleated valance creates a light airy\u2026 https://t.co/p4OfMpx0FX
p1111
aVwhat a cool idea!  Have your window in the shower and protect it with a glass\u2026 https://t.co/TpjLYrtzQR
p1112
aVA great way to add a shot of color to a nuetral drapery https://t.co/qYBRbCJrcR
p1113
aVwindow treatment https://t.co/AM99ERbXiT
p1114
aVGreat guest room Charming bedroom with antique bed, bamboo blinds &amp; toile\u2026 https://t.co/hA5SLMNjzS
p1115
aVHouse of Turquoise: Interiors by Kathy Rollins Valance with banding mounted on\u2026 https://t.co/OMmuV3oN4F
p1116
aVRailingWorks aluminum cable railings with 2" fascia mounted post. LockDry\u2026 https://t.co/Tg27JecBjU
p1117
aVCable railings featured on DIY Yard Crashers TV. https://t.co/9GJ4nRPWzS https://t.co/8OynpB5Z1o
p1118
aVRailingWorks glass and cable railings with Lockdry waterproof decking\u2026 https://t.co/09SlmAIDAM
p1119
aVCoolbreeze aluminum pergola with a complete aluminum deck from Nexan\u2026 https://t.co/XVdRrnECZy
p1120
aVDeluxe freestanding Coolbreeze aluminum pergola. https://t.co/9GJ4nRPWzS https://t.co/UfAkDDYAKW
p1121
aVhalf wall where the stairs start https://t.co/Z0qspTLiBk
p1122
aVRooms Viewer https://t.co/0iEZY3PUEd
p1123
aVBrowse these before-and-after fireplace photos from https://t.co/mFxGwlaYld. https://t.co/ELsTFNBvSx
p1124
aVDesign a cozy retreat for fall with the latest design trends from https://t.co/mFxGwlaYld\u2026 https://t.co/A9S47ndRtV
p1125
aVConsidering installing a hot tub on your deck or patio? Get design ideas and\u2026 https://t.co/AO1DnqT9Xf
p1126
aVConsidering installing a hot tub on your deck or patio? Get design ideas and\u2026 https://t.co/9XpQ97BYr3
p1127
aVConsidering installing a hot tub on your deck or patio? Get design ideas and\u2026 https://t.co/ekyMhN5hCB
p1128
aVConsidering installing a hot tub on your deck or patio? Get design ideas and\u2026 https://t.co/OOfmEUHvKP
p1129
aVConsidering installing a hot tub on your deck or patio? Get design ideas and\u2026 https://t.co/G3BkovjJ4i
p1130
aVConsidering installing a hot tub on your deck or patio? Get design ideas and\u2026 https://t.co/fbztwz70A6
p1131
aVCheesy Low-Carb Broccoli and Cauliflower Soup https://t.co/05Ybgnyy68
p1132
aVround wash basin https://t.co/wHGvjMShcR
p1133
aVHow to dye seashells https://t.co/BXD6YsWU5l
p1134
aVGreat screened porch https://t.co/hLrjJF5du3
p1135
aVlaundry / mud room combo with gray shaker cabinets, painted Benjamin Moore Paper\u2026 https://t.co/w1yO0kVmpJ
p1136
aVKitchen Islands with Seating https://t.co/QDD6MW2BzN
p1137
aVThis is a traditional kitchen with contemporary features. Painted white, shaker\u2026 https://t.co/65JaKJwJEM
p1138
aVSee a Small Attic Transformed Into a Kid\u2019s Hideaway https://t.co/IxtoBay069
p1139
aV101 Rib-Tickling Knock Knock Jokes for Kids https://t.co/U5PIykQ6Q5
p1140
aVHomemade Soft Pretzels https://t.co/iwLHuwrY6j
p1141
aVGrease; Sandy https://t.co/ta8vburBad
p1142
aVRooms Viewer https://t.co/KC9wTYVBI6
p1143
aVRooms Viewer https://t.co/yoWiEfuwKg
p1144
aVRooms Viewer https://t.co/v6MJF26KWq
p1145
aVRooms Viewer https://t.co/D4MuShIhQ3
p1146
aVRooms Viewer https://t.co/YVxqJVoTPT
p1147
aVRooms Viewer https://t.co/WN6whcuYMn
p1148
aVRooms Viewer https://t.co/0f5t6x9BFu
p1149
aVRooms Viewer https://t.co/XDuWlsG0s0
p1150
aVRooms Viewer https://t.co/PJ8e82DJ3Q
p1151
aVRooms Viewer https://t.co/CtmiBNvrAk
p1152
aVRooms Viewer https://t.co/ViM3i0lvnZ
p1153
aVRooms Viewer https://t.co/qVEPtutYcH
p1154
aVRooms Viewer https://t.co/0MDujy5LZa
p1155
aVRooms Viewer https://t.co/3rnrqnrizZ
p1156
aVCooking With Kids: 30 Simple Recipes Kids Can Make Themselves https://t.co/rQqh9diaw6
p1157
aVHomemade Pizza Twists made with Crescents https://t.co/VfUJnefGfN
p1158
aVMini Corn Dog Muffins-makes 16 1 package Jiffy Corn Muffin Mix 1 egg 1/3 cup\u2026 https://t.co/haX9S2Gtx1
p1159
aVBread in a Bag https://t.co/kRyDNjj393
p1160
aVEasy Homemade Pretzels https://t.co/XxRUB2i0N9
p1161
aVSummer Craft Ideas for Kids https://t.co/gdcnUhIElL
p1162
aV29 Of The BEST Crafts &amp; Activities For Kids (Parents love these, too!) https://t.co/KvWhv6kEB5
p1163
aVHomemade Glitter Gak https://t.co/OYkmakoHhs
p1164
aVSquirt Gun Painting: Amazing Summer Art for Kids https://t.co/Z4eLohxNVh
p1165
aVSalt Painting - This is such a cool project! I love that it only uses a few\u2026 https://t.co/iNLyVTkEej
p1166
aVStuffed animal storage and organization ideas https://t.co/gbkIVmjE7F
p1167
aV20 Ways to Use IKEA's RIBBA Picture Ledges All Over the House https://t.co/FL9BBw7X36
p1168
aVCreative organization https://t.co/VhtaLYJxGt
p1169
aVbedrooms that look like playrooms https://t.co/Ap9QfbrYkG
p1170
aVPuzzle storage.  Cut picture out of box place in the window of a zippered pouch\u2026 https://t.co/mnNujXScBm
p1171
aVStore all the Lego manuals in one binder so you have them at your fingertips\u2026 https://t.co/0mSmwRAwNN
p1172
aVIt really works!  Under bed shoe organizer for Barbies!!! https://t.co/G4Q8RM4jaY
p1173
aVPack 'N' Go Kitchen - DIY Toy Stove made with Silhouette Cameo - Tutorial + FREE\u2026 https://t.co/SZaePFBchg
p1174
aV10 Amazing Ideas For Toy Organization https://t.co/q5ntrql5eY
p1175
aVAdorable small house and beautiful backyard https://t.co/UcBuNeZU09
p1176
aVPorch | Breezeway - Laundry/Mud Room project from J &amp; J Contractors I LLC https://t.co/JNfQB8T1sO
p1177
aVGarage to house breezeway photos https://t.co/8rubKGGqrk
p1178
aVPergola attaching the guest house to main house... Inspiration for our garage\u2026 https://t.co/rp8TiIvB3I
p1179
aVthe little breezeway from house to cute garage https://t.co/WfVaS2ZP0b
p1180
aVgarage with breezeway in back of house - Google Search https://t.co/GT1oH3qVGm
p1181
aVbreezeway between house and garage - Google Search https://t.co/C4nD0oOd1V
p1182
aVmudroom breezeway - Google Search https://t.co/c7yfTi3geH
p1183
aVmudroom between garage addition - Google Search https://t.co/oogFxavVUl
p1184
aVbeach house https://t.co/Ao9N4dLvBx
p1185
aVCOOK ARCHITECTURAL Design Studio | This breezeway connects the 3-car garage to\u2026 https://t.co/Ef6bSYqTjy
p1186
aVPretty breezeway - more than just a walkway - it is its own outdoor area. You\u2026 https://t.co/I3sqyXqxqY
p1187
aVBreezeway with white walls, brick floors and multiple windows. Wood ceiling\u2026 https://t.co/OUPAgzfUeZ
p1188
aVenclosed breezeway - Google Search https://t.co/sMaAksadFV
p1189
aVScreen porch by John B Murray  I like the detail -- transom effect -- breaks up\u2026 https://t.co/obkwHiAjoh
p1190
aV65 Beachy Porches and Patios https://t.co/HER2cxn4TV
p1191
aVAwesome sliding pass-through window from kitchen to screen porch https://t.co/u8Pmc6HfW3
p1192
aVNow this is a screen porch, with the fireplace and the TV, the comfortable\u2026 https://t.co/pIB2dISVFL
p1193
aVSouthern Living on Twitter: "Is this screened porch an addition or an original\u2026 https://t.co/pwf29uusT9
p1194
aVOur Favorite Pins Of The Week: Screened-In Porches https://t.co/nTmeWjfCb6
p1195
aVBack screened in porch LOVE!!! Modern Farmhouse https://t.co/pEQdggl5hW
p1196
aV47 Porches and Patios We'd Love to Relax On https://t.co/Nse0mPaqX8
p1197
aVFirefly\u2122 Ceiling Mounted Patio Heater - Keep toasty warm inside a gazebo or\u2026 https://t.co/IKjZvAYTGY
p1198
aVBarn Doors:  top of the list for my back screen porch.  would make getting\u2026 https://t.co/SZ3GbVXBao
p1199
aVSouthern Living Screened Porch Ideas | Found on https://t.co/vpM4TNkBPo https://t.co/tip1qJqlOf
p1200
aV80 Breezy Porches and Patios https://t.co/mwHwxmmDcU
p1201
aVIndoor Porches You'll Love https://t.co/71gOM1DO34
p1202
aVThis is a beautiful color combo (Palladian Blue by Benjamin Moore). https://t.co/vFtCbKxcJb
p1203
aVRaised patio featuring Brisa wall system https://t.co/A7nsUAWZry
p1204
aVNow that's really cool! Screened in porch with a hammock! Double win! https://t.co/3CPNcwgWTK
p1205
aVVisit https://t.co/HiRupQEusk to find homes for sale in the Charleston, SC area\u2026 https://t.co/dQ21TAAxCn
p1206
aVscreened in porch ideas | Porches Raleigh | Screened In Porch Builders\u2026 https://t.co/Susr3htrau
p1207
aVNavy Exterior Paint Color: \u201cBenjamin Moore\u2019s Evening Dove 2128-30\u2033. #PaintColor\u2026 https://t.co/cFF6xJZbQO
p1208
aVCauliflower Tikka Masala https://t.co/iEJI61mQYi
p1209
aVa new year. https://t.co/S0hxK5UhcN
p1210
aVCape Cod vacation rental. Would love to rent this house. https://t.co/i7yejZgDcr
p1211
aVSmall Laundry Room Inspiration https://t.co/XTgDdmKBI6
p1212
aVHilarious Quotes For Sarcastic Women Who Honestly Don't Give A F*ck https://t.co/t8hc2qhrQj
p1213
aVHouse tour: Coastal-style cottage https://t.co/Hw0I6lEiLv
p1214
aVbreezeway. Maybe not a "must have", but would certainly love having the garage\u2026 https://t.co/tkTWnQM2pe
p1215
aV. https://t.co/gI9yo3OK2X
p1216
aVCheesy Garlic Herb Crack Bread https://t.co/A2TzhWock5
p1217
aVBeautiful Beach Cottage https://t.co/mlxyuGibiX
p1218
aVThe Best French Onion Soup \u2013 A love story https://t.co/WQ8RC0gAX1
p1219
aVCreamy Garlic Scallops https://t.co/lG2SQ47RrS
p1220
aVStars https://t.co/zVvC9YWuOK
p1221
aVChicken Lo Mein https://t.co/InYwn3P2lv
p1222
aVThe Best Baked Beans https://t.co/E4U3hyjDZ8
p1223
aVBenjamin Moore's Coral Buff. This color is part of the Classic Color Collection. https://t.co/T95WKGBcxj
p1224
aV30 Bathrooms with L-Shaped Vanities https://t.co/cqZaOfEmW1
p1225
aVbeach house mudroom | Dove Studio https://t.co/1erOWjtBsf
p1226
aVLooking for #Quotes, Life #Quote, Love Quotes, Quotes about Relationships, and\u2026 https://t.co/0OUagjLyQh
p1227
aVGreat Idea for a guest bedroom. green blues and tan | buffalo check | boys room\u2026 https://t.co/aVWzqBDU29
p1228
aVRoman shade idea for new house living room/dining room https://t.co/RHK1OigRnP
p1229
aVRelaxing Cottage Guest Rooms You'll Want To Be Invited To https://t.co/WEegJKYO3Y
p1230
aVTruthFinder gives you access to details about the people in your life. Access\u2026 https://t.co/pZAZa3Rrds
p1231
aVLove this outdoor shower! https://t.co/lewM1pHFzV
p1232
aVOur Favorite Outdoor Showers https://t.co/vNcw9rk8P5
p1233
aVHampton Outdoor Shower Kit https://t.co/bykXF4FyAk
p1234
aV30 Cool Outdoor Showers to Spice Up Your Backyard https://t.co/VSwLyOEgmt
p1235
aVOutdoor Showers are our specialty. Our Cape Cod Outdoor Shower Kit Enclosures\u2026 https://t.co/eKeJK14b5U
p1236
aVI really want an outdoor shower. It's a thing I really want. (sarah) https://t.co/OPDWomSILY
p1237
aVOutdoor Living : Outdoor Shower. Cupboard or medicine cabinet keeps toiletries\u2026 https://t.co/6KpoLm1Whr
p1238
aVThe MacMillans' Converted Greenhouse \u2014 House Tour https://t.co/AtyiSuTdBe
p1239
aVoutdoor shower - Click image to find more Home Decor Pinterest pins https://t.co/MZ7FA7dcAQ
p1240
aV47 Awesome outdoor bathrooms leaving you feeling refreshed https://t.co/A1EH8cfoYk
p1241
aV16 DIY Outdoor Shower Ideas https://t.co/369SbvVTxF
p1242
aVBeautiful Laundry Room - washer and dryer set up high, lots of storage, pretty\u2026 https://t.co/rAgKowUNPc
p1243
aVOver 660 Kitchen Design Ideas https://t.co/rEx8bXAq2b\u2026 https://t.co/Xnb3fBrcYA
p1244
aVrestoration hardware Belgian Heavyweight Textured Linen Flat Roman Shade for\u2026 https://t.co/XzOI0URAPR
p1245
aVWood-look tile combines the natural warmth of wood with the durability and easy\u2026 https://t.co/cdn4q8L6dC
p1246
aV20 Insanely Clever Gardening Tips and Ideas (with pictures!) https://t.co/xhmYWBogbu
p1247
aVRosemary Garlic Butter Steaks ~ Muchtaste https://t.co/GJIuDiqEEp
p1248
aVI do this to myself always https://t.co/a4zJazhCCb
p1249
aVorganization, organizing hacks, stay organized, home, home decor, cleaning\u2026 https://t.co/pZpCuJaFWw
p1250
aVBroccoli and Cauliflower Salad https://t.co/winJSDtPH0
p1251
aVThis Is What The Perfect House Looks Like (Room By Room), According to Pinterest https://t.co/Yh8tEzQxVZ
p1252
aVmycountryliving: \u201c (via Pin by AlisaE on Kitchen | Pinterest) \u201d https://t.co/FoRY76K9dy
p1253
aVPotato Salad Best #Cajun #recipe #Side - WHO DAT! https://t.co/JDCY22UaKC
p1254
aVGel Lab Pro Nail Color https://t.co/2jDBHAZ9AH
p1255
aVSlow Cooker (Crock Pot) Beef Gyros with Tzatziki Sauce https://t.co/b6ffOFgO6n
p1256
aVCloset Organizing Hacks &amp; Tips https://t.co/j2Lr0ZenBA
p1257
aVBeautifull landscaped backyard with Miami inground pool featuring dive rock, and\u2026 https://t.co/V1fXQBMDnJ
p1258
aVPHOTOS: 15 Outdoor Showers That Will Help You Let Loose https://t.co/Lam0Rsz118
p1259
aV32 Stunning Patio Outdoor Lighting Ideas (With Pictures) https://t.co/3WYlNKb2cd
p1260
aV15 Swimming Pool Decks Design Stone Pavers Tiles (Pictures) https://t.co/a9D1TKfE1o
p1261
aVClever Ways to Hide AC &amp; Pool Equipment | A Shade Of Teal https://t.co/BUmbwX4lNX
p1262
aVThese mesh pool toy storage bins are large enough to hold everything from pool\u2026 https://t.co/enDJQXpg8U
p1263
aV15 Swimming Pool Decks Design Stone Pavers Tiles (Pictures) https://t.co/0GPPH5p4hL
p1264
aV25 Ideas Of Stone Pool Deck Design https://t.co/M5lPt2Pwi5
p1265
aV31 Insanely Clever Remodeling Ideas For Your New Home https://t.co/sGqHz7YXkN
p1266
aVView Orientated Coastal House Plans - Perch Collection \u2014 Flatfish Island Designs\u2026 https://t.co/ugVOn7iQSf
p1267
aV20 Fabulous Beach House Bunk Rooms https://t.co/LTD2vp7YiI
p1268
aV65 Stylish Window Seat Ideas https://t.co/kkYJmdKdh0
p1269
aVMaine Beach House with Classic Coastal Interiors https://t.co/rPVtMGpuTh
p1270
aVdecor \u2661 https://t.co/7EG775zK4M https://t.co/2hwPiOKWMo
p1271
aVBeach Drive residence, WI. Colby Construction.Tricia Shay... (Georgiana Design) https://t.co/MvErSTHMxx
p1272
aVBay Head Beach Bungalow https://t.co/Bes6yQyrTM
p1273
aVQuaint shingled cottage with covered porch and brick walkway. https://t.co/JKUL02BMEn
p1274
aVCoastal Home Plans - Santa Rosa Sound https://t.co/VcXZb85i6e
p1275
aVCape Cod beach house https://t.co/aFBtGW5AL6
p1276
aVWhite Beach House | photo warren heath 9 https://t.co/HSiixbllyt
p1277
aVHouse Plan 928-11 https://t.co/kjC8iguRqV
p1278
aVBeach House with Fixer Upper style https://t.co/F5J481dVCe
p1279
aV75 Modern Rustic Ideas and Designs https://t.co/QUjPuBsqHp
p1280
aVThe Most Beautiful Bunk Beds We\u2019ve Ever Seen https://t.co/pC2tMw0aBw
p1281
aVhttps://t.co/TNqpX56rYi an excellent budget minded plan. the bath near the entry can be\u2026 https://t.co/4JeDUok2FA
p1282
aVSomething like this in the garage would be wonderful! https://t.co/lfQJOeUnPi
p1283
aVUltimate California Beach House with Coastal Interiors (Home Bunch - An Interior\u2026 https://t.co/EDdvgMfbaj
p1284
aVFirst Floor Plan of Cape Cod   Cottage   Country   Southern   House Plan 86106 https://t.co/gYwh55vYIg
p1285
aVLovely Lowcountry home located at Hampton Lake in Bluffton, SC. https://t.co/mlAb3YAgC7
p1286
aVCoastal House Plan 86169 | Total Living Area: 1957 sq. ft., 4 bedrooms and 3\u2026 https://t.co/6Hcg5wgREp
p1287
aVBeach House Plans, I would add an office area next to bedroom 3 and a creative\u2026 https://t.co/9A6pJfzYd0
p1288
aVWith some minor alterations this could be a fantastically awesome perfect floor\u2026 https://t.co/DWbtJxL20l
p1289
aVPlan 1782DW: Beachside Beauty https://t.co/mG58cNKGE7
p1290
aVsliding doors to the beautiful outdoors! https://t.co/knPzBb0AO7
p1291
aVBack Porch Fireplace https://t.co/e5iNSck0az
p1292
aVcircus themed art activities for preschool - Google Search https://t.co/Cre97bTk6D
p1293
aV15 Super-Easy Hairstyles for Lazy Girls Who Can't Even https://t.co/GQXHnAlh3n
p1294
aVChinese BBQ Pork Buns #2 [Update: great recipe, simple, if having to use tenderloin, use the pork be https://t.co/4yXWerJ5CH
p1295
aVSuper soft pretzels with a salty crust that are easy to make and better than the ones you\u2019ll buy at  https://t.co/qpYLxgWgr0
p1296
aVGorgeous and impressive, this Asparagus Gruyere Tart makes for a delicious appetizer or main dish. I https://t.co/fi0ihoSAUE
p1297
aVhttps://t.co/Su7KdeHx2n
p1298
aVSparkling White Peach Sangria is a great brunch or summer cocktail! Making it ahead makes it a great https://t.co/Aun6jE0SOq
p1299
aVAmazing and flavorful beef that slow cooks to tender melt in your mouth perfection! This will be one https://t.co/oLiBURTQDL
p1300
aVEasy Chicken Parmesan Bake Recipe- 5 ingredient one dish dinner!  Love that there is almost NO clean https://t.co/8sRxYx5g7y
p1301
aVLove multiple sets of french doors. Pool and jacuzzi. https://t.co/HQpg7wP2XW
p1302
aVPatio. Combination of open patio and covered patio with outdoor kitchen and outdoor fireplace. #pati https://t.co/aUln9qqjVG
p1303
aVBack of garage- the doors slide open onto the terrace so the garage can double as entertaining space https://t.co/FhgG32c4uG
p1304
aVPost and Trim Shaker Kitchens - Contemporary Shaker Kitchen - Tom Howley https://t.co/cIAqKLKEoF
p1305
aVRed Velvet Madeleines from @createdbydiane https://t.co/QknLLd6sRY
p1306
aVWhy is this not in my possession?? William Sonoma mini pie maker! BE STILL MY HEART! https://t.co/yI4maIzCjD
p1307
aVDing Dong Cake-rich devil's food cake, a vanilla cream filling and smothered in chocolate ganache! J https://t.co/ZJSJ5UJcHV
p1308
aVFrench Onion Soup Casserole: the perfect cool-weather side dish! https://t.co/Q0HELbmxJP
p1309
aVEasy Thai Shrimp Soup - Skip the take-out and try making this at home - it's unbelievably easy and 1 https://t.co/Q5yemrbMWG
p1310
aVOne Pan Roasted Lemon Pepper Salmon and Garlic Parmesan Asparagus - this is so easy to make and the  https://t.co/7iyfHKuiiR
p1311
aVEasy Pork Chops with Sweet and Sour Glaze - The easiest, no-fuss, most amazing pork chops ever, made https://t.co/AjXapdhp68
p1312
aVI want this in the backyard of my dream house! https://t.co/aIi7v2m1kK
p1313
aVCrusty parmesean-herb zuchinni - for when you want pizza for dinner but don't want to feel like crap https://t.co/FWH6BvKGBV
p1314
aV25 Step By Step Tutorial For Beautiful Hair Updos \u2764 - Trend To Wear https://t.co/PBZg1A4HeV
p1315
aVStandard Bernedoodles - SwissRidge Bernedoodles - The Originator of the Breed https://t.co/nw9XcfvkNk
p1316
aVChores are an important part of building responsibility and independence. You may not choose each of https://t.co/FyNbFL7ZH9
p1317
aVHome Made Tick Tack Toe Painted Stones https://t.co/bvJjhccrRl
p1318
aVThe Best Soil for Container Gardening https://t.co/0GCIVJa16a
p1319
aVSmall laundry-room-organization. Breadboards, baskets, a removable surface. https://t.co/zLNZa6WWnV
p1320
aVGrilled Coconut Lime Shrimp and Summer Veggies in Foil https://t.co/LtBzoMe4Dz
p1321
aVSee What Leading Beverly Hills Plastic Surgeon Dr. John Layke Recommends to Smooth Out Your Crepey S https://t.co/9Mpe4NCjBG
p1322
aVTreat yourself to just the right amount of coverage for a dewy, natural-looking, radiant glow. Meet  https://t.co/GghZiW4Db9
p1323
aVgirlshue - Awesome, Cute &amp; Inspiring Short, Medium &amp; Long Hair Styles For Women https://t.co/8in6ZaDUkM
p1324
aVIncredible beach house READY NOW in Santa Rosa Beach's Watercolor community. Retire here! https://t.co/dsfz8S4qkq
p1325
aVBroccoli Apple Salad Recipe ~ This one has a delicious, crisp apple, with red onion, celery and crum https://t.co/5Kz2qZPgcS
p1326
aVApple Tuna Bites - perfect for a low-carb lunch or snack! https://t.co/iT0rjzYVrO
p1327
aVHam and Cheese Sliders. These are SO SO SO GOOD. Seriously, you guys. My mom has been making them fo https://t.co/oOu6kVeDPY
p1328
aVhttps://t.co/LYsbGFmA4g
p1329
aVNow it\u2019s time for some contouring magic, y\u2019all. | Here's How To Do Your Makeup So It Looks Incredibl https://t.co/u8oSE5b45n
p1330
aVLOVE the highlights &amp; lowlights - totally what I want to do with done dark browns mixed in too https://t.co/CkMtATznuN
p1331
aVBLT Chopped Salad Recipe ~ All the goodness of a BLT in a healthy, salad form with a refreshing lime https://t.co/wyvngnttmy
p1332
aVCauliflower and Broccoli  Salad -  loaded with crunchy broccoli, cauliflower, kale, and carrots, coa https://t.co/SlVo4gf0mo
p1333
aVButtermilk Roasted Chicken - super flavorful, moist, tenderized chicken! Healthier way to cook chick https://t.co/xvhP807JTE
p1334
aV31 Detox Water Recipes for Drinks To Cleanse Skin and Body.  Easy to Make Waters and Tea Promote Hea https://t.co/IPvDtJ9NOI
p1335
aVBenjamin Moore Wythe Blue HC-143. "Benjamin Moore Wythe Blue HC-143". Paint color is Benjamin Moore  https://t.co/Iy5ksrQcKq
p1336
aV10 Healthy Smoothie Recipes for Weight Loss.. https://t.co/3qn9F7Pe5f
p1337
aVShutters With Drapes Design Ideas, Pictures, Remodel, and Decor https://t.co/rGi5WB216B
p1338
aVInterior Design Ideas - Home Bunch - An Interior Design &amp; Luxury Homes Blog https://t.co/lYWqstJAxL
p1339
aVDining Room Hutch. Charcoal Dining Room Hutch. Interior Design by Beth Webb Interiors. https://t.co/xCSGlLxfFw
p1340
aVWine boxes make the perfect container for your favorite vegetables. Just add some Miracle-Gro Pottin https://t.co/PZot9jdZSk
p1341
aVLovely Lowcountry home located at Hampton Lake in Bluffton, SC. https://t.co/pOBotzT5DU
p1342
aVLove wood tile in a herringbone pattern. Such a great look and SO DURABLE! (@flooranddecor) https://t.co/40cJnrLCB1
p1343
aVedged, relaxed roman shades https://t.co/Lt2pYqKCg9
p1344
aVThis will be our lake house when we are retired old snowbirds. Summers in Indiana, winters in Arizon https://t.co/aAEkMvN7mS
p1345
aVHow do we know these are custom?  The stripes match across the panels and romans exactly! https://t.co/mdeOB1NZeM
p1346
aVhttps://t.co/Z8udkvIPJ4
p1347
aVoutdoor shower https://t.co/SpEyDNmQoI
p1348
aVcottage https://t.co/uWtT36K9sR
p1349
aVBack porch fireplace with a big screen tv and patio furniture https://t.co/iDfN6NHxdO
p1350
aVfirepit, planters, concrete, stainless, water, multi level, pool https://t.co/IcQthmMLvj
p1351
aVThis rustic outdoor room at water's edge creates a memorable setting for parties, songfests and stor https://t.co/fwIyqlVt32
p1352
aVLove! https://t.co/vxhtKgxUTw
p1353
aVdream lake house, with the dock and the canoe and the power boat. Perfect!! https://t.co/oRvg2EBZ25
p1354
aVcabins by a lake with a deck https://t.co/Hp8W15b1Yb
p1355
aVWicker, painted furniture, cottage style, beach house https://t.co/3ma0rWyVDx
p1356
aVSmall Cabin by the lake https://t.co/Viz5KRlZvz
p1357
aVTiered Backyard with Pool | photo Virginia Macdonald |design David Mather | House &amp; Home https://t.co/lIuqaOazCy
p1358
aVYear-Round Pool House https://t.co/dHTWZgASYN
p1359
aVHamptons home of Gloria Kirschner. Traditional Home. https://t.co/jHxX255PZy
p1360
aVswimpond, self-cleans and no chemicals https://t.co/kcJep3xpiF
p1361
aVswimpond, self-cleans and no chemicals https://t.co/SRod6dho8o
p1362
aVdecorology: Beautiful bathroom's with tubs! https://t.co/Fnq07pItI4
p1363
aVWould love to have this. Such a cute beach cottage! https://t.co/Eyl0TkIRA1
p1364
aVTrending Now: Kitchens With Contrasting Cabinets - https://t.co/nEm2jVNixV https://t.co/i6xUFe0tH4
p1365
aVJute, Sisal, and Seagrass! Look at that amazing texture! Visit Rugs USA for a large variety of optio https://t.co/R8ot6oKbrY
p1366
aVMaster bathroom. Bath tub in shower. Home. https://t.co/2v6UrMAFep
p1367
aVBarn-style screen door. If you love the charm of barn doors, why not have one customized to use as a https://t.co/A3fWr1TIFs
p1368
aVThe design on the drapes mimics the pattern on the wallpaper in the butler's pantry of the #OMoreSho https://t.co/z3l1hCgcai
p1369
aVThis copycat Szechuan Shrimp and Broccoli recipe is ridiculously tasty and ready in just 20 minutes. https://t.co/R8gfvlKM6n
p1370
aVcool Love the wood and colors in this beach house!... https://t.co/eRwR3wFxEb
p1371
aVBenjamin Moore HC-81 manchester tan, one of Candice Olson's colors. A most wonderful khaki...not yel https://t.co/J5yeqaPCyK
p1372
aVi want this house https://t.co/WJE3YrgJgD
p1373
aVwhite, airy, romantic https://t.co/ANBGeUjqL0
p1374
aVbobbi brown brightening powder https://t.co/3LmWRcrd0b
p1375
aVhttps://t.co/4aNS3DyZA8
p1376
aVexterior https://t.co/XmVsH3OBSS
p1377
aVgreige blog \u2013 Page 31 \u2013 Greige Design https://t.co/3Rgu0vmwn8
p1378
aVPreppy Bunk Room in Coastal Living Showhouse; design by Betsy Burnham https://t.co/xOTEgRg6p2
p1379
aVBeach House https://t.co/WbFUvN6O4u
p1380
aVBedroom Decorating Ideas https://t.co/VyF9pLGO2w
p1381
aV41 Wonderful Beach House Interior Design | Best Pic https://t.co/brH2mvMfmu
p1382
aVMudroom Cubbies, Transitional, Laundry Room, Vita Design Group https://t.co/hF7eIZbAPQ
p1383
aVbeach beauty https://t.co/A015bcNx9W
p1384
aVlovely backyard https://t.co/LHB6aEwjhc
p1385
aVLovely Lowcountry home located at Hampton Lake in Bluffton, SC. https://t.co/5JFjdmzg0s
p1386
aVLooking for #Quotes, Life #Quote, #Love Quotes, Quotes about moving on, and Best Life Quotes here. V https://t.co/1KitD1fANn
p1387
aV#Rubylane https://t.co/uPGGmG9mdx 10 Quotes Every Jewelry Lover Needs to Memorize  - https://t.co/Mg2R7vMkML https://t.co/2eX5ztkpgo
p1388
aVA candle loses nothing life quotes quotes quote inspirational quotes best quotes quotes to live by q https://t.co/aq46mZEMq3
p1389
aVInspirational Quotes : theBERRY https://t.co/As4pd3p3Gr
p1390
aV... but rain can be very nice ... it's one of gods supplies to the world ... https://t.co/xiTQaljveN
p1391
aVStop knocking on the door that was slammed shut in your face. Accept it, you have nothing to prove,  https://t.co/6EvJ53qySR
p1392
aVhttps://t.co/uh2OWykRKP https://t.co/Ss1L3lbgdg
p1393
aV\u2764\ufe0f https://t.co/hHkc8Oa0cY
p1394
aV29 awesome uses for chalk paint https://t.co/GmWeenYgKk
p1395
aVGet your kids busy in the kitchen with these 20 easy recipes for kids. Also great tips for how to te https://t.co/S9wAugsSU7
p1396
aVReplace awkward entries and gain space in closets with sliding modern barn doors. Details in link. https://t.co/85U7H87x1S
p1397
aVwindow ideas - Roman blind with centre stripe https://t.co/Awg2TpFYtv
p1398
aVMark Goodwin, "Balanced Memory" https://t.co/vGOerQphI0
p1399
aVFlush the Fat Away With These 5 Cleanse &amp; Detox Solutions https://t.co/2HAWYRpJCv
p1400
aVBrick floor. https://t.co/wsfWWukucc
p1401
aVContainer Planting https://t.co/W1tfQ8D9xl
p1402
aVBM tempest AF-590 A moody, soulful marriage of grey and purple, this richly saturated shade has an a https://t.co/70ZJf2nll5
p1403
aVDouble window with relaxed roman shades - separate single shades for each half of the window. https://t.co/YGW7Mz5vEx
p1404
aVbuilt-in window seat day bed. Gorgeous! https://t.co/IV8xWSYzlB
p1405
aVHouston Design Blog | Material Girls | Houston Interior Design  A Crash Course in Window Treatments https://t.co/AoK4Ig5UzP
p1406
aVI just tried this weight loss smoothie and it tastes so creamy and filling. I am blown away I can lo https://t.co/c1CTu8QGHk
p1407
aVYes, this describes me exactly!! https://t.co/f42CVo6H3P
p1408
aVWith 400+ materials, you\u2019re sure to find the perfect one for your windows. Order your free swatches  https://t.co/9sZzDWXshV
p1409
aVfor the beach house https://t.co/nC7DjpYHr6
p1410
aVVintage-Gardine im romantischen Look #gardine #dekoration #wohnen https://t.co/KrKAo8hUQF
p1411
aVNeed to feel better in that bikini for summer? Time for the Master Cleanse to lose up to 20 pounds! https://t.co/ovJdFGiv5s
p1412
aVMaine Beach House with Classic Coastal Interiors https://t.co/AqjQocZYYV
p1413
aVOn the beach ...just enough https://t.co/gybjObrCXB
p1414
aVCalifornia-beach-house-coastal-interiors-master-bedroom https://t.co/6c5DxGVJB6
p1415
aVThis small Hamptons hideaway sits on a marsh grass-bordered creek and features two bedrooms and two  https://t.co/yEtlGA9Wax
p1416
aVThis beach house features fine finishes and rich trim details including wainscot and various painted https://t.co/ot9I7PsRIB
p1417
aVBeautiful climbing roses, hydrangeas, and petunias frame the window of a gray shingle cottage https://t.co/prVEePveRa
p1418
aVGreat cottage/beach house view - window seat with bookshelves https://t.co/YTD6Ho80Tt
p1419
aVBeach House Decorating is Lots of Fun, Decorative Wooden Oars https://t.co/HRuzynwEdp
p1420
aVciao! newport beach: Search results for coastal colors https://t.co/QKbfAc9VZB
p1421
aVCrisp neutral linens with cool colour tones make this room a winner. https://t.co/MVfi0QoTAz
p1422
aVBreakfast Nook. nook is filled with built-in benches lined with cobalt blue cushions facing each oth https://t.co/GrQyffq9oo
p1423
aVMASTER BATH | Attic Conversions. https://t.co/0Ys42zjH5z
p1424
aVMaine Beach House with Classic Coastal Interiors https://t.co/2ThaFsvsTu
p1425
aVBetter Homes and Gardens Avila Beach Double Lounger/Sofa https://t.co/nhmUweDpQ3
p1426
aVSource: vtwonen juli 2015 | Photography Jeroen van der Spek | Styling Cleo Scheulderman https://t.co/2hPmgJz2Hr
p1427
aVHouse tour: Neutral nautical Abington, Port Carling Ontario lake house muskokalivinginteriors lake h https://t.co/Qa0nIm2tJF
p1428
aVUltimate California Beach House with Coastal Interiors...statuario extra marble and the hardware https://t.co/acTPp9ibPS
p1429
aVwhat a gorgeous idea for a laundry closet. https://t.co/D3oHvAKgDM
p1430
aVhttps://t.co/AOjdWGf5Gi No hay necesidad de sufrir problemas de crdito. Obtener ayuda ahora. (8 https://t.co/Arov0dRl3V
p1431
aVFour Chairs Furniture | Millhaven Homes https://t.co/Me66K4qlKk
p1432
aV31 Insanely Clever Remodeling Ideas For Your New Home https://t.co/Kn9uD5zMTw
p1433
aVThe guest cottage connected with white double pained windows and large oversized doors.  The long wh https://t.co/mMdGyplQKV
p1434
aVFront Porch with blue ceiling and turquoise front door. Porch ceiling paint color is Glidden Warm Br https://t.co/oM5p6D8LKC
p1435
aVA great idea for decorating your casual beach home. https://t.co/rAZZgg0Nky
p1436
aV"today feels like a cottage kind of day" https://t.co/kNO7Vk625B
p1437
aVInteriors | Modern Beach Home https://t.co/CPws9iX7pD
p1438
aVMint Julep - WaterColor, Florida https://t.co/BAmYt3wjx8
p1439
aVSmall Interior Design Ideas. #SmallInteriors #SmallSpaces #SmallInteriorDecor https://t.co/1FCSndS3Hv
p1440
aVSomething like this would be great to have at the property. Need to figure out a water platform/coll https://t.co/9rDNsedc1A
p1441
aVBeach House with Casual Coastal InteriorsKitchen Lighting: These pendants are from Hudson Valley and https://t.co/glqdPIRXL9
p1442
aVLove this Cameron sectional https://t.co/X5nb5QeZAl
p1443
aVColorful Home Decor - Color Decorating Ideas - House Beautiful  Colors https://t.co/Ytqun5lamx
p1444
aVThis cozy cottage is perfectly suited for the beach.. with the front porch and the cedar shakes, the https://t.co/UDR3GyF6mD
p1445
aVGorgeous beach house in Martha\u2019s Vineyard with barn-like details https://t.co/KlSLlyV3Sx
p1446
aVHead to Key West for the relaxed island vibe, the cool cottage decor and a great time at the beach!  https://t.co/gAvtbVvbzy
p1447
aVSimple white house with wrap-around porch. I never wanted a giant house. My dream home has always ha https://t.co/2qzAWSZ3ti
p1448
aVCHIC COASTAL LIVING: The Enchanted Home: Dream Beach House &amp; a Giveaway https://t.co/CPo9Cxoqc8
p1449
aVBeach home in South Carolina designed by Carter Kay. Hanging beds on the porch off the master bedroo https://t.co/dvP4sCv76Q
p1450
aVBy Homes Editor Ellen McGauley As clever design ideas go, patterned flooring in beach houses ranks r https://t.co/ce2qh7HOoL
p1451
aVCountry Blue Dutch Door on Beach Cottage https://t.co/pntNo5VAUw
p1452
aVBaked Garlic Brown Sugar Chicken - This dish is delicious! so fast and easy to prepare! It came oh s https://t.co/tiq3e5TYnC
p1453
aV21+Inspirational+Quotes+From+Pinterest+to+Help+You+Get+Over+a+Breakup -Cosmopolitan.com https://t.co/sn3ho9N6cs
p1454
aVJohnny Depp Quote. Oh my God, yes. Just... Yes. I need a board just for Johnny. He's just that DEPP. https://t.co/kpJro6oq4S
p1455
aVSOME DAYS YOU EAT SALADS AND GO TO THE GYM, SOME DAYS YOU EAT CUPCAKES AND REFUSE TO PUT ON PANTS. i https://t.co/i6gtHkiMwB
p1456
aVOne of the ways to save money on groceries is to stock your pantry with low-priced food. To help you https://t.co/ffeRC28j50
p1457
aVtile backsplash behind vanity\u2026mirror and hanging pendant lights https://t.co/tFi0gj3bJY
p1458
aVGrilled Caprese Chicken Salad with the most incredible balsamic marinated chicken, fresh tomatoes, c https://t.co/9WfakL0NNO
p1459
aVDon't forget to pin these easy ways to use your slow cooker! Be sure to follow us on Pinterest @coun https://t.co/dBSgLwokkh
p1460
aVPhoto Gallery - Smith+Noble-Window Treatment for our bedroom window. Would want white with navy blue https://t.co/xgE0xxB9fW
p1461
aVHigh-Function Fixtures Increased space, expanded countertops, and better appliances make for a highl https://t.co/WDsH1bgRS5
p1462
aVWhite oak double vanity and mirrors, white marble countertop with tile backsplash and painted shipla https://t.co/WS2PYyKv7B
p1463
aVALFI Solid Stainless Steel Commercial Spring Kitchen Faucet with Pull Down Spray https://t.co/VmGkasODfZ
p1464
aVALFI Solid Stainless Steel Commercial Spring Kitchen Faucet with Pull Down Spray https://t.co/xYiisEnVms
p1465
aVThe skinny on all our new kitchen appliances \u2013 Bosch, GE, LG, Hahn, Danze #LGLimitlessDesign #Contes https://t.co/79HKPcG9PL
p1466
aV@Kelli Pfister Zuri Culinary Kitchen Faucet https://t.co/9rXWINAyLM
p1467
aVPfister faucets with Xtract technology deliver great-tasting filtered water and regular tap water fr https://t.co/Gj2NT2ueKj
p1468
aVBest Touchless Kitchen faucet Moen 7594 Arbor single handle pull-down kitchen faucet with motionsens https://t.co/fohtYfQXHo
p1469
aVindustrial spiral faucet bought at https://t.co/c2nWvVR36C  Or a similar one is Krause thru overstock with a black https://t.co/pxGRDJBs6o
p1470
aVUnusual furniture hack: Turn a filing cabinet to expensive looking night stand! See more instruction https://t.co/aDUciDFmYv
p1471
aVBrown sugar and balsamic glazed pork loin. in a crock pot. https://t.co/IOchdAqYxg
p1472
aVWindow treatments, curtain poles and tie backs contemporary curtain poles https://t.co/RLVGU61BRM
p1473
aVLinen Chic Roman Blind from Blinds 2go https://t.co/yTBRPPtJQG
p1474
aVSimple, casual, and classic. Roman shades are a traditional window treatment made to bring an elegan https://t.co/5zAObEwTc1
p1475
aVkitchen window treatments | and a half of fabric was all it took for the simple window treatments .. https://t.co/szD3PxK43h
p1476
aVColour block curtains, with cartridge pleats https://t.co/rUOgessSbJ
p1477
aVFrom luxury sheets to designer bedding and colorfully patterned duvets, find your perfect bedding th https://t.co/RBZ3c9Lc07
p1478
aVHouse of Turquoise: Interiors by Kathy Rollins Valance with banding mounted on rods. https://t.co/8ghyCIrkNk
p1479
aVAffordable textured jute-like roller shades - as seen in TIDBITS master bedroom reveal. https://t.co/GwimqzJriM
p1480
aVThe fabric used to make the window shades is \u201cDuralee 21037 Prasana Bluebell\u201d. https://t.co/dD9G56FiqA
p1481
aVDwellings By DeVore: Bamboo Shades to make your windows look larger #diy #curtain #blinds https://t.co/M2sXLlrQxR
p1482
aVNeutral, half wall corner bookcase, woven window shades, ornate gold chandelier https://t.co/eO6WDpQYTR
p1483
aVDIY faux roman shade made with a hot glue gun! https://t.co/ssafMY0OWq
p1484
aVCrazy Wonderful Woven Wood Shades https://t.co/TnM33VSodq
p1485
aVClean, simple bedroom...I would love windows like this on the sides of our bed! just what I had in m https://t.co/jcYiUIguOu
p1486
aVLive Life Happy Quote: "So far you\u2019ve survived 100% of your worst days. You\u2019re doing great." https://t.co/9Y3VQAirru
p1487
aVThis is a must try and one of our most popular recipes! https://t.co/Q3bnltqjpr
p1488
aVBaked Asparagus Fries - asparagus baked in crispy Panko bread crumbs and Parmesan are a simple and h https://t.co/KQVbi0iHTp
p1489
aVLight and easy appetizer or salad https://t.co/X2rD4CZgY7
p1490
aVEasy Beef and Broccoli Recipe - From Damn Delicious :: @damndelicious :: | Glamour Shots Photography https://t.co/VOkltSpMJR
p1491
aVSlow Cooker Coke Pulled Pork Sliders - Easy Crock-Pot Meal with just a few ingredients. Great for su https://t.co/FVu1TlhYs1
p1492
aVThis Cheesy Beef &amp; Macaroni Casserole is a easy to put together and it boasts big flavor! We've made https://t.co/Cq5c8Tlq7m
p1493
aVBest Talapia recipe EVER!  Low cal, low fat, and kids love it, too! https://t.co/j5bZFkk2MZ
p1494
aVInspiration Galleries | Annie Sloan Unfolded https://t.co/8aVQutVkzC
p1495
aVInspiration Galleries | Annie Sloan Unfolded https://t.co/ODmz8BnetY
p1496
aVTons of chalk paint tips - includes a printable so you can remember them all! https://t.co/78rzXzNmX1
p1497
aVEclectic Kitchen Design, Pictures, Remodel, Decor and Ideas https://t.co/vASPHvFmw0
p1498
aVPlants with multiple petals, such as roses and peonies, are cottage-style favorites, and they have t https://t.co/CoJu0bF4do
p1499
aVZIMAPHOLD RESUME  This pink beige resume template oozes elegance, simplicity and sophistication. Stu https://t.co/K0VniSQA5R
p1500
aVUse Dollar tree solar lights in tiki torch bases..... I love this idea for the deck. https://t.co/GltIHc0Ip8
p1501
aVShrimp Boil Foil Packets - Easy, make-ahead foil packets packed with shrimp, sausage, corn and potat https://t.co/RovN2hk7wf
p1502
aVString a flower garland around a balloon string for a spring party https://t.co/5QNf6Fw1Fz
p1503
aVPlay a fun game of glow-in-the-dark ring toss with glow stick necklaces. https://t.co/3Bh82oJnOL
p1504
aVHow to make a cupcake bouquet...could be my new birthday present to people! https://t.co/znw4BCD3wo
p1505
aVA present for every hour on their birthday...what a cute idea to keep them feeling special all day l https://t.co/mGtMIAcRuR
p1506
aVBenjamin Moore Spanish Olive: a beautiful gray-green that never fails  THIS MIGHT BE THE ANSWER https://t.co/40rSl3zwcg
p1507
aV15 minute prep Fall-Off-the-Bone Slow Cooker Barbecue Ribs that everyone goes crazy for! They are sl https://t.co/qRFTA6I7LC
p1508
aVCompletely gluten-free and low-carb is this healthy and delicious SPINACH QUICHE CUPS that everyone  https://t.co/DZjUeEomYQ
p1509
aVBenjamin Moore Deer Granite https://t.co/6hQE7gz9py
p1510
aVCurb your cravings with these 20 best appetite suppressants that you have to try. https://t.co/wa3bccWSJe
p1511
aV43 Zero Carb Foods from https://t.co/VxVHwvbp3S https://t.co/5k8J2txyQj
p1512
aVhttps://t.co/T6baVn7k7G
p1513
aVBenjamin Moore Silver Crest-a generous dose of gray gives elegance to this very light shade of green https://t.co/tC8Eqor5ba
p1514
aVThe Best Benjamin Moore Paint Colours for Home Staging / Selling https://t.co/dE3ldx4yVt
p1515
aVMy favorite neutral paint colors for 2014! Sherwin Wiliams Crushed Ice, Benjamin Moore Quiet Moments https://t.co/NOSQtIb9te
p1516
aVCabinetry Paint Guide Becki Owens https://t.co/FaD7ul8ZTs
p1517
aVBenjamin Moore Butter Milk: perfect, subtle, soft yellow, nice in a north facing room (would be nice https://t.co/YInLP8KiL9
p1518
aVBenjamin Moore - Calla Lily (283)   we used it in our middle bedroom. so light and sunny, the perfec https://t.co/D8YJCyVyCZ
p1519
aVInterior and Home Exterior Paint Color Ideas https://t.co/1FUPiKDzbz
p1520
aVInterior and Home Exterior Paint Color Ideas https://t.co/JgoWm91l67
p1521
aVInterior and Home Exterior Paint Color Ideas https://t.co/ZtpQJwJ7P8
p1522
aVInterior and Home Exterior Paint Color Ideas https://t.co/bqT7NXis2n
p1523
aVInterior and Home Exterior Paint Color Ideas https://t.co/g0jPK8OWoF
p1524
aVInterior and Home Exterior Paint Color Ideas https://t.co/EeWzvQrOD6
p1525
aVInterior and Home Exterior Paint Color Ideas https://t.co/mbRpo8qOen
p1526
aVInterior and Home Exterior Paint Color Ideas https://t.co/PAAkG8ThYr
p1527
aVInterior and Home Exterior Paint Color Ideas https://t.co/kHqAQZy3tO
p1528
aVInterior and Home Exterior Paint Color Ideas https://t.co/idhJADKyQX
p1529
aVInterior and Home Exterior Paint Color Ideas https://t.co/pdMlmrIuxO
p1530
aVInterior and Home Exterior Paint Color Ideas https://t.co/TS8HDCf7D2
p1531
aVCreamy Broccoli, Chicken Breast, and Bacon Fettuccine Pasta in homemade Alfredo sauce. Easy, delicio https://t.co/GXeMK7vR0N
p1532
aVbefore and after pictures of ranch second story additions | 2nd story addition. https://t.co/LrgtHiC4f3
p1533
aVBedrrom PAINT :: Benjamin Moore Evening Gown (greige), Evening Skyline &amp; Arctic Seal (grays) https://t.co/BlXSoJgjT4
p1534
aVBenjamin Moore Spanish Olive: a beautiful gray-green that never fails  THIS MIGHT BE THE ANSWER https://t.co/eWv3nORpNz
p1535
aVMondavi Idea Home 2014. Walls: Benjamin Moore "Mount Saint Anne" 1565, Aura Bath &amp; Spa. Ceiling: Ben https://t.co/QndSH3Z3A1
p1536
aV"Everybody is working so hard, and you want to come home to a place where you can rest. This beige m https://t.co/XtVDzNQZsC
p1537
aVBathroom with shelves for towels - feels like a spa! If we can't add a tub to second guest bath, wou https://t.co/ZqdxlLPG0a
p1538
aVCLEANSE WATER: I love love love this water! It\u2019s cleansing, refreshing, and delicious! If you\u2019re one https://t.co/Kc7q3rr1Rv
p1539
aVFRUIT INFUSED WATER\u2051 1) green tea + mint + lime = fat-burning, digestion &amp; headaches. 2) cucumber +  https://t.co/Jh6bn40yyZ
p1540
aVFat 'Flush Drink................ https://t.co/w0hIOZGMym
p1541
aVDetox Water Recipes https://t.co/F75KahcK6f
p1542
aVAnn Voskamp~Hey Soul? So you get multiple choice today: Busy is a choice. Stress is a choice. Joy is http://t.co/lwXkfTt7c2
p1543
aVMake This Awesome Toy Car Garage with TP Rolls for Your Little Racer http://t.co/74nDx6LopC
p1544
aVGrilled Salmon Kabobs: Salmon cubed, and skewered with lemon slices and herbs. http://t.co/BGvpzvMy0y
p1545
aV. http://t.co/5F1nKTiX9e
p1546
aVwood tile - We found this tile at a local showroom, made by the Italian tile-maker Supergres. It com http://t.co/CAhLTxFDtS
p1547
aVThese are a must-have for any bathroom! http://t.co/LVElwilsGc
p1548
aV#JodiArias so clear faked memory loss... Great actress...disgusting person...\u000atoo bad hung juror couldn't see her for the mutant she is.
p1549
aV@peoplemag what happened to "world peace", Donald?#missuniverse@donaldtrump
p1550
aVPretty Ugly: The Biggest Beauty Pageant Controversies - SALY GREIGE &amp; DORON MATALON http://t.co/FHQEWNP4PZ via @PeopleMag
p1551
aV#MichaelMooreIsMoreWorthlessThan  those snipers have made it possible for him to keep shooting his mouth off without thinking
p1552
aV#voicesaveryan
p1553
aV#voice save ryan
p1554
aVLOVE this. And so true. :) http://t.co/ofPYWbkpOX
p1555
aVTrue http://t.co/G2fVnd2uSc
p1556
aVwisdom from Mark Twain http://t.co/pCsVjeJIjT
p1557
aVhttp://t.co/g0Wwql9BpI
p1558
aVhttp://t.co/a6InFakCRx
p1559
aV@vionicshoes
p1560
aV#businessclass/asia@airfarewatchdog
p1561
aV@Forbes  no one, how about a new creative concept for late night, we are on talk show overload
p1562
aV13 tips for finding low airfares http://t.co/qGvsx0icLx via @USATODAY
p1563
aV@andersoncooper everything in moderation, it's a matter of balance, not one or the other
p1564
aVPainted Minion Pumpkins from Despicable Me! http://t.co/2gLcmHb9XK
p1565
aVPainted Minion Pumpkins from Despicable Me! http://t.co/PBTBSIGhCl
p1566
aVEnd of year teacher appreciation gift (or hostess gift) - DIY Mason Jar Manicure Kit AND Lantern.  T http://t.co/PaJhYLcgLa
p1567
aVNeutral paint colors http://t.co/DzUJdZe8Bi
p1568
aVCreate a Sliding Storage System On the Garage Ceiling http://t.co/C8c2ZLNneJ
p1569
aVWOW - any little boy would love this in their bedroom! http://t.co/C1oV4zeM6U
p1570
aVWOW - any little boy would love this in their bedroom! http://t.co/VdhiA88v5A
p1571
aVThis is a kindergarten project. Use violet paper and double dip white and light blue paint http://t.co/TV18k24rFR
p1572
aVFour Favourite Scarf Tying Tutorials http://t.co/DofugdNhe1
p1573
aVPainting on Ice http://t.co/NCAmI7cnXS
p1574
aVStorage for the bathroom in between studs in the wall http://t.co/USeaBH0h5S
p1575
aVOh I love this! http://t.co/R6VUgtPy8P
p1576
aVHanging space above the dryer- great idea! http://t.co/PtYZ5QgZcA
p1577
aVCute banana ghosts and Clementine pumpkins http://t.co/Oz8WVDSUJR
p1578
aVFall Decor http://t.co/dGYe3yyhT3
p1579
aVSliding pantry. A-mazing! http://t.co/B5XWskCAWp
p1580
aVdiy scarf organizer http://t.co/YB89CkExqF
p1581
aVfiling trunk - so much cuter than a filing cabinet! http://t.co/P4IPzeQCJP
p1582
aVHomemade Thin Mints. No-Bake, Vegan, ridiculously easy, make in 15 mins. You'll be tempted to eat a  http://t.co/W6WeAdugly
p1583
aVCupcakes + m's = Fish http://t.co/c49y3wOAMz
p1584
aVDIY Bleach Gel http://t.co/PfsbIAP161
p1585
aVThis was on Dr. Oz last week ... very cool!  Cake Mix + Fat-Free Greek Yogurt  180 calories per serv http://t.co/Kkmzl5sPbW
p1586
aVS'mores Ice Cream Cupcakes. I love the use of ice cream with the cupcake. What a fun summer treat! http://t.co/W5eVPlypv8
p1587
aVTube Play for Toddlers http://t.co/odXPHGmGWK
p1588
aVDIY. http://t.co/sCF36XupPZ
p1589
aVSo smart!!! The cardboard carton is easy to light with a match and then the charcoal starts too!!    http://t.co/2LYDaZpZdE
p1590
aVThe 50+ best Patriotic Crafts in the world @savedbyloves #fourthofjuly #patrioticCrafts http://t.co/oQu1brHexY
p1591
aV360 Lunch Boxes: Weight Watchers Lunch http://t.co/phzUL5knNU
p1592
aVCooler corn...easy way to cook corn on the cobb especially for a large crowd..one cooler... 2 kettle http://t.co/uID9hcL1Wy
p1593
aVTotally cute idea to do with all those small sentimental kid toys that you don't want to get rid of  http://t.co/GaDx3hvmkm
p1594
aVCrafts, crafts, crafts... Crafts, crafts, crafts... Crafts, crafts, crafts... http://t.co/1pwWurGe1N
p1595
aVDIY Butterfly Party Favor ~ Made with painted clothes pin, googly eyes, pipe cleaner &amp; a sandwich ba http://t.co/B6gDQakRD3
p1596
aVoutdoor kitchen http://t.co/wd1uyyFZPp
p1597
aVDecorating Inspiration http://t.co/ScogG7zbDH
p1598
aVvanity, storage http://t.co/UuxyaUe6Um
p1599
aVhttp://t.co/q0pvJI7m5K
p1600
aVUse newspaper for seedlings, instead of paying a fortune for the cardboard ones! http://t.co/qjdScqbMFA
p1601
aV140 Free Valentine Printables http://t.co/Fhw2Wyri
p1602
aVroll-a-snowman game... First one to roll all six and draw a snowman wins. http://t.co/IvWpX1K0
p1603
aVAdd a counter over washer and dryer and drawers in between! http://t.co/YYcW1ZVZ
p1604
aVValentine's Day Votive Candle Craft! These are super easy and cute! #valentinesday #crafts http://t.co/wbhxVojv
p1605
aVPreschool Science Experiments: "Sparkly Explosion!" This website has lots of fun ideas to do with yo http://t.co/0xZ30sTI
p1606
aVRepurpose broken stemware. Pop in a citronella candle and then put glass down in plant. Pretty at ni http://t.co/82EJAt30
p1607
aVcabinet color and hardware-BATHROOM -wOW http://t.co/GKgJrT2t
p1608
aVCranberry Lime Vodka, cool gift for the holidays! http://t.co/LMLYwxGB
p1609
aVAdded to my bucket list\u2026 http://t.co/Z0sxeAxC
p1610
aVAnother Pinner said: This kept my 2 year busy for an entire hour and my 4 year old busy for 2 hours! http://t.co/2kCxguNc
p1611
aVSuch a cute gift idea - Cheap gloves packed in cellophane with a pretty little bag topper http://t.co/nJujNkwL
p1612
aVOreo pops.  Like cake pops, only easier! http://t.co/DoGymj2R
p1613
aVThis site allows you to combine colors for the arrangement that suits you. Love this the way it is. http://t.co/xEI8jOCb
p1614
aVflower container ideas - they tell you the flowers in the arrangements http://t.co/MyVLamLH
p1615
aVFushia petunias on antique wagon http://t.co/IuleuDnf
p1616
aVI need to do this for the hubs... http://t.co/yFC267Za
p1617
aV5 Quiet Activities for Toddlers to do at the Table - good for when you need to get something else do http://t.co/UqsJJdOq
p1618
aVSweet! http://t.co/yhietJrz
p1619
aVget some extra use out of those Christmas lights :)...I CAN DO THIS! http://t.co/vSDcBV8t
p1620
aVQuick &amp; Cute, Inverse bun. Great way to fix your hair when you're in a rush! http://t.co/enlVfihD
p1621
aVTutorial for the "messy bun" look! There's a "secret" to it. http://t.co/kObTWsMN
p1622
aVTutorial for the "messy bun" look! There's a "secret" to it. http://t.co/M6XgRRFm
p1623
aV9 Simple Makeup Tricks from Experts to Make Your Eyes Pop | My Thirty Spot http://t.co/M4noKmiI
p1624
aVMedium length hair http://t.co/qgVDyUFT
p1625
aVhttp://t.co/H2sQq9nP
p1626
aVbrown eyeshadow how to http://t.co/mx5k8EBP
p1627
aVbrown eyeshadow how to http://t.co/kRF6Hosx
p1628
aVbeauty http://t.co/SlnUmMjP
p1629
aVDouble Twist Bun http://t.co/fKRD5pPy
p1630
aVAWESOME idea for Lego storage and table http://t.co/KwRhdjGF
p1631
aVso smart, and adorable! http://t.co/DpzfSdWY
p1632
aVLove the shelves for the bathroom http://t.co/bfAG38QI
p1633
aVGood old Martha taught us that rather than buying those ridiculously expensive anti-slip mats for a  http://t.co/2TChmH2Z
p1634
aVBaked Pumpkin Doughnuts http://t.co/coCtMo00
p1635
aVVita drmmar &amp; busiga barn http://t.co/SRq2PPsr
p1636
aVget some extra use out of those Christmas lights :)...I CAN DO THIS! http://t.co/6Dpc4a1b
p1637
aVSoda bar http://t.co/QVzt87An
p1638
aVThese are to cute to eat! http://t.co/47h53OR5
p1639
aVThese are to cute to eat! http://t.co/6eMdjOjM
p1640
aVBathroom idea http://t.co/AYTDYRDd
p1641
aV#modern bathroom http://t.co/GabbGP2X
p1642
aVSimple http://t.co/0AHQlvhb
p1643
aVAdd a counter - what a great idea. http://t.co/jTBZ2DQ3
p1644
aVFor the zippers that never want to stay up. Nice!! http://t.co/xBhGmwFf
p1645
aVHow-to-paint over wood that has a stained or urethane finish on it. {In My Own http://t.co/DxrY5P4H} http://t.co/NFgkHPn7
p1646
aVVery cool way to make crayons. http://t.co/mr3YqpcE
p1647
aVwine glass lighting http://t.co/LMgjWnG9
p1648
aVSilhouette Jars http://t.co/8LR87CqS
p1649
aVPhoto Balloons http://t.co/fAtUZNYD
p1650
aVHanging frames http://t.co/NzmFmFig
p1651
aVThe veggie Christmas tree is the most unique vegetable and dip platter for a holiday party. http://t.co/7iLEoDVM
p1652
aVMore Halloween Crafts http://t.co/iIWWRxyO
p1653
aVPumpkin party http://t.co/TjQlWg0l
p1654
aVWeb drawn with a sharpie and glued spiders from rings http://t.co/WV5wwIaV
p1655
aV40 Crunchy and Creamy Healthy Snacks Under 200 Calories http://t.co/KESmOv8C
p1656
aVbarre workout, just signed up! http://t.co/C5uOplEr
p1657
aVDyed clothespins...maybe easier than painting http://t.co/Rnhq16qu
p1658
aVballoons + paper cone = icecream decos, delish http://t.co/mW7ElY9k
p1659
aVturkey, turkey http://t.co/89meLNZd
p1660
aVFour Seasons, Thailand. The elephants just roam around the property. http://t.co/2IvIoLrI
p1661
aVBali. http://t.co/ZueaLMUf
p1662
aVLava pool in Maderia, Portugal http://t.co/DJzGTlGr
p1663
aVamazing! http://t.co/6PTxm42I
p1664
aVamazing! http://t.co/e0si0Ufz
p1665
aVCrock Pot Teriyaki Chicken. http://t.co/jvvJk9My
p1666
aVIt's funny how much money we spend on stuff we can make ourselves. - I present 31 incredibly easy an http://t.co/mucB5iX8
p1667
aVIt's funny how much money we spend on stuff we can make ourselves. - I present 31 incredibly easy an http://t.co/6PMNzOlk
p1668
aVFall Decor http://t.co/PzslMvOy
p1669
aVCheap jars... WAY cheap! Where has this site been all my life?! http://t.co/HPWbeaJi
p1670
aVchalkboard paint! http://t.co/KPtp9AT3
p1671
aVPut tissue paper in a mason jar, then a flameless candle (battery operated) and put lid on. Line you http://t.co/8mEvf79u
p1672
aVA shoe box for a power strip -- Decorative and also baby proof!! http://t.co/EMdDFA3Y
p1673
aVEach student login/password for different sites on different squares. Easy to take with you! http://t.co/4Y4iIl5M
p1674
aVA shoe box for a power strip -- Decorative and also baby proof!! http://t.co/ngXywleH
p1675
aV4th of July treats http://t.co/nbZgqAAc
p1676
aVThis is what happens when you microwave a bar of Ivory soap! Then you can tear it up, color it, and  http://t.co/3cIWX6RL
p1677
aVTurn the Pack'n'Play into a ball pit - great idea! http://t.co/3QhZnlAx
p1678
aVWhat a great way to cover up exposed roots and dirt patches under trees! http://t.co/0fYqswDF
p1679
aVhttp://t.co/MPktlZ0A
p1680
aVbutterfly baby feet http://t.co/nA9bot4j
p1681
aVOffice, craft, and laundry room--great space utilization! http://t.co/kKvVlJm7
p1682
aVCustom candles http://t.co/J2jYO8Mv
p1683
aVnook...remove closet doors! Very cool. http://t.co/CyHKJFvw
p1684
aVImage of Lemondrop - Golden Yellow &amp; White Baker's Twine http://t.co/jfHIYEVR
p1685
aVOutdoor Sink! http://t.co/oXhLrgN8
p1686
aVBaked Zucchini Sticks and Sweet Onion Dip http://t.co/bXgu0MEj
p1687
aVGreat Idea!!!! http://t.co/2iiDjcW7
p1688
aVPink &amp; White vanity http://t.co/igA62bSF
p1689
aVSentences http://t.co/pYx9D4lV
p1690
aVhttp://t.co/EtWVfju5
p1691
aVCute for a baby shower http://t.co/jLmgfafV
p1692
aV@StylelistHome fresh take on simple dessert ,send to pinterest
p1693
aVMagic Garden Standing Mirror http://t.co/1c0Uvowi
p1694
aVNeat idea for Lunchboxes!  Do you have a Ziploc and Clothespin? http://t.co/N7q9IaLh
p1695
aVEmerald and Black, created by mrssalvatore97 on Polyvore http://t.co/jAfhP7ky
p1696
aV25 clever storage tips and tricks http://t.co/PQOWXwcU
p1697
aVCute butterfly and other felt tutorials.  who knew I'd stoop to felt! http://t.co/rSP1sNKU
p1698
a.