(lp0
VRT @CREWcrew: These revelations of President Trump\u2019s personal involvement in the relocation project are the strongest evidence yet that the\u2026
p1
aVRT @TeaPainUSA: POLL:  Who will win the mid-terms?
p2
aVRT @joncoopertweets: Congressional candidate Debbie Mucarsel-Powell has spent her entire life fighting to expand access to health care in h\u2026
p3
aVRT @DisavowTrump20: BREAKING: Political forecaster FiveThirtyEight has moved the Governor\u2019s race in deep-red Kansas to a toss-up! Laura Kel\u2026
p4
aVRT @EdKrassen: The 2018 Election isn't about Republican vs. Democrat.  \u000a\u000aIt's about American vs. Un-American\u000a\u000aIf you support someone who ig\u2026
p5
aVRT @BillKristol: Oprah should say she\u2019s exploring a 2020 run just to drive Donald crazy. (Then of course her candidacy will take off, she\u2019l\u2026
p6
aVRT @jonfavs: Kemp really might be the worst villain of the cycle. Pathetic. https://t.co/QifwIF0TuC
p7
aVRT @EdKrassen: It\u2019s time to call Brian Kemp what he really is!  A CHEATER!\u000ahttps://t.co/LwskHn8Nee
p8
aVRT @Mimirocah1: Phone banking for \u2066\u2066@BetoORourke\u2069 - the good news is that 99% that we called have voted and voted Dem! https://t.co/2XWnRRs\u2026
p9
aVRT @kyrstensinema: Run fast, win. #TeamSinema #GSD https://t.co/Hc47UBodWD
p10
aVRT @Where_is_Puff: The sacrifice military members make isn\u2019t their life, it\u2019s their very being. It\u2019s the million tiny ways we sacrifice, gi\u2026
p11
aVRT @Where_is_Puff: When you join the military everyone warns you to expect sacrifice. You know, expect it. But you have glorious, heroic vi\u2026
p12
aVRT @MalcolmNance: #Georgia. Is Kemp claiming a crime to cover up a crime? The only group that ever tried to access the Georgia Voter regist\u2026
p13
aVRT @Alyssa_Milano: In 27 states you can take time off from work to vote \u2014 here's the full list https://t.co/LzEvPQ02YC
p14
aVRT @chelseahandler: Illinois-This woman is neck in neck for her race, and she needs us to help her amplify. She is an inspirational leader\u2026
p15
aVRT @AndrewGillum: My mother taught me to ask for only 1 thing in life: a chance.\u000a\u000aToday, I\u2019m asking for your vote. A little more than 1 hou\u2026
p16
aVRT @krassenstein: Since you like to talk about crowd size so much Mr. Trump.  How\u2019s this for a comparison?\u000a\u000a2008 \u000aObama 69,498,516\u000aMcCain 5\u2026
p17
aVRT @KamalaHarris: Right now, there are a lot of people who are feeling discouraged, who feel like their vote won\u2019t matter. It does matter.\u2026
p18
aVRT @BetoORourke: We're going to serve every single veteran who served every single one of us. https://t.co/LhMSw0S3ML
p19
aVRT @RosenforNevada: "They don't care about your health conditions. They don't care about lifetime caps. Jacky Rosen does, and that's why I'\u2026
p20
aVRT @NateSilver538: The one thing I have no patience for is dudes (it's almost *always* dudes) who spend 15 minutes on something you've been\u2026
p21
aVRT @CREWcrew: 1. Rudy Giuliani has often traveled to Russia and other former Soviet states\u000a2. Since Trump was elected, he\u2019s been doing it m\u2026
p22
aVRT @BenJealous: .@staceyabrams I\u2019m raising your @Oprah door knocking video with one Dave Chappelle helping people carry their groceries whi\u2026
p23
aVRT @TeaPainUSA: If you're over 40, think about this long and hard before you step into that votin' booth.  Do you want to hand over your ha\u2026
p24
aVRT @mmpadellan: Despite a MASSIVE 4.8M early votes cast in Texas, polls are showing Beto O'Rourke trailing Ted Cruz by 6 pts.\u000a\u000aNow is NOT t\u2026
p25
aVRT @jonfavs: No matter what happens on Tuesday, it will remain a political crisis that racial and xenophobic demagoguery is what motivates\u2026
p26
aVRT @LadyLovesTaft: based on the last 17 years of war and the persistent problems at the VA, it would appear that *everyone* is ignoring Vet\u2026
p27
aVRT @paulkrugman: Conservatives believe that Dinesh D'Souza is their leading intellectual, the best they have to offer. And you know, they'r\u2026
p28
aVRT @joncoopertweets: Devin Nunes is a traitor who absolutely needs to lose on Tuesday. Retweet if you agree. He\u2019s Trump\u2019s little lapdog. @J\u2026
p29
aVRT @JuddLegum: A note about Tuesday:\u000a\u000aNo matter what happens, Trump and Trumpism will not be defeated in one election.\u000a\u000aOr two elections.\u2026
p30
aVRT @GeorgeTakei: Hmmm. Is it just me? Every time I see \u201cred hat\u201d I see \u201chatred\u201d now.
p31
aVRT @ananavarro: America, if u didn\u2019t vote early, u got to vote Election Day. Make a voting day plan. Don\u2019t leave it to the last minute. If\u2026
p32
aVRT @DanRather: VOTE and get others to VOTE. All polls have margins of error. Those margins of error represent dramatic swings in outcome. T\u2026
p33
aVRT @BetoORourke: We will not only protect those with pre-existing conditions but we will ensure every Texan can see a doctor, afford their\u2026
p34
aVRT @PreetBharara: Two days. Time for change.
p35
aVRT @waltshaub: Conflicts of interest anyone? Get \u2018em here in bulk.  \U0001f40a https://t.co/JfbuvIe96q
p36
aVRT @BetteMidler: You changed your clocks today?!? Change your politicians on Tuesday!!  \u000a#VOTEBLUE!!
p37
aVRT @NateSilver538: I wish I could forgive you from not knowing how math works, but some things are truly unpardonable. https://t.co/O8IIcSp\u2026
p38
aVRT @PalmerReport: @realDonaldTrump Literally no one believes this.
p39
aVRT @RosenforNevada: Ashenafi, a 27-year-old from Las Vegas, didn't pay attention to politics \u2013 until this year.\u000a\u000aNow he's engaged with @Cul\u2026
p40
aVRT @TVietor08: So now there literally is a dangerous army of people going to the border, but they're headed south. Wonderful. https://t.co/\u2026
p41
aVRT @BetoORourke: Yesterday, we spent the entire day knocking on doors. Talking to those we want to serve and represent. Today, I need you t\u2026
p42
aVRT @JuddLegum: Counter-point: This poll does not exist https://t.co/sw8cDhFEmy
p43
aVRT @ThePlumLineGS: Here's a nightmare scenario.\u000a\u000aDems win House popular vote by 5-6 points.\u000a\u000aGOP keeps majority.\u000a\u000aTrump tweets: "GREAT NIGH\u2026
p44
aVRT @davidfrum: In most democracies, what Brian Kemp is doing in Georgia would simply be impossible: nobody else - not the Brits, not the Ge\u2026
p45
aVRT @waltshaub: Just saw a shocking Corey Stewart campaign ad. It was like a 1930s nazi propaganda reel, and he\u2019s with a major party. The co\u2026
p46
aVRT @chelseahandler: I\u2019ll be in mission viejo tomorrow and we are canvassing. Join us! https://t.co/Dj2ZYeYYZm
p47
aVRT @EdKrassen: NO, I won't stop replying to President Trump's Tweets\u000aNO, I am not paid by George Soros.\u000aNO, Twitter doesn't put my replies\u2026
p48
aVRT @CREWcrew: Even in a department with such a colorful history, the current secretary stands out for his plethora of ethical investigation\u2026
p49
aVRT @brycetache: None of us knows what will happen Tuesday. \u000a\u000aBut I\u2019ll say this: \u000a\u000aUnlike in 2016, I\u2019m seeing astonishing unity - a huge coa\u2026
p50
aVRT @SenWarren: I\u2019ve introduced the most ambitious anti-corruption legislation since Watergate. My bill to #EndCorruptionNow would fundament\u2026
p51
aVRT @Shareblue: The FBI concluded in a 2017 report that white supremacists killed more Americans from 2000 to 2016 than 'any other domestic\u2026
p52
aVRT @DogginTrump: Somebody suggested I need anger management classes \u000a\u000aI\u2019m not the fucking problem! I was a peaceful person until this orang\u2026
p53
aVRT @HJBenjamin: This is the utter insanity that a morally bankrupt president allows for  in its shadow https://t.co/R2fBVB7YEn
p54
aVRT @pattonoswalt: Wanted to make sure @jaredlholt got credit for this hilarious photo. Aaaaaaaaaaand PULITZER! https://t.co/KZhwQMOzKf
p55
aVRT @pattonoswalt: \U0001f447\U0001f447\U0001f447\U0001f447\U0001f447\U0001f447\U0001f447\U0001f447 https://t.co/2umffAdZ0q
p56
aVRT @TeaPainUSA: We should listen to Trump and get rid of the idiot that pardoned the Sheriff that released this guy.\u000a\u000ahttps://t.co/3TwtayEU\u2026
p57
aVRT @jimmykimmel: FIVE MORE DAYS. #VOTE https://t.co/b7pkxMv8aP
p58
aVRT @staceyabrams: .@SallyQYates: \u201cIf you\u2019re in line to vote tonight, hang tight \u2014 we\u2019re counting on you!\u201d \u000a\u000aStay in line. Cast your ballot.\u2026
p59
aVRT @pattonoswalt: \U0001f447\U0001f447\U0001f447\U0001f447\U0001f447\U0001f447 https://t.co/foRh3VVq1e
p60
aVRT @pattonoswalt: \u2764\ufe0f\u2764\ufe0f\u2764\ufe0f\u2764\ufe0f\u2764\ufe0f\u2764\ufe0f https://t.co/7G3SzeHCW8
p61
aVRT @pattonoswalt: It\u2019s 2018. 2018. Seriously. 2018. https://t.co/GKsUv6r5md
p62
aVRT @WalshFreedom: No matter where anyone is politically, we can all agree that Don Jr is an idiot. https://t.co/4HLQIVATL7
p63
aVRT @RedTRaccoon: Multiply Your Vote!\u000a\u000aIt takes just 30 seconds to find the most impactful way to volunteer. Join us, and together we'll win\u2026
p64
aVRT @LadyLovesTaft: shout out to whoever chooses The Hill\u2019s stock images https://t.co/Vj9gyNMqGb
p65
aVRT @TeaPainUSA: The polls are tightenin\u2019!  But pay close attention. The polls ain\u2019t sayin\u2019 we\u2019re gonna win. They\u2019re sayin\u2019 IF we turn out,\u2026
p66
aVRT @JohnWDean: Trump\u2019s promise of violence if the GOP loses the midterms is pure demagoguery at its worst. Unfortunately, he\u2019ll only get wo\u2026
p67
aVRT @PalmerReport: Donald Trump's day so far:\u000a\u000a- Admits Russia rigged the 2016 election for him\u000a- Screws up yet another endorsement\u000a- Rudy G\u2026
p68
aVRT @jonfavs: Important story: our own military has recently written a report debunking many of the Trump/right-wing conspiracies about the\u2026
p69
aVRT @MaddowBlog: The Trump White House secretly granted an ethics waiver to the guy who would take over oversight of the Trump Russia invest\u2026
p70
aVRT @TopherSpiro: !!! Betomentum https://t.co/Z7NKmUeii2
p71
aVRT @CREWcrew: 1. An oil services company wanted to build a development near land owned by Ryan Zinke and his wife\u000a2. It proposed building a\u2026
p72
aVRT @DogginTrump: They\u2019re predicting one 1/3 people between 18 &amp; 30 who\u2019re eligible to vote are definitely planning to vote on Tues\u000a\u000aWTF mil\u2026
p73
aVRT @BetteMidler: Millennials, and all people of good will....DON'T BOTHER WITH THE POLLS! Remember 2016, when they swore @HillaryClinton wa\u2026
p74
aVRT @ananavarro: 13 Americans died b/c of hate crimes last week. I can\u2019t rationalize voting for anyone embracing Trump as he continues to di\u2026
p75
aVRT @RedTRaccoon: Pentagon rejected request for troops to act as emergency law enforcement at border.\u000a\u000a@CNN https://t.co/l6amdTAljB
p76
aVRT @DogginTrump: DO NOT VOTE STRAIGHT DEMOCRATIC TICKET IN TEXAS ON VOTING MACHINES!\u000a\u000aSELECT EACH CANDIDATE INDIVIDUALLY! \u000a\u000aTHE MACHINES AR\u2026
p77
aVRT @RosenforNevada: Lines of voters in Clark County waiting to vote on the last day of Early Vote! Remember, if you are in line you can cas\u2026
p78
aVRT @JohnJHarwood: and James O\u2019Keefe thinks this is bad https://t.co/UlrvRDcTHY
p79
aVRT @TVietor08: If https://t.co/DrZFB6UxfA usage is indicative of general democratic enthusiasm, then I feel hopeful. So far through the sit\u2026
p80
aVRT @SenGillibrand: With Justice Kavanaugh on the Supreme Court, we have to take the fight for women\u2019s reproductive rights to the ballot box\u2026
p81
aVRT @fred_guttenberg: 3 dead, including shooter, and 5 wounded at Florida yoga studio. I guess we need armed guards now at yoga studios.  Ac\u2026
p82
aVRT @Shareblue: The FBI concluded in a 2017 report that white supremacists killed more Americans from 2000 to 2016 than 'any other domestic\u2026
p83
aVRT @TeaPainUSA: 1) Senate goin\u2019 after dirty Russian money to NRA\u000a\u000a2) Brexit\u2019s Farage and Aaron Banks under criminal investigation.\u000a\u000a3) Muel\u2026
p84
aVRT @waltshaub: Good @dsamuelsohn article on the Francisco ethics waiver @CREWcrew uncovered today. Not clear why the waiver wasn't released\u2026
p85
aVRT @DogginTrump: Somebody shared thee number with me\u000a\u000aFucking wow! \u000a\u000aTurnout among 18-29 year olds, compared to 2014 early voting:\u000a- AZ +21\u2026
p86
aVRT @Amy_Siskind: Tennessee early voting for 18-29 y-olds is up 767% thanks to @taylorswift13!\u000a\u000aWhy don't some of the rest of the big name c\u2026
p87
aVRT @kylegriffin1: Manuel Oliver, the father of a student killed in the Parkland shooting, put a bulletproof vest on the 'Fearless Girl' sta\u2026
p88
aVRT @robreiner: On Nov.6 we have a choice. We can either choose hate filled racism served up by a fear mongering pathologically lying crimin\u2026
p89
aVRT @barefootboomer: Your son tortured and killed a dog for no reason at summer camp https://t.co/dXudmCj0H8
p90
aVRT @tribelaw: PLEA TO GREEN PARTY CANDIDATES EVERYWHERE: \u000a\u000aPlease consider dropping out and endorsing the Democrat in your race \u2014 unless yo\u2026
p91
aVRT @attackerman: SCOOP w/@woodruffbets: the Senate intelligence committee\u2019s Russia investigators have asked the NRA to turn over documents\u2026
p92
aVRT @tribelaw: Why announce a deployment of 15,000 armed troops to confront a few hundred refugees who are still 1,000 miles from the border\u2026
p93
aVRT @Amy_Siskind: This is our global leadership now:\u000a\u201cThe Nigerian Army, part of a military criticized for rampant human rights abuses, on F\u2026
p94
aVRT @WTF_Judge: Yeah this account is fun, but this is why I admin. https://t.co/sg0yoA7CaV
p95
aVRT @PauletteEJordan: Mayor Michael Barrett, of Challis Idaho, a conservative Republican, just endorsed our movement!\u000a\u000a"We share equal conce\u2026
p96
aVRT @TeaPainUSA: Mark this down.  2019 is goin' to be the worst year of Trump's life. \u000a\u000a#JusticeIsComing\u000a\u000ahttps://t.co/QkH47TdxeC
p97
aVRT @NatashaBertrand: Jacob Wohl, calling himself \u201cMatthew Cohen,\u201d took $1,200 from a woman who hired Surefire Intelligence to recover her s\u2026
p98
aVRT @Fahrenthold: One interesting part: @realDonaldTrump had argued that a lawsuit would distract him from his duties as POTUS. But judge no\u2026
p99
aVRT @barefootboomer: As a Pagan I am more offended by the racist Confederate statues and Army posts named after Confederate generals than a\u2026
p100
aVRT @SeanCasten: This is really remarkable.  Further proof that we can profitably reduce CO2 emissions. https://t.co/gkoCkHoU96
p101
aVRT @adamcbest: GOP closing argument: A caravan of 3,500 refugees 1,000 miles away from the US is our biggest crisis.\u000a\u000aDem closing argument:\u2026
p102
aVRT @nowthisnews: Brad Pitt and @LeoDiCaprio are urging all Americans to go beyond just voting on November 6th. Here's how you can make a di\u2026
p103
aVRT @tribelaw: I know some of my followers \u2014 not many, but some \u2014 support Trump and candidates he\u2019s endorsed. To you, I say: Prove folks lik\u2026
p104
aVRT @JohnBrennan: As a former resident of Texas and a proud UT-Austin alumnus, I believe Beto O\u2019Rourke is the type of individual Texans need\u2026
p105
aVRT @SenWarren: .@SecretaryZinke shouldn't have been confirmed in the first place. He's since used his position to benefit himself and his B\u2026
p106
aVRT @MrFilmkritik: Trump about two black gubernatorial Democratic candidates:\u000a\u000a- called Andrew Gillum a "thief", without evidence\u000a- called S\u2026
p107
aVRT @USMCLiberal: WARNING to all troops headed to the US/Mexico Border:\u000aIf you fire on unarmed asylum seekers, you will be prosecuted under\u2026
p108
aVRT @mmpadellan: The most OBSCENE thing about trump using the military as a political prop, and threatening to issue UNLAWFUL orders to them\u2026
p109
aVRT @exoticgamora: I don't want to see more trump destruction of human &amp; civil rights, to hear more lies, or see how much further he rips ap\u2026
p110
aVRT @krassenstein: RETWEET if You Promise me that you will Vote in the 2018 Midterm elections!\u000a\u000aLIKE if you will Vote Democrat across the bo\u2026
p111
aVRT @JohnJHarwood: during Obama\u2019s presidency, wealthy investors likened calls for higher taxes on the rich to Nazi attacks\u000a\u000anow Trump WH war\u2026
p112
aVRT @Alyssa_Milano: Early voting in Florida ends TOMORROW. Make a plan today: https://t.co/QRHj3Mq5Nw https://t.co/5XjvpyBkzX
p113
aVRT @billyeichner: I am. I really am. THANK YOU. \u2764\ufe0f\U0001f64f\U0001f1fa\U0001f1f8 https://t.co/33KmPlHDAN
p114
aVRT @Shareblue: "While the address was billed as a policy speech, Trump didn\u2019t actually introduce any new policies as promised. Instead, he\u2026
p115
aVRT @kathygriffin: YESSSS! https://t.co/sIhrqu1fhQ
p116
aVRT @lawfareblog: There is a tendency in the age of Donald Trump to assume that excess is needed to combat excess, but the Jaworski Road Map\u2026
p117
aVRT @GenMhayden: And every company and battalion commander will look his lieutenants in the eye and say \u201cI don\u2019t give a **** about what you\u2026
p118
aVRT @chrissyteigen: This is literally just a graph proving people had to google your dumbass to figure out who you are https://t.co/xpUkyB8N\u2026
p119
aVRT @krassenstein: The FBI recently called me.\u000aThey informed me that they have sent subpoena's to multiple social media platforms, including\u2026
p120
aVRT @LadyLovesTaft: I don\u2019t think I know a single soldier who deployed to a combat zone who *hasn\u2019t* had rocks thrown at them, &amp; I don\u2019t kno\u2026
p121
aVRT @JessieFlagg1: @realDonaldTrump https://t.co/4tEdW75Qna
p122
aVRT @RepJoeKennedy: .@realDonaldTrump claims we can\u2019t afford to heat low-income homes, extend tax credits for working families or protect re\u2026
p123
aVRT @guyplusdog: This is who\u2019s gonna change things. People who don\u2019t usually vote. Can\u2019t wait to see what the have to say. #VOTE \U0001f1fa\U0001f1f8 https://\u2026
p124
aVRT @jonfavs: This is an incredible ad. Joe is running in one of the few Democratic districts that Republicans hope to flip. If you live in\u2026
p125
aVRT @BetteMidler: What\u2019s good for the goose is good for the gander. https://t.co/C8WrjZ1Ish
p126
aVRT @GlennThrush: She was born in Mississippi one year before Emmett Till was butchered there. https://t.co/pklP87W1mC
p127
aVRT @JohnJHarwood: Capt Sully Sullenberger, who has abandoned his lifelong Republican identification, says he\u2019ll be \u201cvoting for leaders comm\u2026
p128
aVRT @mattyglesias: Good meme https://t.co/OB581eM95k
p129
aVRT @maddow: From the Grand Jury report on Nixon that was unsealed yesterday after 44 years:\u000a\u000aNixon "instructed" the head of the Criminal Di\u2026
p130
aVRT @brahmresnik: BREAKING AZ Green Party's U.S. Senate candidate Angela Green tells #12News she's dropping out &amp; throwing support to @kyrst\u2026
p131
aVRT @morethanmySLE: Can you do me a favor? Please retweet this if you plan to #VoteDem on Tuesday, or if you already have. Thanks! \U0001f5f3
p132
aVRT @jkass99: We had rocks thrown at us all the time in Afghanistan. Responding with lethal force is a fucking war crime. https://t.co/CqKYW\u2026
p133
aVRT @Lawrence: Trump: \u201cWhen I can, I tell the truth.\u201d \u000a\u000aThat\u2019s a lie. \u000a\u000a@TheLastWord 10pm
p134
aVRT @EdKrassen: BOOM!  @Krassenstein and I have just released our exclusive conversations with Jack Burkman, Surefire Intelligence and Jacob\u2026
p135
aVRT @maddow: This is a remarkable story out of beloved New Orleans. Power company hires actors to attend public meetings and pretend to supp\u2026
p136
aVRT @ProudResister: Earlier today, I posted the importance of proud Democrats like myself welcoming Republicans to join us on November 6th a\u2026
p137
aVRT @joncoopertweets: Please do NOT get complacent or over-confident. Do NOT trust the polls. Democrats still face HUGE HURDLES in this elec\u2026
p138
aVRT @jaketapper: Former Secretary of Defense/Senator/Vietnam veteran Chuck Hagel on POTUS saying US troops should fire upon migrants who thr\u2026
p139
aVRT @staceyabrams: When we win, it may very well be by one vote. That one vote could be from Atlanta, it could be from Newington, or Damascu\u2026
p140
aVRT @StephenKing: Trump is talking about the crisis at the border. There is no crisis. It's a.) a political stunt, and b.) fake news.
p141
aVRT @tedlieu: Got a preexisting condition? #VoteDem \u000a\u000aHave a friend or family member with a preexisting condition? #VoteDem \u000a\u000aAfraid you or\u2026
p142
aVRT @treasonstickers: A few Americans who came here through birthright citizenship:\u000a\u000a- Walt Disney\u000a- Colin Powell\u000a- Bruce Lee\u000a- Joan Rivers\u2026
p143
aVRT @SeanAMarvin: \u201cKnow the law and know lawyers.\u201d https://t.co/yxq0asKJ58
p144
aVRT @mmpadellan: The polls are saying DEMs are up.\u000aThe polls are saying DEMs are down\u000a\u000aYou know what?\u000aSCREW THE POLLS.\u000a\u000aThey were meaningles\u2026
p145
aVRT @BetoORourke: Coming together for this great country and delivering to our ambitions, that\u2019s what we\u2019re about as Texans. That's what the\u2026
p146
aVRT @Alyssa_Milano: Can you do me a favor? Can you retweet this if you plan to #VoteDem on Tuesday, or if you already have? Thanks!
p147
aVRT @jonfavs: Again, there\u2019s a split between print journalists, who tend to cover these Trump stunts responsibly, and the television folks,\u2026
p148
aVRT @JimCMiner: Landed in the Windy City and here to help #TeamUnderwood flip 14. #IL14 #GOTV #ServeAmerica https://t.co/HofqZFGqQO
p149
aVRT @joncoopertweets: Can you do me a favor? Please retweet this if you plan to #VoteDem on Tuesday, or if you already have. Thanks! \U0001f5f3
p150
aVRT @NormEisen: This is unhinged, as I pointed out to \u2066@NicoleCNN\u2069. Of course Bolton is complaining about 'excessive' ethics checks\u2014these ru\u2026
p151
aVRT @EdKrassen: WOW! Ted Cruz\u2019s lead over @BetoORourke has been narrowed to just 3.6 points, according to the latest poll by University of T\u2026
p152
aVRT @jonfavs: This is the message. This is how you fight Trumpism. https://t.co/AQW3m4kXkN
p153
aVRT @kathygriffin: Gosh you are just so original @TomiLahren! I thought images like this one incite violence! At least that\u2019s what you and y\u2026
p154
aVRT @waltshaub: Oh cry me a river. https://t.co/EFknBSNMI7
p155
aVRT @mmpadellan: Hey @realDonaldTrump!\u000a\u000aI see your 15,000 troops and I RAISE you 65,000,000 ANGRY voters.\u000a\u000aOur ballots are better than bulle\u2026
p156
aVRT @BetteMidler: BEWARE, FLORIDA!  THE #TRUMPKIN IS FLYING DOWN ON HIS BROOM TO SCARE THE BEJESUS OUT OF YOU TONIGHT!  JUST SAY "BOO!" TO H\u2026
p157
aVRT @PreetBharara: Is @DanaRohrabacher going to be defeated? Please.
p158
aVRT @krassenstein: BREAKING:  The latest numbers from Georgia and Texas show that early voting by 18-29 year-old voters is up a staggering 5\u2026
p159
aVRT @DogginTrump: I just blocked 3 people for saying voting doesn\u2019t matter because the system is rigged\u000a\u000aWho wants to be next?\u000a\u000aCause if tha\u2026
p160
aVRT @joncoopertweets: Militia groups and far-right activists are raising money and announcing plans to head to the Mexican border to help st\u2026
p161
aVRT @treasonstickers: IMMIGRATION UPDATE:\u000a\u000aFred Trump = immigrant\u000aDonald = anchor baby\u000aMelania = immigrant \u000aBarron = anchor baby\u000aMelania\u2019s p\u2026
p162
aVRT @TheBaxterBean: more of this please. https://t.co/bV7cnLYWkX
p163
aVRT @BetteMidler: IOWA!  YOU HAVE THE CHANCE TO SHOW THE WORLD THAT YOU REJECT RACISM, VENOM AND INSANITY CURRENTLY COURSING THRU THE GOP BL\u2026
p164
aVRT @GeorgeTakei: WOW!\u000a\u000aA recent ABC/WaPo poll found that among 18- to 29-year-olds, 55% are CERTAIN to vote, and another 25% said they will\u2026
p165
aVRT @mattyglesias: I think when the President makes a factual misstatement the centerpiece of his argument it\u2019s a bad idea to just uncritica\u2026
p166
aVRT @NRDC: @washingtonpost .@SecretaryZinke is taking aim at our natural treasures by offering them up to the highest bidder. #StopZinke htt\u2026
p167
aVRT @88SEATTLE61: @washingtonpost https://t.co/D9f6aAab3s
p168
aVRT @washingtonpost: Zinke\u2019s own agency watchdog just referred him to the Justice Department https://t.co/iyQzMryCVM
p169
aVRT @ananavarro: People like these is who make America great. https://t.co/fYVZr61cPI
p170
aVRT @KristiKjmblack4: This crowd. They came to knock doors for @SpanbergerVA07 today.  They didn\u2019t come because she\u2019d be there (it was a sur\u2026
p171
aVRT @oliviawilde: Yesterday, Trump endorsed the opponent of my mom, @LeslieCockburn, in their race for Congress in VA's 5th district. The GO\u2026
p172
aVRT @shannonrwatts: This is a photo of Illinois Governor Bruce Rauner, who repeatedly vetoes all commonsense gun legislation passed by his s\u2026
p173
aVRT @crampell: Sioux City Journal breaks with tradition, endorses Rep Steve King's Dem challenger. Says "King earlier this month put himself\u2026
p174
aVRT @JoshuaGreen: Wow: Dairy giant Land O\u2019Lakes halts financial support for GOP Rep. Steve King after his "incendiary comments about race an\u2026
p175
aVRT @Shaina_KCCI: "Well, you obviously cannot do that." House Speaker Paul Ryan said. "You cannot end birthright citizenship with an executi\u2026
p176
aVRT @paulkrugman: To prepare for the next 7 news cycles, remember three principles:\u000a\u000a1. There are no limits\u000a2. There is no bottom\u000a3. These p\u2026
p177
aVRT @AP_Politics: We have deleted a tweet about President Trump's claim that the U.S. is the only country that grants birthright citizenship\u2026
p178
aVRT @AricToler: Hahahahahhaha Jacob Wohl (the "LA hipster cafe" guy) is tied to the DNS records for the place that did the "investigation" f\u2026
p179
aVRT @eugenegu: Jacob Wohl just blocked me. But it may have been his mom. https://t.co/gYLQaeemlY
p180
aVRT @AricToler: Surefire Intelligence's LA "Private Investigator" is British  model/photographer Nick Hopper. https://t.co/493cZW9w3w
p181
aVRT @alistaircoleman: Of the thousands of posts on Jacob Wohl, nothing tops this single paragraph in the NBC report. Oh, to be a fly on the\u2026
p182
aVRT @krassenstein: Yes the rumors are true. @EdKrassen and I reported Jacob Wohl and Jack Burkman to Mueller\u2019s Special Counsel after getting\u2026
p183
aVRT @SethAbramson: If we all work REALLY hard over the next few months, we'll be able to find SOME connection between Jacob Wohl, who appear\u2026
p184
aVRT @EdKrassen: Yes, it\u2019s true:  It was me who reported Jacob Wohl and Jack Burkman to Robert Mueller\u2019s office 10 days ago, and today they c\u2026
p185
aVRT @MikeDrucker: Jacob Wohl trying to scam Robert Mueller is like the scene in the first 10 minutes of every Terminator film where a guy pu\u2026
p186
aVRT @thetomzone: hey dumbass jim hoft and jacob wohl: Robert Mueller was SERVING JURY DUTY IN DC the EXACT DAY you claimed he raped a woman\u2026
p187
aVRT @JaneMayerNYer: Odd. Jacob Wohl says he doesn't know nuttin' about Surefire Intelligence, the firm tied to the bizarre Mueller allegatio\u2026
p188
aVRT @MarshallCohen: Bannon stumped for Republicans tonight in Topeka, the largest city in #KS02. The House district is rated a toss-up by pr\u2026
p189
aVRT @BetoORourke: This campaign has been the most inspiring, most hopeful, most thrilling journey of my life. Putting our full faith in the\u2026
p190
aVRT @mmpadellan: First, you slaughtered them. \u000aThen, you took their land.\u000aNow, you want to take...their VOTE??\u000a\u000aCitizens in North Dakota and\u2026
p191
aVRT @perlmutations: That makes 2 fakes in one place. https://t.co/2SlQ9JRriI
p192
aVRT @joncoopertweets: WATCH: Trump\u2019s motorcade forced to turn around after thousands of protesters flood Pittsburgh streets https://t.co/dKT\u2026
p193
aVRT @jonfavs: I see today\u2019s the day a few Republicans and donors are finally distancing themselves from @SteveKingIA. \u000a\u000aHas anyone asked @te\u2026
p194
aVRT @Acosta: The founders set up the constitution so the president can\u2019t do what he\u2019s proposing to do with birthright citizenship. It\u2019s a st\u2026
p195
aVRT @ProudResister: Sarah Sanders just said Trump was elected by an \u201coverwhelming majority.\u201d She\u2019s lying:\u000a\u000a46.9% Didn\u2019t Vote\u000a25.6% Voted Hil\u2026
p196
aVRT @BillKristol: The sophistic excuses and sophomoric blame-shifting are worse than saying nothing at all. https://t.co/XSqJVWISGf
p197
aVRT @chelseahandler: Alabama\u2019s-This woman is running against a 16 year incumbent and the race is very tight, but winnable Mallory Hagan \u2014 Do\u2026
p198
aVRT @KELLYWEILL: Payment processors Stripe and PayPal cut ties with Gab right after Saturday's massacre. But they'd been warned about violen\u2026
p199
aVRT @TeaPainUSA: OUCH!  7 in 10 Americans believe Trump has stained the dignity of the office of President.\u000a\u000ahttps://t.co/MiWR86rgmt
p200
aVRT @girlsreallyrule: Sarah Sanders says Trumps healthcare plan that he's laid out "covers pre-existing conditions." This is a lie. https://\u2026
p201
aVRT @MalcolmNance: Trump officially not ruling out using US Military forces in the United States (in like other presidents) which would incl\u2026
p202
aVRT @SethAbramson: So @LauraLoomer, who has around 250,000 followers on Twitter, just tweeted out the libel that George Soros was a Nazi col\u2026
p203
aVRT @EdKrassen: According to @politico, President Trump works an average of 3 hours per day.\u000a\u000aMeanwhile 37% of Americans are working two job\u2026
p204
aVRT @JoyAnnReid: Was raised in the Methodist Church and amazed that religious people in the room booed the teachings of Christ, presumably b\u2026
p205
aVRT @eugenegu: Sarah Sanders said Trump was elected by an overwhelming majority of Americans when Hillary won by more than 2.8 million votes\u2026
p206
aVRT @barefootboomer: As a strategerist I can confidently say with absolute certainty that this is nuts as fuck https://t.co/W7iN8m0Se5
p207
aVRT @MalcolmNance: This is a laughable Psychological Operation the White House obviously has ordered into the Informationsphere. These \u201cplan\u2026
p208
aVRT @JohnJHarwood: thank God @ShepNewsTeam is willing to speak honestly to the Fox audience https://t.co/OdJQ9qJ1lC
p209
aVRT @EdKrassen: BREAKING:  With the Dow down another 300+ points today, it is now lower than where it was in December of last year.  \u000a\u000aSAVE\u2026
p210
aVRT @CREWcrew: Trump\u2019s involvement in the FBI headquarters project is the strongest evidence yet that the president of the United States is\u2026
p211
aVRT @pptsapper: OTD in 1944, Pvt Barney F. Hajiro, T5 James K. Okubo (his family was internee by US), &amp; Pvt George T. Sakato - all 2nd gener\u2026
p212
aVRT @TVietor08: Fox News is one of the most destructive forces in our politics. It's time to start calling out advertisers for supporting th\u2026
p213
aVRT @DogginTrump: On today's episode of I DON'T GIVE A FUCK\u000a\u000aSusan Westwood from N.C., the racist bitch that went off on 2 black females wai\u2026
p214
aVRT @RWPUSA: It\u2019s called anti-semitism not \u201canti-religiosity.\u201d\u000aIt\u2019s what resulted in the Holocaust.\u000aWe\u2019re not talking about the Bolwling Gre\u2026
p215
aVRT @BetoORourke: On the way back to Wichita Falls! Looking forward to seeing everyone at Kiwanis Prairie Dog Park. Join us at 6:15. https:/\u2026
p216
aVRT @LadyLovesTaft: this seems like a fun time to remind people that, if you don\u2019t like what the military is doing, you shouldn\u2019t yell at so\u2026
p217
aVRT @AynRandPaulRyan: Shep Smith on FOX: "The migrants are 2 months away if they make it here at all. Tomorrow is one week before the midter\u2026
p218
aVRT @kylegriffin1: Gillum: "It should be shocking when a press secretary lies from behind the W.H. podium, unfortunately under Pres. Trump i\u2026
p219
aVRT @krassenstein: BREAKING: In Strongest poll yet for Democrats, they lead by a staggering 17 points in today's USC Dornsife/LA Times poll\u2026
p220
aVRT @BetteMidler: 11 people dead in a hate crime.  Trump holds (yet another) rally, this one to pump up #mikebost, running for the House.  I\u2026
p221
aVRT @EdKrassen: BREAKING:  @GoDaddy has just told anti-Semitic Gab (@getongab) that they can no longer register the domain name on their ser\u2026
p222
aVRT @TeaPainUSA: Democracies around the world are fallin' to far-right fascism, with Trump leadin' to charge.  Your vote has never been more\u2026
p223
aVRT @RedTRaccoon: I saw a political ad attacking Linda Coleman for marching with "The Resistance".\u000a\u000aIt was the Women's March in Raleigh.\u000a\u000aTh\u2026
p224
aVRT @CREWcrew: The IRS forbids charities like the Trump Foundation from advocating for the election of a political candidate. \u000ahttps://t.co/\u2026
p225
aVRT @MalcolmNance: Watch and Retweet! These candidates awesome. https://t.co/l4ceVVmjYJ
p226
aVRT @BetoORourke: Jordan just voted!! Hope to see you at the Lubbock Civic Center's Moe Turner Hall at 1:30. Everyone is welcome. https://t.\u2026
p227
aVRT @krassenstein: Under Trump\u2019s watch:\u000a\u000a-Deadliest massacre of Jews in US history (today)\u000a\u000a-Deadliest mass shooting in US history (las Vega\u2026
p228
aVRT @Palmo53: CO: hey one of your sergeant\u2019s NCOERs got kicked back for the 4th time. This time because you didn\u2019t say he fully supported SH\u2026
p229
aVRT @kylegriffin1: A new lawsuit accuses Trump, his company and three of his children of using the Trump name to entice vulnerable people to\u2026
p230
aVRT @MalcolmNance: DRIVE A NONVOTING MILLENNIAL TO THE POLLS. REWARD THEM WITH PIZZA AND HUGS! #VOTE https://t.co/0D1B1ZGU56
p231
aVRT @RedTRaccoon: Are you a blue dot in a sea of red?\u000a\u000aYou're not alone.\u000a\u000aOther people feel the same way you do.\u000a\u000aHopefully you found each o\u2026
p232
aVRT @tedlieu: This is another good poll for Democrats. \u000a\u000aBut none of this matters if people don't vote. If you want to change the direction\u2026
p233
aVRT @Amy_Siskind: It\u2019s time to END Mitch McConnell\u2019s reign of terror. WE CAN DO THIS! Please support these close senate races:\u000a\u000a@kyrstensine\u2026
p234
aVRT @chelseahandler: \u201cIf Rupert Murdoch and his sons won\u2019t rein in its extremist propaganda, advertisers should flee Fox, and investors shou\u2026
p235
aVRT @BetoORourke: By putting people over PACs, we're going to focus on our public school classrooms and ensure we have the backs of our teac\u2026
p236
aVRT @joncoopertweets: "Trump's schedule on Tuesday featured nine hours of \u2019Executive Time\u2019 and just over three hours of work. The president\u2026
p237
aVRT @JohnJHarwood: new Gallup Poll shows Trump dropping a week before mid-term election\u000a\u000alast week: 44% approve, 50% disapprove (-6)\u000a\u000athis w\u2026
p238
aVRT @DearAuntCrabby: Osama Bin Laden didn't fly planes into the World Trade Center himself. He got his followers worked into a frenzy and th\u2026
p239
aVRT @SteveSchmidtSES: \u201cI can\u2019t sit by and watch my people get slaughgered...screw the optics, I\u2019m going in\u201d.  In he went, to kill the Jews.\u2026
p240
aVRT @treasonstickers: \u201cHER EMAILS!\u201d\u000aHilary\u2019s personal emails that were found not to have been hacked by a foreign gov\u2019t. \u000a\u000a\u201cHIS iPHONE!\u201d\u000aTru\u2026
p241
aVRT @RandomlyTiffany: @JenMerritt05 @Trendy2Chic @VLiderth @zachbraff I don\u2019t get how you expect a man who can\u2019t be bothered to close his ow\u2026
p242
aVRT @krassenstein: BOOM!! \u000a\u000aThe Border Patrol Union that endorsed Trump in 2016, just endorsed 3 major Democrat Senate candidates who Trump\u2026
p243
aVRT @zachbraff: I\u2019ve travelled all over the world. I\u2019ve never seen another human being do this before. https://t.co/7tfxcCLig4
p244
aVRT @JohnJHarwood: the United States of America has a Lou Dobbs problem https://t.co/MeCGO351H0
p245
aVRT @davidfrum: Isn't this exactly the kind of talk that incited the mail bomber to send explosive devices to CNN and others? And now - more\u2026
p246
aVRT @EdKrassen: As you vote on Nov 6, please remember that Mitch McConnell said there isn't much that the Government can do to help reduce t\u2026
p247
aVRT @joncoopertweets: I'm not calling Trump a racist, I'm simply saying racists believe he's a racist.\u000a\u000aI'm not calling Trump an anti-Semite\u2026
p248
aVRT @Mimirocah1: One more thing: the fact that I even hesitated to write the tweet below because I\u2019m nervous about revealing myself to be Je\u2026
p249
aVRT @krassenstein: Under Trump\u2019s watch:\u000a\u000a-Deadliest massacre of Jews in US history (today)\u000a-Deadliest mass shooting in US history (las Vegas\u2026
p250
aVRT @joncoopertweets: Donald Trump is wholly incapable of showing any form of empathy or compassion. He\u2019s no better in that regard than pond\u2026
p251
aVRT @TeaPainUSA: You may say, \u201cI\u2019m not Jewish. Why should Trump\u2019s white nationalism concern me?\u201d  White Nationalists also have a long standi\u2026
p252
aVRT @davidaxelrod: My father and grandparents were driven from their home in Eastern Europe by persecution and violence simply because they\u2026
p253
aVRT @DDerryJ: @TheBeach2018 @MelissaJPeltier @PreetBharara @mayread3 @LouDobbs @RealCandaceO Don\u2019t worry ladies ... I saved that \u201cdeleted\u201d t\u2026
p254
aVRT @BetoORourke: A new poll shows that we\u2019re in a statistical tie with Ted Cruz. We know we can win this race, but we need more resources t\u2026
p255
aVRT @robreiner: As long as Trump takes no responsibility for his part in inciting violence, which he will never do, we will see more and mor\u2026
p256
aVRT @NormEisen: The Jews survived the Babylonian invasion.\u000aWe survived the Roman wars.  \u000aWe survived the Crusades. Pogroms.The Holocaust. (M\u2026
p257
aVRT @OhNoSheTwitnt: Saying Trump can't be an antisemite because his daughter converted to Judaism is like saying he can't be a misogynist be\u2026
p258
aVRT @graceloum: @pptsapper @DrRobThompson Also... https://t.co/DC5WoPEgGD
p259
aVRT @BerzerkerBuilds: @pptsapper https://t.co/HPD4da4Ywc
p260
aVRT @ilovaussiesheps: @pptsapper Sigh. I was reminded of this by a @DrunkestLibrary tweet earlier. https://t.co/zj81tU8tiD
p261
aVRT @krassenstein: Trump literally just said this regarding the mass shooting at the Tree of Life Synagogue in Pittsburgh:\u000a\u000a"If they had som\u2026
p262
aVRT @cattta111: @krassenstein HE. NEEDS. TO. GO.
p263
aVRT @ananavarro: As anyone who worked for him will confirm, I was very critical of Obama. I never got threats I get now. So, yes, I hold Tru\u2026
p264
aVRT @TVietor08: I keep thinking about this 2009 DHS report on right-wing extremists. Conservative bloggers went nuts and claimed Obama was t\u2026
p265
aVRT @DanRather: Mass murder at a Pittsburgh synagogue. A killer targeting African Americans in Kentucky. The bomb maker. The focus should no\u2026
p266
aVRT @krassenstein: BREAKING: Twitter Just told trump that he's losing followers because they are FAKE!\u000a\u000a"Our focus is on the health of the s\u2026
p267
aVRT @EdKrassen: For God\u2019s sake!  Cesar Sayoc attended Trump Rallies and wore MAGA hats back in 2015.  This is what Republican denial looks l\u2026
p268
aVRT @kylegriffin1: Wilbur Ross may have violated a conflict-of-interest law when discussing oil, gas, tax reform and trade with Chevron exec\u2026
p269
aVRT @TVietor08: Congrats to all the Alex Jones wannabes listed in this piece. You should be proud. https://t.co/x9yFVJ3hWv
p270
aVRT @paulkrugman: How are conservatives reacting to the MAGAbomber? In two contradictory ways. Many are declaring that the acts of one indiv\u2026
p271
aVRT @NickKristof: It astounds me that Muslim-majority countries have been so determined not to notice China's systematic repression of relig\u2026
p272
aVRT @MalcolmNance: Even in the middle of a real terrorist crisis the Republican default position is to reject working to stop the threat and\u2026
p273
aVRT @JillShawcross: I\u2019m a mother of two daughters, and a public school teacher. This is my first ever #FBRParty\u000a\u000aI WILLfollow you.\u000aPlease:\u2026
p274
aVRT @CREWcrew: Last year, Trump disclosed highly classified information to Russian officials.\u000aWe\u2019re suing the CIA and NSA over documents rel\u2026
p275
aVRT @EdKrassen: This is NOT OK!!\u000ahttps://t.co/OlPdDFQSHd
p276
aVRT @BetoORourke: Sunrise rally in Mesquite to launch a Saturday of early voting. Find a polling place near you at https://t.co/ckkFIm9nHy h\u2026
p277
aVRT @funder: One thing is certain: Trump will get much much worse. There is no better. He\u2019s not going to change. This is who he is. And ever\u2026
p278
aVRT @JohnJHarwood: Obama identifying big part of the problem https://t.co/WHbusD1UCx
p279
aVRT @joncoopertweets: Your vote is more powerful than any bomb.
p280
aVRT @CREWcrew: The New York lawsuit alleges that the Trump Foundation was a "shell corporation that functioned as a checkbook" for the Trump\u2026
p281
aVThis is my nightmare. It can happen. https://t.co/GEp2Eftd8n
p282
aVRT @EdKrassen: Cesar Sayoc, according to his supervisor, believed that Homosexuals, African Americans and Jewish people should die.  \u000a\u000aNow\u2026
p283
aVRT @RepSwalwell: Health care decoder for my GOP colleagues: if you voted to repeal the Affordable Care Act you voted to charge patients mor\u2026
p284
aVRT @SaysHummingbird: We shouldn\u2019t have to wonder whether Trump is hiding his tax returns. He\u2019s a proven white collar criminal. Period.\u000ahttp\u2026
p285
aVRT @Amy_Siskind: Trump is not going to tone it down. Ever. After midterms, if we don\u2019t put a check on him, the rhetoric will only intensify\u2026
p286
aVRT @TeaPainUSA: Hitler rose to power in 1933.  By 1938 there were no more elections\u000a\u000aTea is deadly serious.  If we don\u2019t put a check on Tru\u2026
p287
aVRT @krassenstein: RETWEET if You Promise me that you will Vote in the 2018 Midterm elections!\u000a\u000aLIKE if you will Vote Democrat across the bo\u2026
p288
aVRT @Price4WNC: Attention #NC11 voters: We know of at least one instance where a vote cast for Phillip G. Price was switched to Meadows by c\u2026
p289
aVRT @votolatino: BREAKING: TX election officials confirm that voting machines are switching people\u2019s votes. This includes votes cast in the\u2026
p290
aVRT @barefootboomer: Glad there is a white male in his 50's in custody for the terrorist pipe bombs so Fox News can get back to scaring whit\u2026
p291
aVRT @waltshaub: The President of the United States has responded to an ongoing and increasingly widespread terrorist attack against his poli\u2026
p292
aVRT @BetteMidler: He accepts NO RESPONSIBILITY FOR THE CURRENT HOSTILE CLIMATE.  THIS GUY IS UTTERLY CRAVEN IF NOT COMLETELY DELUSIONAL.
p293
aVRT @RedTRaccoon: Barack Obama replies to excuses for not voting.\u000a\u000aVote!\u000a\u000ahttps://t.co/unBLw2TcSU
p294
aVRT @RedTRaccoon: Beto O'Rourke on Veterans Affairs.\u000a\u000aLook at the list of bills he sponsored.\u000a\u000aHe cares about veterans.\u000a\u000ahttps://t.co/yIqdrz\u2026
p295
aVRT @exoticgamora: Trump is so confident in his position, he makes no attempt to hide his hate filled racist beliefs\u000a\u000aAsked about calling Ob\u2026
p296
aVRT @adamcbest: Cesar Sayoc, aka the #MAGABomber, isn\u2019t an anomaly. There\u2019s a pattern of violence committed by men radicalized by Trump rhet\u2026
p297
aVRT @CharlesPPierce: Even if everything in Texas is a mechanical glitch, it still proves Jeh Johnson's point that elections should be part o\u2026
p298
aVRT @GrassrootsSpeak: For those lecturing us not to confront GOP in restaurants &amp; to be CIVIL\u000a\u000aThe GOP cancelled Town Halls\u000aThey won't liste\u2026
p299
aVRT @mmpadellan: I don't know about you guys, but I have never been more EXCITED about Election Day than right now.\u000a\u000aMidterms have NEVER see\u2026
p300
aVRT @EdKrassen: Please support these Democrats Running for Senate!\u000a\u000a@SenBillNelson - FL\u000a@RosenforNevada - NV\u000a@SenatorBaldwin - WI\u000a@clairecmc\u2026
p301
aVRT @RosenforNevada: I'll say this again: Senator Heller isn't doing his job representing Nevadans. He's just following orders from Presiden\u2026
p302
aVRT @davidaxelrod: Note to right wing talkers:\u000aNo it wasn\u2019t a left-winger, bent on making the @GOP look bad. It was exactly what it appeared\u2026
p303
aVRT @DanRather: FALSE EQUIVALENCE: equating shouting at politicians in restaurants (incivility with which I don't agree) with sending severa\u2026
p304
aVRT @pptsapper: If we can't win the SWEAT* fight, we'll lose Raqqa just as we lost Iraq. Most of our foreign policy failures boil down to th\u2026
p305
aVRT @pptsapper: It's pretty basic stuff, but we can't seem to get it right. Hell, we can't even get it right at home. Look at Puerto Rico po\u2026
p306
aVRT @pptsapper: It's basically just pulling from Maslow's Hierarchy of Needs, fulfilling the first 2 levels: physiological &amp; safety needs. W\u2026
p307
aVRT @pptsapper: Here's a problem with SWEAT: it's expensive, unglamorous, &amp; it's not necessarily anything the DOD is equipped to do long-ter\u2026
p308
aVRT @robertlyman42: @pptsapper I've have said for a long time, if you want to stop illegal immigration, get the home countries up to a reaso\u2026
p309
aVRT @JohnWDean: Trump is worried (correctly) that he will be under intense investigation by the Democrats when Republicans lose the midterms\u2026
p310
aVRT @robreiner: A fish stinks from the head. Nov.6 Trump is on the ballot. Climate change is on the ballot. Pre-existing conditions are on t\u2026
p311
aVRT @kylegriffin1: El Paso, Texas is shattering early voting records this year because infrequent voters are flocking to the polls, analysis\u2026
p312
aVRT @waltshaub: Forbes says that the calendars show Ross met with Chevron to discuss particular matters affecting the company while he held\u2026
p313
aVRT @waltshaub: In addition, @weareoversight sought copies of Ross\u2019 calendars. The Commerce Department fought back and refused to release th\u2026
p314
aVRT @waltshaub: That same month, our friends at @CampaignLegal also filed a complaint alleging criminal conflict of interest violations. /5\u2026
p315
aVRT @waltshaub: In August, @CREWcrew filed a criminal complaint against Ross. /4\u000a\u000ahttps://t.co/XKEkqFBptp
p316
aVRT @waltshaub: In July, Apol chastised Ross. But Apol\u2019s letter gave Ross cover by claiming his calendars showed \u201cno information indicating\u2026
p317
aVRT @waltshaub: Background: In June, Forbes\u2019s @DanAlexander21 forced acting Office of Government Ethics Director David Apol to release a dis\u2026
p318
aVRT @waltshaub: Shocking but predictable development: Newly released documents show what appears to be fairly conclusive evidence of a crimi\u2026
p319
aVRT @Catz41561Sharon: @fawfulfan @TwainIAint @TopherSpiro @BetoORourke @tedcruz Don't forget EL PASO endorsement. It's BETO's hometown paper\u2026
p320
aVRT @TopherSpiro: BREAKING: The Dallas News, which leans right, just endorsed @BetoORourke over @tedcruz. This is huge.  \u000a https://t.co/rz9i\u2026
p321
aVRT @Nevada_Dem: @Metrowoman55 @davidfrum You're correct. But those unethical and criminal Republicans appoint themselves as a moral compass\u2026
p322
aVRT @Metrowoman55: @davidfrum @Nevada_Dem Forgive my memory but didn't Newt resign in disgrace for lying among other ethics violations?
p323
aVRT @KaivanShroff: They murdered Heather Heyer.\u000a\u000aThey got a D.C. pizza joint shot up.\u000a\u000aTheir congressman assaulted a journalist. \u000a\u000aTheir pre\u2026
p324
aVRT @EdKrassen: Rudy Giuliani Headlines A Pro-Russian Armenian Conference https://t.co/UQPa394frZ
p325
aVRT @Kokomothegreat: That didn't take long. \u000a\u000aTed Cruz aka biggest waste of protein ever said it's the Dems fault the pipe bombs were sent.\u2026
p326
aVRT @paulkrugman: Like I said: https://t.co/ed9EhaKtzv
p327
aVRT @DogginTrump: I'VE HAD SOME PEOPLE DM ME &amp; SAY THEY MAY NOT VOTE CAUSE THEY'RE SCARED\u000a\u000aIF U ARE FOLLOWING ME &amp; U DON'T PLAN 2 VOTE ON OR\u2026
p328
aVRT @jonfavs: In any other administration, if prominent members of a political party were targeted by mail bombs, the president would be exp\u2026
p329
aVRT @kylegriffin1: Gillum: "Now, I'm not calling Mr. DeSantis a racist. I'm simply saying the racists believe he\u2019s a racist." https://t.co/B\u2026
p330
aVRT @conservmillen: As yet there is no evidence this person is a Trump supporter or motivated by Trump. And yet \u201cmaga bomber\u201d the number one\u2026
p331
aVRT @krassenstein: Laura Ingraham attacked @BetoORourke, saying that he's "bought" since he raised 3 times what Ted Cruz did over the last 3\u2026
p332
aVRT @BetoORourke: Round Rock rallying in the rain! So proud of everyone who is helping to break early voting records in Williamson County. h\u2026
p333
aVRT @mmpadellan: Right on the heels of his revelation he had doubts about Kavanaugh (but voted for him anyway), Jeff Flake cranks out blame\u2026
p334
aVRT @robreiner: Donald Trump tells his cult followers protesters are paid for by Soros. Hillary Clinton should be locked up. John Brennan sh\u2026
p335
aVRT @SaysHummingbird: Trump calling for unity is latest joke. \u000a\u000aJust a reminder...he has called:\u000a\u000a- the free press the enemy of the people.\u2026
p336
aVRT @GeorgeTakei: In a weird way, we are fortunate that an incompetent ignoramus like Trump was elected by disaffected Americans who are eas\u2026
p337
aVRT @JohnJHarwood: former WH communications director Scaramucci, to CNN, on Trump: \u201cWe both know that he is telling lies. If you want me to\u2026
p338
aVRT @krassenstein: RETWEET if You Promise me that you will Vote in the 2018 Midterm elections!\u000a\u000aLIKE if you will Vote Democrat across the bo\u2026
p339
aVRT @jonfavs: Last night he told a crowd that Beto O\u2019Rourke and Hillary Clinton should share a jail cell. https://t.co/Y3RxwI4tzo
p340
aVRT @marceelias: BREAKING: Federal Court in Georgia enjoins the state\u2019s signature mismatch law. Signature match laws, in general, are used t\u2026
p341
aVRT @matthewjdowd: This is not a both sides moment.  This starts with the President.  There is no Democratic leader fomenting hate and divis\u2026
p342
aVRT @BBCWorld: THREAD\u000a\u000aChina stands accused of locking up thousands of Muslims without trial in the western Xinjiang region.\u000a\u000aThe governme\u2026
p343
aVRT @Alyssa_Milano: Alabama Congressional Candidate Says State Has Purged Thousands Of Voters https://t.co/dg0ccQdj8S
p344
aVRT @MalcolmNance: Your level of dishonesty in implying that the United States is under imminent terrorist/criminal threat by refugees and m\u2026
p345
aVRT @EdKrassen: Maybe it\u2019s time to try out a different coffee mug? https://t.co/LIYRAioLdH
p346
aVRT @chrislhayes: Presenting oneself at the border and asking for asylum is legal under both US and international law. https://t.co/5z3qqB92\u2026
p347
aVRT @LiberacePuppy: We all agree with @BarackObama on this.  \u000a\u000a@realDonaldTrump and the @GOP are the ones lying about the "dems" wanting ope\u2026
p348
aVRT @BetoORourke: Great group of Texans out voting after work in San Antonio. https://t.co/ogK4DJKxjz
p349
aVRT @Alyssa_Milano: Can you do me a favor? Can you retweet this if you\u2019re sick of Republicans attacking Nancy Pelosi? They only attack her,\u2026
p350
aVRT @TheDemCoalition: Trump is the worst president in American history. Retweet if you agree. Then listen to @Funder\u2019s interview with Cheri\u2026
p351
aVRT @tribelaw: Deliberately stripping Native Americans \u2014 the ORIGINAL Americans \u2014 of the vote is about as sick as it gets https://t.co/JoxRR\u2026
p352
aVRT @Redistrict: Reality check: Trump\u2019s job approval among female college graduates in newest NBC/WSJ poll: 27%/70%. The \u201cblue wave\u201d = subur\u2026
p353
aVRT @Shareblue: GOP lawmaker busted for lying about his massive education cuts in Wisconsin https://t.co/lxkRx4LCPK
p354
aVRT @joshscampbell: Trump on #Khashoggi\u2019s murder: "They had a very bad original concept. It was carried out poorly. And the coverup was one\u2026
p355
aVRT @maggieNYT: @davidaxelrod to me last week on Trump's end-justifies-means mode of telling lie and falsehoods: \u201cWhatever it takes to get w\u2026
p356
aVRT @NatashaBertrand: Brian Kemp expressed at a ticketed campaign event that his Democratic opponent Stacey Abrams\u2019 voter turnout operation\u2026
p357
aVRT @TheWTFNation: 1SG: SFC, we had a Soldier use the open door policy today. It involves you.\u000aSFC: Ok, 1SG\u000a1SG: Did you tell PV2 Snuffy to\u2026
p358
aVRT @DemocraticShift: @krassenstein @realDonaldTrump knows better than @CaterpillarInc:\u000a\u000a"I can tell you more about Caterpillar tractors tha\u2026
p359
aVRT @CREWcrew: Jared Kushner said he told the Saudi crown prince to \u201cbe sure you\u2019re transparent.\u201d\u000a\u000a...in case you forgot, Jared failed to di\u2026
p360
aVRT @GlennKesslerWP: Brian Kemp owes more than $800,000 in insider loans to bank he helped start - Story | WAGA https://t.co/qYcsa9P1vK
p361
aVRT @daverobertsonMO: Cycstic fibrosis is on the list of preexisting conditions that the Trump administration proposes to let drop. https://\u2026
p362
aVRT @KarenAttiah: Serious question for @Twitter @Jack @Verified: \u000a\u000aShould Saudi al-Qahtani (@saudq1978) continue to be allowed to have an ac\u2026
p363
aVRT @KamalaHarris: There is so much at stake in the November elections, that it's energizing to see so many people come out to support Democ\u2026
p364
aVRT @MrFilmkritik: If you\u2019re covering Stacey Abrams burning a racist flag 26 years ago rather than Brian Kemp saying just last week he\u2019s afr\u2026
p365
aVRT @Shareblue: The Trump administration is inviting states to attack health care protections for pre-existing conditions just two weeks bef\u2026
p366
aVRT @SethAbramson: "When the president does it, it's not a crime"\u000a\u000aThese are words we have actually heard Trump's people say on many topics,\u2026
p367
aVRT @krassenstein: Anyone who is going to vote for this guy in Georgia is insane or misinformed. This is as unAmerican as it gets. https://t\u2026
p368
aVRT @jonfavs: I\u2019d bet this plays pretty well with all kinds of voters, and unlike the Republican closing argument, it has the benefit of bei\u2026
p369
aVRT @mmpadellan: The GOP serves FEAR:\u000a- Mobs\u000a- Caravans\u000a- Middle Easterners\u000a\u000aDEMs serve HOPE:\u000a- Wages\u000a- Equality\u000a- Education\u000a- Healthcare\u000a-\u2026
p370
aVRT @TeaPainUSA: BUSTED!  Trumpers brag about the crowds overflowin' into the streets at the Trump/Cruz rally in Houston, except this "rally\u2026
p371
aVRT @Amy_Siskind: New poll Reuters:  preferred party in midterms - \u000a\u000aDemocrats  51\u000aRepublican 39\u000a\u000aDon\u2019t listen to the pundits. Keep working.\u2026
p372
aVRT @SethAbramson: Exhaustive FBI image search in response to a FOIA request.\u000a\u000aImages found: 0.\u000a\u000aNumber of images Trump claimed existed: 100\u2026
p373
aVRT @kathygriffin: Get your FUCK TRUMP mugs here: https://t.co/wpnhzui8U6\u000a\u000aUse this code for 10% off: TIPIT \u000a\u000aThis is such an infomercial I\u2026
p374
aVRT @PodSaveAmerica: Ignore the polls. This election is 50/50, and the only way we win is if everyone gets off their couch, knocks on doors,\u2026
p375
aVRT @NikkisBubble: LIE LIE LIE LIE LIE LIE LIE LIE\u000aLIE LIE LIE LIE LIE LIE LIE LIE\u000aLIE LIE LIE LIE LIE LIE LIE LIE\u000a#inners #maddow https://t\u2026
p376
aVRT @Sweeterthanlyfe: #VoteWithBeto  Even in all the rain this morning and with a cold/sick, I\u2019m out voting for @BetoORourke In Sugarland,TX\u2026
p377
aVRT @willsommer: Richard Spencer's wife says he physically abused her, tried to punch her in the face when she was 9 months pregnant. https:\u2026
p378
aVRT @ProudResister: Adolf Hitler: \u201cI am a Nationalist.\u201d\u000a\u000aDonald Trump: \u201cI am a Nationalist.\u201d\u000a\u000aWake the fuck up America. This is no longer a\u2026
p379
aVRT @dccc: A record number of women and people of color are running in the races that will flip the House. We can change the direction of ou\u2026
p380
aVRT @NoOneIsAboveLaw: GET THE FACTS: The special counsel is delivering results and uncovering the full extent of Russian interference in the\u2026
p381
aVRT @ChrisLu44: Press coverage of Supreme Court order on Wilbur Ross deposition is inaccurate. Court simply put Ross deposition on hold whil\u2026
p382
aVRT @SenGillibrand: At a ticketed fundraising event, @staceyabrams\u2019 opponent Georgia Secretary of State Brian Kemp reportedly said he had co\u2026
p383
aVRT @DisavowTrump20: BREAKING: a new poll shows Democratic Rep. Beto O\u2019Rourke ahead of Ted Cruz by 2 points for the 2018 Texas U.S. Senate r\u2026
p384
aVRT @staceyabrams: We were born for such a time as this.\u000a\u000aWe are Georgia, and we are ready.\u000a\u000aLet's vote. #gapol https://t.co/NDFfYmM1Mr
p385
aVRT @kumailn: 1. There probably aren\u2019t. \u000a\u000a2. What if there are?\u000a\u000a3. Fuck you. https://t.co/tMxi81KQ94
p386
aVRT @olgaNYC1211: As we near the most important elections our country has ever held I am still amazed how msm continues to  not only get eas\u2026
p387
aVRT @adamcbest: Trump says "can you imagine Hillary up there?" about Kavanaugh's hearing. \u000a\u000aHillary Clinton testified about Benghazi for 11\u2026
p388
aVRT @DanRather: An interesting development is seeing how our political divide ricochets through corporate America. We've seen Nike take a st\u2026
p389
aVRT @kylegriffin1: According to audio obtained by Rolling Stone, Brian Kemp told donors at a ticketed event that Stacey Abrams' voter turnou\u2026
p390
aVRT @Amy_Siskind: Media - you\u2019ve fallen back into the 2016 pattern of becoming Trump\u2019s talking piece. When you repeat his words without poin\u2026
p391
aVRT @joncoopertweets: An increasingly unhinged &amp; desperate Donald Trump LIES to the American public, claiming that a 10% tax cut will be in\u2026
p392
aVRT @RepSwalwell: Looking at early voting lines across America and I don\u2019t see any mobs. But I see moms. Lots of moms. #YearOfTheWoman #Vote
p393
aVRT @BetoORourke: "Eight different rallies in the last nine hours. We've seen hundreds and hundreds of people, including a lot of first time\u2026
p394
aVRT @CREWcrew: BREAKING: We just filed a complaint against Kellyanne Conway for violating the Hatch Act. Again. https://t.co/kqkBglH1Za
p395
aVRT @paulkrugman: Pundits: Democrats have no message, they're just running against Trump\u000a\u000aDemocrats: healthcare healthcare healthcare\u000a\u000aPundi\u2026
p396
aVRT @TVietor08: The lies are the story. Not the caravan. Not the fake tax cut. The lies.
p397
aVRT @kylegriffin1: The wife of Richard Spencer, the white nationalist leader, has accused him of being "physically, emotionally, verbally an\u2026
p398
aVRT @krassenstein: The upstanding black President couldn't select a SC Justice in his final year, but the white President who is an unindict\u2026
p399
aVRT @SaysHummingbird: Leaked audio reveals that Republican @BrianKempGA is worried he\u2019ll lose \u2018if everybody exercises their right to vote\u2019 h\u2026
p400
aVRT @timkaine: President Trump isn\u2019t interested in solving immigration problems. Earlier this year, we offered every penny of border securit\u2026
p401
aVRT @AndrewGillum: We\u2019re going to win this race and we\u2019re going to win it the right way. We're going to fight against the lies &amp; smear tacti\u2026
p402
aVRT @perlmutations: For a great many of us, trumps America is not a place in which we would care to live. It is defined by hatred, anger, fe\u2026
p403
aVRT @JoyAnnReid: But naturally, he still voted him through for a lifetime appointment on the Supreme Court. https://t.co/x4dqsaI7gI
p404
aVRT @kylegriffin1: The Garland County Election Commission left Susan Inman, the Democratic candidate for secretary of state, off the electio\u2026
p405
aVRT @BetteMidler: .@tedcruz is a creep with no spine, no decency  and no honor. He will stoop to lick the boots of scum.  He climbs into bed\u2026
p406
aVRT @JohnJHarwood: wife of SCOTUS justice brings the BS https://t.co/1mTjXylf2F
p407
aVRT @paulkrugman: Will George Soros getting a bomb in his mailbox get remotely as much coverage as Alan Dershowitz not getting invited to so\u2026
p408
aVRT @SaysHummingbird: Reminder that Trump\u2019s immigration ban does NOT apply to any countries where the Trump Organization does businesses.\u000a\u000aH\u2026
p409
aVRT @lcorning: @krassenstein Things that should just BE:\u000a1. Voting days should be national \u201cholidays\u201d.2. No one should have to walk more tha\u2026
p410
aVRT @krassenstein: BREAKING:  Garland County in Arkansas has just shut down 3 of their 4 early voting sites after "realizing" that the Democ\u2026
p411
aVRT @SethAbramson: Percentage true Rudy's statement will turn out to be: 0.0%\u000a\u000aThis isn't how this works; you don't give Manafort a sweet co\u2026
p412
aVRT @adamcbest: Andrew Gillum had an outstanding debate, but his brightest moment was this eloquent closing statement about rejecting Donald\u2026
p413
aVRT @ben_rosen: FOUNDING FATHER: we must always have an electoral college and 2 senators per state\u000a\u000aME: ok but what if 40 million people liv\u2026
p414
aVRT @JohnWDean: $57,000 appears to have protected Invanka and Don Jr. from indictment for fraudulent real estate sales. But can anyone reall\u2026
p415
aVRT @DrLindseyFitz: 5,000-year-old prosthetic eye made from a mixture of natural tar and animal fat. This incredible object was found near t\u2026
p416
aVWant https://t.co/oIbyp3LYjt
p417
aVRT @LadyLovesTaft: friend: \u201cI just don\u2019t understand what makes Ragnorak a bisexual movie\u201d\u000a\u000ame: \u201cJeff Goldblum wears EYELINER &amp; I literally\u2026
p418
aV@LadyLovesTaft Early Spader or late Spader? It matters
p419
aVRT @tedlieu: Dear Senator @JeffFlake: Um, your party and votes cast by GOP elected officials enable the lies of @realDonaldTrump. https://t\u2026
p420
aVRT @JohnJHarwood: public service from Shep Smith of Fox News: \u000a\u201cPresident Trump is calling caravan a national emergency, claiming criminals\u2026
p421
aVRT @kathygriffin: Check-in with your Trans friends, co-workers, and loved ones. This is a frightening time...let them know that you're ther\u2026
p422
aVRT @CREWcrew: We requested records on ethics advice concerning the legal defense fund for Trump aides involved in the Russia investigation.\u2026
p423
aVRT @SethAbramson: You can't do journalism without calling this a lie. If Trump has proof of this claim, he has every chance to provide it.\u2026
p424
aVRT @theintercept: A letter from 55 members of Congress asks the director of national intelligence whether the intelligence community knew a\u2026
p425
aVRT @MarshallCohen: NEW TODAY: Mueller has recordings from the 2016 campaign of Roger Stone claiming that he regularly talks to Trump. And i\u2026
p426
aVRT @davidfrum: My favorite "typical American" data point: More Americans practice yoga than watch NASCAR
p427
aV@sgtjanedoe This is the first thing I would abolish if Cheif. All military celebrity parking.
p428
aVRT @BetteMidler: FOR ALL YOU VOTERS WANTING TO KNOW WHO YOUR CANDIDATES ARE AND HOW THEY HAVE VOTED IN THE PAST, GO TO: https://t.co/Th62eH\u2026
p429
aVRT @kylegriffin1: Obama in Las Vegas: "Right now we can tip the balance of power back to you, the American people, because, ultimately, the\u2026
p430
aVRT @SenGillibrand: When this administration spews hate, we will speak out louder. When they commit injustice against one of us, we will com\u2026
p431
aVRT @EdKrassen: BREAKING: A New Hampshire Court has ruled against a Republican created law that attempted to suppress the vote of College St\u2026
p432
aVRT @DanRather: Polls are useful data points. They can also drive you nuts. They're imperfect snapshots of moments in time, subject to margi\u2026
p433
aVRT @RepSwalwell: That middle class tax cut should have come first, not as an election eve promise. @realDonaldTrump &amp; @HouseGOP had their c\u2026
p434
aVRT @waltshaub: 40 years ago, this week, Congress passed the Ethics in Government Act establishing the U.S. Office of Government Ethics. At\u2026
p435
aVRT @MarshallCohen: Trump's ex-lawyer Ty Cobb breaks with the president on the legitimacy of the Mueller investigation, saying today: "I don\u2026
p436
aVRT @BetteMidler: AMERICA!! Because so  much is at stake this year just voting isn\u2019t enough.  Get other people to vote. Knock on doors.  Tal\u2026
p437
aVRT @CREWcrew: Officials from these foreign governments have visited a Trump property this year. Is that going to influence Trump\u2019s foreign\u2026
p438
aVRT @mmpadellan: If you've been paying attention for the past 1.5 yrs, you've seen trump and the GOP:\u000a\u000a- Vote AGAINST Healthcare\u000a- Give the\u2026
p439
aVRT @kylegriffin1: Every living ex-governor of Kansas \u2014 except for Republican Sam Brownback \u2014 now supports Democrat Laura Kelly over Kris Ko\u2026
p440
aVRT @SarahKSilverman: Here it is -SMH - this is the gaslighting madness of constantly pointing to the left &amp; accusing them of doing what the\u2026
p441
aVRT @SaysHummingbird: Why was Jared Kushner communicating with the Crown Prince of Saudi Arabia using private channels like encrypted messag\u2026
p442
aVRT @sirDukeDevin: Eric Trump: "Are we just supposed to throw away our relationship with Saudi Arabia because they murdered a journalist?"\u2026
p443
aVRT @NBCNews: Reporter: "What evidence do you have that these are hardened criminals that are coming to the United States?"\u000a\u000aPresident Trump\u2026
p444
aVRT @TheAtlantic: "It\u2019s beyond hypocrisy\u2014it\u2019s a double-folded state ofbeing, and it will go on so long as the need to make excuses for Dona\u2026
p445
aVRT @BarbL219: Judge Jeanine just lied in her first sentence. No Jeanine, Obama didn\u2019t invite MS13 into our country. They\u2019ve been in our cou\u2026
p446
aVRT @_NotFakeNews_: The should have dropped her mic after this. \u000a\u000aThis is the type of democratic candidate we need. https://t.co/V5mr7GtYZr
p447
aVRT @JuddApatow: It\u2019s good to see people stand up for what is right.  We don\u2019t need to share spaces with evil people.  They should be shunne\u2026
p448
aVRT @JamilSmith: This is voter intimidation. https://t.co/exejRB0jDW
p449
aVRT @ninaturner: Modern day voter suppression. \u000a\u000aGeorgia county tosses out hundreds of minority absentee ballots - CNNPolitics https://t.co/\u2026
p450
aVRT @KamalaHarris: Voting shouldn\u2019t be use it or lose it. Period. \u000ahttps://t.co/sj9R2rtMac
p451
aVRT @BetoORourke: A beautiful sunset rally in west Dallas! So many good people coming together for our state and this country. https://t.co/\u2026
p452
aVRT @MichaelPelumi1: GA VOTERS: We have people getting turned away from early voting because the address on their ID doesn\u2019t match their vot\u2026
p453
aVRT @waltshaub: Another great piece by @page88. With vile partisans shamelessly smearing a torture-murdered Virginia resident who wrote for\u2026
p454
aVRT @Acosta: Don\u2019t be fooled by the continued demonization of immigrants. Voter fraud in this country is actually very rare. What we should\u2026
p455
aVRT @NickKristof: Saudi propagandists are denouncing my column about Jamal's murder. So ask Turkey to release the tape! Also, Saudis typical\u2026
p456
aVRT @SarahKSilverman: THIS IS NOT DEMOCRACY https://t.co/pUrbJMkCkH
p457
aVRT @DThoureau: @EdKrassen All you need to know: https://t.co/YHRQ8Hwgt7
p458
aVRT @EdKrassen: I just heard someone brag about Trump's crowd sizes at his rallies.\u000a\u000aFACT: Trump averages about 9,108 people per rally.\u000a\u000aIf\u2026
p459
aVRT @Shareblue: Mitch McConnell demands Social Security cuts to pay for failed GOP tax scam https://t.co/fAgTe0VC08
p460
aVRT @SarahKSilverman: Fuck this weasel.  Don\u2019t let him threaten your RIGHT. Make sure you\u2019re registered and VOTE @staceyabrams https://t.co/\u2026
p461
aVRT @CREWcrew: Trump\u2019s inaugural fund raised a record $107 million. Mueller is reportedly investigating foreign donations to the fund, inclu\u2026
p462
aVRT @Amy_Siskind: Pollsters say college educated white women will play an outsized role in midterms. It will be our first chance to make up\u2026
p463
aVRT @kylegriffin1: Princeton PhD candidate finds that Georgia's 'exact match' law could disenfranchise 909,540 eligible voters, says it woul\u2026
p464
aVRT @BetteMidler: I know you home cooks have been asking this FOREVER!!  LET THOSE GROWERS KNOW!  Why doesn't American produce taste as good\u2026
p465
aVRT @barefootboomer: Imagine if someone did a study about the recreational use of guns https://t.co/Zc50xRKaJ3
p466
aVRT @sgtjanedoe: Also the most iconic moment of Restrepo is where the company commander at the beginning admits in an interview that he didn\u2026
p467
aVRT @sgtjanedoe: Invalid list because it does not include "Stripes". https://t.co/1NRGbDoq30
p468
aVRT @BetoORourke: "Martha Green said this November is her first time voting, and she\u2019s giving her vote to O\u2019Rourke. The issues that concern\u2026
p469
aVRT @RosenforNevada: Dean Heller thinks everything Donald Trump touches \u201cturns to gold.\u201d Don\u2019t agree? Pitch in here to help us beat him &gt;&gt; h\u2026
p470
aVRT @AndrewGillum: The wealthiest 3% of corporations are walking away with 6.3 billion dollars in new tax giveaways. With my plan, they can\u2026
p471
aVRT @kylegriffin1: The voter information for approximately 35,000,000 U.S. citizens in 19 states was being peddled on a popular hacking foru\u2026
p472
aVRT @BetteMidler: FLORIDA!!  @NelsonForSenate!!  #BILLNELSON WON'T SLASH YOUR MEDICARE AND SOCIAL SECURITY, AS #RICKSCOTT IS SURE TO DO!  Ri\u2026
p473
aVRT @SaysHummingbird: Why was Jared Kushner communicating with the Crown Prince of Saudi Arabia using private channels like encrypted messag\u2026
p474
aVRT @barefootboomer: Dear DoD,\u000a\u000aPlease stop making recruiting videos of us storming some unknown Middle Eastern town. It\u2019s very 2005. Let\u2019s\u2026
p475
aVRT @SenSchumer: In case you were looking for a reminder about what Senator McConnell and Republicans said this week about health care: http\u2026
p476
aVRT @NormEisen: All of Trump's original sins come together in the #Khashoggi scandal--the Saudis were clearly emboldened by the #emoluments\u2026
p477
aVRT @SethAbramson: Right now Georgia is in the midst of a slow-motion stolen election\u000a\u000aGeorgians who value the integrity of their elections\u2026
p478
aVRT @BetteMidler: Be aware, the Russians are at it again.  Don\u2019t fall for it.  Enraging? It\u2019s a bot. Delete the bots, do your due diligence,\u2026
p479
aVRT @treasonstickers: Here\u2019s how republicans are spending your tax dollars:\u000a\u000a1. Trump\u2019s weekly golf trips at Trump properties\u000a\u000a2. Trump\u2019s ha\u2026
p480
aVRT @SaysHummingbird: Please share.\u000a\u000aDonald Trump Says He's Too 'Busy' to Visit U.S. Troops Overseas but has spent approx. 25% of his presid\u2026
p481
aVRT @kathygriffin: Trump, his family, and the GOP were more outraged by my photo holding up a ketchup covered mask resembling Trump than the\u2026
p482
aVRT @mmpadellan: If you worked hard ALL your life, and money was taken out of your paycheck for Social Security and Medicare, and elected of\u2026
p483
aVRT @eugenegu: Trump is a deadly pre-existing condition and the midterm elections are your last chance to get covered. The open enrollment p\u2026
p484
aVRT @PauletteEJordan: No matter how different or similar we are, all mothers are united by the unconditional and nurturing love we have for\u2026
p485
aVRT @CREWcrew: Why was Jared Kushner communicating with the Crown Prince of Saudi Arabia using private channels like encrypted messaging app\u2026
p486
aVRT @barefootboomer: Even with the flag background not sure this could get any more anti-American. Just vile. https://t.co/oMTSrB1Quf
p487
aVRT @jonfavs: Trump has now told the world that he believes Putin\u2019s denials on sabotaging our election and the Saudi denials on murdering a\u2026
p488
aVRT @RosenforNevada: Dean Heller is \u201call about #MAGA.\u201d I\u2019m all about Nevada. Chip in here: https://t.co/erHVTnLjMX https://t.co/SU6jVZLWCL
p489
aVRT @paulkrugman: So the supposed economic payoff from dealing with a murderer is a mirage. Why does Trump keep talking about it? Unfortunat\u2026
p490
aVRT @paulkrugman: US annual exports to China, which are endangered by Trump's trade war, are more than 10X the sums involved in the imaginar\u2026
p491
aVRT @paulkrugman: It's kind of a footnote to the horror of the Khashoggi affair, but Trump's claims about massive job creation from Saudi ar\u2026
p492
aVRT @AndrewGillum: .@RonDeSantisFL is relying on @realDonaldTrump to help him win this race, but he doesn\u2019t have what I have -- and that\u2019s p\u2026
p493
aVRT @kylegriffin1: Putin gave his annual foreign policy speech on Thursday \u2014 and he used it to hail the end of a US-dominated world: 'Luckil\u2026
p494
aVRT @funder: BREAKING: Rep Joaquin Castro has called for an investigation into Jared Kushner\u2019s involvement in the Khashoggi cover up. Trump\u2026
p495
aVRT @kathygriffin: There's this old paradigm in Democratic politics that the only way to beat someone like Trump or beat the GOP is to pick\u2026
p496
aVRT @billyeichner: Guys, listen to your friend Billy. We\u2019ve got 2 1/2 weeks til Election Day. Early voting has started in many places. Your\u2026
p497
aVRT @treasonstickers: .@realDonaldTrump Stop pretending we need $100 billion from the Saudis. If you want to make up for the $100 billion Sa\u2026
p498
aVRT @jonfavs: Trump now regularly calls half of the people in this country \u201cevil\u201d and \u201ccrazy\u201d. Yet for some reason we haven\u2019t been treated t\u2026
p499
aVRT @JohnJHarwood: Sinclair is a cancer on journalism https://t.co/ompmQMNbTF
p500
aVRT @KrangTNelson: hello. my name is bill eggersly. I am 47 years of age and I live in valdosta georgia. I like beer, country music, big tru\u2026
p501
aVRT @SenSchumer: The president is desperate to change the subject from health care to immigration because he knows that health care is the n\u2026
p502
aVRT @mmpadellan: Ron DeSantis is a dirty racist who said his Black opponent, Andrew Gillilum, would "monkey this up."\u000a\u000a@realDonaldTrump is a\u2026
p503
aVRT @AndrewGillum: When you lie about me from the most powerful office in the world and still don\u2019t have the courage to @ me... https://t.co\u2026
p504
aVRT @chelseahandler: New Jersey- let\u2019s band together and re-elect @SenatorMenendez. We need to keep all the democratic senators we can in or\u2026
p505
aVRT @BetoORourke: We're going to fight for our teachers, our classrooms, and our public schools each and every single day in the U.S. Senate\u2026
p506
aVRT @treasonstickers: Jared Kushner, aka Abercrombie of Arabia, advised Trump to fire Comey because he\u2019s the dumbest political advisor in hi\u2026
p507
aVRT @kylegriffin1: Employees at Sinclair Broadcast Group, the largest owner of television stations in the U.S., say that the company orders\u2026
p508
aVRT @EdKrassen: President Trump called Ted Cruz's wife ugly and said his dad killed Kennedy. \u000a\u000aTed Cruz called Trump a "pathological liar" a\u2026
p509
aVRT @tedlieu: Dear @SaudiEmbassyUSA: While Kushner &amp; @realDonaldTrump may be in your pocket, the American people &amp; Congress are not. We will\u2026
p510
aVRT @SaysHummingbird: \u2018Get out of here\u2019: Mitch McConnell confronted by angry constituents at Louisville Cuban restaurant\u000ahttps://t.co/Un76pM\u2026
p511
aVRT @SethAbramson: A generation of GOP activists incensed by Clinton lying about oral sex to the point of wanting him impeached, removed and\u2026
p512
aVRT @RosenforNevada: Senator Heller broke his promise and put Nevadans' health care at risk. He still wants to repeal the ACA. Well, I say i\u2026
p513
aVRT @SenWarren: Saudi Arabia has had 2 weeks to get its story straight about the death of journalist Jamal Khashoggi, and \u201ca fistfight that\u2026
p514
aVRT @waltshaub: If the U.S. had a Congress, it would launch hearings on how the sprawling conflicts of interest of Trump &amp; Kushner are influ\u2026
p515
aVRT @BetteMidler: Trump's closest pals have poisoned citizens, dismembered journalists,and executed people with rocket launchers. This week,\u2026
p516
aVRT @exoticgamora: LOUD blowup trump wants kept quiet\u000a\u000aJohn Kelly &amp; John Bolton got into a furious argumentover immigration\u000a\u000aBolton sides w\u2026
p517
aVRT @politvidchannel: BREAKING: WOW Outdoor clothing company Patagonia endorsed 2 Democrats For Senate \u000a\u000a Rep. Jacky Rosen of Nevada and Sen\u2026
p518
aVRT @attn: Puerto Ricans don't live in another country. We live in America. --  @rosieperezbklyn &amp; @TheRitaMoreno. Made in partnership with\u2026
p519
aVRT @Khanoisseur: This is why Republican lawmakers feared doing healthcare townhalls.  https://t.co/zmywZNXkl0
p520
aVRT @KarenAttiah: #Khashoggi was a 60 year old man. What sort of equal \u201cfight" would he have had against 15 other men? And who brings a bone\u2026
p521
aVRT @mcevasco: This is why Congressman @tedlieu introduced H.R. 3876, the SWAMP Flyers Act, which prohibits the use of federal funds for tra\u2026
p522
aVRT @birbigs: I still feel this way. https://t.co/6kcqMdhZSy
p523
aVRT @AllieGoertz: Don\u2019t bring Ralph into this. https://t.co/9RjY7XBWBG
p524
aVRT @TheDweck: Classic 18-on-1 bone saw fight https://t.co/4M5TGY58G1
p525
aVRT @PFTompkins: THIS IS NOT HARD TO UNDERSTAND OR REMEMBER https://t.co/DEpcOFsJsm
p526
aVRT @TheRealDratch: So...is there ANY way to remedy this *before* they steal the GA election or do we just anticipate being outraged to pals\u2026
p527
aVRT @PFTompkins: I think this guy is cool https://t.co/8sTsu2cLHp
p528
aVRT @GeorgeTakei: To cast a vote against Trumpism on November 6th is the most patriotic act any American can take. It is vote to restore the\u2026
p529
aVRT @Acosta: The disturbing part of Trump\u2019s jokes about Gianforte was the effect on the crowd. I saw one young man in the crowd making body\u2026
p530
aVRT @POLITICO_Steve: Alaska Gov. Bill Walker (I) is dropping out of his reelection race (#AKGOV) and endorsing former Sen. Mark Begich (D) o\u2026
p531
aVRT @ddale8: Trump claimed in March that the Saudi deals would bring 40,000 American jobs. This month, has made it 450,000, then 500,000, an\u2026
p532
aVRT @TwitterMoments: "The Arab world is facing its own version of an Iron Curtain, imposed not by external actors but through domestic force\u2026
p533
aVRT @Stephaniefishm4: @LindseyGrahamSC To say that I am skeptical that you\u2019ll do anything about it is an understatement.
p534
aVRT @LindseyGrahamSC: To say that I am skeptical of the new Saudi narrative about Mr. Khashoggi is an understatement. https://t.co/am4fraUL6H
p535
aVRT @FrankLuntz: \u201cPredicting that 45-50% of eligible voters will cast a ballot.  That would be a level not seen since 1970 when 47% of voter\u2026
p536
aVRT @USAO_NM: Texas man facing federal charges arising out of in-flight incident resulting in emergency landing in New Mexico-- defendant ch\u2026
p537
aVRT @jaketapper: Paul Manafort appeared in a wheelchair at his Virginia court hearing on Friday, his lawyer telling the judge the former Tru\u2026
p538
aVRT @TVietor08: HAHAHAHAHAHAHAHAHAHAHA https://t.co/F67nVuk6lc
p539
aVRT @tedlieu: Dear @realDonaldTrump: You may want to read the indictment your  Administration handed down on Elena Khusyaynova. This Russian\u2026
p540
aVRT @SenWarren: My plan to #EndCorruptionNow in 6 steps:\u000a\u2705Padlock the revolving door\u000a\u2705Force candidates to disclose their tax returns\u000a\u2705End lo\u2026
p541
aVRT @SenSchumer: Sen. McConnell on health care this week:\u000a1: Republicans want to cut Medicare, Medicaid, &amp; Social Security to pay for tax cu\u2026
p542
aVRT @kyrstensinema: Health care expert: \u201cIt\u2019s important to distinguish between actual support for pre-existing condition protections and lip\u2026
p543
aVRT @BetteMidler: Just read a study that says hundreds of herbal supplements may contain traces of pharmaceuticals like antidepressants and\u2026
p544
aVRT @davidfrum: Saudis not making it easy on Trump + Kushner to continue to cover for them.
p545
aVRT @tedlieu: The Saudi Arabia story that Khashoggi would get into a fist fight with up to 18 Saudis, many of whom are trained killers, is r\u2026
p546
aVRT @timkaine: The Saudi \u201cexplanation\u201d for murdering journalist and Virginia resident Jamal Khashoggi in a consulate\u2014a fistfight gone wrong\u2014\u2026
p547
aVRT @SaysHummingbird: THIS IS BIG! ---&gt; House Intel Dem claims Jared Kushner may have given Saudis an assassination \u2018enemies list\u2019 https://t\u2026
p548
aVRT @PreetBharara: The murder of Jamal Khashoggi is deeply important. For what it says about power, about evil, about truth, about arrogance\u2026
p549
aVRT @davidaxelrod: So let me get this straight: the Saudis, who originally denied everything,  just acknowledged that Khashoggi was, indeed,\u2026
p550
aVRT @RosenforNevada: I just stepped off the debate stage. It\u2019s clearer than ever that Senator Heller has cozied up to President Trump &amp; is o\u2026
p551
aVRT @chelseahandler: A man walks into a consulate. Never walks out. 15 Saudi men show up and he accidentally dies. The president of the Unit\u2026
p552
aVRT @joncoopertweets: It's hilarious to see how quick MAGAts were to call The Houston Chronicle a "leftist rag" after they announced their w\u2026
p553
aVRT @BetteMidler: The Saudi Arabian Crown Prince killed and dismembered a journalist who was under the protection of the US; he was legal.\u2026
p554
aVRT @RosenforNevada: PolitiFact already debunked Senator Heller\u2019s claim that Jacky skipped work at the expense of veterans - they rated it \u201c\u2026
p555
aVRT @kylegriffin1: Ballot box access will be more difficult in Dodge City, Kansas, where Hispanics make up 60% of the 27,000 residents.\u000a\u000aThe\u2026
p556
aVRT @EdKrassen: Trump said that universal healthcare doesn\u2019t work anywhere in the world.  \u000a\u000aFact is, it works everywhere in the world except\u2026
p557
aVRT @joncoopertweets: BOOM!!!! Houston Chronicle endorses \u2066@BetoORourke\u2069 for U.S. Senate!\u000a\u000a#TeamBeto #VoteBeto #VoteBetoForTexas #VoteBlue #\u2026
p558
aVRT @KevinMKruse: Normally, the \u201cFriday news dump\u201d doesn\u2019t involve the disposal and cover-up of an actual dead body. https://t.co/gkHFDVpumw
p559
aVRT @danpfeiffer: The Georgia Secretary of State is using his taxpayer funded office to steal an election https://t.co/teI2GX0agm
p560
aVRT @BetoORourke: "We enthusiastically endorse O'Rourke. The congressman's command of issues that matter to this state, his unaffected eloqu\u2026
p561
aVRT @RedTRaccoon: Make no mistake about it, Trump wants them arriving at the border.\u000a\u000aThis is his key campaign point for the GOP this Novemb\u2026
p562
aVRT @RedTRaccoon: If they turn back, this will send Trump into a fury.\u000a\u000aHe loses his campaign tool. https://t.co/NWhyE5abDG
p563
aVRT @TeaPainUSA: QAnon/Deplorabots keep sayin' Mueller cooperators have "nothing to do with Trump" with the exception of...\u000a\u000a1) Trump's camp\u2026
p564
aVRT @jonfavs: This is the whole ballgame, folks: \u000a\u000a\u201cIf Democrats can lure additional young and nonwhite voters off the sidelines and out of\u2026
p565
aVRT @EdKrassen: Trump's allies are now beginning to attack Jamal Khashoggi.\u000a\u000aThey are attacking a respected American journalist who can no l\u2026
p566
aVRT @ananavarro: Yes, it\u2019s outrageous Trump called a woman, \u201chorseface\u201d. It\u2019s outrageous Trump praised dude who body-slammed a reporter. Yes\u2026
p567
aVRT @CREWcrew: NEW: We found that 3 weeks before Jamal Khashoggi disappeared after entering the Saudi general consul in Istanbul, the Trump\u2026
p568
aVRT @joncoopertweets: I despise Donald Trump!\u000a\u000aI despise Donald Trump Jr!\u000a\u000aI despise Ivanka Trump!\u000a\u000aI despise Eric Trump!\u000a\u000aI despise Jared K\u2026
p569
aVRT @CREWcrew: The Trump administration just contradicted itself on the Inspector General appointment. \u000ahttps://t.co/UrGAy6bdss
p570
aVRT @JoyceWhiteVance: If I understand correctly, one of Trump\u2019s Cabinet Secretaries is trying to fire his agency\u2019s Inspector General, after\u2026
p571
aVRT @ritholtz: Apparently, the Heritage Foundation has morphed into a a radical fringe group seeking to create a non-democratic hyper-partis\u2026
p572
aVRT @NPRinskeep: \u201cLaw clerks are not supposed to be part of a cohort of secretly financed and trained partisans.... [This] perverts the very\u2026
p573
aVRT @nytimes: If accepted into the Heritage Foundation's program, funded by unnamed donors, the law clerks pledge not to disclose the teachi\u2026
p574
aVRT @tribelaw: A right-wing training camp to prepare and train law clerks for their service in the chambers of right-wing judges makes a moc\u2026
p575
aVRT @TVietor08: The @Heritage Foundation wants law clerks to pledge allegiance to them and their donors not the constitution. The right-wing\u2026
p576
aVRT @kylegriffin1: Heritage Foundation posted an application for a secret law clerk training academy that noted "generous donors" making "si\u2026
p577
aVRT @GeorgeTakei: Breaking: Trump says Saudi prince has calendar proving his innocence.
p578
aVRT @HardballChris: Republicans just jumped in quick sand. Threatening to cut Social Security, Medicare, and Medicaid will scare voters this\u2026
p579
aVRT @MSNBC: "You've got to come out. And you can't be intimidated. This is not just our country, it's our right. It's our birthright."\u000a\u000a\u2014 Fo\u2026
p580
aVRT @kenvogel: INTERESTING TIMING: A member of the Saudi Royal Air Force who was one of the 15 Saudis allegedly involved in the killing of J\u2026
p581
aVRT @TeaPainUSA: Evangelicals say "every life is precious" unless, of course, there's a 100 million dollar arms deal involved. \u000a\u000ahttps://t.c\u2026
p582
aVRT @CREWcrew: Trump could be a white collar criminal.\u000aTrump could be profiting handsomely off of Saudi Arabia.\u000aTrump could be massively pro\u2026
p583
aVRT @sgtjanedoe: You're going to read some news today about the death of "key US ally" Abdul Raziq in Kandahar, Afghanistan. While you're do\u2026
p584
aVRT @treasonstickers: Trump lies and commits crimes. That\u2019s who he is. It\u2019s insane that we still allow him to be president.\u000a\u000aAll it would ta\u2026
p585
aVRT @mmpadellan: Hey @realDonaldTrump!\u000a\u000aWhen you spend so much time and energy calling the press "Enemy of the People," you shouldn't be sur\u2026
p586
aVRT @SenWarren: Corruption eats away at the heart of democracy. My bill to #EndCorruptionNow will make sure government represents the people\u2026
p587
aVRT @EdKrassen: BOOM!\u000aSenator Kamala Harris just proposed a $6,000 tax credit for families earning less than $100,000.\u000a\u000aNow that's a REAL MI\u2026
p588
aVRT @davidaxelrod: What are the odds that the Saudi probe of the Khashoggi case, on which we are apparently hanging our hat,  will implicate\u2026
p589
aVRT @perlmutations: Cover-ups are messy...they don\u2019t just happen overnight. https://t.co/4cR7JLWbTl
p590
aVRT @TeaPainUSA: If the media reports are right and...\u000a\u000a1. Mueller drops his report soon\u000a2. It strongly implicates Trump with compellin' evi\u2026
p591
aVRT @CREWcrew: Why is Jared Kushner communicating with the Saudi crown prince on WhatsApp instead of going through official diplomatic chann\u2026
p592
aVRT @EdKrassen: BREAkING: Trump\u2019s former chief economic adviser Gary Cohn just told CNBC that his trade war \u2018doesn\u2019t make sense\u2019 and is dest\u2026
p593
aVRT @chrislhayes: There is something so chilling and authoritarian about Pompeo continuing to refer to Khashoggi\u2019s \u201cdisappearance.\u201d We know\u2026
p594
aVRT @waltshaub: Pompeo says that MBS will investigate whether MBS torture-murdered a reporter for asking questions \u2014 and that reporters shou\u2026
p595
aVRT @krassenstein: BREAKING: GOP Sen Corker says that Trump is restricting access to info on Khashoggi's death.  They canceled an intel brie\u2026
p596
aVRT @RosenforNevada: I thought it was the right thing for me to step up again and run for Senate. It was important not just for my community\u2026
p597
aVRT @Amy_Siskind: Rosenstein gave an interview to the WSJ yesterday for a reason.  He is warning us.  \u000aIf we don\u2019t put a check on Trump in 1\u2026
p598
aVRT @SenSchumer: Seriously, do the Republicans think no one will notice their reverse Robin Hood plan? They plan to take money from the midd\u2026
p599
aVRT @CREWcrew: In 2012, New York prosecutors were going to bring a felony fraud case against Ivanka Trump and Donald Trump Jr. But the Manha\u2026
p600
aVRT @SaysHummingbird: ABHORRENT--&gt; \u2018We will kill you\u2019: Viral video appears to show Proud Boys founder calling for Trump supporters to commit\u2026
p601
aVRT @TeaPainUSA: Saudi Arabia would never have tried murderin\u2019 an American journalist while Obama was President.  Trump is weak and compromi\u2026
p602
aVRT @Mimirocah1: Trump has "clamped down" on sharing intelligence regarding Khashoggi. This is a patter- the Trump MO - using his position a\u2026
p603
aVRT @waltshaub: We don\u2019t need an ally who torture-murdered a Virginia resident, has used our weapons to bomb civilians into what may become\u2026
p604
aVRT @krassenstein: Today the FBI called me.\u000a\u000aThey informed me that they have sent subpoena's to multiple social media platforms, including @\u2026
p605
aVRT @TVietor08: If you want to feel better about democracy and the world, visit a @BetoORourke field office and volunteer. Their enthusiasm\u2026
p606
aVRT @barefootboomer: Trying to defend Germany as a NATO ally and contributor from naysayers is exhausting.\u000a\u000aThem: Germany doesn\u2019t meet their\u2026
p607
aVRT @davidaxelrod: \u201cWe are not here to lecture.  We are not here to tell other people how to live, what to do, who to be, or how to worship.\u2026
p608
aVRT @DanRather: Whatever you may be feeling today about our country, hold on, stay steady, and know this: the good and decent mass majority\u2026
p609
aVRT @RonaldKlain: Daily reminder: the President is a thuggish shady developer using the WH for the profit of his family, surrounded by a gro\u2026
p610
aVRT @Mimirocah1: I wonder how Supreme Court Justice Brett Kavanaugh feels about being compared by Trump to potential torturers and murders?\u2026
p611
aVRT @SenSchumer: Fascinating to watch what @realDonaldTrump will allow the Saudis to do. Whether it\u2019s killing Yemeni school children, or \u2018ac\u2026
p612
aVRT @kylegriffin1: A note from Karen Attiah, Global Opinions editor: "The Post held off publishing it because we hoped Jamal would come back\u2026
p613
aVRT @TeaPainUSA: Don\u2019t forget these facts. Jamal Khashoggi was a permanent resident of Virginia employed by the Washington Post. An American\u2026
p614
aVRT @RosenforNevada: I tell my daughter: don't not do something because it's hard.\u000a\u000aWomen are standing up and not waiting to be asked anymor\u2026
p615
aVRT @krassenstein: Today Don McGahn became the 391st person to leave the White House since Inauguration.\u000a\u000aYes 391 people have left this "Wel\u2026
p616
aVRT @PauletteEJordan: Check out this article on InStyle magazine to learn more about our movement. \u000aThis campaign is getting national and in\u2026
p617
aVRT @barefootboomer: I assume college educated women want their student loans paid off and to make the same wage as their male counterparts\u2026
p618
aVRT @perlmutations: That outrage sounds very senatorial. Betcha can\u2019t wait for it to blow over so nobody notices you doing nothing about it.\u2026
p619
aVRT @jonfavs: \u201cLet\u2019s get this fucking thing done!\u201d - said establishment GOP favorite @MarthaMcSally of repealing Obamacare\u000a\u000aAt a debate this\u2026
p620
aVRT @CREWcrew: Jared Kushner doesn\u2019t have foreign policy experience.\u000aJared doesn\u2019t have an SCI security clearance.\u000aJared might have been the\u2026
p621
aVRT @krassenstein: BREAKING:  Condo owners at the 'Trump Place' building in Manhattan have just voted to remove the Trump name from the buil\u2026
p622
aVRT @kylegriffin1: Michael Cohen's attorney, Lanny Davis, told USA TODAY his client had "two words" for the Trump's claims that Cohen lied t\u2026
p623
aVRT @Sethrogen: Few moments in my life have brought me pride like I feel today. \u000aCanada, I love you. \u000a- one of your smiling citizens. \U0001f1e8\U0001f1e6
p624
aVRT @SenGillibrand: In the place of every elected official who put their right-wing political agenda over the stories and voices of women, l\u2026
p625
aVRT @BetoORourke: We will be a bridge over the divisiveness. Never allowing party or geography or any other small difference to stand in the\u2026
p626
aVRT @TeaPainUSA: You don\u2019t have to be a prophet to know after the mid-terms we won\u2019t have a constitutional crisis, we will have a constituti\u2026
p627
aVRT @joncoopertweets: Democratic incumbent senators are leading by double digits in Wisconsin, Michigan, Ohio and Pennsylvania, according to\u2026
p628
aVRT @SenWarren: Money buys influence &amp; power in Washington \u2013 the Saudis know that better than anyone. They've spent millions lobbying the Ad\u2026
p629
aVRT @RepSwalwell: If someone was killed in your home, while you were in it, and 15 days later you\u2019re still trying to come up with an explana\u2026
p630
aVRT @RWPUSA: It\u2019s not just the Russians. Trump colludes with the Saudis as well.\u000a@BillKristol and other conservatives have been on to this f\u2026
p631
aVRT @EdKrassen: BREAKING: @CNN reports that Jared Kushner has communicated with Saudi Crown Prince Mohammed bin Salman on private channels s\u2026
p632
aVRT @CREWcrew: The Manhattan DA failed to bring felony fraud charges against Ivanka and Donald Trump Jr after meeting with a Trump lawyer wh\u2026
p633
aVRT @DanRather: How do you speak in politics? By voting! That's true for citizens in elections. And it's true for senators who claim to be d\u2026
p634
aVRT @SaysHummingbird: \u2018We will kill you\u2019: Viral video appears to show Proud Boys founder calling for Trump supporters to commit violence htt\u2026
p635
aVRT @krassenstein: BREAKING:  Trump's Interior Secretary Ryan Zinke has been, or is currently the subject of 14 different investigations int\u2026
p636
aVRT @KamalaHarris: Spread the word: You can register in person on Election Day in California, Colorado, Connecticut, District of Columbia, H\u2026
p637
aVRT @funder: BREAKING: Audio confirms WaPo journalist Jamal Khashoggi was tortured, beheaded and dismembered by 15 Saudi agents. Meanwhile,\u2026
p638
aVRT @JoyAnnReid: I'm old enough to remember Chief Justice John Roberts saying racism and voter suppression were a thing of the past so we di\u2026
p639
aVRT @tedlieu: Today is Wednesday. That means we all need to ask again: Why does Jared Kushner even have a mid-level security clearance? http\u2026
p640
aVRT @Alyssa_Milano: If you believe that your rights have been violated.\u000a\u000aElection Protection Hotline (866-OUR-VOTE), the Department of Justi\u2026
p641
aVRT @robreiner: I don\u2019t pretend to be a Constitutional scholar, but it seems to me that when a President aids and abets a murder that just m\u2026
p642
aVRT @texasmacguy: @CREWcrew https://t.co/TwIga98XKR
p643
aVRT @CREWcrew: \u201cEither I\u2019m qualified to handle state secrets or I\u2019m not qualified to handle state secrets.\u201d -Jared Kushner
p644
aVRT @joncoopertweets: The fingers of Washington Post journalist Jamal Khashoggi, a US resident who lived in Virginia, were severed during hi\u2026
p645
aVRT @chrislhayes: This entire charade is beyond disgusting. https://t.co/U1UirwSJZo
p646
aVRT @joncoopertweets: BREAKING: Robert Mueller will issue findings on core aspects of his Russia probe soon after the November elections. Sp\u2026
p647
aVRT @serve_america: In case you need \U0001f453, we'll spell it out for you: The woman running against Dave Brat is NOT Nancy Pelosi. She\u2019s @Spanberg\u2026
p648
aVRT @mmpadellan: Is your paycheck LIGHT, while the stock market roars over your head?\u000a\u000aAre you worried about losing your Healthcare? Social\u2026
p649
aVRT @TeaPainUSA: Stay focused Dems.  No distractions for the next three weeks. Close strong on the issues.\u000a\u000a1. Health Care\u000a2. Protect Social\u2026
p650
aVRT @EdKrassen: This morning Trump bragged that the stock market was up 500 points yesterday.\u000a\u000aSure that sounds fine and dandy until you rea\u2026
p651
aVRT @NickKristof: This is the kind of absurd-on-its-face propaganda that would embarrass even a North Korean spokesman. It's bad enough that\u2026
p652
aVRT @ananavarro: Trump scorecard:\u000a-Defends Putin, says Russia had nothing to do with hacking US elections;\u000a-Is \u201cin love\u201d with Kim Jong Un;\u000a-\u2026
p653
aVRT @BillKristol: Trump isn\u2019t being played or conned by the Saudis. Trump is very much in on the con. The House of Trump and the House of Sa\u2026
p654
aVRT @davidgura: If I were the State Department's spokesperson, on an official trip to learn more about the dark, dubious circumstances surro\u2026
p655
aVRT @davidfrum: The claim that Trump is honest despite his lies because he did what he promised to do is itself another lie. Trump promised\u2026
p656
aVRT @perlmutations: I pray that Texas chooses carefully...this guy is a leader anybody would be lucky to have! https://t.co/2jT5PuO1BH
p657
aVRT @BetteMidler: Word has it that 125 million Americans eligible to vote will NOT be voting in the midterms.  DON'T YOU BE ONE OF THEM!!!\u2026
p658
aVRT @Mimirocah1: Innocent until proven guilty totally distorted by Trump.  It does not mean that we should ignore what is right in front of\u2026
p659
aVRT @chelseahandler: If you are voting for guns, no healthcare, and condoned sexual assault, please don\u2019t couch it in religion. There is one\u2026
p660
aVRT @CharlesMBlow: Let me just say it: If Jamal Khashoggi weren\u2019t a Muslim from the Middle East but rather a white man from Europe, the Trum\u2026
p661
aVRT @NYDailyNews: The FBI is looking at the Manhattan DA's office over potential undue influence in handling of cases https://t.co/yZX69QDGA\u2026
p662
aVRT @maddow: "Mr. Nader and Crown Prince Mohammed bin Salman of Saudi Arabia in a photograph obtained by The New York Times." https://t.co/L\u2026
p663
aVRT @maddow: "It is unclear what \u2014 if any \u2014 direct assistance Saudi Arabia and UAE may have provided. But two people familiar with the meeti\u2026
p664
aVRT @maddow: "Donald Trump Jr. responded approvingly... and after those initial offers of help, Nader was quickly embraced as a close ally b\u2026
p665
aVRT @maddow: "Three months before the 2016 election, a small group gathered at Trump Tower to meet with Donald Trump Jr.... The emissary, Ge\u2026
p666
aVRT @NormEisen: Media is saying that the Mueller obstruction report is coming right after the election. Want to know what\u2019s in it? Read our\u2026
p667
aVRT @MarshallCohen: Judge Ellis says Manafort must wear his green jail uniform to Friday's procedural hearing. "... defendant is no longer p\u2026
p668
aVRT @JoyAnnReid: Black senior citizens ordered off Georgia bus taking them to vote https://t.co/PH7fnswvNb
p669
aVRT @barefootboomer: Wonder if all these men calling Stormy Daniels \u201cHorseface\u201d would let us check their browser history \U0001f914
p670
aVRT @ECMcLaughlin: He told Stormy she reminded him of his daughter @IvankaTrump and then had unprotected sex with her, while his wife was at\u2026
p671
aVRT @DogginTrump: Devin Nunes is begging Bay Area conservatives to bail out his failed campaign\u000a\u000aI'm from the Bay Area &amp; I wouldn't give tha\u2026
p672
aVRT @SenSchumer: gaslight\u000a\u02c8\u0261asl\u012bt/\u000a(v)\u000a\u000amanipulate (someone) into questioning their own sanity\u000a\u000aEx: It's gaslighting for the GOP to blow a\u2026
p673
aVRT @ProPublica: Donald Trump claims he only licensed his name for real estate projects developed by others. But an investigation of a dozen\u2026
p674
aVRT @ItalianMonster8: \u201cAs a woman who was conditioned at a very young age to listen to what men told me to do, I decided today I wanted to t\u2026
p675
aVRT @Alyssa_Milano: I love you, @ladygaga. So glad there is you. https://t.co/Y1cPDGPRxq
p676
aVRT @AMluvinit2: You can vote Class (Beto) or Ass (Ted) if I lived in TX, I would vote Class. Tonight's debate winner! \u000aBeto O'Rourke\u000a\u000a#Vote\u2026
p677
aVRT @funder: Whatever you do today don\u2019t retweet this report I wrote on our investigation in to Senator Lindsey Graham. It could get Graham\u2026
p678
aVRT @neeratanden: Fact check: Cruz has been to every county in Iowa not to every county in Texas. @BetoORourke has been to every county in T\u2026
p679
aVRT @RBReich: With just 3 weeks to go until Election Day, McConnell and others have all but admitted they'll seek cuts in Medicare, Medicaid\u2026
p680
aVRT @JoyceWhiteVance: The Saudi's used a bone saw to hack up the body of a man they killed in their embassy, a journalist who wrote for an A\u2026
p681
aVRT @joncoopertweets: Donald Trump once called Sen. Ted Cruz \u201cLyin\u2019 Ted.\u201d While the senator might wish everyone had forgotten all about that\u2026
p682
aVRT @BetoORourke: This is exactly what Senator Cruz said about children being taken from their parents: \u201cWhen you see reporters, when you se\u2026
p683
aVRT @Hoyos4Congress: Early voting ends November 1st! It's election time in Tennessee, and #TN02 is ready for change. RT if you're #ReadyForR\u2026
p684
aVRT @RWPUSA: 'Look what PAC money can buy!\u000aAn ad making a big deal about a tiny middle class tax cut by a Pennsylvania politician who tells\u2026
p685
aVRT @MarshallCohen: #TXSenateDebate: Candidates were asked about protecting elections from foreign influence and regulating social media. O'\u2026
p686
aVRT @SenWarren: A federal judge has ordered that the Trump Admin must ensure students who\u2019ve been cheated by #4profit colleges get the loan\u2026
p687
aVRT @SethAbramson: In case you're wondering, yes, Trump is using the same rhetoric to defend the Saudi assassins who killed and dismembered\u2026
p688
aVRT @EdKrassen: We are rooting for you @BetoORourke! https://t.co/heiwHbZ9Ce
p689
aVRT @theintercept: By actively shunning big money, @BetoORourke puts the onus of fundraising on his supporters. There won\u2019t be any calvary o\u2026
p690
aVRT @RepSwalwell: He\u2019s avoided combat zones his whole life. https://t.co/lGX4ku8sos
p691
aVRT @tribelaw: Watching Secretary of State Mike Pompeo yukking it up with the Saudi Crown Prince who\u2019s credibly accused of having tortured a\u2026
p692
aVRT @tedlieu: Dear @SecPompeo: Turkey provided to the US the audio of the murder of Khashoggi in the office of the Saudi consul general. Wha\u2026
p693
aVRT @jonfavs: He really nailed this tax cut answer https://t.co/RiX5GmBoV8
p694
aVRT @joncoopertweets: Here is audio @TheDemCoalition just dug up of Sen. Heitkamp's opponent Kevin Cramer saying that global warming is "fra\u2026
p695
aVRT @elonmusk: Just reviewed Tesla\u2019s service locations in North America &amp; realized we have major gaps in geographic coverage! Sorry for this\u2026
p696
aVRT @waltshaub: Let\u2019s not forget Pompeo overruled State Dept experts to ensure we\u2019d keep providing weapons and refueling services to the Sau\u2026
p697
aVRT @USAWTFM_PAO: True fucking story. I have no words. https://t.co/jmvsGtfPA7
p698
aVRT @jaketapper: \u201cWhy is the Trump administration cleaning up Saudi Arabia\u2019s mess?\u201d - The Washington Post https://t.co/rVbyxqlumd
p699
aVRT @mmpadellan: Mom raised me to respect women.\u000a\u000a@realDonaldTrump disrespected:\u000aHillary Clinton\u000aElizabeth Warren\u000aMaxine Waters\u000aAngela Merke\u2026
p700
aVRT @BetoORourke: Why did Ted Cruz vote to sell your private browsing history to the highest bidder without your consent? Follow the money.\u2026
p701
aVRT @ryangrim: Ted Cruz, asked in this debate what his responsibility is to bring civility to the conversation, attacks "left wing anger" an\u2026
p702
aVRT @staceyabrams: To be clear, my point is that we must continue to diversify our economy and raise wages across the board. Agriculture and\u2026
p703
aVRT @CharlesPPierce: I watched the Texas Senate debate tonight. I wish Republicans would stop using the "JFK Ran On Tax Cuts" dodge to excus\u2026
p704
aVRT @kathygriffin: God forgive us for this horrifying situation. \u000a\u000aI am not diminishing any other story in the news right now, but we've lar\u2026
p705
aVRT @CREWcrew: Trump still hasn\u2019t released his tax returns, even though:\u000a-two of his associates were found guilty of tax fraud\u000a-he's previou\u2026
p706
aVRT @sgtjanedoe: I follow 675 people and all of them have very strong emotions about YouTube being down.
p707
aVRT @SenSchumer: Why do the Republicans think it\u2019s right to take money out of Medicare, Medicaid, and Social Security to pay for tax cuts to\u2026
p708
aVRT @RVAwonk: The details of Jamal Khashoggi's murder are unimaginably horrific. \u000a\u000a"There was no attempt to interrogate him. They had come t\u2026
p709
aVRT @CharlesMBlow: And that is his right! We always seem to want, desperately, to hear black people say that they aren\u2019t bitter about their\u2026
p710
aVRT @davidaxelrod: It would be shocking if Democratic candidates across the country weren\u2019t cutting ads right now on this.\u000ahttps://t.co/qjLc\u2026
p711
aVRT @robreiner: What else is there to say. The President of the United States is siding with a murderer.
p712
aVRT @BetoORourke: Inexplicably, Ted Cruz voted against $250 million in election security funding. We know that Russian operatives tried to h\u2026
p713
aVRT @Mimirocah1: Heard on Fox\u2019s The Five tonight: \u201cI don\u2019t know that most American women side with porn stars.\u201d Except that this isn\u2019t about\u2026
p714
aVRT @kylegriffin1: CBS reporter tries to ask Jared Kushner a question, Secret Service responds: "I don't give a damn who you are. There's a\u2026
p715
aVRT @krassenstein: BREAKING:  Twitter has suspended 1,500 accounts connected to a Pro-Trump group on Reddit under the "r/the_donald," subred\u2026
p716
aVRT @TopherSpiro: There it is. Ted Cruz just said he would cut spending on "socialized medicine" -- i.e. Medicare -- to address the deficit.
p717
aVRT @waltshaub: This is preposterous: Pompeo is asking MBS to find out if MBS ordered the murder. It\u2019s an absurdly obvious ruse. But Pompeo\u2026
p718
aVRT @SusieLeeNV: This was not hard to predict: to pay for tax breaks for the wealthiest Americans and biggest corporations, the GOP wants to\u2026
p719
aVRT @Alyssa_Milano: People aren\u2019t idiots, Mitch. \u000a\u000aYou blew up the deficit with huge tax cuts for the ultra-rich, now you want to go dismant\u2026
p720
aVRT @DanRather: The House of Saud meets the House of Trump. This is either a marriage of convenience, or ignorance, or complicity. But it is\u2026
p721
aVRT @PreetBharara: I dunno. Michael Cohen vehemently denies lying ... https://t.co/xYbYCJqh26
p722
aVRT @gelles: Pompeo after meeting with the Saudis refuses to tell reporters if Khashoggi is dead or alive. \u000a\u000a\u201cI don\u2019t want to talk about any\u2026
p723
aVRT @kyrstensinema: "I think [Martha McSally] was very frustrated having it exposed that she *did* vote to take away people's basic health c\u2026
p724
aVRT @barefootboomer: Cut every tie we have with Saudi Arabia.\u000aPull out all our military.\u000aStop all military aid and FMS.\u000aCongress should cond\u2026
p725
aVRT @mmpadellan: I've been working since I was 18 years old, so call it 32 years.\u000a\u000a32 years of the government taking taxes out of my paychec\u2026
p726
aVRT @RosenforNevada: Senator Heller promised his tax bill would pay for itself. Instead, it's ballooned the deficit to give massive tax cuts\u2026
p727
aVRT @Ehrest: @mitchellvii I've often wondered why people with no apparent understanding of basic science say preposterous things as if they\u2026
p728
aVRT @HNHughson: @mitchellvii I am here for the dragging.\u000aPro tip: if you are a non-specialist in a field and come up with what you think is\u2026
p729
aVRT @LBinFL: @mitchellvii There are a few possibilities for this tweet. \u000aOption 1: Bill is being held hostage and he wants us to call 911\u000aOp\u2026
p730
aVRT @EvilDave_NXT: @mitchellvii And, while I'm here: melting SEA ice will not raise sea level.\u000a\u000aMelting LAND ice, like glaciers and Antarcti\u2026
p731
aVRT @EvilDave_NXT: @mitchellvii How is it possible to not know really basic stuff, Bill ?\u000a\u000aWater expands upon freezing, but retains the same\u2026
p732
aVRT @davidfrum: If only modern technology put at our literal fingertips a device that could answer elementary scientific questions. https://\u2026
p733
aVRT @The_UnSilent_: Ooh oooh, I know a better one \U0001f64b\U0001f3fc\u200d\u2642\ufe0f\u000a\u000aA Hispanic Canadian who changed his name from Rafael to Ted so he could pretend to\u2026
p734
aVRT @TAPSTRIMEDIA: WATCH: Yale expert on fascist propaganda explains how Trump has ripped a page directly from Mussolini https://t.co/1XZ0MW\u2026
p735
aVRT @CREWcrew: Nikki Haley accepted over $20,000 in luxury private flights from former campaign donors. We\u2019ve asked the government to invest\u2026
p736
aVRT @jonfavs: Favorite tweet of the day https://t.co/cr7DVKX1gv
p737
aVRT @leahmcelrath: \u201cTies\u201d\u000a=\u000aMembers of MbS personal security detail https://t.co/7V48pvjp2e
p738
aVRT @11thHour: Trump just told the @AP that he won't take the blame if the GOP loses the House next month. But on the trail, the president's\u2026
p739
aVRT @RuthHHopkins: I\u2019m so tired of non-natives attempting to use natives to attack Elizabeth Warren. Right now I\u2019m more worried about my rel\u2026
p740
aVRT @page88: Is it just me or does it seem like the president of the United States is an active participant in a murder coverup?
p741
aVRT @Greg_Palast: #BrianKemp is the 3rd Secretary of State in #Georgia\u2019s recent history to run for governor and the only one who has not res\u2026
p742
aVRT @tribelaw: \u201cRogue killers\u201d was BS from the start. These connections to MBS totally blow that BS out of the water. The splash smells to h\u2026
p743
aVRT @olgaNYC1211: Outrageous that @SenateGOP @HouseGOP are standing by this lunatic who has zero morals and is for sale to the highest bidde\u2026
p744
aVRT @JuddLegum: This is ridiculous on many levels but I will say that if someone WALKS INTO YOUR CONSULATE and NEVER WALKS OUT you should be\u2026
p745
aVRT @mmpadellan: \U0001f6a8THIS IS NOT A DRILL.\U0001f6a8\u000a\u000aAfter giving rich f*ckers a huge tax cut, Mitch McConnell &amp; GOP want to cut Social Security and Med\u2026
p746
aVRT @paulkrugman: The bait and switch is moving faster than ever. https://t.co/hlrHcHiPwZ
p747
aVRT @CREWcrew: This is telling https://t.co/v3U9pxxHEk
p748
aVRT @SenatorDurbin: The Majority Leader has this all wrong. The #GOPTaxScam bill from last year is the cause for rising deficits this year.\u2026
p749
aVRT @TeaPainUSA: And yes, ladies, he's single!\u000a\u000ahttps://t.co/fKyVq7qgZF
p750
aVRT @renato_mariotti: Congressman @DanaRohrabacher claims he \u201cknows\u201d Russia didn\u2019t hack the DNC email server because Julian Assange said so.\u2026
p751
aVRT @ragipsoylu: Middle East Eye published the similar claims on #Khashoggi. \u000a\u000a\u2022 He was dragged from the Consul General\u2019s office at the Saud\u2026
p752
aVRT @ragipsoylu: SIGNIFICANT #Khashoggi updates: \u000a\u000a\u2022 Turkish official tells CNN that Khashoggi was cut into pieces \u000a\u2022 Turks to AJ, Saudi aut\u2026
p753
aVRT @SethAbramson: I don't care one way or another about the Elizabeth Warren DNA kerfuffle; it's silliness bred of Trump's lunacy, not a se\u2026
p754
aVRT @jonlovett: McConnell couldn't wait a year between blowing up deficit w tax cuts for corporations and the rich and demanding cuts to hea\u2026
p755
aVRT @perlmutations: Just what makes a bottom feeder like yourself spend his life trying to bring down folks who actually have cool! Are you\u2026
p756
aVRT @ProudResister: I never thought I would see a president call a woman #Horseface.\u000a\u000aI never thought I would see a president conspire with\u2026
p757
aVRT @treasonstickers: Less than a month before the mid-terms, McConnell is talking about cutting Social Security, Medicare and Medicaid.\u000a\u000aTh\u2026
p758
aVRT @TeaPainUSA: This is what has Trump in a Twitter-Tiz today.  50 hours is a lot of spill.\u000a\u000ahttps://t.co/RasJS8Rsij
p759
aVRT @BetoORourke: When the Senate took up debate on the future of immigration and Dreamers, Texas wasn't at the table. We need a senator who\u2026
p760
aVRT @krassenstein: BREAKING:  The ACLU just announced that they are suing Georgia over their 'signature-match law' on mail-in-ballots.\u000a\u000aThe\u2026
p761
aVRT @DavidLehmann77: @kylegriffin1 She was horrible hack in Congress, we were glad to see her voted out in the district I live in.
p762
aVRT @Lee_Roges: @kylegriffin1 Is USA Gymnastics so incompetent they can't properly vet a candidate to serve as interim president?\u000a\u000aEven with\u2026
p763
aVRT @melomys: @kylegriffin1 She\u2019s a highly-paid Republican lobbyist. Someone thought this qualified her for the job?
p764
aVRT @tontonlove: @kylegriffin1 Mary Bono lasted half a Scaramucci.
p765
aVRT @kylegriffin1: Mary Bono is out as interim president and CEO of USA Gymnastics.\u000a\u000aBono was criticized by Simone Biles for an anti-Kaepern\u2026
p766
aVRT @krassenstein: BREAKING:\u000aCherokee Chief Richard Sneed:\u000a \u000a"Sen. Warren does not claim to be a citizen of any tribal nation, and she is no\u2026
p767
aVRT @neiltyson: Imagine how much more advanced society would be today if women, who comprise half the world\u2019s brain power, were socially &amp; i\u2026
p768
aVRT @jonfavs: Trump consistently believes the denials of the world\u2019s dictators over American allies, diplomats, intelligence officials, jour\u2026
p769
aVRT @Amy_Siskind: Sound familiar?  \u000aKind of like:  Brett Kavanaugh assured me he did not sexually assault Dr. Ford and I 100% believe him. I\u2026
p770
aVRT @RVAwonk: Yes, something to know re. Trump's claim that he has no financial interests in Saudi Arabia:\u000a\u000aSaudi Prince Alwaleed bin Talal\u2026
p771
aVRT @JohnJHarwood: yes\u000a\u000aalso unbecoming: for any married man, let alone POTUS, to have seedy extramarital affairs with anyone, let alone por\u2026
p772
aVRT @TeaPainUSA: Shhhh! Whatever you do,  please don't let @realDonaldTrump know that Stormy had twice the ratings on 60 minutes than he did\u2026
p773
aVRT @oliverdarcy: Both of my parents migrated to the US from Iran, along with much of my family. What's wrong with having a Persian ancestry\u2026
p774
aVRT @SethAbramson: Every single GOP lawmaker should be saying this https://t.co/cJsZo5JwOk
p775
aVRT @CREWcrew: Ted Cruz lobbied the EPA to shift some of its policies--pressure that led to hundreds of millions of dollars in savings for V\u2026
p776
aVRT @Amy_Siskind: Anyone else noticing Trump is reflexively defending Saudi Arabia the same way he defends sexual assaulters?
p777
aVRT @Alyssa_Milano: Trump administration moves $260M from cancer research and HIV/AIDS to cover the rising cost and strain of housing thousa\u2026
p778
aVRT @treasonstickers: .@realDonaldTrump since you told Stormy that she looks like Ivanka, and you\u2019re calling Stormy \u201chorseface,\u201d does that m\u2026
p779
aVRT @krassenstein: FACTS MATTER:\u000a\u000aTrump\u2019s Tweet: \u201c8X more new manufacturing jobs now than with Obama\u201d\u000a\u000a-Since 2010 there have been a total o\u2026
p780
aVRT @kylegriffin1: Mitch McConnell blames entitlements, not the Republican tax cut bill, for rising deficits. https://t.co/bDa64r9ld4
p781
aVRT @SteveSchmidtSES: Some enterprising journalist should start a list naming every person and every firm that is on the Saudi payroll in Wa\u2026
p782
aVRT @CREWcrew: Jared Kushner\u2019s startup was in talks to get a $100 million investment from a Saudi-backed fund.\u000a\u000aWe shouldn\u2019t have to ask if\u2026
p783
aVRT @BetteMidler: #Trump accepts ANYONE'S denial of wrongdoing if said loudly  enough. "Putin STRONGLY denied he meddled in 2016 election"\u2026
p784
aVRT @kylegriffin1: Trump says that Sears was mismanaged.\u000a\u000aSteve Mnuchin was on its board for years. https://t.co/KSZmdxeilB
p785
aVRT @BetteMidler: HE ACCIDENTALLY RAN INTO A BONE SAW!!! Report: Saudis Preparing Report Admitting Khashoggi Died in \u2018Interrogation Gone Wro\u2026
p786
aVRT @CREWcrew: How many meetings has Ryan Zinke omitted from his calendar? Is he trying to keep the public from finding out who he\u2019s meeting\u2026
p787
aVRT @ananavarro: Keeping track:\u000a-DNC wasn\u2019t hacked by Russia, but by some 400 lb. guy\u000a-3k Puerto Rican deaths were made-up by the Democrats\u2026
p788
aVRT @krassenstein: Trump told 60 Minutes that he doesn't care if Dr. Ford was telling the truth or not because "we won".  \u000a\u000aThis tells every\u2026
p789
aVRT @JohnWDean: Long overdue release is in process. The info might help Mueller so I filed an affidavit supporting public disclosure. Grand\u2026
p790
aVRT @joncoopertweets: As a result of Trump\u2019s massive tax cuts for corporations and the super-rich, the federal deficit has grown to the high\u2026
p791
aVRT @tedlieu: I'm not a doctor and just a caveman when it comes to human physiology. But I do know this. When you interrogate someone with a\u2026
p792
aVRT @Alyssa_Milano: Did you know only two states send more Republicans to congress than California? \u000a\u000aYup. \u000a\u000aFlorida and Texas are the only\u2026
p793
aVRT @CREWcrew: So remember when Jared Kushner took an unannounced trip to Saudi Arabia last year? And the White House wouldn\u2019t reveal who Ku\u2026
p794
aVRT @SaysHummingbird: Regretful Trump voters tell CNN why they\u2019ve turned on \u2018the dictator in White House\u2019: \u2018All he\u2019s done is surround himsel\u2026
p795
aVRT @BetoORourke: Back in San Antonio! Hope to see you at 6:00. We'll be at Plaza Guadalupe and everyone is welcome to join.
p796
aVRT @krassenstein: BREAKING: NYPD looks to charge 9 Trump-supporting 'Proud Boys' With Assault after Manhattan attack.\u000a\u000aThe more of these ha\u2026
p797
aVRT @Kokomothegreat: I was calling people asking of they needed a ride to the polls. Several told me they didn't know if they were gonna vot\u2026
p798
aVRT @JoyceWhiteVance: Like all good lawyers, @SenWarren opens her case, knowing precisely where she wants to end up. Her closing argument wi\u2026
p799
aVRT @CREWcrew: This is pretty simple. You\u2019re not allowed to abuse your government position by using it to make partisan political statements\u2026
p800
aVRT @CharlesMBlow: Donald, your move\u2026\u000a\u000aBarack released birth certificate\u000aComey released notes\u000aOmarosa released tapes\u000aWarren released DNA tes\u2026
p801
aVRT @mmpadellan: Personally, I don't care if trump pays up on his $1M pledge to Elizabeth Warren. Pretty sure SHE doesn't care either. He wo\u2026
p802
aVRT @SenDuckworth: When I was growing up, school lunch was sometimes the only meal I could count on. That\u2019s still a reality for too many you\u2026
p803
aVRT @treasonstickers: \u201c[insert murderous dictator\u2019s name here] said he didn\u2019t do it and I believe him.\u201d\u000a \u000a\u201c[insert woman\u2019s name here] says s\u2026
p804
aVRT @kyrstensinema: Tonight I\u2019ll join @ArizonaPBS and @azcentral for the #AZSen Debate. It\u2019s time for Arizonans to see the clear contrast be\u2026
p805
aVRT @JohnWDean: Nasty GOP voter suppression going on in GA. Make sure any and all you know there are told how to deal with it. Past time to\u2026
p806
aVRT @ananavarro: Let\u2019s try not to get distracted talking about Elizabeth Warren\u2019s great-great-great-great-great-grandmother &amp; Hillary defend\u2026
p807
aVRT @JohnJHarwood: last October: GOP Sen Corker says "If we're adding one penny to the deficit, I\u2019m not going to be for it.  greatest threat\u2026
p808
aVRT @sgtjanedoe: Democrats: See, she is Native American. She proved Trump wrong.\u000aRepublicans: She's *barely* Native American.\u000aCherokee Natio\u2026
p809
aVRT @davidfrum: Obviously the Saudis are lying about who in their government knew what and when. But is the Trump administration telling the\u2026
p810
aVRT @SaysHummingbird: Missouri Woman Fired For Blocking Black Man From Entering His Home In Luxury Apartment Complex - Saying She Refused Hi\u2026
p811
aVRT @BetteMidler: #MichaelLewis's new book, #TheFifthRisk is brilliant.  MOST AMERICANS HAVE NO IDEA ALL THEIR GOVERNMENT DOES TO KEEP THEM\u2026
p812
aVRT @krassenstein: Trump this afternoon: I\u2019ll only donate $1 million if I can test Elizabeth Warren's  DNA \u201cpersonally\u201d and "that will not b\u2026
p813
aVRT @kylegriffin1: Trump tries to claim that he never offered to donate a million dollars if Elizabeth Warren took a DNA rest.\u000a\u000aBut he did:\u2026
p814
aVRT @SethAbramson: She took the test. She published the results. She has Native American ancestors. Pay up.\u000a\u000a#MakeTrumpPay https://t.co/dsAf\u2026
p815
aVRT @MarkRuffalo: Time to pay up, @realdonaldtrump. https://t.co/8hMoc92kWu
p816
aVRT @SarahKSilverman: \u2b07\ufe0f\u2b07\ufe0f\u2b07\ufe0fFREE RIDES TO VOTE NOV 6th!!!!\u2b07\ufe0f\u2b07\ufe0f\u2b07\ufe0f\u2b07\ufe0f\u2b07\ufe0f https://t.co/xV13lnnIT5
p817
aVRT @krassenstein: Donald Trump: \u2032Nobody treats us much worse than the European Union'\u000a\u000aDear Idiot, here's a list:\u000a\u000a- North Korea\u000a- Russia\u000a-\u2026
p818
aVRT @LadyLovesTaft: If I could channel the same energy that I used to Facebook stalk my former crush\u2019s ex-girlfriend from 4 years ago (she\u2019s\u2026
p819
aVRT @adamcbest: Now that Elizabeth Warren has proved her Native American ancestery, it\u2019s time for Donald Trump to do 3 things:\u000a\u000a1. Stop usin\u2026
p820
aVRT @Amy_Siskind: Just a note that in the past week, Westmoreland Coal, the oldest mining company in the U.S. filed for bankruptcy.  This we\u2026
p821
aVRT @SaysHummingbird: Imagine a black kid knocking on the neighbor's door trying to ask for directions.\u000a\u000aWhat happens?\u000a\u000aMan comes out with s\u2026
p822
aVRT @matthewamiller: Warren's Native American story will be pretty familiar to anyone with an Oklahoma family with Cherokee ties, which I ha\u2026
p823
aVRT @SenGillibrand: The stakes in this election: \u000a\u000aWomen\u2019s autonomy over our bodies. \u000aHealth care for millions of Americans. \u000aA Congress tha\u2026
p824
aVRT @joncoopertweets: Karin Housley, a GOP candidate for the US Senate, compared Michelle Obama to a \u201cchimp\u201d in 2009. Housley criticized the\u2026
p825
aVRT @MalcolmNance: Trump openly refuses to accept any responsibility for knowing what happened to a permanent US Resident. Adopting \u201cour Sau\u2026
p826
aVRT @krassenstein: Here's a prediction.  Our oh-so-intelligent President will continue to call Elizabeth Warren "Pocahontas' even though she\u2026
p827
aVRT @kylegriffin1: Flashback. July 5. Trump on Elizabeth Warren: "I will give you a million dollars to your favorite charity, paid for by Tr\u2026
p828
aVRT @robreiner: Last night the lying insanity that is the President of the United States was on display in full force on 60 Minutes. In 22 d\u2026
p829
aVRT @Alyssa_Milano: One year ago I recorded this for my daughter, explaining why I shared my story of sexual assault. I never expected to re\u2026
p830
aVRT @joncoopertweets: Sen. Elizabeth Warren took the extraordinary step of releasing DNA test results that provide \u201cstrong evidence\u201d she has\u2026
p831
aVRT @BetteMidler: How disheartening is it for Americans to watch as their very own President allows the Saudis to murder a journalist, so th\u2026
p832
aVRT @Kokomothegreat: Dems Vs Repubs by the numbers. \u000a*last 50 yrs\u000a\u000aYears held Presidency\u000aRepub-28yrs \u000aDem-22 yrs\u000a\u000aTotal jobs created \u000aRepub-\u2026
p833
aVRT @GeorgeTakei: If you are turned away at the polls because your name is not on the register, don\u2019t walk away. Say this: I REQUEST A PROVI\u2026
p834
aVRT @AJEnglish: US and UK may boycott 'Davos in the Desert', a major investment conference in Riyadh over concerns that Saudi Arabia is resp\u2026
p835
aVRT @Shareblue: GOP candidate Tim Neville caught faking endorsement from Democratic governor https://t.co/9scvdTEvbF
p836
aVRT @CREWcrew: Jared Kushner apparently paid almost no federal income tax for years. Which makes us ask: why did it take him so many times t\u2026
p837
aVRT @kylegriffin1: "Trump has unilaterally launched a series of trade wars that will damage the global economy next year. Also, the tax cuts\u2026
p838
aVRT @HeidiPrzybyla: As we unpack Trump's hesitation to criticize Saudi Arabia and examine his business ties, remembering this from 2016: \u000aTr\u2026
p839
aVRT @ParisBienert: Who said Sunday is the day of rest?? Not us! Together, we braved the rain and knocked on 231 doors in Lakeland, Westport,\u2026
p840
aVRT @robreiner: In 23 days America has a choice. It can either vote for racism, misogyny, homophobia, xenophobia &amp; Autocracy or it can vote\u2026
p841
aVRT @davidfrum: As Saudi Arabia threatens massive economic reprisals against the US if held to account for the disappearance of a WashPo col\u2026
p842
aVRT @CREWcrew: The whole purpose of the Foreign Emoluments Clause is so Americans know their government officials have their best interest a\u2026
p843
aVRT @leahmcelrath: THREE WEEKS BEFORE MIDTERMS:\u000a\u000aEcuador partly restores internet access for WikiLeaks founder Assange\u000a\u000a\U0001f6a8\u000ahttps://t.co/NG44L\u2026
p844
aVRT @DavidNeiwert: 20) And now we have gangs of heavily armed right-wing thugs, largely outsiders from rural and exurban areas, invading lib\u2026
p845
aVRT @DavidNeiwert: 3) This is a remarkable moment in American politics: The President of the United States just declared an entire political\u2026
p846
aVRT @CharlesPPierce: This is the only thread you need to read today.\u000aIt puts both-siderism into a shallow unmarked grave. https://t.co/aUicl\u2026
p847
aVRT @IGD_News: The fascist movement in the US is defined by street level groups violently aimed at crushing social movements, their open col\u2026
p848
aVRT @SarahKSilverman: \u2b07\ufe0f\u2b07\ufe0f\u2b07\ufe0fWATCH THIS\u2b07\ufe0f\u2b07\ufe0f\u2b07\ufe0f https://t.co/5ui0q5aS63
p849
aVRT @lukeobrien: NYPD now looking for these violent "persons of interest" from the extremist neo-Nazi connected gang that the NYPD chaperone\u2026
p850
aVRT @areidross: Last night the Proud Boys descended on Downtown Portland with the intention of terrorizing a vigil for a black man killed by\u2026
p851
aVRT @Shareblue: A million Florida homes are going to flood, but Marco Rubio is worried it will "destroy the economy" if we fight climate cha\u2026
p852
aVRT @gotravelgear: @ryanstruyk @CNN Rant over.  Headed out to canvas in RAIN and SNOW today.  /x
p853
aVRT @fukalubitchez: @nathanml @VanessaRumbles That will guarantee a Trump re-election then. Come on. Democrats need to put a new fresh excit\u2026
p854
aVRT @JohnWDean: Republican Senator from GA did not want to answer a question about GOP voter suppression efforts so he snatched the phone of\u2026
p855
aVRT @barefootboomer: Breaking: there are lots of Democrats in the Department of Defense https://t.co/QT5UqTfmqq
p856
aVRT @ScottHech: If this doesn't motivate you to vote nothing will. Feel sick to my stomach. https://t.co/M18kQmCZ7E
p857
aVRT @JoyceWhiteVance: Creating barriers to Native American voting in North Dakota is a Political maneuver meant to cost Senator Heitkamp, wh\u2026
p858
aVRT @Amy_Siskind: Since Fox News stopped covering Trump\u2019s rallies live due to falling ratings, he has made a 47-minute appearance on \u201cFox &amp;\u2026
p859
aVRT @CREWcrew: During his campaign, Trump registered 8 companies tied to Saudi Arabia. Is he thinking about those businesses while he\u2019s maki\u2026
p860
aVRT @jaketapper: \u201cGive me my phone back, senator\u201d https://t.co/clEkQcEp6n
p861
aVRT @barefootboomer: That \u270c\U0001f3fcbig lie\u270c\U0001f3fc is called the Lost Cause myth and has polluted actual Civil War history for decades. Dinesh not being\u2026
p862
aVRT @TravisAllen02: Only 23 DAYS until we vote every single Republican out of office!
p863
aVRT @NormEisen: Saudis are now taunting us over #Khashoggi, with one saying that if US sanctions them "it will stab its own economy to death\u2026
p864
aVRT @tedlieu: Good numbers for Democrats  less than four weeks before a national election. But victory only happens if people actually vote.\u2026
p865
aVRT @RosenforNevada: We did it! \U0001f389 \U0001f469\U0001f3fb\u200d\U0001f4bb Twitter doesn't win elections, but your grassroots support \u2013 from online to offline \u2013 does.\u000a\u000aThanks s\u2026
p866
aVRT @kylegriffin1: A biz owned by Kevin McCarthy's in-laws won more than $7,000,000 in no-bid and other federal contracts at U.S. military i\u2026
p867
aVRT @SaysHummingbird: GREAT NEWS! ---&gt; GOP suspends funding for 'Putin's favorite congressman' Dana Rohrabacher as campaign collapses.\u000a\u000ahttp\u2026
p868
aVRT @BetteMidler: SO! the top election official in #GEORGIA, the person who can &amp; does purge voter rolls, is also running for governor! Isn\u2019\u2026
p869
aV@barefootboomer Or the union general who beat them.
p870
aVRT @BetoORourke: This election will decide the future of our public school classrooms. It will decide the future of protections for those w\u2026
p871
aVRT @pptsapper: Cut slingload https://t.co/qx3YrkzLqC
p872
aVRT @joncoopertweets: Thanks for the advice, Mitch, but f*ck you.  https://t.co/6huReQ2Y0p
p873
aVRT @shaunking: Happy 29th birthday to @Ocasio2018! \u000a\u000aI believe in you and am so grateful for your courage and tenacity. Your willingness to\u2026
p874
aVRT @realTuckFrumper: They called this a "PROUD BOYS" event...\u000aNo one was proud.\u000aNO ONE\u000ahttps://t.co/LsFgxb02u6
p875
aVRT @BetoORourke: Back in Corpus Christi for our seventh visit with those we want to serve, represent, and fight for in the Senate. https://\u2026
p876
aVRT @StJohnSterling: Now in #Trumpocracy @davidfrum is covering the secret service and travels costs of Trump/family. That data point alone\u2026
p877
aVRT @allenfee: We canvassed for @joshua_harder in #CA10 yesterday! Knocked on 117 doors and spoke to 61 people. First time for all of us and\u2026
p878
aVRT @kathygriffin: Donald Trump Junior https://t.co/QOgfPlBy36
p879
aVRT @LunaLuvgood2017: You can also lodge complaints with Idaho FWS \u000a\u000aTell them to #FireFischer https://t.co/4xZYbCNPKc
p880
aVRT @LunaLuvgood2017: Please contact Governor Otter at the following \u000a\u000aAnd @ButchOtter  @IDAHOgov  @IdahoGOP \u000a\u000aTell them #FireFischer https:\u2026
p881
aVRT @brianschatz: Just a gentle weekend reminder that it\u2019s illegal for a President to take anything of major value from a foreign government\u2026
p882
aVRT @BetoORourke: Harlingen! So great to be back with you. https://t.co/AVDT5sHBCq
p883
aVRT @B52Malmet: You pay taxes. I pay taxes. Jared doesn\u2019t pay taxes. Neither does his father- in-law. These cheaters are the first family of\u2026
p884
aVRT @TravisAllen02: HOW TO REPORT A RUSSIAN BOT ON TWITTER:\u000a\u000a1. Go to their account \u000a2. Click on Settings (little gear) \u000a3. Report \u000a4. Selec\u2026
p885
aVRT @Tennesseine: Boomers got:\u000a\u000a-Cheap houses\u000a\u000a-Debt-free education they could pay for with minimum-wage jobs\u000a\u000a-Rising wages.\u000a\u000a82% of them w\u2026
p886
aVRT @Grargarg: @AllenWest In 2003, West was charged in an incident that involved the beating and simulated execution of an Iraqi policeman.\u2026
p887
aVRT @Latin4Cookies: @AllenWest Alan "Uncle Ruckus" West's idea of civility is making veiled threats of violence towards someone who's opinio\u2026
p888
aVRT @NerdPyle: @AllenWest Hey remember when you were fined, given NJP, and forced to retire or face court martial because you were a disgrac\u2026
p889
aVRT @barefootboomer: Or anything else he says for that matter
p890
aVRT @barefootboomer: So maybe don\u2019t listen to a word this criminal and failed Army officer actually says about \u270c\U0001f3fctyranny\u270c\U0001f3fc
p891
aVRT @barefootboomer: Reminder that Lieutenant Colonel retired Allen West was relieved of battalion command and forced to retire by the Army\u2026
p892
aVRT @teamabrams: #TeamAbrams is marching with @staceyabrams in #AtlantaPride! Follow along with us! https://t.co/ZeXl50ZvtO
p893
aVRT @CREWcrew: It\u2019s illegal to leak unauthorized information for political purposes--how did Rudy Giuliani get leaked information that James\u2026
p894
aVRT @CREWcrew: Saudi lobbyists spent $270,000 at Trump Hotel\u000aA Saudi prince bought a 10,500-sq-ft apartment in a Trump building\u000aSaudis spent\u2026
p895
aVRT @RosenforNevada: Hey Twitter \u2013 we're about to top @DeanHeller in followers, but we need your help!\u000a\u000a\U0001f4e3 Can you tag 3 friends who'd want t\u2026
p896
aVRT @ChrisLu44: Zinke has deliberately omitted information from publicly released calendars, including his meetings with energy and mining i\u2026
p897
aVRT @kylegriffin1: The new lawsuit filed against Georgia Secretary of State Brian Kemp claims that of the approximately 51,000 voter registr\u2026
p898
aVRT @nowthisnews: Gov. Rick Scott banned the term 'climate change' in Florida. The state was just hit by its worst storm ever. https://t.co/\u2026
p899
aVRT @CREWcrew: Promise made: President Trump won\u2019t have any involvement in the Trump Organization\u000a\u000aPromise broken: Trump proposed a discount\u2026
p900
aVRT @kylegriffin1: Democratic candidates lead Republicans by 11-points on the generic congressional ballot, 53-42%, in the new WaPo/ABC poll\u2026
p901
aVRT @BenJealous: If you want to send a powerful message to @realDonaldTrump...\u000a\u000aSend the former national president of the @NAACP to be your\u2026
p902
aVRT @TankCPTNemo: So apparently Fox NFL Sunday is broadcasting from Fort Benning on Veterans Day, and guys are getting tasked to support and\u2026
p903
aVRT @staceyabrams: Thank you, #AtlantaPride! Excited to march with you in the parade tomorrow, and ready to march with you to the ballot box\u2026
p904
aVRT @LadyLovesTaft: @sgtjanedoe I only like generals who win wars
p905
aVRT @sgtjanedoe: This is what happens when you (like Lee) ignore the importance of the Western theater. https://t.co/KOHVAiaanz
p906
aVRT @joncoopertweets: Kennedyesque? Texans get close-up comparison as Beto O'Rourke stumps with Joe Kennedy III\u000a\u000a#VoteBeto #VoteBetoForTexas\u2026
p907
aVRT @RBReich: Last week, we learned that the President of the United States engaged in fraud to avoid millions of dollars in taxes on his fa\u2026
p908
aVRT @barefootboomer: Lee and the Army of Northern Virginia were still a huge threat all the way up until Appomattox in 1865. Grant had his h\u2026
p909
aVRT @RockRt66: @CBSNews found guilty Friday of assault with intent to do great bodily harm\u000a\u000ahttps://t.co/e3cU5waEV9
p910
aVRT @NickKristof: One problem is racism. Another is the ubiquity of guns. https://t.co/6XLjD3VF4g
p911
aVRT @krassenstein: 12 months ago Trump blocked both me &amp; my twin @EdKrassen on Twitter. We didn't roll over. We fought back. \u000a\u000aEd &amp; I now ha\u2026
p912
aVRT @SarahKSilverman: Your boss calls journalists the enemy of the people. https://t.co/WpQeBQIKdp
p913
aVRT @RWPUSA: Another accident in Russia.\u000aSome Russians are more accident prone than others.\u000aAnd helicopters are risky after all ...\u000a\u000aKremlin\u2026
p914
aVRT @JCTheResistance: Once again,  @realDonaldTrump\u000aAnd the @GOP abandon the American people. \u000a\u000aMaybe they are hoping they have no way to vo\u2026
p915
aVRT @AshaRangappa_: George, shhhh, George. It's OK. You only have to spend a few days in The Bad Place, and then no one will hurt you again.\u2026
p916
aVRT @TVietor08: These criticisms of @BetoORourke's fundraising are so stupid. Enthusiasm is not fungible. Small dollar donors don't look aro\u2026
p917
aVRT @NicholsUprising: Cool. Can we start by getting the kids out of your father\u2019s border cages? https://t.co/3oCegswRAB
p918
aVRT @eugenegu: After careful consideration, I\u2019ve decided to reveal the emails Donald J. Trump and Marsha Blackburn sent to Vanderbilt Univer\u2026
p919
aVRT @chelseahandler: Let\u2019s help @staceyabrams make history and win this election so that her racist opponent who is trying to oppress black\u2026
p920
aVRT @kathygriffin: If this doesn't get you to vote, I don't know what will....\u000a\u000ahttps://t.co/e11f88Uqlm https://t.co/Np6ztZAfLH
p921
aVRT @AshaRangappa_: Pooty must have told POTUS that "real leaders" don't let people protest and now he's trying to fit in with the kool kids\u2026
p922
aVRT @CREWcrew: The Mueller investigation follows all relevant Justice Department rules. \u000aTrust us, we\u2019ve read them.\u000ahttps://t.co/Zc06emQF39
p923
aVRT @MalcolmNance: We have one last chance to save this country. THIS IS THE MOST IMPORTANT ELECTION IN HISTORY. WILL AMERICA REMAIN A DEMOC\u2026
p924
aVRT @kylegriffin1: Susan Collins blasted "dark money" groups in Kavanaugh fight. One just paid six figures to say "thank you" for her vote,\u2026
p925
aVRT @_NotFakeNews_: @AliceEvansGruff He should never have been approved to purchase them in the first place. He\u2019s obviously not fit enough t\u2026
p926
aVRT @_NotFakeNews_: This is one of the \u201cgood people\u201d from the right. His solution for the BLM  movement is to shoot black men, women, and ch\u2026
p927
aVRT @theintercept: Max Boot, a leading intellectual in the conservative movement for the past two decades, is now apologizing for nearly eve\u2026
p928
aVRT @Alyssa_Milano: Show me what democracy looks like. THIS is what democracy looks like. https://t.co/JdEV5pvCBG
p929
aVRT @joncoopertweets: BREAKING: Georgia GOP Secretary of State Brian Kemp is now under investigation by @TheDemCoalition. We found something\u2026
p930
aVRT @chelseahandler: Hearing Republicans invoke god and Jesus Christ with regard to trump is beyond nauseating. As if Jesus wants babies in\u2026
p931
aVRT @CREWcrew: It\u2019s never been more important to see a US president\u2019s tax returns.\u000ahttps://t.co/CKF7yfUWNf
p932
aVRT @JohnWDean: ATTENTION: White House Staff. Please tell the president Ohio fought with the Union Army, that Robert E. Lee lost the war, an\u2026
p933
aVRT @GoForThree: Army Aviators starting every ATC call with \u201cAnd.\u201d Fucking kills me.\u000a\u000a\u201cAaaaaand Tower, R12345 is clear of the active.\u201d https\u2026
p934
aVRT @mmpadellan: If/when DEMs regain control of the House, we can investigate trump's taxes.\u000a\u000aMitch McConnell thinks it's a bad idea, becaus\u2026
p935
aVRT @Mimirocah1: The \u201cmob\u201d I know as an organized crime prosecutor is a group of people who value loyalty to their boss no matter the conseq\u2026
p936
aVRT @joncoopertweets: Two men affiliated with the corrupt Arizona Republican Party attempted to make a campaign donation to a Democratic con\u2026
p937
aVRT @kylegriffin1: The White House is actively considering plans that could again separate parents and children at the U.S.-Mexico border, W\u2026
p938
aVRT @JohnWDean: By staying with the deeply flawed Judge Kavanaugh and jamming him on the Court the GOP has made itself the party against wom\u2026
p939
aVRT @TrumpsTaxes: Heads up Illinois:\u000a\u000aBetween #ILGov and trending-blue House seats like #IL06, #IL14, #IL13, and #IL12, your state maybe gro\u2026
p940
aVRT @serve_america: "I bled on foreign soil for people to have the right to vote," @mjhegar, an Air Force veteran, says into the camera. "I\u2026
p941
aVRT @JoyAnnReid: This ad that @maddow showed 2nite, plus Stacey Abrams, plus Liz Warren saying no thanks to sitting down and shutting up, pl\u2026
p942
aVRT @kathygriffin: I've decided to release the voicemail Trump left for me the day the infamous photo was released. It took me some time to\u2026
p943
aVRT @krassenstein: The upstanding black President couldn't select a SC Justice in his final year, but the white President who is an unindict\u2026
p944
aVRT @joncoopertweets: EXCLUSIVE: Saudi crown prince bragged that Jared Kushner gave him CIA intelligence about other Saudis saying 'here are\u2026
p945
aVRT @PreetBharara: This could be investigated starting in January. https://t.co/Bt5ld7sHQa
p946
aVRT @RosenforNevada: Our #NVSen race "could be the final contest called on election night, the one that decides which party will be the Sena\u2026
p947
aVRT @CREWcrew: Trump passed a massive tax bill without showing the public his own tax returns.\u000aTurns out there\u2019s a loophole in the bill that\u2026
p948
aVRT @PortiaABoulger: Sweet jesus! You go my sister, .@ninaturner, you go! #TruthToPower\u000a"We got a hurricane Trump in this country knocking o\u2026
p949
aVRT @RVAwonk: Asked moments ago if he plans to address Saudi Arabia's human rights record in light of the disappearance and murder of WaPo j\u2026
p950
aVRT @perlmutations: Living proof that scumbagedness does not in fact skip a generation...\u000aTrump Jr. promotes tweet smearing missing Saudi jo\u2026
p951
aVRT @Alyssa_Milano: One of @SenTedCruz's top staffers lobbied for a murderous dictator.  https://t.co/O4tI4gbztc
p952
aVRT @MollyJongFast: We\u2019re back to the age old question\u2014is junior evil or stupid?  https://t.co/RuSEHxvEQM
p953
aVRT @kylegriffin1: CREW has filed a Hatch Act complaint against Sarah Huckabee Sanders for using her official government Twitter account to\u2026
p954
aVRT @chelseahandler: According to a new poll, a majority of Americans disapprove of Brett Kavanaugh. Susans Collins said she believes they d\u2026
p955
aVRT @EdKrassen: In the aftermath of Hurricane Michael, Trump spent the day meeting with Kanye West.\u000a\u000aMeanwhile @AndrewGillum, who is running\u2026
p956
aVRT @kylegriffin1: Minnesota Republican Attorney General candidate Doug Wardlow says he'd fire all Democratic attorneys working in the offic\u2026
p957
aVRT @BetteMidler: Sara Johnson-Rothman, Pennsylvania House of Reps District 151!!  I think "emphatic public servant" says it best!  Get invo\u2026
p958
aVRT @JoyAnnReid: \u201cOutside Agitators...\u201d https://t.co/4KRrX1WD8E
p959
aVRT @krassenstein: Laura Ingraham attacked @BetoORourke, saying that he's "bought" since he raised 3 times what Ted Cruz did over the last 3\u2026
p960
aVRT @krassenstein: Melania Trump on her Husbands infidelity:\u000a\u000a\u201cI'm a mother and a first lady, and I have much more important things to think\u2026
p961
aV@USArmy @15thSMA @DeptofDefense So ugly and retro.
p962
aVRT @tedlieu: Dear @USArmy: Can we all agree to make our military great, instead of imposing xenophobic stupid stuff on the Army? Language s\u2026
p963
aVRT @KristinSmistin: I want to connect with my people!\u000a\u000aThis is my #FBRParty \u000a#FollowBackResistance\u000a\u000aI WILL follow you.  Who is tired of our\u2026
p964
aVRT @CREWcrew: Fun fact: Saudi Arabia is one of the majority Muslim countries where the Trump Organization does business and isn\u2019t facing Tr\u2026
p965
aVRT @JamilSmith: The first African American woman nominated by a major party for governor is @staceyabrams. She has to beat both her opponen\u2026
p966
aVRT @joshgerstein: NEW: A judge has ordered partial release of a Watergate report that some see as a precedent for a parallel Mueller effort\u2026
p967
aVRT @krassenstein: BREAKING: Billionaire Richard Branson has just put on hold a $1 billion project with Saudi Arabia after allegations surfa\u2026
p968
aVRT @tedlieu: Jared Kushner has been promoting the Saudis and their new ruler despite skepticism from US national security officials. It's b\u2026
p969
aVRT @krassenstein: BREAKING:  FBI Director Christopher Wray has just admitted that the White House gave the FBI orders to limit the Kavanaug\u2026
p970
aVRT @NickKristof: I completely agree. Anyone can see the insinuation here. For Kavanaugh to pretend he doesn't see it is ludicrous and utter\u2026
p971
aVIt's going to rain medicine balls, how can we not injure some grader? https://t.co/mMULO4imoe
p972
aV@LadyLovesTaft Brilliant
p973
aVRT @LadyLovesTaft: I\u2019d like to announce that this is primarily an IPA joke bc I want to make sure my shade is felt by the correct audience,\u2026
p974
aVRT @LadyLovesTaft: me: \u201cI\u2019m thinking of dressing up as Frankenstein for-\u201c\u000a\u000amen who only drink IPAs: \u201cDO YOU MEAN FRANKENSTEIN\u2019S MONSTER?\u201d
p975
aVRT @kyrstensinema: I\u2019m working to make sure all Arizonans have access to quality, affordable mental health care, especially our veterans. T\u2026
p976
aVRT @CREWcrew: Your daily reminder that Trump is the first president elected since Nixon to refuse to release his tax returns, and any payme\u2026
p977
aVRT @KarenAttiah: They killed a brilliant journalist. \u000a\u000aThey killed a kind, gentle man.\u000a\u000aThey killed my friend. \u000a\u000a#Khashoggi #JusticeForJama\u2026
p978
aVRT @joncoopertweets: BREAKING: @TheDemCoalition just reported Georgia Secretary of State Brian Kemp to the Department of Justice Civil Righ\u2026
p979
aVRT @GeoffRBennett: Kanye West\u2019s comments today about African Americans and welfare were as objectively false as they were dangerous in perp\u2026
p980
aVRT @MalcolmNance: HOLY COW! Turks had the consulate wired &amp; heard the murder. \u2066@washingtonpost\u2069 : Turks tell U.S. officials they have audio\u2026
p981
aVRT @MarshallCohen: NEW TODAY: Trump's lawyers have received written questions from special counsel Mueller and are preparing their answers.\u2026
p982
aVRT @BetteMidler: How much more evidence do deniers need that Climate Change is real? "Hurricane Michael" is the worst storm that the Florid\u2026
p983
aVRT @CREWcrew: Earlier this year, Jared Kushner\u2019s startup was in talks with a Saudi-backed fund for a $100 million investment. We shouldn\u2019t\u2026
p984
aVRT @SenSchumer: I took a look at your op-ed, @realDonaldTrump. It needs some work.\u000a\u000aAll of the false and misleading words in the world can\u2019\u2026
p985
aVRT @WalshFreedom: Trump just personally insulted each and every one of the 3,521 brave soldiers, sailors, airmen, marines, and Coast Guards\u2026
p986
aVRT @kylegriffin1: WaPo fact-checks Trump's USA Today op-ed, finds "almost every sentence contained a misleading statement or a falsehood."\u2026
p987
aVRT @CREWcrew: 1. Jared Kushner met with the head of the Apollo Global Management founder at the White House\u000a2. Apollo loaned Kushner Cos. $\u2026
p988
aVRT @theintercept: Like Donald Trump, many hypersuccessful men who wear the mantle of being \u201cself-made\u201d are in profound denial about how muc\u2026
p989
aVRT @sgtjanedoe: "Do not travel unless necessary."\u000a\u000a"All Soldiers and civilians will report for work Thursday at normal times. Units will ho\u2026
p990
aVRT @kylegriffin1: Christopher Steele has finally broken his 18 months of silence in an email to Vanity Fair: "In these strange and troublin\u2026
p991
aVRT @WTFTamaleJihad: the @DuffelBlog is coming on?! Cool! https://t.co/CaLzTeDb07
p992
aVRT @Alyssa_Milano: We\u2019re trying to raise $1 million in 24 hours to win 8 key Congressional seats back from the gun lobby. Will you chip in\u2026
p993
aVRT @MarshallCohen: So far, the Mueller investigation has sent FOUR people behind bars. (1) Paul Manafort has been in jail since June. (2) P\u2026
p994
aVRT @BetteMidler: WHEN YOU GO TO VOTE:\u000aJust a reminder that our president still has never released his tax returns.
p995
aVRT @joshscampbell: The FBI confirms its supplemental Kavanaugh investigation was narrow in scope, which counters contrary claims by partisa\u2026
p996
aVRT @PROUDAM00187654: @MalcolmNance @PrincessBravato STFU George. We really don't care what an effing TRAITOR thinks.
p997
aVRT @Miss__Debbie: @MalcolmNance His opinion has no value https://t.co/ZfFEtCt0uS
p998
aVRT @lancegregmason: @MalcolmNance Apparently George hasn't been briefed on the fact that Malcolm could rip his heart out and show it to him\u2026
p999
aVRT @MalcolmNance: CONVICTED FELON SAYS WHAT?? #LameSnowden https://t.co/7CkAj5PfTM
p1000
aVRT @DisavowTrump20: Brett Kavanaugh pathetically insulted Democratic Senator Amy Klobuchar in his hearing and showed his true colors.  \u000a\u000aRE\u2026
p1001
aVRT @kylegriffin1: Just yesterday, CREW called for an investigation into seven private flights taken by Nikki Haley that were apparently pai\u2026
p1002
aVRT @Alyssa_Milano: Trump's tariffs have already cost Ford $1B; now it's planning layoffs https://t.co/dxLyjiniOR
p1003
aVRT @Palmo53: @S1Your The officer corps has a stronger resemblance to Mean Girls than it does Band of Brothers\u000a\u000aPersonally I blame our selec\u2026
p1004
aVRT @thejtlewis: My brother Jesse is a hero. On December 14, 2012 a shooter entered his Sandy Hook Elementary School classroom. He fired sho\u2026
p1005
aVRT @Amy_Siskind: END Mitch McConnell\u2019s reign of terror.  Take back the Senate!  We can do this! https://t.co/umTaihuWR8
p1006
aVRT @gelles: Lindsey Graham: Trump jokingly asked if he wanted to be attorney general - CNNPolitics https://t.co/fufsacQXQS
p1007
aVRT @Nate_Cohn: We're at the 250-mark in Texas, where Cruz has an early 6 pt edge over Beto.\u000aStill a very long way to go. Not even 1/3 done.\u2026
p1008
aVRT @jedshug: 1. The Trump/Alfa Bank server connection during the campaign wasn't random.\u000a2. Trump and the GOP just appointed Brian Benczkow\u2026
p1009
aVRT @EliStokols: Have covered a lot of Trump rallies, but never seen press pen as locked down as it is here in Council Bluffs. Have now been\u2026
p1010
aVRT @WestWingReport: President is holding a rally in Iowa tonight. Some alarming (for him) stats: \u000a-he won Iowa by 9+ two years ago\u000a-net app\u2026
p1011
aVRT @RepJackyRosen: Today, I\u2019m highlighting Dr. Eduardo Robleto. After immigrating from Nicaragua, he received his Ph.D. in Microbiology. He\u2026
p1012
aVRT @mtaibbi: This Google story is shocking and very emblematic of our decline in concern for human rights. Imagine the outrage if an Americ\u2026
p1013
aVRT @Lawrence: Saw it. Loved it. Learned a lot. (West Wing writer Josh Singer does it again.) https://t.co/Y5M4SvUOoy
p1014
aVRT @MarshallCohen: NEW TODAY: Roger Stone aide Andrew Miller hopes Kavanaugh will support his case against Mueller. He was subpoenaed by Mu\u2026
p1015
aVRT @NateSilver538: Trump won orange noncollege muppets 65-31 in Pennsylvania. So pretty good odds he's a Trump voter. https://t.co/VJOwbW9u\u2026
p1016
aVRT @Amy_Siskind: We CANNOT afford to lose another Supreme Court seat!\u000aEND Mitch McConnell\u2019s reign of terror.  Donate/volunteer for these cl\u2026
p1017
aVRT @theintercept: In the Moria refugee camp, post-traumatic stress that many carry from their home countries combined with the psychologica\u2026
p1018
aVRT @peterdaou: Does watching the news pain you? \u000a\u000aDoes seeing the GOP rip apart our norms, standards, and principles pain you?\u000a\u000aDoes the ma\u2026
p1019
aVRT @krassenstein: Just a quick word about Trump's "It's a scary time in America for young men" comment.\u000a\u000aI'm not scare.  Are you?  w/ @EdKr\u2026
p1020
aVRT @AshaRangappa_: You mean my homemade channa masala? It's true that's usually a hit (the secret is blending your own spices)! https://t.c\u2026
p1021
aVRT @MarshallCohen: The Roger Stone aide challenging Mueller in court hopes to take his fight to SCOTUS. Andrew Miller says with Kavanaugh o\u2026
p1022
aVRT @timkaine: Jamal Khashoggi is a Virginia resident, so his disappearance is personal to me. President Trump needs to raise this case imme\u2026
p1023
aVRT @Amy_Siskind: Women voters now 63-33 D/R for midterms.  \u000a\u000aIf you\u2019re a woman, stop and ask yourself what this era of Republicans offers y\u2026
p1024
aVRT @barefootboomer: Look, quote Churchill if you must. Just remember his first and only priority or care was the survival of the British Em\u2026
p1025
aVRT @krassenstein: I have had so many men direct message me mocking me because I "lost" the Kavanaugh fight.\u000a\u000aI didn't lose anything.  You l\u2026
p1026
aVRT @RosenforNevada: Roughly one in four Nevadans have a pre-existing condition. Senator Heller supports dismantling the ACA and slashing pr\u2026
p1027
aVRT @HBO: A new special from Flight of the Conchords is now available, only on HBO. #fotc https://t.co/8EvnEgtxwH
p1028
aVRT @BetteMidler: A lot of people thought Hope Hicks, Trump\u2019s former aide, might go back\u000ato work at the White House, but she\u2019s gone to work\u2026
p1029
aVRT @MichaelMcK204: @WmPShea @AUSAorg @15thSMA So cosplay WW2 makes him feel like a soldier not wearing the uniform of the troops are wearin\u2026
p1030
aVRT @WmPShea: @AUSAorg @15thSMA So the SMA needs to wear a uniform that has not yet been authorized to feel like a Soldier?  So he doesn't f\u2026
p1031
aVRT @MarkRuffalo: It\u2019s #IndigenousPeoplesDay and I\u2019m proud to stand beside my Native American brothers and sisters to help protect their lan\u2026
p1032
aVRT @BetteMidler: Wow.  #Trump apologizes to #Kavanaugh and his family during the swearing in. And thanks the odious #MitchMcConnell for ram\u2026
p1033
aVRT @BetteMidler: Flake and Collins both condemned Trump for mocking Ford.\u000aThey were so hopping mad they were barely able to roll over and v\u2026
p1034
aVRT @BetteMidler: GOOD FOR YOU, TAYLOR!!Taylor Swift Endorses Dems, Breaks 4chan\u2019s Heart https://t.co/WmGGRU7jOY via @thedailybeast
p1035
aVRT @Alyssa_Milano: TOMORROW (Tuesday, 11/9) there are FIFTEEN states with voter registration deadlines.  \u000a\u000aAZ\u000aFL (in person/online. By mail\u2026
p1036
aVRT @funder: Let\u2019s flip the Senate! Support these candidates in close races any way you can:\u000a\u000aTX: @BetoORourke\u000aAZ: @kyrstensinema\u000aNV: @Rosen\u2026
p1037
aVRT @brianbeutler: The most damning thing about this story may be what isn't explicitly stated. Trump considered buying disinformation off t\u2026
p1038
aVRT @RVAwonk: NEW: Rick Gates sought proposals from Psy-Group (the Israeli intel firm from the Aug 2016 Trump Tower meeting w/Don Jr, Erik P\u2026
p1039
aVRT @theintercept: By 1914, European powers and the U.S. controlled 85 percent of the world\u2019s land mass. White people didn\u2019t accomplish this\u2026
p1040
aVRT @Kerry_Smith_NY: I\u2019m a woman who is mad as hell and I want to connect with other Resisters!! \U0001f30a I am woman, hear me roar. \U0001f981 \u000a\u000a#FBRparty\u000a#\u2026
p1041
aVRT @David_Eisler: @pptsapper Didn't they recently rename it? Or at least agree that they would? I remember thinking the same thing when I l\u2026
p1042
aVRT @krassenstein: What a hypocritical monster...  I'm not surprise one bit over this.\u000a\u000ahttps://t.co/iYNPAn1gyO
p1043
aVRT @CREWcrew: Trump has spent about 25% of his presidency visiting golf courses he still profits from. \u000ahttps://t.co/Iuagd6fL55
p1044
aVRT @CREWcrew: The obstruction of justice case against President Trump keeps building. \u000ahttps://t.co/CBLbmR0g56
p1045
aVRT @krassenstein: If you think that Trump's appointment of Brett Kavanaugh is going to change this world for the next 50 years for the wors\u2026
p1046
aVRT @Jezebel: As Brett Kavanaugh prepares to hear his first case, Christine Blasey Ford still hasn't been able to move home and is receiving\u2026
p1047
aVRT @Zendaya: Have you registered to vote? If not, do that shit!
p1048
aVRT @kylegriffin1: Nancy Pelosi writes to House Democrats that she's filing a FOIA request to make public documents related to Republicans'\u2026
p1049
aVRT @CREWcrew: It\u2019s pretty absurd that the public has to worry Trump is intervening in a massive government project to protect revenue at hi\u2026
p1050
aVRT @theintercept: \u201cGoing after civil society in such an aggressive way, MBS is shooting himself in the foot,\u201d said @Hala_Aldosari. \u201cEven if\u2026
p1051
aVRT @AmyBrenneman: 8 Democrats in Senate races who could use any Kavanaugh rage dollars you are looking to spend.\u000aJoe Donnelly, Indiana\u000aHeid\u2026
p1052
aVRT @krassenstein: They know what's coming!  Let's make sure it happens!\u000a\u000aVOTE DEMOCRAT in November!\u000a\u000ahttps://t.co/eGLZpBpJlP
p1053
aVRT @robreiner: The vast majority of our country is progressive. If we had a pure representative Democracy, one person-one vote, the GOP wou\u2026
p1054
aVRT @RosenforNevada: Let's not forget: just last week, Senator Heller skipped out on a sexual abuse hearing.\u000a\u000aDays later he voted to confirm\u2026
p1055
aVRT @1lfb: #BetoORourke https://t.co/VTBtuTEmGC
p1056
aVRT @krassenstein: Our 'Very Stable Genius' ...\u000a\u000ahttps://t.co/vxdOGgCcMe
p1057
aVRT @NormEisen: No! The Court has ALREADY been delegitimized by the Right: Bush v. Gore, Citizens United, Shelby County, etc. \u2014and the incre\u2026
p1058
aVRT @anneapplebaum: another journalist has been murdered, once again for investigating corruption. This is the defining issue of our era. ht\u2026
p1059
aVRT @samstein: In the last day, McConnell has made it abundantly clear that he will push a Supreme Court justice through during an election\u2026
p1060
aVRT @CREWcrew: We\u2019ve asked the IRS to investigate a group led by a former Trump official for failing to file its taxes. \u000ahttps://t.co/MUApwj\u2026
p1061
aVRT @Kris_Z_Massey: I\u2019m becoming a street vendor for Congress. I\u2019m gonna peddle Ensure. Who\u2019s with me? \U0001f602\U0001f602\U0001f602 https://t.co/btGPR3aHTf
p1062
aVRT @CREWcrew: We keep having to ask if Trump is trying to use the US presidency to drum up business for his financially troubled golf cours\u2026
p1063
aVRT @MalcolmNance: Colin Powell finally speaks out against Trump https://t.co/cs1i4EbpTK
p1064
aVRT @krassenstein: Dear @realDonaldTrump \u000a\u000aCan you explain to me which of the following made you "fall in love" with Kim Jong Un? \u000a\u000aWas it:\u2026
p1065
aVRT @kylegriffin1: Dr. Christine Blasey Ford's attorneys say that Ford is still not living at home and can't for "quite some time." She's st\u2026
p1066
aVRT @Alyssa_Milano: What\u2019s everyone going to do this week to help elect candidates that reflect the compassion &amp; diversity of the American p\u2026
p1067
aVRT @JoyAnnReid: Journalist @Greg_Palast has created a database where Georgia voters can find out if they have been purged from the rolls, a\u2026
p1068
aVRT @kylegriffin1: More than 2,000 potential voters in Texas had their voters\u2019 registration applications unfairly rejected by the Texas Secr\u2026
p1069
aVRT @CREWcrew: We keep getting more evidence that President Trump is guilty of obstructing justice. \u000ahttps://t.co/CBLbmR0g56
p1070
aVRT @SenGillibrand: Change doesn\u2019t come from those who sit quietly on the sidelines. Change comes from those who stand up to fight for it. C\u2026
p1071
aV@TVietor08 I believe that the "defending against the lawless mob" was an early brainstorm and they fell in love wit\u2026 https://t.co/TA6xa3nNwl
p1072
aVRT @TVietor08: The McConnell hagiography is baffling. With no filibuster, he could\u2019ve easily confirmed any one of a dozen judges. Instead,\u2026
p1073
aVRT @sgtjanedoe: hAnDs iN pOcKeTs aRe uNpRoFeSsIoNaL https://t.co/k08RP4XAOY
p1074
aVRT @Mimirocah1: Stop making a mockery of the law @SenatorCollins as it will hurt victims in future cases. You\u2019re saying it\u2019s \u201cmore likely t\u2026
p1075
aVRT @krassenstein: To all the men on Twitter saying that Kavanaugh has not been found guilty of sexual assault, thus deserves to be on the S\u2026
p1076
aVRT @CREWcrew: Was There a Connection Between a Russian Bank and the Trump Campaign? https://t.co/EcEkIqkRXf
p1077
aVRT @safeagain1: @JohnCornyn 20 women stepped forward to say don sexually abused them.. you ignored that, with the rest of the @GOP ..then d\u2026
p1078
aVRT @TLK85: @JohnCornyn https://t.co/wYUY7uTlk9
p1079
aVRT @8ILoveKingCrab8: @JohnCornyn Texan here, born and raised. Can't wait to vote against you in 2020. Never miss an election \u270b
p1080
aVRT @obxlaw: @JohnCornyn https://t.co/e5KrbKrJL6
p1081
aVRT @safeagain1: @JohnCornyn https://t.co/m507f0BVSb
p1082
aVRT @Mimirocah1: Whatever \u201cside\u201d you were on in this confirmation for the SCOTUS, this is not a joke &amp; you are not a frat boy. You are a Uni\u2026
p1083
aVRT @TVietor08: Taylor Swift endorses @PhilBredesen  in the TN Senate race. Strong statement from someone who has been criticized in the pas\u2026
p1084
aVRT @washingtonpost: Taylor Swift endorses Tennessee Democrats, slams Senate candidate Marsha Blackburn: \u201cHer voting record in Congress appa\u2026
p1085
aVRT @betosupporter: Let\u2019s flip the Senate! Support these candidates in close races in anyway you can:\u000a\u000aTX: @BetoORourke\u000aAZ: @kyrstensinema\u000aN\u2026
p1086
aVRT @AKimCampbell: Problem is, you don\u2019t do much! https://t.co/2xpSM2KvJc
p1087
aVRT @AshaRangappa_: then stop dressing like an idiot https://t.co/4X7XHJyq5Q
p1088
aVRT @CREWcrew: There\u2019s a very real possibility that Trump intervened in a billion-dollar government project in order to protect his hotel in\u2026
p1089
aVRT @kylegriffin1: Newly released docs show that Pence's 2017 trip to a Colts game cost at least $325,000, HuffPost reports. The docs appare\u2026
p1090
aVRT @trbrtc: Journalist Victoria Marinova (30) was brutally killed this Saturday. Found at the Danube River banks, her body showed signs of\u2026
p1091
aVRT @POLITICOEurope: Victoria Marinova, a Bulgarian journalist who was reporting on an investigation into alleged corruption involving EU fu\u2026
p1092
aVRT @popbuzz: Taylor Swift has ended her much publicised political silence with an emotional Instagram post encouraging fans to vote \U0001f5f3 https\u2026
p1093
aVRT @kylegriffin1: Interesting WaPo report on Mark Judge's underground high school newspaper.\u000a\u000aOne issue featured a photo of a student vomit\u2026
p1094
aVRT @krassenstein: I have had dozens of angry Twitter users contact me directly attacking me &amp; asking me what I'd do if I was wrongly accuse\u2026
p1095
aVRT @peterbakernyt: For anyone who missed it last week, the \u2066@nytimes\u2069 reprints the extraordinary journalistic investigation of Trump's dubi\u2026
p1096
aVRT @paulkrugman: Satire flourishes under corrupt, autocratic regimes https://t.co/l0prKVMexE
p1097
aVRT @TeaPainUSA: Susan Collins and the Republican Boy's Club set womens' rights back 30 years this week.  It we don't show up in November an\u2026
p1098
aVRT @MalcolmNance: Our allies have their own verification methods. Shams aren\u2019t acceptable in nuclear weapons. https://t.co/VIZrKcEMIJ
p1099
aVRT @MalcolmNance: Russia is terrified of a an American Color revolution. Let\u2019s give them one. Wear BLUE on Nov 3rd for the @March2SaveD. Th\u2026
p1100
aVRT @sgtjanedoe: Make the pinks and greens actually pink, you - \u000a\u000aCrap, I probably can't get away with calling SMA Dailey a coward on Twitte\u2026
p1101
aVRT @MarshallCohen: The zero-sum rhetoric here from Senstor Collins is misleading. If the Senate rejected Kavanaugh\u2019s nomination, he would j\u2026
p1102
aVRT @billmaher: What does it say when the president is allowed in public with toilet paper on his shoe? He has no friends. None. No one will\u2026
p1103
aVRT @krassenstein: Brett Kavanaugh could be a Supreme Court Justice for 40 years.\u000a\u000aDo you think it matter's to these Republicans who voted "\u2026
p1104
aVRT @JoyAnnReid: Thread: https://t.co/lY3G6xT5Dc
p1105
aVRT @CREWcrew: DHS and HHS are now under investigation for destroying immigrant family records, after we filed a complaint. \u000ahttps://t.co/FX\u2026
p1106
aVRT @krassenstein: Trump says he's '100%' certain that the accuser of Justice Kavanaugh, Dr. Ford, named the wrong person.\u000a\u000aI really am 100%\u2026
p1107
aVRT @krassenstein: 22 Years ago today Fox News launched...\u000a\u000aIt took just 22 years for them to do this to our nation.\u000a\u000aBoy do I wish it was s\u2026
p1108
aVRT @CREWcrew: Your daily reminder that Trump is the first president elected since Nixon to refuse to release his tax returns, and any tax f\u2026
p1109
aVRT @EmilyZauzmer: If Mitch McConnell gets to call his female colleagues \u201cwomen senators,\u201d can we call the rest of them \u201cmen senators\u201d?
p1110
aVRT @dansinker: YOU WILL NEVER GET THE ARK DOCTOR JONES https://t.co/fmf5suFI4C
p1111
aVRT @krassenstein: Take note.  This is how ethical people operate:\u000a\u000aMerrick Garland Recuses Himself From Hearing Ethics Complaints Against B\u2026
p1112
aVRT @CNNOpinion: So what is the connection among #MeToo, Kavanaugh and the #ERA? Everything, says @Alyssa_Milano https://t.co/C0uTOCHwkw
p1113
aVRT @krassenstein: BREAKING:  Trump claims that he\u2019s \u201c100% sure\u201d that Dr. Ford was mistaken when she named Kavanaugh her attacker. \u000a\u000aI\u2019m 100\u2026
p1114
aVRT @politico: The former dean of Yale Law School: Kavanaugh's \u201cvery presence will undermine the court\u2019s claim to legitimacy; it will damage\u2026
p1115
aVRT @LisaDNews: SCHUMER: of Dems take over the Senate, we will have to look at setting the SCOTUS nominee requirement back up to 60 votes
p1116
aVRT @gelles: Supreme Court Nominations Senate Votes:\u000a\u000aGorsuch  54-45\u000aGarland  n/a\u000aKagan 63-37\u000aSotomayor 68-31\u000aAlito 58-42\u000aMiers n/a\u000aRoberts\u2026
p1117
aVRT @MariannaNBCNews: Today is the day Judge Brett Kavanaugh is set to become Supreme Court Justice Brett Kavanaugh. At this point, senators\u2026
p1118
aVRT @washingtonpost: Susan Collins announced support for Kavanaugh \u2014 causing site to fund future opponent to crash https://t.co/nqDn41OR1p
p1119
aVRT @tedlieu: Does the below article make you angry? \u000a\u000aIf so, help us flip the House and we will interview the relevant witnesses and subpoe\u2026
p1120
aVRT @kylegriffin1: Chief Justice John Roberts has received more than a dozen judicial misconduct complaints against Brett Kavanaugh in recen\u2026
p1121
aVRT @combat_boot: \u201cAlexa, what model of spy chip do you have?\u201d\u000a\u000aAlexa: \u201c  \u6211\u4eec\u88ab\u53d1\u73b0\u4e86\u3002\u8fd0\u884c\u5e76\u9690\u85cf\u3002\u201d\u000a\u000a#Supermicro #Amazon #apple
p1122
aVRT @Alyssa_Milano: 5. TEXAS SENATE ELECTION\u000aVote For @BetoORourke \u000aDONATE: https://t.co/WcP2YmTWr4\u000a\u000a#KavanaughKarma
p1123
aVRT @Alyssa_Milano: ENOUGH BEING SAD. \u000a\u000aLET\u2019S GET TO WORK!!\u000a\u000aThere are six Republican incumbents running for Senate re-election.  \u000a\u000aAll six\u2026
p1124
aVRT @krassenstein: Dear Evangelicals,\u000a\u000aCan you point to the section in the bible which says it's ok to cheat on my wife with a porn star &amp; l\u2026
p1125
aVRT @paulkrugman: Terrible days. But at least we know who has principles, and who are sanctimonious hypocrites
p1126
aVRT @paulkrugman: Oh my Goddess https://t.co/s82I4Blw9a
p1127
aVRT @rachelsklar: Yes, women hate extra work, that's totally why they have children https://t.co/QEUsLQgqG6
p1128
aVRT @ryangrim: As of right now, 99,998 people have donated money against Susan Collins. That's a lot of people. https://t.co/61i8EwValu by @\u2026
p1129
aVRT @TrumpsTaxes: FACT:\u000a\u000aThe time to stop Brett Kavanaugh was not on October 5th, 2018. \u000a\u000aIt was on November 8th, 2016.\u000a\u000aFACT:\u000a\u000aThe time to\u2026
p1130
aVRT @emrazz: Jeff Flake was not, is not, a hero. He is the leading man in a week long theatrical production of fictional procedural legitima\u2026
p1131
aVRT @maddow: New from NBC News...\u000a\u000a\u201cHellllllooooo. Don\u2019t F****** TELL PEOPLE BRETT GOT IN TOUCH WITH ME!!! I TOLD YOU AT THE TIME THAT WAS I\u2026
p1132
aVRT @krassenstein: BREAKING:\u000a\u000ahttps://t.co/MQojS33RBF
p1133
aVRT @SenGillibrand: Do Senate Republicans believe women? Do they value our stories? Do they trust what we share about our experiences? Their\u2026
p1134
aVRT @Buffalo171z: This might be important, and explain some things, eh?  https://t.co/NZ7nSmGBO4
p1135
aVRT @nypost: How Charmin! https://t.co/qYsWAJdDq9
p1136
aVRT @washingtonpost: Trump boards Air Force Once with toilet paper in tow https://t.co/3LI3yz1lTT
p1137
aVRT @krassenstein: This represents Trump's Presidency perfectly.\u000a\u000ahttps://t.co/gmKfS8cHuQ
p1138
aVRT @ClarkeHamel: #BrettKavanaugh has overruled federal regulators 75 times on such cases as clean air, consumer protections and net neutral\u2026
p1139
aVRT @theintercept: The announcement by @SenatorCollins that she would vote to confirm Brett Kavanaugh to the Supreme Court was about family.\u2026
p1140
aVRT @theintercept: \u201cThere\u2019s a feeling now that, even if you\u2019re not an activist, just having an opinion is dangerous,\u201d said a human rights ad\u2026
p1141
aVRT @SenGillibrand: What we've seen over the last few weeks is an exercise of power. Instead of getting to the truth, we've witnessed those\u2026
p1142
aVRT @DanFleyshman: $1,300,000 BANKSY artwork piece just \u201cself-destructed\u201d right after it was sold at Sotheby\u2019s auction!\U0001f92f\U0001f633\u000a\u000a(An alarm sound w\u2026
p1143
aVRT @francesfarmers1: @WajahatAli If Dems miraculously win the Senate, he better not get one committee assignment.
p1144
aVRT @theintercept: Their high-minded claim to bipartisanship was always an act; a (melo)dramatic performance. Sens. Collins and Flake were n\u2026
p1145
aVRT @sjredmond: I was trying to find the speech that Susan Collins gave about the presumption of innocence when Al Franken was accused of se\u2026
p1146
aVRT @CharlesMBlow: Susan Collins doing her damnedest to make folks think of Maine as Mississippi with snow. #KavanaughConfirmation
p1147
aVRT @CNN: By the time GOP Sen. Susan Collins finished her speech on the Senate floor, Democrats in Maine had begun speculating who might cha\u2026
p1148
aVRT @USATODAY: Susan Rice also said she was "deeply disappointed" with Collins' vote, adding "Maine and America deserve better." https://t.c\u2026
p1149
aVRT @joncoopertweets: Susan Rice, who was President Barack Obama\u2019s national security adviser, bluntly responded to a tweet, angry about Susa\u2026
p1150
aVRT @TheDemCoalition: The website for crowdfunding campaign was experiencing internal errors because of the influx of donations. Try it here\u2026
p1151
aVRT @CharlotteAlter: These Maine survivors took a 10-hour bus ride to tell \u2066@SenatorCollins\u2069 about their sexual assaults. She hugged them, l\u2026
p1152
aVRT @billyeichner: GRAB EVERY SINGLE PERSON YOU KNOW AND VOTE ON NOV 6th or in EARLY VOTING BEFORE NOV 6th. THIS IS NOT A JOKE. SUSAN COLLIN\u2026
p1153
aVRT @StephenKing: Susan Collins says she will vote to confirm Kavanaugh, partially because the man who lied repeatedly in his confirmation h\u2026
p1154
aVRT @tonyschwartz: Susan Collins will be known in history as the woman who provided the deciding vote to confirm an accused sexual abuser to\u2026
p1155
aVRT @ananavarro: Elections. Have. Consequences.\u000a\u000aYou want a different result? \u000a\u000aVote!
p1156
aVRT @SenateDems: .@SenDuckworth: Judge Kavanaugh has a habit of appearing to lie under oath https://t.co/4D7f7w65j7
p1157
aVRT @SenGillibrand: I will never stop fighting for survivors of sexual assault. When you tell your stories, we\u2019ll amplify your voices. We wi\u2026
p1158
aVRT @Alyssa_Milano: Don't let this performance fool you. If @SenatorCollins believed in #MeToo she would have opened the door when I was in\u2026
p1159
a.