(lp0
VYikes. https://t.co/RxebRB8M9Q
p1
aV@gopTODD Worst take of the century.
p2
aVChampions again! #DODAMAGE #WorldSeries #RedSox
p3
aV@lordute She hasn't done anything good worth talking about.
p4
aV@lordute @TribTomWharton @gopTODD @sltrib Leftist advocacy? They just endorsed Romney and Love.
p5
aV@kc135topboom Stocks are now down for the year, wages aren't increasing, not sure what planet you're on.
p6
aVRT @DevonESawa: You bought a lottery ticket huh? Rushed out there and grabbed one in hopes it could make your life better? Even though your\u2026
p7
aV@MelodyBoatrigh1 @ABC \U0001f923
p8
aV@GOP @parscale That's ironic coming from a guy who used those platforms masterfully with help from company employees.
p9
aV@CamilaSweetlipz @GOP Not advocating for system wide socialism, just healthcare for everyone.
p10
aV@GOP Which is substantially less than what we'll pay under current circumstances.
p11
aVThis is what happens when US leadership slips across the globe.\u000ahttps://t.co/2bRXeXnDb5
p12
aV@thor2233 @ABC What is false? He said it, obviously. It's also quite obviously a ridiculous campaign pledge that isn't going to happen.
p13
aV@ABC Think the deficit is big now? Hold my beer...
p14
aVThe next time anyone lumps violent morons in with mainstream Dems, tell them they need to do a hard reflection base\u2026 https://t.co/3whepr0ayo
p15
aVGoin'to the ship! #RedSox #DoDamage
p16
aVIDK bout y'all but I'm fine paying a bit extra for gas. Price of #Democracy. #MBS #khashoggi #TrumpLies \u000ahttps://t.co/lOY1owt2Hp
p17
aV@thehill I don't believe them. There, how does that feel?
p18
aV@RepBrianKing I'm just hearing about this... is there serious concern that Utah schools could permanently lose EBSC\u2026 https://t.co/8qKXEeoYiK
p19
aV@RepBrianKing glad you're speaking up on this, the affordability and value of our state institutions is worth prote\u2026 https://t.co/eijBevI7TZ
p20
aV@GOP @realDonaldTrump We advocate for socialism by cutting social programs? WTF?
p21
aV@trueamerica1st @realDonaldTrump \U0001f1fa\U0001f1f8 PRESIDENT TRUMP GOLFS 24/7, HOW DOES HE HAVE TIME TO WORK?? \U0001f1fa\U0001f1f8
p22
aV@realDonaldTrump No, literally no one wants that.
p23
aVReally enjoyed seeing @JohnKerry tonight. Big focus on a green energy and economy and an inspirational view of how\u2026 https://t.co/3LqggN8tbK
p24
aV@GOP News flash: Democrats haven't moved left. The @GOP has gone off the deep end to the right enabling Trump and h\u2026 https://t.co/bLlU2QMcgr
p25
aV@SmithLondia1 @FoxNews Or, you know, I just started an account the other day.
p26
aV@kms2651 @FoxNews I do. High entertainment value.
p27
aV@FoxNews Always a circus on @FoxNews https://t.co/fQRprswNaS
p28
aVExcited to watch @JennyWilsonUT take down @MittRomney in tonight's US Senate Debate! #utpol #bluewave #Mittens
p29
aVBig win for #SoxNation! https://t.co/XfpCYMgwiU
p30
aV@GOP What a savior \U0001f644
p31
aV@CNN - former GOP operative #BrettKavanaugh
p32
aV@hardball @HardballChris https://t.co/krwiwfHn1F
p33
aV@hardball @HardballChris What a petty display of partisanship and immaturity.
p34
aVWatching #Kavanaugh talk about empowering women #VoteThemAllOut https://t.co/XVO5KO9o7z
p35
aV@NBCNews Governance is not a zero sum game. This whole thing is disgusting to watch.
p36
aV@CNN Not me.
p37
aV@NBCNews This is not how we do things. What a petty man.
p38
aVThis was despicable. https://t.co/QUn0OjoJSI
p39
aVDisgusted by @realDonaldTrump's apology to #Kavanaugh. This is not the way we do things in the US. We all must vote\u2026 https://t.co/6dthUt6dXs
p40
aV@UtahDOT https://t.co/Rz0Qk88VgB #utpol #IndigenousPeoplesDay2018
p41
aVSo many problems so little time. https://t.co/IHIElQSYhw
p42
aVAnother log on the fire. We need leaders, not profiteers. #climate\u000a#ipcc #utpol https://t.co/jKVzqfKnFE
p43
aVSome things never change in Utah. https://t.co/11nlUFYk8f
p44
aV@elizabethforma 2020!
p45
aV@gopTODD @BjaminWood "fake news"
p46
aV@GOPLeader What temperament we're you seeing?
p47
aV@lovenox30mg \U0001f602\U0001f602\U0001f602
p48
aV@MittRomney Go @JennyWilsonUT
p49
aVCan one of these so-called #womenforkavanugh on Capitol Hill speak up? I'm thinking it's mostly #NastyWomen\u2026 https://t.co/YfbhnXNQrn
p50
aV@GOP A second abusive male on the court. You should be ashamed.
p51
aV@BernieSanders Any tips?
p52
aV@SenTedCruz @FoxNews @seanhannity https://t.co/vbwxnVPRH6
p53
aV@NilesHardy @SenatorDurbin \U0001f62a
p54
aV@SenWhitehouse does #RhodeIsland proud. Back him up in November. #StopKanavaugh #BlueWave2018\u000a\u000ahttps://t.co/mR7XPq5Yw6
p55
aV@GerrishLisa But didn't he spend all his money on #nationals tickets?
p56
aVJust once can they show video of the fan on the field? #RedSox #MLBPlayoffs
p57
aV@SenatorDurbin At least something decent happened today.
p58
aV@LindseyGrahamSC @seanhannity https://t.co/xp1w1RBQUW
p59
aV@LindseyGrahamSC @FoxNews @seanhannity https://t.co/RvqBDIVjJE
p60
a.