(lp0
VRT @ikebarinholtz: As an American Jew I feel nauseous. And if you support Donald Trump you should too because this shit is on YOU. IT\u2019S YOU\u2026
p1
aVRT @ikebarinholtz: Watch republicans downplay this but keep screaming about Mitch McConnell being heckled in a restaurant https://t.co/1IA9\u2026
p2
aVRT @BetteMidler: Word has it that 125 million Americans eligible to vote will NOT be voting in the midterms.  DON'T YOU BE ONE OF THEM!!!\u2026
p3
aVRT @SenSanders: 4 Republican policies led to a $779 billion deficit in 2018:\u000a\u000a- Bush Tax Cuts: $488 B\u000a- Trump Tax Cuts: $164 B\u000a- Wars in Ir\u2026
p4
aVRT @SenSanders: Election Day must become a national holiday. In America we should be celebrating our democracy and doing everything possibl\u2026
p5
aVRT @BiteHate: RT @Amy_Siskind: Just remember every time Trump mocks survivors, and McConnell smugly laughs and says we will get over it, th\u2026
p6
aVRT @SethAbramson: We now know what it takes to get even *one* of the 51 GOP senators to break with their caucus: 4 sworn sexual assault all\u2026
p7
aVRT @SethAbramson: STATUS OF BRETT KAVANAUGH PERJURIES\u000a\u000aPerjury ("Renate Alumnius"): CONFIRMED\u000aPerjury ("Devil's Triangle"): CONFIRMED\u000aPerju\u2026
p8
aVRT @SethAbramson: *THE GRAND BARGAIN*\u000a\u000aThis (below) is what the entire Trump-Russia investigation is now about. Please share this image wid\u2026
p9
aVRT @CitizenVMachine: As we recognize the striking hotel workers who toil everyday, let's recap all the unions that patronize the @JBPritzke\u2026
p10
aVRT @SethAbramson: It borders on scandalous how the media treats what Trump did to Brennan\u2014and now implies he'll shortly do to others\u2014a *pol\u2026
p11
aVRT @BiteHate: Having another #FBR party.  Let's ALL pledge to do ALL we can to uphold #NoSCOTUSForTrump  &amp; VOTE \U0001f5f3 BLUE in November!!!\u000a\u000a\U0001f44d\U0001f3fcLi\u2026
p12
aVRT @Emma4Change: Today marks the 4 month anniversary of the shooting at our school, Tomorrow we begin the #RoadToChange in Chicago at the P\u2026
p13
aVRT @JimCarrey: Congratulations to the Washington Capitals on their Stanley Cup victory! There\u2019s only one thing that would have made the fin\u2026
p14
aVRT @francismmaxwell: The issue with the 2nd amendment is not that it exists, it\u2019s part of history I\u2019ll make my piece with that, but it\u2019s th\u2026
p15
aVRT @Emma4Change: There's been another shooting at Dalton High, in Dalton, Georgia - LISTEN TO US FOR GOD'S SAKE, DO THE STUDENTS OF AMERICA\u2026
p16
a.