(lp0
VRT @McLeanCoDems: It's your time to vote. Don't know where you're voting? Check out https://t.co/h73hpCk77I https://t.co/W4UTaK6Qq1
p1
aVRT @RichardsMCClerk: "Richards\u2019 candidacy represents a shift in strategy and aggressiveness among local Democrats, who are seeking to knock\u2026
p2
aV@PlanetFitness Talked to management. Won't hire a 2nd trainer until membership goes up. Maybe if you held all the c\u2026 https://t.co/UNs3vWKYCl
p3
aVRT @jiveDurkey: imagine being the guy who holds a puppy like such a monster that Vladimir Putin has to come in and save the day https://t.c\u2026
p4
aVNothing will make you question your faith more than sneezing at Mass and not receiving a single "God Bless You." #CatholicProblems
p5
aV@NerdWallet In reference to your online Debt Snowball Calculator, FYI, some student loans have a $0.00 minimum paym\u2026 https://t.co/975nMheMvf
p6
aVRT @RichardsMCClerk: Congratulations @Blair4Illinois \u000aIf you live in the 88th District vote for Jill. I did because I deserve a Representat\u2026
p7
aVRT @MaddowBlog: "We are members of this U.S. government, and we are not going to let you keep us down. We're going to figure out a way to t\u2026
p8
aVRT @KamalaHarris: This moment in time will pass. But when we get through it, it will be because of the people who knocked on doors, made ph\u2026
p9
aVNo fascism here. https://t.co/IPSM7WkLid
p10
aVRT @MaddowBlog: "Don't worry, the president is not really in control" maybe is not as comforting as it was intended to be. https://t.co/6rg\u2026
p11
aVRT @zoelouisesmithx: So Banksy put a video on Instagram and deleted it almost immediately about the whole shredder in the painting. I scree\u2026
p12
aV@PlanetFitness Went to my local #PlanetFitness this morning. Three weeks since brand new open and there's no number\u2026 https://t.co/0jpflMbrDu
p13
aVRT @bamatthews: Keith Sommer \u201cchose not to participate\u201d.\u000a\u000aI believe that\u2019s true about both the @WGLTNews survey and his time in the Illinoi\u2026
p14
aVRT @4AnimalLife: @CarolLeonnig @amarimow @thamburger I hope the @washingtonpost continues to investigate Kavanaugh, regardless of his being\u2026
p15
aVRT @renato_mariotti: If you\u2019re angry about Kavanaugh\u2019s confirmation, get off your butt and do everything you can over the next month to mak\u2026
p16
aVRT @KwameRaoul: Simple and important answers from today's candidate forum:\u000a\u000a#StopKavanaugh https://t.co/mg72NLES5k
p17
aV@CindibiseniusOr @MaddowBlog Well, that's the goal of fascism. For you to feel exactly this way.
p18
aV@spaceparentsbsg Maybe I ought to watch it with subtitles this time.
p19
aVI don't know if the day will come when I don't feel like restarting the complete #BattlestarGalactica series, but t\u2026 https://t.co/NpZB2TPC1Z
p20
aVRT @PhilipRucker: Heidi Heitkamp's brother Joel on MSNBC: "She may lose. But in the morning, when she's brushing her teeth, she needs to li\u2026
p21
aVRT @matthewamiller: Consider who is in charge of the FBI investigation: Chris Wray, who (like Kavanaugh) was in the Federalist Society at Y\u2026
p22
aVRT @renato_mariotti: The attorney for Deborah Ramirez, who alleges that Kavanaugh sexually assaulted her in college, claims that none of th\u2026
p23
aVRT @MaddowBlog: Joy Reid: At the time that Donald Trump said and then tweeted that that FBI could do whatever they want, and said verbally\u2026
p24
aVRT @SamanthaJPower: Back teaching after 10 yrs away. Thought it could be interesting to share one reading from each session of my @Kennedy_\u2026
p25
aVRT @jacobsoboroff: Trump's tent city is months in the making.\u000a\u000aIntimidation: https://t.co/Esd94Kkl5Z @JuliaEAinsley\u000a\u000aSeparation overcrowdin\u2026
p26
aVRT @susiequsie23: New logo. New punctuation. You know what that means, right? instead of WAF, it\u2019ll be W. AF \U0001f609 #WAF
p27
aV@MichaelAvenatti @renato_mariotti How is it that the FBI, under the DOJ, is constricted by the Office of the Presid\u2026 https://t.co/ccQUVraDq7
p28
aV@renato_mariotti We at @IndivisibleMcL are under a little confusion about whether Trump gets to sequester from the\u2026 https://t.co/kiPSSXa0gy
p29
aVLoss. Loss of standards.
p30
aV"I swear I'm not that absentminded," I say while knocking onto the floor all her pens. \u000a\u000aMe, asking HR for a new ke\u2026 https://t.co/j3Flw3rf6Q
p31
aV@douglasbaker74 @BradCullison64 Same here.
p32
aVRT @WabashCollege: New look. New W. Same Wabash. \u000a\u2022\u000a\u2022\u000a\u2022\u000a#Learnmore #Earnmore\u000a#Leadmore #Playmore https://t.co/HGWYep3lIO
p33
aVRT @LissandraVilla: News:  Keith Ellison Is Asking The House Ethics Committee To Investigate Abuse Allegations Made Against Him https://t.c\u2026
p34
aVRT @wabashathletics: The 125th Monon Bell Classic football game between @WabashFB and @DePauwTigersFB will be televised by @FSMidwest and @\u2026
p35
aVHurt people hurt people. Hurt people wants others to experience their pain. Psychopaths want to *see* others in pai\u2026 https://t.co/nRS5cKvOoS
p36
aVRT @Jammer2233: Nick Saban on being driven to be the best \u2b07\ufe0f\u000a\u000a\u201cThere\u2019s an old MLK sermon where he talks about that there\u2019s only \u201cone guy th\u2026
p37
aV@Blm61701 You're right. It's so easy to think up specific examples of homosexuals and POC being martyred with false\u2026 https://t.co/aQU4UBgppZ
p38
aV@Blm61701 &amp; It is more important than careers still decades away--I hope too that we as a society are able to creat\u2026 https://t.co/KFo0it2KlN
p39
aV@Blm61701 I can only hope that those coming to age in the post-Internet-Justice period of this country are able to\u2026 https://t.co/iFqr0MXgKK
p40
aV@Blm61701 Moreover, our criminal justice system has demonized ten's of millions of Americans for actions once viewe\u2026 https://t.co/mpIy2leqkf
p41
aV@Blm61701 On the other hand, look at Rod Rosenstein or James Comey--both dedicated public servants having their cha\u2026 https://t.co/jfIXona2Fd
p42
aV@Blm61701 I think that's a bit of an exaggeration. We're coming off of 40 years of neoliberalist patriarchy--a soci\u2026 https://t.co/X5UKM9myWL
p43
aVThis is the sanest thing this guy has said in three years. https://t.co/7uP2t5VfeI
p44
aVRT @renato_mariotti: Don't bash the @nytimes for publishing the Rosenstein story. They were doing their job as journalists, and it's not th\u2026
p45
aVRT @Mikel_Jollett: I don't think Republicans realize how dumb they sound right now.\u000a\u000aWhat false accuser would ASK FOR THE FBI to investigat\u2026
p46
aVRT @KamalaHarris: In case you missed it: five of my colleagues and I are suing to get Kavanaugh\u2019s White House documents released. Americans\u2026
p47
aVRetweet without comment. https://t.co/9ykLu7icjs
p48
aVWho at @AmazonStudios fucked up and decided not to release #TheMarvelousMrsMaisel Season 2 immediately after the #Emmys ?? I want names.
p49
aV@BreakingNews @MaddowBlog This probably has nothing to do with @Kavanaugh.
p50
aVRT @SenatorDurbin: Republicans cannot simply dismiss Dr. Ford\u2019s allegations with a conference call. These are serious and credible allegati\u2026
p51
aVRT @Matt_Tanney: The @WabashFB defense starts  the game with 10 men on field. Classy move by @KenyonFootball taking the delay of game. #NCA\u2026
p52
aVI'm just throwing out a guess here, but the guy fixing the rotary phones in #TheFirstOnHulu is a young Tom Hagerty\u2026 https://t.co/AgJWhzwT0B
p53
aVRT @TomKingTK: Hey! Cause it\u2019s Batman Day and all, if you\u2019ve got them, I\u2019ll answer Bat-questions throughout the day. \u000a\u000aAs a warning, unlike\u2026
p54
aVRT @itsashlyperez: I\u2019m planning to peak when I\u2019m 50.
p55
aV@Hypatia20 @ChugiakTea @Hokiehorn @Nitemists @NBCNews @MaddowBlog In line with the presumption of innocent and givi\u2026 https://t.co/itLVJhdRLh
p56
aV@germaine7676 @Hokiehorn @NBCNews @MaddowBlog Apparently so.
p57
aV@germaine7676 @Hokiehorn @NBCNews @MaddowBlog Yeah? What is your source? It does seem like more information is comi\u2026 https://t.co/zHy9TU2oI0
p58
aVDear alt-right conspiracy theorists,\u000a\u000aMy use of logic and reason to pragmatically hold my fellow progressives and t\u2026 https://t.co/EqbFyqPycb
p59
aVRT @renato_mariotti: Once a defendant agrees to cooperate, they agree to provide all information about any matter they are asked about by p\u2026
p60
aV@Hokiehorn @NBCNews @MaddowBlog Perhaps. To me, it shows a man--unworthy of the Supreme Court--that 30 years ago ha\u2026 https://t.co/gEhjenAoY8
p61
aV@Hokiehorn @NBCNews @MaddowBlog I understand the letter activated your skepticism. I'm saying that testimony by 65\u2026 https://t.co/sZi762qT6s
p62
aV@Hokiehorn @NBCNews @MaddowBlog I'm not a #Kavanaugh fan by any means, but this is some batshit logic. We on the le\u2026 https://t.co/OloxGX8nCl
p63
aVRT @MSNBC: Manafort has agreed to cooperate with Mueller as part of a guilty plea deal.\u000a\u000aWatch @KenDilanianNBC with more analysis. \u000a\u000ahttps:\u2026
p64
aVRT @LoserCrew: I fucking love toast, what absolute genius took a bite of bread and was like "cook it again", unreal
p65
aVRT @WabashCollege: https://t.co/ZQFCm3plHZ
p66
aVRT @wallywabash: Talk, listen, CONNECT.  To your friends, to your family, to your barista....anybody. We can\u2019t always know who is strugglin\u2026
p67
aVWe need to stand up for due diligence and due process. @SenatorDurbin please vote no on #Kavanaugh. https://t.co/QDxKL7VDzN
p68
aVRT @Forbes: Quote of the day:\u000ahttps://t.co/mweFeCJXcM https://t.co/rF95VJcTBn
p69
aVRodgers even more grateful for all that guaranteed money. https://t.co/mY6RZ4cv4p
p70
aVRT @TheLastWord: We close tonight with our #QOTD.\u000a\u000aLearn more: https://t.co/3j2z7SQYTr https://t.co/ngwaCvfnr9
p71
aVRT @MaddowBlog: All you have to do at a moment like this, if you can do nothing else, is just be decent and don't make it about yourself.\u2026
p72
aVRT @BlackMajiik: Yall are the generation that still makes us fill out our work history after we upload our resumes.\u000a\u000aShhhh. https://t.co/8w\u2026
p73
aV@WabashCollege Here's a twofer Class of 2022: Set big goals, but take seriously your focus when navigating the smal\u2026 https://t.co/Vq9Y9ZHJ61
p74
aVRT @krassenstein: BREAKING: Randolph County in Georgia is considering closing 7 of 9 voting precincts during the midterms on Nov 6th.\u000a\u000aRand\u2026
p75
aVRT @forbesthoughts: Quote of the day: https://t.co/4vmKh4HmOb https://t.co/T0AJm9aovh
p76
aVRT @Dr_DannyDom: So proud of the work our USF Counseling Psychology Department is doing! I feel so inspired by the leadership of Dr. Belind\u2026
p77
aVRT @petestrzok: Deeply saddened by this decision. It has been an honor to serve my country and work with the fine men and women of the FBI.\u2026
p78
aVRT @AntonioArellano: Surround yourself with people that propel you forward, that challenge, motivate and inspire you everyday. \u000a\u000aNever allo\u2026
p79
aVIt's funny how people with grit and a sense of civic duty react to injustice. https://t.co/wYY99Om15O
p80
aVRT @aparnapkin: so sorry to anyone who did not pick asbestos in their 2018 nightmare draft
p81
aVRT @WabashCollege: \u201cWe\u2019re Little Giants. \u000aWe might be little because of the size of our community but we are Giants because of the impact t\u2026
p82
aVThink of the lives their words alone have upended. https://t.co/L9pUpVsL2i
p83
aVRT @CapnCorwin: Our sense of right and wrong is partially determined by what behaviors get us rewarded or punished.\u000a\u000aIt's ideal if we can o\u2026
p84
aVWe write our own stories with our decisions, actions, and inaction. We determine who we are. https://t.co/ko5QLI00I9
p85
aVWabash Always Fights https://t.co/hwcHWjAFTd
p86
aVY'all can stop looking at me like I'm crazy now. 7 years I've been telling you this was coming. https://t.co/b4Bu00qIcO
p87
aVThe most surprising thing about #TheMartian is that @SeanBeanOnline survived.
p88
aVDoctor him face to face so he can keep driving his car instead of living on it. https://t.co/9cuRIJCBPN
p89
aVWhen asking important questions is "disrespect", you have a kiss of standards,  a failure of duty, and abuse of pow\u2026 https://t.co/dG7PyzIblM
p90
aVWords of wisdom from a Wabash Man. WAF. https://t.co/oD4DhVC15n
p91
aV@ShaRawr93 Sorry to hear that. Everyone okay?
p92
aVThe Gini Coefficient Appreciation Squad. Sorry @franifio I may have a new crush. https://t.co/nbtJpEJS8w
p93
aVRT @WabashCollege: "The mark of a man isn\u2019t when he falls down but how he recreates himself \u2014 that he finds the courage to get back up when\u2026
p94
aVRT @sahluwal: Never forget that the Supreme Court once ruled that:\u000a\u000a- Black Americans can not be citizens - we overcame that\u000a- Putting Japa\u2026
p95
aVRT @JoshuaMatz8: Someday, law professors and historians will struggle to explain how anyone could possibly have disagreed with Justice Soto\u2026
p96
aV"For the oppressor, 'peace' isn't the absence of violence. For the oppressor, 'peace' is the absence of response to\u2026 https://t.co/7ClMGQcYj4
p97
aVRT @SportsCenter: WHAT. A. SAVE. #SCtop10 (via @atxsol) https://t.co/nL4uJAD4u4
p98
aVSometimes I don't even realize it hit me in the forehead until I hear it shatter. https://t.co/ZNZ4wRNDdO
p99
aVThe closest Detention Center to me is located at 2200 N. Seminary Ave. Woodstock, IL, 60098. Find yours below! https://t.co/aNg7EAMAX8
p100
aVThat's Wabash. https://t.co/GhRcKylfij
p101
aVI lied. THIS is my new favorite thing. https://t.co/kxO9kaSgrD
p102
aVRT @erinsilverman: @vanessagezari @deadlineclub That's literally the most honest thing he's ever said.
p103
aVThis is truth. https://t.co/XCklNVc9oe
p104
aV@Dr_DannyDom @USFCA_SOE Is there a link to the video?
p105
aVStay tuned. https://t.co/237s9OWZiZ
p106
aVRead that headline one more time, but slowly. https://t.co/DCPIDyowJR
p107
aV@TracyATownsend Please tell me that's your 8th grade teacher and that she isn't dead, but instead can be found on Twitter.
p108
aVThis is a statement from someone who has no concept of the privilege and responsibility that comes with power. https://t.co/cCANxbRSPN
p109
aVIt's almost as if the tactic has been profitable in business, but is detrimental to acts that require moral discipl\u2026 https://t.co/qAyg9Mfnll
p110
aV@benjamincwagner @WabashCollege So do I. You should show more respect.
p111
aVAlphas in captivity. https://t.co/RBZYfeEf3X
p112
aVWe're at the US Coliseum today until 1PM. Swing by to spin the Prize Wheel and for a chance to win a $25 Visa Gift\u2026 https://t.co/z63NnDoRlU
p113
aVRT @TEDTalks: "Adults who exhibit genuine joy are often dismissed as childish, too feminine, unserious, or self-indulgent, so we hold ourse\u2026
p114
aVRT @usefulcharts: I'm delighted by all the new followers over the last few days. As a thank you, here's a giveaway contest: RT this for a c\u2026
p115
aV@SpeakerRyan Twenty years keeping them in poverty just to spend your last eight months trying to dig them out? Nice job.
p116
aVRT @MaddowBlog: This is a time to be sober, to be calm, and to be paying attention. https://t.co/qmzRiGEQlu
p117
aVI don't know which story this morning is a more compelling example of the triumph of humanity over ego:\u2026 https://t.co/dbfzCfpoRw
p118
aVWe're a nation built on due process, equal representation, and the rule of law--and we need to defend our democrati\u2026 https://t.co/OsIKiVmfco
p119
aVKind of sounds like its about to go down. https://t.co/GOAlS5L8uY
p120
aVRT @AAzoulay: It is through dialogue, respect and mutual knowledge and recognition that peace will be sustained #UnescoExBd \u000a\u000ahttps://t.co/\u2026
p121
aVRT @KamalaHarris: Dreamers are Americans in every way but on paper. Congress must do right by them. Let\u2019s give them a path to citizenship.
p122
aVAlmost to the weekend. https://t.co/iYXyQgl4DZ
p123
aVOn Twitter for 5 minutes and already getting some love. Thanks @Lisa_M_Blacker  @GoodMenProject https://t.co/lHrNalhgxK
p124
a.