(lp0
V@FoxNews https://t.co/BgmDx5Kz8P
p1
aV@FoxNews @LaraLeaTrump @BarackObama https://t.co/BgmDx5Kz8P
p2
aV@FoxNews @KellyannePolls @foxandfriends https://t.co/BgmDx5Kz8P
p3
aV@USATODAY Watch this about Migrant Caravan LOL.  https://t.co/BgmDx5Kz8P
p4
aV@realDonaldTrump @RonDeSantisFL Watch this - Fake Trump Stunt.                       https://t.co/BgmDx5Kz8P
p5
aV@FoxNews @foxandfriends What a fake stunt - WATCH \u000ahttps://t.co/BgmDx5Kz8P
p6
aV@realDonaldTrump https://t.co/BgmDx5Kz8P
p7
aV@PhilipRucker @maggieNYT Trump did it pure and simple duh.  He has paid the caravans to make the trip so he could u\u2026 https://t.co/TKn1mpgwNc
p8
aV@realDonaldTrump Trump wants to take away Pre-Existing Conditions and YOUR Health Care.  He also wants to take away\u2026 https://t.co/h4sukIrh4V
p9
aV@FoxNews @LaraLeaTrump @realDonaldTrump Who the heck is she and who cares?
p10
aV@MSNBC Come on.  All that happened is a WH Speechwriter wrote her words and put it out as though she did it.  Not t\u2026 https://t.co/OhMMaiI3ud
p11
aV@washingtonpost Lying mf knows this is just a waste of OUR taxpayer dollars.  Military has the leave before the car\u2026 https://t.co/PvR8eOHbvC
p12
aV@Fahrenthold @realDonaldTrump Trump Family is as corrupt as any New York crime family as Genoceee, Bonnanno or others.
p13
aV@USATODAY This Trump scumbag has Dementia and should be in a sanitarium.  His brain is abnormal and he is one despicable scum bag.
p14
aV@dionnesearcey @nytimes Trump has blood on his hands.  Shame on any American who votes for this subhuman scumbag.
p15
aV@SenWarren @realDonaldTrump Kudlow is a scumbag hack of Trump\u2019s so ignore the right wing racist bastard.
p16
aV@realDonaldTrump You need to send a message to your parents.  Why didn\u2019t they abort you???
p17
aV@ABC @karentravers This mother fucker Trump definitely is responsible for those murders due to his incitement and e\u2026 https://t.co/T8eoPaYviW
p18
aV@realDonaldTrump Trump\u2019s a fucking mafia low life scumbag.
p19
aV@ReynoldsGregg @IvankaTrump @ChuckGrassley @YoungForIowa @KimReynoldsIA Chuck Grassley and Trump would love to grab\u2026 https://t.co/j8zehMY8b8
p20
aV@JenKirkman The Embslmed VP embarrasses us again.  Please go away.
p21
aV@APCentralRegion @AP Republicans stop eligible voters through voter suppression, gerrymandering and throwing out ma\u2026 https://t.co/tMZwllS9gk
p22
aV@RudyGiuliani Who the hell are you?  I though you died, Rudy, or has Trump locked guy in the closet because you\u2019re\u2026 https://t.co/IHEAmJhwfQ
p23
aV@nytimes Hitler, Stalin and Mussolini welcome Trump into their home.  Dump Trump and end this immoral creature who\u2026 https://t.co/7LRz9PNYHW
p24
aV@balibrary @TerracomChicago Vote for Sean Casten.
p25
aV@realDonaldTrump Sorry you LIAR - you are ruining America and you are destined for hell. God please take this despi\u2026 https://t.co/A4QREaLTVS
p26
aV@usatodayvideo @USATODAY Pence is a tiny embalmed looking racist scum out to attack Blacks Browns Hispanics and Jew\u2026 https://t.co/MuUcyRRpjn
p27
aV@BrookeBCNN Take that Fox comment about news the way Trump wants it and put that on Page 1 and headlines.  The mf s\u2026 https://t.co/KrC5AVFr9p
p28
aV@FoxNews @POTUS The scumbag can\u2019t open his mouth without lying.  The Republicans only want a White Nationalist KKK\u2026 https://t.co/3xxqJ1qPQo
p29
aV@MSNBC King is and has been a white racist trying to silence minorities.  This Neo-Nationalist is against blacks, b\u2026 https://t.co/DP5QBx0P4L
p30
aV@ChuckGrassley You are another old man Trumpette using fear and racist scare tactics.  You are a despicable old man and time to retire.
p31
aV@washingtonpost No he was born a LIAR.  The Trum[ Family has used lies, bribery and corruption to enrich themselves\u2026 https://t.co/v5mkRDfQjX
p32
aV@ABC Yes - it IS a POLITICAL STUNT...and so obvious to the voters.  Make America Moral Again -- Vote Democratic with the Blue Wave.
p33
aV@ABC @jonkarl Every time his lips move, he is lying.  Sick corrupt bastard - not MY President.  Make America Moral\u2026 https://t.co/k6TeWfJ4jK
p34
aV@MrFilmkritik Put this fact on Page 1 \u2014 throw those little bastards out with Dicktator Despicable Con Man Drumpf.
p35
aVRT @MrFilmkritik: Ivana Trump wasn't a US citizen until 1988. She gave birth to Don Jr in 1977, Ivanka in 1981, and Eric in 1984.\u000a\u000aLet's ca\u2026
p36
aV@USATODAY Pence is a right wing racist pure and simple.  I didn\u2019t know Christians befriend scumbag pussy grabbing W\u2026 https://t.co/h3p7JkjUYZ
p37
aV@FoxNews @POTUS Make America Moral Again - Vote Democratic for a Blue Wave.  Con Man Trump is not a Patriot but a N\u2026 https://t.co/dya6EWkGD5
p38
aV@JRubinBlogger Absolutely the WH press corps should walk out. Otherwise they give light to Lyin\u2019 Con Man Trumo\u2019s fa\u2026 https://t.co/CQiFlSfnCV
p39
aV@realDonaldTrump Paul Ryan is finally getting the balls to push back at Lyin' Con Don.  And like clockwork you atta\u2026 https://t.co/DgZAdcD2cL
p40
aV@IvankaTrump @POTUS Is Daddy running out of spokespeople that he has to have you touting his false promises to ruin\u2026 https://t.co/EpTvOqr9pA
p41
aV@FoxNews Trump Campaign Stunt pure and simple.  Why?  Because the 5,200 military troops are there now and are limit\u2026 https://t.co/0Vr8L47mNJ
p42
aV@Paula_White @IvankaTrump Has your Sexist and Anti-Women Daddy grabbed YOUR pxxxy???  He wants you so bad it is disgusting.
p43
aV@IvankaTrump Trump has ignited White Nationalists who are targeting Jews, Muslims, Blacks and all minorities.  As a\u2026 https://t.co/U6kefC34Sq
p44
aV@realDonaldTrump You, Mr. Fake President,, are a frigging LIAR because you and others are trying desperately to END\u2026 https://t.co/MNQjvI79FY
p45
aV@realDonaldTrump @FoxNews I Don\u2019t Care, Do You?  In fact I don\u2019t care about racist Trump or Fox.
p46
aV@maggieNYT @BenWeiserNYT True story. In 2016 when Trump was a candidate, I was at a dinner party when a former TOP\u2026 https://t.co/czT9AQFcyz
p47
aV@realDonaldTrump Trump lights the match on the gasoline words he uses to foment division in the US.  His fellow neo\u2026 https://t.co/4AGg3qKnT0
p48
aV@realDonaldTrump Voters expose your bullshit use of fear.  That\u2019s all you have, Fake President.  If Trump has ANY s\u2026 https://t.co/czT842AmWG
p49
aV@FoxNews @SecNielsen Trump does not want to crack down on his fellow Neo-Nazis who are responsible for these past t\u2026 https://t.co/LUKdaEGYoD
p50
aV@realDonaldTrump @jaketapper Why does Trump insult everyone?  Answer - he is a Malignant Narcissist who gains "narc\u2026 https://t.co/LFqJ8eEUSR
p51
aV@Acosta CNN stop covering this despicable subhuman.  Stand up.
p52
aV@realDonaldTrump You\u2019re a fucking liar.  CNN did not blame you. However I do. You have poured out the gasoline and\u2026 https://t.co/uAW3cidfF3
p53
aV@AP You definitely should as you have incited your cult followers to perform violent acts.  Man up, Dude, and admit\u2026 https://t.co/qcDP1kM3nc
p54
aV@realDonaldTrump Con Man Don - what is a \u201chard line\u201d per your tweet.  You are tech-ignorant for sure.  Reading your\u2026 https://t.co/h0CPi9VEZo
p55
aVRT @FoxNews: Former President @BarackObama makes remarks at a rally in Detroit. https://t.co/rAFpCQZLa2
p56
aV@ABC It\u2019s amazing the terrible media was fine for Barack. Perhaps Trump is the cause due to his insults, hatred, di\u2026 https://t.co/iwRKqQ9d5S
p57
aV@USATODAY This despicable scum Fake President is ruining America. We are no longer exceptional due to his hatred, d\u2026 https://t.co/Bc447tPN7A
p58
aV@kiesm @David_Gergen You are spot on. Thank you.  He is a Malignant Narcissist to be accurate.  No wonder he has fa\u2026 https://t.co/lrGo4e2wQB
p59
aV@David_Gergen Malignant Narcissists like trump NEVER take any responsibility or blame for their despicable actions.\u2026 https://t.co/tzyDMnAsf9
p60
aV@Acosta Love you, Jim.
p61
aV@FoxNews @IvankaTrump Your narcissistic Father must take 100% of the blame.  You have failed to rein him in.  You a\u2026 https://t.co/0KuJhQBPLw
p62
aV@MittRomney Mitt is in bed with Trump and shares some of the blame for these bombs. He failed to tell Trump that he\u2026 https://t.co/IkY1oLVCkG
p63
aV@realDonaldTrump I cast my Early Vote today - and it was straight Democratic.  I cannot tolerate the vicious, divis\u2026 https://t.co/u7rdmXgk30
p64
aV@FoxNews @LeslieMarshall No doubt that Trump arranges the caravan by encouraging them to trek north si he can act l\u2026 https://t.co/Bv01BWibG4
p65
aV@washingtonpost Trump is responsible for creating hatred in the US with his divisive horrible racist language.  Vot\u2026 https://t.co/KGJEz0HflW
p66
aV@ABC Why should he?  He\u2019s just a whore like Melania.
p67
aV@IvankaTrump Jared is a little scumbag who has been a terrible businessman.  He is in bed with the Saudis - despicable person.
p68
aV@FoxNews @jorgeramosnews Trump has arranged for the Mogrant Caravan. A report showed he has paid secret money to Ho\u2026 https://t.co/0I9MOI5KR2
p69
aV@realDonaldTrump Can Trump Open his mouth without lying?   Of course this is untrue.  The little scum bag can only\u2026 https://t.co/NUdjaqgsqr
p70
aV@realDonaldTrump You are so full of lies.  The stock market is tanking due to Trump. He is a godless subhuman.  Get\u2026 https://t.co/V3iHkySRzt
p71
aV@FoxNews @POTUS Trump will s full of so many lies - he\u2019s lied to everyone.  He is a tax cheat, corrupt, adulterer,\u2026 https://t.co/d8BYZanDxx
p72
aV@USATODAY Fact - Trump has encouraged the Zmigrabr Caravan so he can act like a tough guy and instill fear on voter\u2026 https://t.co/iPemd8Nahx
p73
aV@Acosta The Tax Scam Bill has hurt more Americans than ever.  Doing away with SAKR deductions has killed home owner\u2026 https://t.co/rVqzJiFb02
p74
aV@realDonaldTrump People say that Trump is behind these migrants being on the move.  He paid certain organizers to e\u2026 https://t.co/tmqorKMlkX
p75
aV@maggieNYT @katierogers Maggie - do you know that four Mar A Lago Members we\u2019re appointed Ambassadors by Trump?   T\u2026 https://t.co/bDgfEOACYv
p76
aV@VoteCasten @SeanCasten Peter \u201cTrump\u201d Roskam wants to take away the right to Health Care for those with pre-existin\u2026 https://t.co/49VxR2TO7O
p77
aV@USATODAY Respected WH source says that Trump himself is behind the migrants because he can then act tough for his\u2026 https://t.co/A2MpSOQr9F
p78
aV@ABC Crock of crap - he has no inclination to do this.  In fact he wants to take more from the middle class to give\u2026 https://t.co/0zTnSD3HpA
p79
aV@ABCWorldNews @ABC @mattgutmanABC Heard a report that Trump encouraged the Migrabt Caravan. Reason ?  So he can use\u2026 https://t.co/P9neID9L2C
p80
aV@realDonaldTrump Trump is behind the Migrant Caravan because he thinks it helps him with his base.  This must be ex\u2026 https://t.co/Q2T0rz4HHu
p81
aV@realDonaldTrump Trump agreed to Immigration Reform in the Oval Office meeting.  Steven Miller told him he had to b\u2026 https://t.co/wr3sZb4PXm
p82
aV@Reuters Trump Conspiracy - a well known source has said that Trump urged the Migrant Caravan to head to the US - s\u2026 https://t.co/CjXTTYUDhY
p83
aV@realDonaldTrump @RonDeSantisFL Sorry wrong again Trump. You are LYING because Gillum clearly won the debate.  Even\u2026 https://t.co/6MqoUuejTA
p84
aV@NoahShachtman @maggieNYT Trump told them to publish this absolutely fake story.  I heard Trump is worried that Sto\u2026 https://t.co/5ZiDTklj4A
p85
aV@FoxNews People say that any Fox statement about Trump is not only biased and fake, but that Trump paid Fox to make\u2026 https://t.co/uZpqyjSQ5s
p86
aV@SeanCasten Great momentum, Sean.  Voters are behind you.
p87
aV@ABC People say that Trump has urged and enabled the Migrant Caravanby so he could crack down on them and fire up G\u2026 https://t.co/xxsnlt7Cr5
p88
aV@maggieNYT Stop Trump from taking away your Health Care and Medicare so he can give it to his rich and corrupt frie\u2026 https://t.co/NNgW5Lk45A
p89
aV@realDonaldTrump Your tariffs and policy have caused the stock market to lose billions for middle class Americans.\u2026 https://t.co/AHs0xg98ZF
p90
aV@Kokomothegreat @Acosta Trump is despicable in his personal attacks on America\u2019s free press.  He wants to be a Dick\u2026 https://t.co/JgmlN5ZHLn
p91
aV@PalatineILPatch @PalParks Vote for Sean Casten - don\u2019t let Peter \u201cTrump\u201d Roskam take away pre-existing conditions\u2026 https://t.co/eFV0NKfzGx
p92
aV@220Arts @balibrary @BarringtonHS220 Vote for Sean Casten.  He wants to protect health care and Trump Roskam wants to take it away from you.
p93
aV@FoxNews @foxandfriends Sell that fear Angie because you are losing on the issues which affect Americans.  Vote Dem\u2026 https://t.co/hBcn3Vy4Dn
p94
aV@FoxNewsSunday @FoxNews @RandPaul Another Trump LIE - Vote Democratic on November 6th and Make America Moral Again.
p95
aV@realDonaldTrump Your Russian people are the ones who interfered in our elections and not voter fraud.  People say\u2026 https://t.co/LND8pUvGon
p96
aV@FoxNews @SenatorCardin Trump agreed to Immigration Refirm in the Oval Office.  But Steven Miller, who owns Trump,\u2026 https://t.co/8bizs1GFc9
p97
aV@FoxNews Fucking LIAR.  He makes shut up knowing stupid people believe him.  Just a scum Con Man.
p98
aV@FoxNews @EricTrump @realDonaldTrump @WattersWorld Obama was the one who created 6,000,000 jobs - Trump has ridden\u2026 https://t.co/Z1gMCeEV1k
p99
aV@ABC People know it is Trump\u2019s fault.  He is a baby and never takes any blame but Trumo owns the migrant problem ob\u2026 https://t.co/yLvmYRrmpG
p100
aV@washingtonpost Trump is a bully, chicken shit and a despicable son of a bitch. Someone should body slam him so he\u2026 https://t.co/k3fKOjBau5
p101
aV@AP_Politics @AP LYING is in his soul and family DNA.  From Fred to Eric. Hope Barron escapes.
p102
aV@realDonaldTrump Steve Miller owns Trump pure and simple.  Miller is a neo-Nazi against all minorities because he i\u2026 https://t.co/YnGx11Iky5
p103
aV@FoxNews @EricTrump What a load of Trump bullshit.  Just like his scum fatso father #.
p104
aV@IvankaTrump @USTreasury Bullshit.  The Tax Scam Bill was nothing more than theft from the middle class to you rich\u2026 https://t.co/65D5Mq70uD
p105
aV@realDonaldTrump Trump sucks.  Stick it to the Republican bastards on the Midterms.  Worst President ever. Sick scumbag.
p106
aV@LisPower1 Absolutely.  None of the Trumps have any morals.
p107
aV@Reuters Trump has LIED because zero arms have been purchased yet.  Making this crap up to protect his Brother MBS\u2026 https://t.co/6rwF39NYNL
p108
aV@NickKristof @jaketapper Trump has joined the coverup...duh.  He is scum.
p109
aV@FoxNews @BenjaminHallFNC Horseshit.  Rural coverup...by Trump duhhh.
p110
aV@FoxNews @BenjaminHallFNC And the fucking Tooth Fairy did it.  Trump is in deep crap aiding and abetting this cover\u2026 https://t.co/2sSEDaUxH0
p111
aV@realDonaldTrump Ted Cruz is just like Drumpf \u2014 both are LIARS.  Vote for Beto
p112
aV@realDonaldTrump Stop protecting Killer MBS - your corruption includes deals with the Saudis so stop Lying about it.
p113
aV@CrainsChicago @PeterRoskam @SeanCasten Vote for Sean Casten and not Peter \u201cI vote with Trump\u201d Roskam.  Roskam gave\u2026 https://t.co/7AEmipAHro
p114
aV@Acosta Reporters must boycott Drumpf rallies.  Less publicity for the Scumbag Fake President.
p115
aV@Acosta Trump is a chicken shit. He is afraid to fire some in person.  He crumbled when a bird flapped its wings ne\u2026 https://t.co/xL2VL6Y2j5
p116
aV@washingtonpost They do not. In fact that is why they want to end ACA.  They are heartless bastards only concerning\u2026 https://t.co/zlhyi78O2v
p117
aV@FoxNews @TuckerCarlson Tucker, you\u2019re a fucking major racist.
p118
aV@FoxNews WTF are you talking about. The market is crashing and Trump is to blame for it.
p119
aV@W7VOA @Acosta @POTUS Sick scum fake President.  Vote on Nov 6
p120
aV@FoxNews @POTUS He\u2019s a frigging scum bag.  Make America Moral Again. Vote on Nov 6th.
p121
aV@jonallendc @Acosta Oh Lord - please let us have Barack again!
p122
aV@David_Gergen @KirstenPowers @kaitlancollins @AC360 David - he\u2019s just wanting to play to his base.  We MUST find an\u2026 https://t.co/cpfTlaCqmq
p123
aV@balibrary Vote for Sean Casten over Peter "Roskam" Trump who has not had town halls, helped pass the Tax Scam Bill\u2026 https://t.co/ClMYeJF1nO
p124
aV@realDonaldTrump What a load of Trump LIES.  He plays voters for Chumps.  Trump has separated children from parents\u2026 https://t.co/SlCqs6tEv5
p125
aV@realDonaldTrump Trump is only doing this to help his base for the Midterms. Look at the timing. It\u2019s only politica\u2026 https://t.co/rvC2fHuKvT
p126
aV@MSNBC Rise up and Vote Democratic To stop Trumo\u2019s War on Women!
p127
aV@realDonaldTrump Why did Trump write the Letter of Health Excellence for his quack doctor? Cuz Trump is afar tub of\u2026 https://t.co/xq9T7zX6s9
p128
aV@balibrary @bonappetit Vote for Sean Casten.  Peter \u201cTrump\u201d Roskam failed to hold local Town Halls and hid from the\u2026 https://t.co/KOMm0M3NyM
p129
aV@PeterRoskam @BAPS_PubAffairs Peter \u201cTrump\u201d Roskam voted with Trump 94% of the time including voting for the Tax Sc\u2026 https://t.co/jtUK3o91wa
p130
aV@realDonaldTrump @USMC @WhiteHouse Chicken shit Trump Bone Spurs - failed patriot who preferred ripping people off\u2026 https://t.co/VpzL5MRrbV
p131
aV@realDonaldTrump Why then is the Stock Market tanking???   The Buck stops with Trump.  His tax scam deficit is killing investors.
p132
aV@chicagotribune Vote for Sean Casten.  Unlike Peter "Trump" Roskam, Sean Casten will KEEP/PROTECT Medicare, Social\u2026 https://t.co/qjkYlFUMBK
p133
aV@palatinelibrary Vote for Sean Casten.  Unlike Peter "Trump" Roskam, Sean Casten will KEEP/PROTECT Medicare, Social\u2026 https://t.co/0JGbsmSoKQ
p134
aV@PeterRoskam @BarrRotary Vote for Sean Casten.  Unlike Peter "Trump" Roskam, Sean Casten will KEEP/PROTECT Medicare\u2026 https://t.co/XQnM3PygNI
p135
aV@realDonaldTrump @foxandfriends Trump caused the recent crash meltdown and said nothing.  He\u2019s a fucking con artist pure and simple.
p136
aV@SenSchumer The Republican and Trump whores LIED about their Tax Scam Help the Rich Bill. They knew it would NOT be\u2026 https://t.co/0lnJKl7lhA
p137
aV@FoxNews Trump is guilty of denying then ordering $130,000 illegal payment to Stormy Daniels.  Tiny Dick Trump is a\u2026 https://t.co/vKdoxWNh3k
p138
aV@ABCPolitics @ABC @karentravers Frankly it is a fact that Melania looks more like a Horseface than Stormy.  They do\u2026 https://t.co/lCHDOmKXob
p139
aV@RepLaHood @HouseGOP You lying scum -Republicans blew up the the deficit for their money grab.  You included.  Ever\u2026 https://t.co/uIS6bS8Myq
p140
aV@washingtonpost All LIED saying the Tax Scam Wealth Transfer would narrow the deficit through growth.  They don\u2019t m\u2026 https://t.co/hbhVRjJcme
p141
aV@MichaelAvenatti Spot on.  Hope you nail that scum fake President who lost the popular vote!!!
p142
aV@StormyDaniels Come on - tell more about his bloated 265 pound fat body, 48\u201d waist, jelly belly,  orange Cheetohead\u2026 https://t.co/qI6Vyg8Caz
p143
aV@RyanCostello Remember he called Ted Cruz\u2019s wife the same name.  And Cruz cowered away Cuz he\u2019s afraid of Trump.  C\u2026 https://t.co/Nf00KFp6ZQ
p144
aV@realDonaldTrump His entire life is made up of LIES as this is how he cons his followers (tell em what they want to\u2026 https://t.co/F09hZzgvZ9
p145
aV@ChrisMurphyCT @maddow These dictators are playing Trump for the moronic fool he is.  But...he doesn\u2019t see it which shows his narcissism.
p146
aV@nytimes Guy executed the deceased in cold blooded murder. Then stands there.  This motherxxxxxx should be arrested\u2026 https://t.co/SBzfPCqlKR
p147
aV@MSNBC Take it from the Immoral Moron Trump - duh.
p148
aV@FoxNews @foxandfriends Trump wants to beat the crap out of people.  Come on let\u2019s bash these minorities the way Tr\u2026 https://t.co/9wLOKvMYeK
p149
aV@cnni Come on you cheap lying SOB you owe her charity $1,000,000.  Or are you going to try to cheat her too as you\u2026 https://t.co/Vorphd80s5
p150
aV@MSNBC Duh ya think?   Trump is despicable and corrupt.  Vote Democratic in November.  Make America Moral Again.
p151
aV@Marmel Find this MF and someone please identify him so he can be prosecuted.  He must be charged with a crime and\u2026 https://t.co/1LytzxArzK
p152
aV@realDonaldTrump ANOTHER LIE \u2014 #1 is Fear by Bob Woodward which exposes you as the moron and corrupt person you are\u2026 https://t.co/eTod0Mkl3S
p153
aV@balibrary Vote for Sean Casten for our 6th Congressional Dustrict. He will protect pre-existing health conditions\u2026 https://t.co/18hWVbtc1B
p154
aV@RepLaHood @USDA @SecretarySonny You have hurt IL16 with your support of the Tax Scam Bill which has taken money fr\u2026 https://t.co/oGb1WNsNiA
p155
aV@FoxNews No way it will as long as Trump cares more about enriching himself with Saudi payoffs than he cares about\u2026 https://t.co/8sGsYc23l4
p156
aV@RodneyDavis You\u2019ve screwed the farmers big time with your support of tariffs.  Retail Prices are up big because of your actions.
p157
aV@realDonaldTrump Despicable LIAR.  You have ruined our standing in the World whose leaders LAUGH at you for being a\u2026 https://t.co/HwH3JP4KEL
p158
aV@ChuckGrassley He tariffs are killing farmers and YOU are in bed with Trump ruining their lives. Shame on you.
p159
aV@SusanPage @Acosta @factcheckdotorg Register and then VOTE for Dems who support helping students with college loans\u2026 https://t.co/PRiB6SG2aJ
p160
aV@washingtonpost Trump\u2019s a lying frigging whore and is despicable.  Everyone please stop this madness and makeAmeric\u2026 https://t.co/gEgKgDHn3Q
p161
aV@VP @jaketapper @KidRock @WhiteHouse You hate African Americans and are another Indiana racist.
p162
aV@washingtonpost He\u2019s a friggin whore plain and simple.
p163
aV@Timodc @jaketapper Congratulations, Tim.  Smile.
p164
aV@USATODAY @usatodayopinion USA Today is WRONG to have published Trump\u2019s lies.  They have lowered themselves to FOX\u2019\u2026 https://t.co/06ffRJyGD3
p165
aV@USATODAY Scum Nunes should be locked up for failure to perform a proper investigation.  All he did was kiss Trump'\u2026 https://t.co/Ftu8BQiDrZ
p166
aV@ReutersBiz @Reuters He\u2019s the cause of the meltdown.  Then tries to blame anyone but himself.
p167
aV@ChuckGrassley You old man belong on the funny farm. You are a horrible Senator and can\u2019t wait until you are out of Congress.  Scum.
p168
aV@R_Love317 @jaketapper It\u2019s Trump who has expanded the deficit. Lock HIM up as he is ruining America.  Open your eyes.
p169
aV@washingtonpost Scum Trump LOVES Dictators.  Register and vote Democratic early vitamin by or on Nov 6
p170
aV@RepBost @realDonaldTrump @IvankaTrump And you also support LOSING thousands of jobs in industries affected by the\u2026 https://t.co/85Z1M2XLVi
p171
aV@gamesoverpl2 @washingtonpost You are absolutely correct.  Urge others to register and vote to eeKen this wannabe d\u2026 https://t.co/ruAqtfSnu4
p172
aVRT @gamesoverpl2: @washingtonpost The problem is that once a falsehood is introduced it gets repeated which then sticks in people's heads,\u2026
p173
aV@washingtonpost Absolutely resoonsible media must NOT publish his LIES.  I am cancelling my subscription to USA Tod\u2026 https://t.co/BNXryieaxb
p174
aV@USATODAY @usatodayopinion Cancel your subscription bc the newspaper published Trumo\u2019s Lying op- ed article.  It wa\u2026 https://t.co/zu60A0Y4Yi
p175
aV@FoxNews @POTUS @foxnewsnight That\u2019s what the scum mf does.  Take credit and shift blame. We NEED a strong free pre\u2026 https://t.co/3jnhwi5wSs
p176
aV@ABC Ignore the bastard.
p177
aV@NBCNews Spot on.  I\u2019ve said the insults he throws out describe himself.
p178
aV@NBCNews Why do you report this bullshit conspiracy LIE Trump utters?  Ignore the friggin SOB.
p179
aV@ChuckGrassley You friggin LIAR - you know damn well that Ethanol contributes to smog and pollution in the environm\u2026 https://t.co/Fl8Lp5zFhx
p180
aV@katyperry @QVC @kpcollections If you care about climate change, student debt, poverty, World conflicts and healthc\u2026 https://t.co/BskbxdWElr
p181
aV@jtimberlake If you care about climate change, student debt, poverty, World conflicts and healthcare, then rise up\u2026 https://t.co/45vlj7Vuop
p182
aV@ladygaga If you care about climate change, student debt, poverty, World conflicts and healthcare, then rise up and\u2026 https://t.co/hYvEQuO0cH
p183
aV@selenagomez @youtubemusic @djsnake @iamcardib @Ozuna_Pr If you care about climate change, student debt, poverty, W\u2026 https://t.co/zPBVLaFBaI
p184
aV@ABC People think he sexually abused Ivanka when she a little girl.  What a scumbag.
p185
aV@FoxNews What a complete assxxxx.
p186
aV@ErinBurnett We miss you. More photos please. Hurry back!
p187
aV@katyperry Katy Fans - Important for Millennials to Register/Vote early or on Nov 6th. Urge others to also register\u2026 https://t.co/kqPzv4O3C2
p188
aV@FallonTonight @justinbieber @TMobile Justin Fans - Important for Millennials to Register/Vote early or on Nov 6th.\u2026 https://t.co/XBPDZvWKaT
p189
aV@selenagomez @djsnake @Ozuna_Pr @iamcardib Important for Millennials to Register/Vote early or on Nov 6th.  Urge ot\u2026 https://t.co/W6talAgwHu
p190
aV@dangerookipawaa @reasonTDE Important for Millennials to Register/Vote early or on Nov 6th.  Urge others to also re\u2026 https://t.co/PHlxaI2vHQ
p191
aV@kendricklamar Important for Millennials to Register/Vote early or on Nov 6th.  Urge others to also register so the\u2026 https://t.co/Dai2FVXgHV
p192
aV@Drake Important you register to vote now.  Vote early or on November 6th.  Vote for Democrats and send a message t\u2026 https://t.co/kv7ypNZL28
p193
aV@50cent Urge you to register to vote and then do early voting or vote on November 6th.  YOU can make a difference v\u2026 https://t.co/Kk5616J7N1
p194
aV@realDonaldTrump You\u2019re the friggin Mafia Don. You have a long history with mafia figures as did your old man.  You\u2026 https://t.co/cBoisYstbC
p195
aV@FoxNews @senatemajldr @IngrahamAngle And this Kentucky scumbag BLOCKED the nomination of Merrick Garland for one f\u2026 https://t.co/sFxdEmDbOX
p196
aV@MSNBC Shows Trump\u2019s LIE.  He limited the scope AND said FBI was free to interview anyone knowing this was against\u2026 https://t.co/TatZtZ1FJB
p197
aV@FoxNews @SenTedCruz @POTUS And you are one bitter partisan and phony.  Liar.
p198
aV@washingtonpost Did anybody be analyze Timmy Gaudette\u2019s Family home in Rockville MD to see if Dr Ford\u2019s description\u2026 https://t.co/h73i8OMHCo
p199
aV@realDonaldTrump You\u2019re nothing but a Dicktator wanting the control the courts AG Justice.  You are tearing down de\u2026 https://t.co/FKFBCPgchX
p200
aV@McCormickJohn @CrainsChicago This is the most stupid statement ever coming from FOP.  The cop executed Mcdonald in\u2026 https://t.co/QhJj8cy2oq
p201
aV@nytimes The Master Divider has ruined America and its bipartisanship.
p202
aV@realDonaldTrump Screw you, Tax Fraud Cheat.  Big Blowhard Cheeto Head isxdesoucabke. Vote in November.  He is ruin\u2026 https://t.co/559UqAzGaL
p203
aV@washingtonpost Fatso is full of crap - it is Democratic to oppose.  That\u2019s what free speech means.
p204
aVRT @MichaelAvenatti: The FBI investigation was no investigation at all. @realDonaldTrump, @senatemajldr and @ChuckGrassley ensured that num\u2026
p205
aV@realDonaldTrump Kavanaugh is a low life scum who does not belong on the SC
p206
aV@washingtonpost Trump Jr is as sick and despicable as his horrible male parent.
p207
aV@nick_ramsey Yes take the Orange Subhuman out and euthanize him.
p208
aV@Acosta Jim - How do you keep your sanity covering no this despicable sub human who bullies insults and harms every\u2026 https://t.co/DAvg0uH3LC
p209
aV@CeciliaVega I\u2019m so proud of how you conducted yourself so professionally.  You are an excellent reporter - no idea\u2026 https://t.co/x0EBYYzdEg
p210
aV@washingtonpost Everyone - please VOTE in November to send a message to this misogynistic insulting narcissist.  He\u2026 https://t.co/gNTRUImvIv
p211
aV@realDonaldTrump Kavanaugh lied about \u201cBoof\u201d anal sex not flatulence/farting; and \u201cDevil\u2019s Triangle\u201d 2 men 1 woman\u2026 https://t.co/trabfvFKtD
p212
aV@Reuters I learned from the Urban Slang Dictionary: "Boofed" = anal sex.  "Devil's Triangle" = threesome 2 men and\u2026 https://t.co/ZAwFZ8ivnY
p213
aV@MichaelAvenatti I found that Urban Slang Dictionary: "Boofed" = anal sex.  "Devil's Triangle" = threesome 2 men an\u2026 https://t.co/dBrsWCJsQb
p214
aV@lisamurkowski Fact:  Kavanaughlied to SJComm.  Urban Slang Dictionary: "Boofed" = anal sex.  "Devil's Triangle" =\u2026 https://t.co/6BgFgWUTIC
p215
aV@SenatorLeahy Fact:  Kavanaugh lied to SJComm.  Urban Slang Dictionary: "Boofed" = anal sex.  "Devil's Triangle" =\u2026 https://t.co/nC1y1RQGZI
p216
aV@McConnellPress Fact:  Kavanaugh lied to SJComm.  Urban Slang Dictionary: "Boofed" = anal sex.  "Devil's Triangle"\u2026 https://t.co/iVBwxLSq34
p217
aV@SenMikeLeeFact:  Kavanaugh lied to SJComm.  Urban Slang Dictionary: "Boofed" = anal sex.  "Devil's Triangle" = thr\u2026 https://t.co/glVQ3wEK7r
p218
aV@SenRubioPress Fact:  Kavanaughlied to SJComm.  Urban Slang Dictionary: "Boofed" = anal sex.  "Devil's Triangle" =\u2026 https://t.co/WAhoPrw8bg
p219
aV@SenTedCruz Fact:  Kavanaughlied to SJComm.  Urban Slang Dictionary: "Boofed" = anal sex.  "Devil's Triangle" = thr\u2026 https://t.co/d34CwD8fRO
p220
aV@SenSchumer Fact:  Kavanaugh lied to SJComm.  Urban Slang Dictionary: "Boofed" = anal sex.  "Devil's Triangle" = th\u2026 https://t.co/Ueite9CjSQ
p221
aV@SenBobCorker Fact:  Kavanaughlied to SJComm.  Urban Slang Dictionary: "Boofed" = anal sex.  "Devil's Triangle" = t\u2026 https://t.co/j5sRHAFXoB
p222
aV@ChuckGrassley Fact:  Kavanaugh lied to SJComm.  Urban Slang Dictionary: "Boofed" = anal sex.  "Devil's Triangle" =\u2026 https://t.co/7aLEgBAfiV
p223
aV@JeffFlake Fact:  Kavanaugh lied to SJComm.  Urban Slang Dictionary: "Boofed" = anal sex.  "Devil's Triangle" = thr\u2026 https://t.co/RcvZslNWty
p224
aV@Acosta Fact:  Kavanaughlied to SJComm.  Urban Slang Dictionary: "Boofed" = anal sex.  "Devil's Triangle" = threeso\u2026 https://t.co/lyUryD2ytc
p225
aV@ABC Fact:  Kavanaughlied to SJComm.  Urban Slang Dictionary: "Boofed" = anal sex.  "Devil's Triangle" = threesome\u2026 https://t.co/QSKIxocj8f
p226
aV@SenFeinstein  Fact that K lied to SJComm.  Urban Slang Dictionary: "Boofed" = anal sex.  "Devil's Triangle" = thre\u2026 https://t.co/TLV5z9Zbi0
p227
aVRT @Marmel: "Stormy Daniels' Lawyer."\u000aYou mean the guy who represents the woman who was paid $130K to cover up an affair with the President\u2026
p228
aVRT @StarJonesEsq: Ya\u2019ll need to stop calling @MichaelAvenatti the \u201cporn lawyer.\u201d  Most people think it is MUCH worse to screw a pornstar wi\u2026
p229
aV@FoxNews @POTUS @foxnewsnight Ford was truthful identifying Kavanaugh as her attacker.  Kavanaugh party boy was so\u2026 https://t.co/KanmQq6kgO
p230
aV@FoxNews @KellyannePolls @POTUS @IngrahamAngle People agree that Ford was truthful that her attacker was Kavanaugh,\u2026 https://t.co/ijwvOXF19K
p231
aV@ABC Sorry they were definitely laughing at you!   Duh.  Your narc ego is blind to reality.
p232
aVRT @MichaelAvenatti: Trump is a moron. He knows nothing about me or my client. He is trying to divert attention away from Julie as a smokes\u2026
p233
aVRT @MichaelAvenatti: Trump pretends he is a tough guy. He is nothing of the kind. He grew up spoiled with a silver spoon in his mouth and a\u2026
p234
aVRT @MichaelAvenatti: Brett Kavanaugh is a liar. His \u201cI was just an innocent boy\u201d claims on Fox are laughable and an insult to any American\u2026
p235
aV@MSNBC Scum Trump is trying to change what he told Lester Holt.  Sick bunch of lying Republicans.  Vote in November\u2026 https://t.co/TIbcAd7cq6
p236
aV@washingtonpost This is sick. Hearing this shows how despicable some \u201cprofessional police officers\u201d can be.  Arrest\u2026 https://t.co/WMIp6oUYhV
p237
aV@FoxNews @realDonaldTrump Trump is just a con showman and NOT a leader of the USA.   What a frigging loser, liar, s\u2026 https://t.co/AAnxZ6xysm
p238
aV@IvankaTrump @POTUS @Walmart Go back to your ivory tower.   Why haven't you spoken out about your dear sweet Dad's\u2026 https://t.co/ZVnaQw3wII
p239
aV@realDonaldTrump See if you can sneak away to find another porn star to screw and then dent it happened.  Is Melania fed up yet?
p240
aV@ABC If Kavanaugh was innocent, he would welcome an FBI investigation to clear him.  If Dr Ford made this upshe wou\u2026 https://t.co/3k1wZaYbRB
p241
aV@washingtonpost What a disgusting and despicable subhuman.   Just unbelievable at this time. It shows that Republic\u2026 https://t.co/DlBg0BgynG
p242
aV@washingtonpost Think about this.  If innocent Kavanaugh would want an FBI investigation. And if not truthful, why\u2026 https://t.co/4pjLbj6LIY
p243
aV@FoxNews @ChuckGrassley Put yourself in Kavanaugh's place. If you were innocent, you would demand the FBI open an i\u2026 https://t.co/NjlxQ0kbQ4
p244
aV@FoxNews @sendavidperdue @foxandfriends Put yourself in Kavanaugh's place.  If you were innocent, you would want an\u2026 https://t.co/i4yvOvUWPS
p245
aV@MSNBC All of these clowns are disgusting.  They are a definite threat to Democracy.  Vote Blue in November.
p246
aV@FoxNews No doubt that Kavanaugh is GUILTY.  Simple reasoning.  If he were actually innocent, he would DEMAND that\u2026 https://t.co/DJHyfVQHqd
p247
aV@MSNBC @MaddowBlog Kavanaugh is GUILTY.   If he were innocent, he would DEMAND the White House tell the FBI to inve\u2026 https://t.co/qDs3JjdHnE
p248
aV@ABC Moron son like Drumpf both born with a silver foot on their mouth.
p249
aV@tedcruz Con Man Deceptive Cruz has joined Drumpf in sinking to a new low by sending Fake Summons to get political\u2026 https://t.co/Mhzc45d0Xv
p250
aV@ABC What a scum bag hypocrite!
p251
aV@nytimes Everyone - retweet this!  This is disgusting and shows what the future is for combatant, never give up Drumpf.
p252
aV@realDonaldTrump Trump sells his soul for money.  He believes money is the value in life. So sick.  He's never done\u2026 https://t.co/HaacnAKkc8
p253
aV@FoxNews @GreggJarrett @POTUS Gregg Jarrett has completely become a Trump Fox Agent -- this is why I stopped watchi\u2026 https://t.co/KpDySEM2lq
p254
aV@cnni Drumpf loves his ICE Deportation Police, but allows this to happen!
p255
aV@MSNBC But...President Scumbag denied his affair and said NO many times.  Now he is admitting it!!!   No wonder he\u2026 https://t.co/SYcNlQGDTG
p256
aV@realDonaldTrump As a former Republican, Trump IS an idiot, moron and despicable by referring to workers paid by th\u2026 https://t.co/uw57asgQsU
p257
aV@ABC Trump is afraid of Avenatti who has an IQ far above him and who will nail his ass in a deposition.  Trump has\u2026 https://t.co/gC22pOfKkb
p258
aV@FoxNews @VP Trump is THE assault on our democracy!   and you are complicit!
p259
aV@realDonaldTrump Trump lies again. The protests are NOT against the flag or patriotism. They are against police bru\u2026 https://t.co/uR9izXwEDF
p260
aV@realDonaldTrump Trump just deleted his tweet where he misspelled Obama\u2019s name as \u201cBarrack\u201d instead of the correct\u2026 https://t.co/y1sV3A56xf
p261
aV@realDonaldTrump Guess your best words have no idea how to spell them.  It\u2019s Barack with 1 r Pres Scumbag. You fucking Malignant Narcissist.
p262
aV@realDonaldTrump @nytimes Yes but the Republican Party is shrinking -/now down to 23% of all voters.  The drop is d\u2026 https://t.co/nnFb0DvXII
p263
aV@realDonaldTrump First put your money where your big fucking mouth is \u2014 Make YOUR Trump brand clothes on the US and\u2026 https://t.co/PRIKp8ysrc
p264
aV@FoxNews @RudyGiuliani @Comey @POTUS No - go back there school.  He cannot fire Comey b/c of the Rusdisn investigat\u2026 https://t.co/G9PWZEXQGU
p265
aV@realDonaldTrump The walls are smashing in on him.
p266
aV@realDonaldTrump What the f is Cheetohead tweeting?  Clueless fakes President.
p267
aV@realDonaldTrump I didn\u2019t know Trump knew how to cut and paste his standard recommendations.   Oh wait Ivanka helped him do it.
p268
aV@MSNBC K - will be there at 7:45
p269
aV@MSNBC Absolutely the victim was backing away.  Execution white on black.  Horrible and despicable that Sheriff Bob\u2026 https://t.co/WuOsJNmqQ6
p270
aV@MSNBC Trump is trying to DEFLECT today from: (1) Papadopoulos saying he knows Trump wanted to meet with Putin befo\u2026 https://t.co/dkY8OjxjSZ
p271
aV@FoxNews @POTUS Wrong. Workers are doing worse with declining real wages and higher insurance costs. I used to supp\u2026 https://t.co/LGe1R6jPQk
p272
aV@MSNBC Hey Robert Mueller -- clearly Trump is again obstructing justice.  He has no regard for the law period.  Ano\u2026 https://t.co/hHtJdoCJ7c
p273
aV@realDonaldTrump Is this scumbag for real?   What a complete narcissistic megalomaniacal excuse for a US President.\u2026 https://t.co/4ltM8utj3N
p274
aV@WhiteHouse @POTUS Trump will workers b/c he is screwing them big time.  They have lost wages and now pay more for\u2026 https://t.co/p37kPiFu6H
p275
aV@WhiteHouse @POTUS True but YOU are against helping workers like slashing pay for Federal workers and no wage gains\u2026 https://t.co/sqpKhBVTVF
p276
aV@FoxNews @POTUS Another MAJOR LIE BY TRUMP. Wages have dropped 4% after a nglation because of higher health insuran\u2026 https://t.co/388ZRcPfIO
p277
aV@realDonaldTrump You\u2019re like Jordan Belfort of Wolf of Wall Street \u2014 Lying to us hit personal gain.  Fact is you wi\u2026 https://t.co/HtB9xVKoMm
p278
aV@realDonaldTrump Your actions are hurting workers and the middle class.  You are misleading and lying to us.  You h\u2026 https://t.co/NmlfXVzGMc
p279
aV@FoxNews @SteveHiltonx @NancyPelosi @NextRevFNC Trump has screwed the middle class and is now screwing Federal work\u2026 https://t.co/pZNYh87Sz9
p280
aV@FoxNews Trumo was a Democrat and really hated the Republican Party.   Wow. https://t.co/KUysNyggV4
p281
aV@FoxNews @POTUS Trump thinks Republicans are stupid. https://t.co/ytHsGQuKzy
p282
aV@davidhogg111 Great going, David.  You have a bright future in honest politics.
p283
aV@IvankaTrump @WSJ Ivanka is despicable to claim this when her Con Baby Daddy is \u201cstudying\u201d how to take back Federal\u2026 https://t.co/K85nk1mops
p284
aV@AllenJamieC @FoxNews @POTUS @Garrett_FoxNews Perfectly stated!
p285
aV@FoxNews @POTUS @Garrett_FoxNews This abuse of power against our institutions is one reason I am no longer a Republ\u2026 https://t.co/Jxxut31ABR
p286
aV@realDonaldTrump Hey you\u2019re supposed to be \u201cstudying\u201d how to justify your decision to slap government workers in th\u2026 https://t.co/BFNG8lagRC
p287
aV@FoxNews @BarackObama Statesman Obama versus Bullying Carnival Barker Trump \u2014 we deeply miss  you Barack.  You brou\u2026 https://t.co/IxX4xX9L4x
p288
aV@cnni Trump is like a pair of brown shoes with a tuxedo.
p289
aV@FoxNews Trump loves Dictator Duterte. One reason I am no longer a Republican.  Other friends have also dropped out\u2026 https://t.co/g24QArdaoj
p290
aV@FoxNews @realDonaldTrump @IngrahamAngle I decided to drop out of the Republican Party and am now an Independent du\u2026 https://t.co/rrckQWNpN5
p291
aV@realDonaldTrump Must be nervous as he misspelled "Barrack" - easy way to tell his tweets vs those of his staff.
p292
aV@MSNBC This is why I am no longer a Republican. He issues outrageous statements and afterwards, he tries to underst\u2026 https://t.co/YGTFxNzsT1
p293
aV@realDonaldTrump Due to Trump's despicable bullying of the World and dividing our nation, I decided to no longer be\u2026 https://t.co/8JfmRS3UCe
p294
aV@realDonaldTrump Sick guy.
p295
aV@FoxNews @RepDaveBrat Hello - it was George W Bush who brought us into the Great Recession.  Nice try blaming Dems.\u2026 https://t.co/JxqVFZCNbS
p296
aV@SteveMahan4 @MSNBC Amen but we must stay focused.
p297
aV@MSNBC Ha ha ha ha -this proves Russian Collusion!   Lock the scumbag up so his orange hair matches his jail jump suit.
p298
aV@cnni And he should also take a 3rd grade spelling class: council, precedent - god what a scum with the worst words.
p299
aV@FoxNews @POTUS Let the scum stay there.  I quit the Republican Party b/c of his hatred and dividing us.  Now Indeo\u2026 https://t.co/FMA10rxGCz
p300
aV@realDonaldTrump You are spot on, Cindy.  Not enuf words to describe this scum.
p301
aVRT @atxcindy: @realDonaldTrump What an insensitive jerk you are, holding an ego rally while the nation mourns a true American hero. You can\u2026
p302
aV@realDonaldTrump Your big bully\u2019s my mouth should be washed out and taped shut.  We\u2019re sick of you Mr Fake Presiden\u2026 https://t.co/USX3AQj91x
p303
aV@realDonaldTrump Vote for Beto as the Blue Wave rolls on.
p304
aV@FoxNews What an a-hole piece of scum.   Subhuman and despicable loser owned by Russia.
p305
aV@washingtonpost Carsten is right that Trump is an autocrat just like bin Laden.
p306
aV@Reuters Yes agree his Sandy Hook statements are subhuman.  How would he feel@I\u2019d his child were decapitated by an AK47?
p307
aV@FoxNews Thank God for Thomas Prado.  Yes - retest all 90 year olds.  Family must intervene.
p308
aV@FoxNews @POTUS Orange jail jump suit will complement his orange face and hair.  Lock the scumbag up before he dest\u2026 https://t.co/jR6ozHljOy
p309
aV@Reuters Uh oh deflecting from Cohen Manafort Pecker and the Trump Org execs making an immunity deal with Mueller.\u2026 https://t.co/OmBlxboagI
p310
aV@Reuters Fuck the Man Baby Bully.  Sad that he can only divide and will never be able to unite. Despicable subhuman.  Vote in November.
p311
aVAbsolutely. In a normal corporation, the predator would be terminated immediately.  Congress is as corrupt as Fraud\u2026 https://t.co/8cE57quxwM
p312
aV@realDonaldTrump Bull crap Mr Lying Fraud Con Man - if you\u2019re innocent then why do you interfere and obstruct the S\u2026 https://t.co/rHMwiPVCKv
p313
aV@realDonaldTrump Look in the mirror Mr Scumbag and see how you used your two phony sources John Barron and John Mil\u2026 https://t.co/FlMNpF89m1
p314
aV@Morning_Joe @MSNBC He\u2019s a scumbag.  Vote and motivate others to go to the voting booth at n November.  Urge Millenials to vote.
p315
aV@GenMhayden Trump is just a con man who attacks to defend his narcissistic self.  Simple as that. He is NOT qualifi\u2026 https://t.co/kSaFoKy5NG
p316
aV@juliehdavis @nytimes @shearm Due to the ugly nature of Trump and his Replublican Party, I am now an Independent.\u2026 https://t.co/5T5pRa0XDj
p317
aV@realDonaldTrump @LouDobbs What the heck you talking no about???   He\u2019s been their WORST ENEMY!  Your spin is despicable as is trump.
p318
aVSpot on.  Next week Hong we have to get rid of any Irange Cheetoheads who insult and defame wonderful people but sc\u2026 https://t.co/5wHQbcEd7i
p319
aVRT @communitative: @ABC @karentravers @jonkarl Those were the days, my friend.  We thought they\u2019d never end.#AmericanHero #Obama #McCain ht\u2026
p320
aV@ABC @jonkarl Because he is a little grade school baby who bullies everyone.  Despicable excuse for a human.   Vote in November.
p321
aV@cnni @CillizzaCNN Of course he is a fraud con man. Duh.
p322
aV@APBusiness @AP Trump has decimated the CFPB so big banks and rip off for-profit \u201ccolleges\u201d can Saddle students wit\u2026 https://t.co/zFCokzWKjr
p323
aVRT @MSNBC: WATCH: President Trump declines to comment when asked multiple times in the Oval Office for his thoughts on the death of John Mc\u2026
p324
aV@HenryChambless @FoxNews @realDonaldTrump You don\u2019t understand that he has completed nothing. Mexico does not agree\u2026 https://t.co/ggNSuH1x8o
p325
aVTrump violated SEC law with his Trump Casinos https://t.co/zsXb04G3v3
p326
aV@FilmmakerJulie War Hero John McCain saud he did NOT want Trump at his funeral.   Little Shitler said he did not li\u2026 https://t.co/cdrlSa2rNt
p327
aV@CNBC Even more outrageous that he has been.  This horrible statement from the nation\u2019s Chief Executive.  Moronic M\u2026 https://t.co/nncQeuchGK
p328
aV@ErinBurnett Congratulations, Erin!  Cute kids - we LOVE you!!!
p329
aVSpot on.  Barack was the BEST and saved the US (and Trump) from total bankruptcy.  Make sure others vote in Novembe\u2026 https://t.co/gUgV65Bbeu
p330
aV@FoxNews @TeamCavuto Thank you to President Obama for saving  everyone from the Great 2008 Depression caused by Pre\u2026 https://t.co/SUkbJ5Rj2B
p331
aV@washingtonpost Plays well to his racist base.
p332
aV@realDonaldTrump You\u2019re not believeable.  I quit because no a Republican because if all of his outright lies from b\u2026 https://t.co/2jcp7ESGy2
p333
aV@FoxNews @JessicaTarlov His salesmanship is bs.  How about the earth is flat, the earth is flat, believe me.  What\u2026 https://t.co/dRycbL7LUq
p334
aV@nowthisnews Fire that cop for racial profiling.
p335
aV@realDonaldTrump What???  No misspellings or grammar errors.  Who the heck wrote this for the child President?
p336
aV@realDonaldTrump Stay in Washington and read some policy.  Trump dies not read and dies nor have the best words - a\u2026 https://t.co/ooy3V7oFau
p337
aV@realDonaldTrump @foxandfriends Your vanity knows know bounds.  I quit being a Republican and am now an Independent. Vote in November.
p338
aV@ABC Come to the microphone, Melania. She speaks real good English. Hey what you saying Willis?
p339
aV@PeterRoskam I can no longer support Roskam who fails to care about his district.  I now support Sean Casten as he\u2026 https://t.co/bxDaaUtRu7
p340
aV@The_Trump_Train @realDonaldTrump @FoxNews Make America Presidential Again.  Vote in November.
p341
aV@realDonaldTrump @FoxNews Uh oh - trump changing the narrative again.  Time for another true and honest tape from O\u2026 https://t.co/Kyo8N45Tks
p342
aV@realDonaldTrump You\u2019re going down Mr Fake President Scum. Lock him up.
p343
aV@elonmusk @ariannahuff Tesla will file for bankruptcy within three years.  It\u2019s cash burn and only losing $ since i\u2026 https://t.co/GqmNII8TyP
p344
aVRT @MaddowBlog: Brennan: Trump has crossed the line repeatedly in terms of his failure to fulfill the responsibility of the office. https:/\u2026
p345
aVRT @sirDukeDevin: Trump is going on this morning about the dangers of censorship while he uses NDAs to silence his staff, revokes security\u2026
p346
aV@SenWarren Trumps has children\u2019s BLOOD on his hands. Imagined f little Barron was blown up by a bomb??!!
p347
aV@FoxBusiness @FoxNews @HaleyBarbour Haley Barbour is an outright LIAR and must be held accountable.  Another lying by politician.
p348
aV@FoxBusiness @FoxNews @HaleyBarbour Now THAT is a bald faced lie.  Obama had six quarters of 4.0+% GDP growth \u2014 Tru\u2026 https://t.co/dacYjiDdNG
p349
aV@FoxNews @realDonaldTrump trump is destroying American intell fence just as Putin wants him to do.  Russia owns him\u2026 https://t.co/mHMswr7CGS
p350
aV@FoxNews @SenatorTimScott He HAS collided with 58 indictments of people associated with the Trump group.  He\u2019s owne\u2026 https://t.co/Cj21CwlFKh
p351
aV@FoxNews @realDonaldTrump He\u2019s full of crap.  Obama created MORE jobs than trump has in a monthly comparison.  And\u2026 https://t.co/UiTNuxdl4Z
p352
aV@realDonaldTrump Make America Presidential Again.  Stop supporting trump who is actually a Russian puppet. Fact. He\u2026 https://t.co/KMFJCWhNJm
p353
aV@realDonaldTrump Russian mafia oligarchs have paid trump off to act in Russia\u2019s best interests. Example: Russian ol\u2026 https://t.co/pQXH9bEyYe
p354
aV@realDonaldTrump trump has transferred $1,400,000,000 to the rich upper class and corporations and left taxpayers t\u2026 https://t.co/LPHLKBHauT
p355
aV@PeterRoskam You\u2019ve paid zero attention to your district. Vote for Sean Casten.
p356
aV@MSNBC @AriMelber Who gives a crap about Bannon?  His 15 minutes were over months ago.  A has been shill for the Ru\u2026 https://t.co/1P4he1cOL4
p357
aV@AP He is a Russian asset trying to destroy America.  Clear to everyone.  Tearing down all American institutions.\u2026 https://t.co/GPKw0X8Zoc
p358
aV@ABC I have quit the Republican Party and am now an Independent.  I will NOT vote for a dictator and tyrant as Trump any more.
p359
aV@realDonaldTrump CEO scum want LESS transparency to hide their screwups yet still take their life scene amounts of compensation.
p360
aV@ABC Anyone asking why Laura, Eric Trump\u2019s wife, is empowered to bribe Omarosa?   Shouldn\u2019t trump be the person off\u2026 https://t.co/V5xlPIOMs1
p361
aV@WhiteHouse @POTUS Melania cannot control her husband man baby who violates her by continuing to bully and insult others.
p362
aV@FoxNews @kayleighmcenany As a disgusted Republican, I am now an Independent.  Trump is destroying America and Im s\u2026 https://t.co/iGoG5LcdQ7
p363
aV@MSNBC @MaddowBlog She is just a lying shill with zero credibility.
p364
aVRT @IndivisibleVV: @realDonaldTrump The Free Press is the Loyal Opposition  to tyranny, to deeds done in darkness. The Free Press as Loyal\u2026
p365
aV@realDonaldTrump You are a traitor and Russian asset scum.
p366
aV@realDonaldTrump Liar. trump is a carnival barker who has done nothing.  I\u2019m an angry Republican who cannot support\u2026 https://t.co/OqJt8jB14m
p367
aV@realDonaldTrump Trump is a wannabe tyrant, despot, dictator and Russian asset as he destroys American institutions\u2026 https://t.co/aHlu3EKGX8
p368
aV@realDonaldTrump Who writes your tweets?  Too eloquent fir the orange moron.
p369
aV@ABC She is a disgusting person so no wonder she shills for trump.
p370
aV@realDonaldTrump Stick it trump.  I used to be a Republican but am so ashamed of you destroying America that I am n\u2026 https://t.co/PLERuXwMKi
p371
aV@FoxNews @CIA @JohnBrennan @POTUS I used to be a Republican, but I am ashamed of Trump creating an enemies list and\u2026 https://t.co/ojLcrJJei5
p372
aV@MSNBC @Lawrence This despicable scum is destroying America.  Stop him now.
p373
aV@MSNBC @SRuhle He\u2019s a moronic scum who is indeed a Russian backed asset as you will soon see.
p374
aV@MSNBC Ya think???   Duh.  And Congress has failed citizens in any checks and balances ifvthis despicabke scum trum\u2026 https://t.co/NTSSdHyK2k
p375
aV@Rasmussen_Poll @realDonaldTrump @POTUS Bull crap.  It\u2019s like 1%
p376
aV@MSNBC @VelshiRuhle Sanders is racist like trump and her father.
p377
aV@nytimes Kenan is the BEST!
p378
aV@NBCPolitics @MSNBC Scumball Mnuichen is trump\u2019s water boy so he dies anything the scum trump wants him to.  Vote for Morality in November.
p379
aV@MaddowBlog @MSNBC Crooked trump is nothing but a money grabbing fraud con man.   Corruption is his middle name.
p380
aV@MSNBC The answer is Zero African-Americans because Trump is an outright racist now and back when he denied them re\u2026 https://t.co/ByT0Qx4MBB
p381
aV@realDonaldTrump When he sees the walls are closing in, the scum lashes out with his unPresidential insults and bul\u2026 https://t.co/NZ3IlVvXeD
p382
aV@realDonaldTrump You cannot bully the World, little boy Trump.  You\u2019re a chickencrap fake President.  Everyone know\u2026 https://t.co/eKLDYaxPxU
p383
aV@FoxNews America with Trump is NOT exceptional.   He\u2019s a con man fraud.
p384
aV@realDonaldTrump Trumps sucks. Fake con man boy President is a playground bully.  Lock the sob up.
p385
aV@realDonaldTrump Trump is scared stiff of Mueller.  His shill Rudy is a joke and fellow con man.  Trump is destroyi\u2026 https://t.co/R6JVhgcDeG
p386
aV@AP The Catholic Church fails to stop these sec predators disguised in robes and a collar.  Disgusting.
p387
aV@FoxNews @PressSec @realDonaldTrump Trump nothing but a horrible racist scum.    The Blue Wave will cause him to resign.
p388
aVRT @Woodyman502: @FoxNews @seanhannity https://t.co/7f8pPUIIBQ
p389
aV@FoxNews @seanhannity Shut up, you fat disgusting non-news carnival barker Russia\u2019s asset and our fake President Dr\u2026 https://t.co/SdGjvJr7Az
p390
aV@Reuters What a piece of scum our fake President is.   He is a 5 year old child and playground bully.  Vote in Nove\u2026 https://t.co/TDNmlZcdK1
p391
aV@IvankaTrump Your Father is a fraud and insulting con man. I pity you fir having this scum bully as your Farher.
p392
aV@realDonaldTrump Drumpf is scared out of pants!!!   Only GUILTY people act like he does to attack a prosecutor.  In\u2026 https://t.co/0AlDOJuJ7R
p393
aV@realDonaldTrump @foxandfriends Innocent Drumpf should not fear Mueller it Omarosa for telling the truth about the\u2026 https://t.co/jipGyKgHC1
p394
aV@realDonaldTrump Trump is a pig.
p395
aVAbsolutely you are spot on correct! https://t.co/b3onE15mhp
p396
aV@SheriffPinellas Sheriff Bob Gualtieri must resign for his horribly incorrect decision not to file charges in the m\u2026 https://t.co/wMpUrnytf9
p397
aV@realDonaldTrump Drumpf is taking America down due to his beautiful my a bully.
p398
aV@FoxNews @POTUS Liar.
p399
aV@FoxNews @POTUS @NYGovCuomo Drumpf is just a despicable chicken crap bully.  Sick America voted for this clown.  Run Melania Run.
p400
aV@carlosplz @Reuters You\u2019re sick.  The victim was retreating away and was gunned down on cold blood.
p401
aV@Reuters Thank God. Cold blooded murder of a man backing away. Another example of a guy played no neighborhood watc\u2026 https://t.co/nw21kPyeLQ
p402
aVRT @TheBeatWithAri: Fact check: Watch Giuliani contradict himself on whether Trump met with Comey to ask him to give Michael Flynn "a break\u2026
p403
aV@washingtonpost John Kasich has morals as opposed to Drumpf who is the preeminent immoral and despicable moronic fake President. .
p404
aV@realDonaldTrump Who gives a crap about you, Drumpf?  And that was your Grandfather\u2019s real name!!!
p405
aV@FoxNews Fox News has helped to destroy the FBI.  Hope those non-patriots are proud of their actions.
p406
aV@ABC Are you embalmed or just look like a dead man?
p407
aV@ABC Trump is a piece of rotten garbage.  A fake President who is the most despicable non-patriot in America.
p408
aV@DeadlineWH @MSNBC @NicolleDWallace Trump and his band of suck-up anti- patriotic Republicans has destroyed our FBI\u2026 https://t.co/nejywO4FKF
p409
aVRT @shroats: @DeadlineWH @NicolleDWallace The FBI agent is a HERO !
p410
aV@washingtonpost Thus murder was despicable.  The scum should be executed for his cold blooded murder as the victim\u2026 https://t.co/zABmbg5Jwj
p411
aV@washingtonpost Stephen Miller is an affront and embarrassment to those of the Jewsh faith.  Has this little scum e\u2026 https://t.co/lVGB0ZZdR2
p412
aVRT @MichelleSkime: @realDonaldTrump https://t.co/aaoCgTKg6B
p413
aV@realDonaldTrump Trump on the recorded phone call said he LOVED her. What a friggin LIAR Trump is!!!
p414
aVRT @nytimes: In Opinion\u000a\u000aThe Editorial Board writes: "Many Republicans seem to realize that the tax cut has become a political liability, w\u2026
p415
aV@AP_Politics @AP Shine is disgusting.   Trump has zero shame as we know do little wonder he hired Shine.
p416
aV@FoxNews Lewandowski\u2019s 15 minutes of fame have expired. Exit stage please.
p417
aV@FoxNews Players are not protesting against America. They are protesting racism and police brutality against minorities.  I agree with them.
p418
aVRT @trumpanhator: @realDonaldTrump https://t.co/gPcQaLCyjv
p419
aVRT @MSNBC: Omarosa claims in her new book that President Trump is a "racist" who used the N-word and tried to buy her silence. https://t.co\u2026
p420
aV@FoxNews @Judgenap @POTUS Lock Donnie Jr. up.  He lied that he never spoke with his Father about the meeting.  Trum\u2026 https://t.co/3qSmiszzPF
p421
aVRT @BernieSanders: A great nation is judged not by how many millionaires and billionaires it has, but by how it treats the weakest and most\u2026
p422
aV@AAN @PeterRoskam Roskam does not care about you or me as everyday voters.  He IGNORES us \u2014 can never reach him at\u2026 https://t.co/RC5tkBi0Ey
p423
aV@realDonaldTrump Media must call this liar out when he misrepresents as he is doing with this tweet.   Help non vot\u2026 https://t.co/6lTJiVqxxt
p424
aVRT @ChrisJZullo: @realDonaldTrump You\u2019re such a liar https://t.co/NyDKMSUid7
p425
aVRT @Indymimi2: @realDonaldTrump Tweets from POTUS are a great example of how someone with a Persistent Persecutory Delusional Disorder woul\u2026
p426
aVRT @aguiareden: @realDonaldTrump Yeah, I like how you try to push the blame onto others like a child. You\u2019re clearly guilty of treason and\u2026
p427
aV@realDonaldTrump LIAR - of course your little Donnie Boy would keep you informed.  One more BIG LIE from Comrade Tr\u2026 https://t.co/9UxfFaybbK
p428
aV@realDonaldTrump Comrade Trump - you must be scared as the evidence is against you.  Guilty people argue as you do.\u2026 https://t.co/SDXstdiAR4
p429
aVRT @MichaelAvenatti: \u201cPromises Kept\u201d? Tell that to the thousands of workers that have lost their jobs at the Lordstown Ohio GM plant in the\u2026
p430
aV@realDonaldTrump Encourage non- voters to vote in November.  Say no to the fake Russian backed fake President.   MA\u2026 https://t.co/BTGcpg7J4M
p431
aVRT @MarkHarrisNYC: The LeBron James tweet is not minor. The President of the United States, a long-proven racist, used his platform to atta\u2026
p432
aV@ABC Sarah is a whore not in the literal sense but that she sells her soul for Comrade Trump.  No way she believes\u2026 https://t.co/H0OZGQHfT9
p433
aV@RenaeLe44388953 @ABC @JimAcosta Agree 110%.  Encourage five non-voters to actually vote on in November to take the House back.
p434
aV@Mikeysurf @ABC You are spot on.  He should be charged with treason for violating his oath.
p435
aV@DjMaxamill @ABC Agree. Have all reporters walk out and just have one rotating press pool reporter.  Take away his juice.
p436
aV@realDonaldTrump MAMA - Make America Moral Again.  Help a non-voter register to vote so he/she can VOTE in November\u2026 https://t.co/EA9jTZzkSu
p437
aV@FoxNews @POTUS All this immoral scum is concerned with is money.  Russia has loaned him money to stay afloat and h\u2026 https://t.co/NYvidHQZ9t
p438
aVRT @keithboykin: In Trump's World:\u000aObama: Kenyan\u000aLeBron James: dumb\u000aDon Lemon: dumb\u000aMaxine Waters: low IQ\u000ablack countries: shitholes\u000ablack\u2026
p439
aV@FoxNews Now that is really Fake News.  fix is not News - it is an Entertainment Show.
p440
aV@FoxNews Bring Barack back and Make America Moral Again.
p441
aVRT @TalbertSwan: .\u2066@KingJames\u2069 married his high school sweetheart. He has 3 children by 1 woman. He has more morality in his pinky toe than\u2026
p442
aV@realDonaldTrump YOU are theEnemy of the People. Everyone help register new voters.  Vote in November.  Show Trump\u2026 https://t.co/lQjsjUtt7u
p443
aV@FoxNews LeBron helps students and builds schools. Trump defrauds students thru his scam Trump \u201cUniversity\u201d - payin\u2026 https://t.co/UNkjIQxoD7
p444
aV@realDonaldTrump Action Plan:  help others register to vote on November.  MAMA Make America Moral Again.  This raci\u2026 https://t.co/ZMUTnoZbI1
p445
aVRT @DayGypsytejas: @realDonaldTrump LeBron puts children through school. Trump puts children in cages.\u000a\u000aWho's the better man? \u000a\u000a#WhereAreTh\u2026
p446
aVRT @signorex3: @realDonaldTrump  https://t.co/7CM6cvs7ah
p447
aV@MichaelAvenatti MAMA - Make America Moral Again - Fire Trump - Vote in November.
p448
aV@ABC @CeciliaVega He is out of touch with the real America.   Hiring immigrants to serve him fancy meals proves that.  Vote.
p449
aV@realDonaldTrump @foxandfriends Grow up and stop actually no like a little baby.  Bullies are anti-American and are\u2026 https://t.co/pTmLMaghzX
p450
aV@realDonaldTrump This immoral and sociopath is scared witless over what Allen Weisselberg will have to disclose.  H\u2026 https://t.co/n2bfj0TSaG
p451
aV@realDonaldTrump YOU are the Enemy of the People.
p452
aV@realDonaldTrump Trump is trying to go off message and try to put Russia behind him.  Innocent people do not act th\u2026 https://t.co/KrnO5bFHN4
p453
aV@realDonaldTrump Does Trump know that Mueller Comey and others are actually Republicans?  But then again he doesn\u2019t\u2026 https://t.co/IGFdRz4tUL
p454
aV@IvankaTrump @realDonaldTrump Ivanka - Go home your 15 minutes are over.
p455
aV@realDonaldTrump Since the Free Press is the foundation of our country and protected by the First Amendment, people\u2026 https://t.co/8eRtkmuNks
p456
aV@cnni Pence\u2019s People did it.
p457
aV@FoxNews @VP Embalmed Penceis a racist and anti-women.  Vote in November.
p458
aV@realDonaldTrump Uh oh - another attempt to divert and change the subject from Russia.  Ignore his tweets.  MAMA Ma\u2026 https://t.co/S7aGmch43c
p459
aV@FoxNews @VP @MariaBartiromo People are saying Pence has some adulterous affairs in his life.  Watch for it.
p460
aV@FoxNews @VP @MariaBartiromo Obama created more jobs - research it.         MAMA Make America Moral Again - Vote in\u2026 https://t.co/Iewlf5xtC1
p461
aV@FoxNews @JudgeJeanine MAMA - Make America Moral Again.  Vote in November.
p462
aV@ABC Good old boy cops having some fun.  Fire these subhumans.
p463
aV@realDonaldTrump More LIES is all he knows.
p464
aV@realDonaldTrump Of course he knew \u2014 duh MAMA Make America Moral Again. Vote in November.
p465
aV@realDonaldTrump MAMA Make America Moral Again - Vote on November.
p466
aV@realDonaldTrump Five bankruptcies and not paying honest contractors is not moral and honest.  Vote in November \u2014 M\u2026 https://t.co/GeapIpAOVf
p467
aV@realDonaldTrump @Troy_Balderson Americans please vote and help others to register. The best way to protect America\u2026 https://t.co/2Gn1pNJO65
p468
aV@realDonaldTrump Best way to protect America is to vote.  Help others register to vote.
p469
aV@realDonaldTrump Must be getting scared to deny everything\u2019s by so much.  Mueller will burn tRump\u2019s fat axx
p470
aV@realDonaldTrump You are the one who rigged the 2016 Election with Russia helping you to the fake victory.
p471
aV@realDonaldTrump Treasonous traitor.  Admit he\u2019s a Russian asset.
p472
aV@FoxNews @GovMikeHuckabee @JudgeJeanine Take your despicable daughter away as her 15 minutes has expired.
p473
aV@realDonaldTrump Our crooked Fake President is so stupid and uninformed that he doesn\u2019t know NY law requires only o\u2026 https://t.co/pIe5alnPqw
p474
aV@ABC Frigging execution murder.  Shooter was NOT on control need danger as boyfriend backed off.   Arrest and burn\u2026 https://t.co/hsDvseEXRt
p475
aV@VP @POTUS You are a frigging whore sticking taxpayers w $21,000,000 to clean up the environmental damage caused by\u2026 https://t.co/saTOlvM5Od
p476
aV@matcatkatbro @MSNBC The paper was filmed in his press conference.  The camera zoomed in to see he deleted that sen\u2026 https://t.co/TVckkWnDWU
p477
aV@Memelct5 @MSNBC Idiot - it was captured at Trump\u2019s press conference!  His dyslexia was evident as he read his remarks like an 8 year old.
p478
aV@MSNBC Colusion - looks like tRump does NOT have the \u201cbest words\u201d - EVERYONE please get this deleted sentence out i\u2026 https://t.co/Ezi7cY4IsA
p479
aV@realDonaldTrump @RepKevinYoder Liar and treasonous fake President.
p480
aVRT @CeciliaVega: Getting a lot of questions about my exchange with @realDonaldTrump today.\u000aYes, he was looking directly at me when he spoke\u2026
p481
aVRT @cnni: A former White House stenographer who quit working for US President Donald Trump after years in the Obama administration said she\u2026
p482
aV@maddow Please cover Trump\u2019s sentence deletion about bringing people to justice from his prepared comments yesterday.
p483
aV@OutFrontCNN @ErinBurnett Please expose Trump\u2019s deletion of the sentence about bringing people to justice from his\u2026 https://t.co/Cyt1ZiGcrD
p484
aV@hardball Please cover Trump\u2019s deletion of the sentence on his news conference about \u201c Bringing people to justice.\u201d\u2026 https://t.co/yRjSZO9fjk
p485
aV@realDonaldTrump No but people are saying you are in bed with Putin and doing everything he wants to help Russia against the EU.
p486
aV@realDonaldTrump How treasonous is it for even a Fake President to ATTACK two American companies for his personal g\u2026 https://t.co/wfOuW4VCT1
p487
aV@realDonaldTrump tRump's economy created less jobs in 2017 than since the Great Recession which was caused by Bush\u2026 https://t.co/pscPl7rAow
p488
aV@igneousidol @BeansTown106 @real_farmacist @realDonaldTrump With a capital I gnoramus!
p489
aV@dtnorth @BeansTown106 @real_farmacist @realDonaldTrump Spot on.
p490
aV@BeansTown106 @real_farmacist @realDonaldTrump You are one sick person -- just like tRump as a divider of America.  You are despicable.
p491
aV@Luz51264501 @realDonaldTrump Love your tweet.
p492
aV@Castterry @realDonaldTrump Wait til you cannot afford health insurance or basic needs due to his destroying America.  Mark my words.
p493
aV@scottobb74 @realDonaldTrump You are exactly right.  Like a bad bad movie.
p494
aV@ChrisJZullo @realDonaldTrump You are spot on.  Thank you for putting it all together. Midterms here we come.
p495
aV@efribeiro2 @DisabledResist @realDonaldTrump He will be outed in 2020, but he will have DESTROYED America as we kno\u2026 https://t.co/tnS9XY5qMg
p496
aV@realDonaldTrump What an absolute crock of crap.  The fake Oresident hired a scumbag swamp veteran who has destroye\u2026 https://t.co/kqsCVULqQG
p497
aV@FoxNews @MattForMontana @POTUS Effing LIAR - Resign you old orange scum.
p498
aV@ABCPolitics @ABC @KFaulders Pruitt sued EPA numerous times. His successor is a coal industry exec.  Like putting t\u2026 https://t.co/NgMhdkXAWE
p499
aV@FoxNews @realDonaldTrump LIAR - you have a deal with Russia to destroy America and its world\u2019s leadership.   tRump\u2026 https://t.co/Z8UbG8giyy
p500
aVRT @EdKrassen: @RemoveHIM @realDonaldTrump Why are you having a Chinese company make your campaign flags?  America demands answers!\u000ahttps:/\u2026
p501
aVRT @jnarls: @realDonaldTrump  https://t.co/4zC8FmPUdW
p502
aV@realDonaldTrump You don\u2019t care, do you?\u000aShut up and resign.
p503
aV@realDonaldTrump Fake Scum President \u2014 despicable moron.
p504
aV@realDonaldTrump What an effing moron and idiot!!!   Great writer - con man is more like it.  To use \u201cpore over\u201d in\u2026 https://t.co/Lyn3ENiYoO
p505
aVRT @david_cdavidt: @realDonaldTrump @realDonaldTrump, "Writing" has been  added.  \u000a\u000a Insecurities - Projectected \u005c Over compensated\u000a1. Smal\u2026
p506
aV@realDonaldTrump Moron writer - he was a C student at Penn UNDERGRAD!!!
p507
aV@RussKlettke @realDonaldTrump Right on.
p508
aVRT @RussKlettke: @realDonaldTrump Dude, you must not have money in the stock market, which is flat in 2018. And the best average monthly jo\u2026
p509
aV@realDonaldTrump LIAR Your 2017 new jobs is LESS than that for Obama in the prior years.  The stock market had a po\u2026 https://t.co/3z35gZw4dN
p510
aV@ABC Friggin Loser - she IS a racist period.
p511
aV@WashTimes @PeterRoskam @WaysandMeansGOP Roskam is a Trumper following him 94% of the time. Plus he avoids town hal\u2026 https://t.co/6tUoi2HqZS
p512
aV@Reuters If you love children, you should divorce Scum tRump and take Barron with you
p513
aV@realDonaldTrump Why don\u2019t you just play golf and shut up?
p514
aV@realDonaldTrump Spicer wants to scam us the way tRump scammed his poor students by ripping them off at his fake Tr\u2026 https://t.co/Wa3pFYk2oi
p515
aV@realDonaldTrump Fxxxing LIAR tried to do just that and LOST so he claims he never tried.  What a fxxxing loser hyp\u2026 https://t.co/BDNjCBBq71
p516
aV@realDonaldTrump @MariaBartiromo @FoxNews At 9:59 I\u2019ll switch stations to avoid seeing the Liar Scammer and shady R\u2026 https://t.co/VVFRGIvnMA
p517
aV@FoxNews @MariaBartiromo @SundayFutures @POTUS Show us your tax returns promised on 8 occasions. You never tended t\u2026 https://t.co/vnVUpnUNLN
p518
aV@GovMikeHuckabee Huckster please take Slimy Sarah and disappear from politics. Your 15 minutes of fame was over yea\u2026 https://t.co/fyJZKq0XCs
p519
aV@FoxNews @POTUS LIAR - if you had your way you would emulate Duterte and execute all of the journalists.  You invit\u2026 https://t.co/FIDRCKVfe5
p520
aV@FoxNews @KellyannePolls @POTUS Fake President Lying by trump LOST the popular vote!!!  Loser.
p521
aV@FoxNews @POTUS Stock market has stopped growing for the first six months of 2018.  What a LIAR.
p522
aV@FoxNews @POTUS LIAR trump is a divisive racist who would like to only have whites in America.  Sick puppy but that\u2026 https://t.co/0XGIN3Z4nS
p523
aV@FoxNews @POTUS This clown does nothing to better America.  He\u2019d rather play TV star than President.  Going to a Fa\u2026 https://t.co/ES0YHNW792
p524
aVRT @JimCarrey: Christianity, Trump style: \u201cJesus was a loser. A failed carpenter. He's a savior because he was crucified. I like people tha\u2026
p525
aVRT @Amy_Siskind: Seriously, Trump is still holding campaign-style rallies with \u201clock her up\u201d and the press is the \u201cenemy of the people,\u201d an\u2026
p526
aV@NBCNews Great vulgar role model for Barron.  He must really hate his psycho moron dad.  That kid will be as screwed up as the others.
p527
aV@NBCNews Moron squared -
p528
aVRT @jdelreal: My latest piece looks at safety in South LA, where residents say poorly designed roads, a history of disinvestment, &amp; runaway\u2026
p529
aV@ABC Have Con Man Scammer trump finance the gun industry \u2014 surest way to bankruptcy as he has taken six companies bankrupt!
p530
aVRT @1CynicalCyborg: @Skyline247 @realDonaldTrump  https://t.co/81hWRQvJIB
p531
aV@FLOTUS Who wrote this tweet for her?  The word APPLAUD and COMBAT are not in her lingo. Obviously she did not writ\u2026 https://t.co/qN1DmsSos8
p532
aV@AP Put something me pink underwear on and take a hike.  Your 15 minutes of fame has expired.
p533
aV@ABC Lying Melania did NOT write those words...duh!  Totally scripted by the Scam Con don trump.
p534
aV@realDonaldTrump LIAR. 19 of your Campaign Staff have been charged with COLLUSION.
p535
aVhttps://t.co/7gJ3zQX6Tq
p536
aV@realDonaldTrump You were used by Kim, moron.  You gave away everything and received nothing in return.
p537
aV@realDonaldTrump Using children as pawns is disgusting and despicable. trump is horrible.  Lock him up now - and ha\u2026 https://t.co/RhV3aNsJzp
p538
aV@realDonaldTrump Germany hates Mein Fuhrer Dicktator trump.
p539
aV@realDonaldTrump Immoral and abhorrent is what Scum trump is doing to the children.  If he had his way, he would ex\u2026 https://t.co/1fmo0xy0Wj
p540
aV@JenniferJJacobs Everything he has done in life is either a lie or a scam.  His insults are despicable. His saying\u2026 https://t.co/Ai38destE8
p541
aV@realDonaldTrump No no no - there is no federal law.  trump has zero knowledge because he is inaccurately blaming D\u2026 https://t.co/ujfK9ghl7E
p542
aV@realDonaldTrump Admit it trump that Manafort was not some little unknown who worked a shirt time \u2014 he was your CAM\u2026 https://t.co/1i7DRXqoI1
p543
aV@realDonaldTrump So elegant you complete scum moron.
p544
aV@realDonaldTrump Moronic Trump sold the US out and failed to be the big deal maker he says he is. He gave Kim every\u2026 https://t.co/VZ7KqkbobC
p545
aV@realDonaldTrump trumps sucks. Lock him up.
p546
aV@RepAdamSchiff Trump must be impeached and hauled to jail.  He sold us out with NK.  LOCK HIM UP.
p547
aV@FoxNews @IngrahamAngle Rudy us full of crap and an absolute treasonous person.
p548
aV@IvankaTrump Shut up little rich girl.
p549
aV@realDonaldTrump Moron trump doesn\u2019t realize the US actually has a trade surplus including goods and services.  Fac\u2026 https://t.co/LPQDjxwDTc
p550
aV@realDonaldTrump Screw you, trump. You are an utter xxxhole.
p551
aV@FoxNews @chrisprudhome @realDonaldTrump Has this jerk been drinking trump\u2019s baby bottle?   Absolutely worst false\u2026 https://t.co/4So6f8PLzM
p552
aVRT @TheDweck: Once again a massive fuck you to everyone who said there was no difference between the candidates https://t.co/GbXiN3o6Yl
p553
aV@WhiteHouse @POTUS trump cannot bully Kim.  Failed summit ahead.
p554
aVRT @maggieNYT: Kelly hits one year on the job next month, the demarcation point he has been trying to reach. Asked by some senators at the\u2026
p555
aV@IvankaTrump How proud you little rich girl must be of your mentally disturbed adulterous papa.
p556
aV@NBCNews @MSNBC Touch feel \u2014 trump talking about his sex night with Stormy Daniels.
p557
aV@nytimes Among real world leaders, trump is like a pair of brown shoes with a tuxedos.  Bullies never ultimately wi\u2026 https://t.co/wQtbTfLgTU
p558
aV@NBCPolitics @MSNBC Kim will play transparent trump line a fine violin.  trump is outmatched.
p559
aV@FoxNews @JudgeJeanine @realDonaldTrump This is a judge?  She is disgusting. Horrible person.
p560
aVRT @The_Real_P3dr0: @nytimes  https://t.co/BtJXJtO69d
p561
aV@realDonaldTrump trump is one very sick puppy. People are saying he is losing his mind.  Sex addictive and liar nee\u2026 https://t.co/pfZKIqFRMY
p562
aV@FoxNews @seanhannity @BarackObama Lying hannity and trump should go to jail together.
p563
aV@realDonaldTrump trump is so ignorant, amoral and lacking in leadership.  Statue of Liberty is hiding her face and\u2026 https://t.co/eKN4CUqHwZ
p564
aV@FoxNews @POTUS And YOU are the most corrupt, dishonest, amoral and despicable person ever to be President.  You mu\u2026 https://t.co/KsD68sMjmj
p565
aV@cnni Justin has tons more class than Drumpf.
p566
aV@IvankaTrump @wef You rich child scum use child labor and have your crappy clothes made in Chinaaa.  Have you no mo\u2026 https://t.co/39OdLRP0wd
p567
aV@MSNBC trump wants a North Korea for Dummies Book. Ignorant Dicktator is being played by Kim. trump is so very tran\u2026 https://t.co/D9xCdygHD2
p568
aV@PeterRoskam Roskam is a swamp creature who ignores his District and the voters. He avoids meeting on a town hall.\u2026 https://t.co/TdF7esVSul
p569
aV@ABC She has a better rep than Lying Giuliani.
p570
aV@FoxNews Melania is going to divorce trump and tskecBarton with her. She hates Lying Cheetohead \u2014 smart woman.
p571
aV@ABCPolitics @ABC People say trump would like to harass Muslimscdo they leave the US.  He wants only white peoples in America.
p572
aV@washingtonpost trump\u2019s new-nazis beat and kill minorities.  But trump us a thug they admire.
p573
aV@realDonaldTrump trump has zero morals.  Rise up America.
p574
aV@realDonaldTrump Dicktator trump is a disgusting non-human.
p575
aV@IvankaTrump @realDonaldTrump Lying Daddy is the one who is separating children from their family. Everyone knows t\u2026 https://t.co/8KtyuctGoz
p576
aV@realDonaldTrump @fema trump told FEMA to walk away from Puerto Rican\u2019s after the hurricane \u2014 and 65,000 died.  Dic\u2026 https://t.co/L7PRkqmbSh
p577
aV@realDonaldTrump She is sick\u2014of trump.  She and Barronn will be fleeting no when trump is indicted.
p578
aV@realDonaldTrump Remember the Republicans caused the 2008-9 Great Depression.  They are eliminating all safeguards\u2026 https://t.co/ay8Bg67fTn
p579
aV@realDonaldTrump What trump needs is a jail cell. He has not done anything for middle America.  He\u2019s given tons of\u2026 https://t.co/zHU57bgNHH
p580
aV@cityofStCharles @IMEA_Org @RepHultgren @PeterRoskam @kmcconnaughay33 Roskam is in perpetual hiding from the people\u2026 https://t.co/6Y3nQPMpmX
p581
aV@FoxNews @parscale @realDonaldTrump Mueller will destroy despicable trump.  He is a Russian sympathizer who should\u2026 https://t.co/JYhJcxbq6j
p582
aV@VP @POTUS @WhiteHouse You and trump are hateful Racists \u2014 and are against common sense gun safety because the NRA\u2026 https://t.co/FWVpeH6jGh
p583
aV@FoxNews @FrankLuntz @IngrahamAngle McConnell obstructed Obama for eight years!   Shut down the SC nominee vote - a\u2026 https://t.co/O6xTaQwUSc
p584
aV@FoxNews @seanhannity Sean Sucks
p585
aV@FoxNews @realDonaldTrump @parscale trump has done nothing other than to steal money and give it to himself the wea\u2026 https://t.co/Evqiuutxf3
p586
aV@FoxNews @POTUS And Chicken Bone Spurs Draft Dodging Liar Trump as hypercritical with this as everything else. Rise\u2026 https://t.co/N4VHfFsCMT
p587
aV@MSNBC @HardballChris Have our sports players encourage voter registration and VOTE.
p588
aV@AP McConnell is a disgusting enabler if Dicktator trump.
p589
aV@VP @POTUS Drumpf and Pence \u2014 Morons Make America Hate Again.
p590
aV@FoxNews @KingJames Amen - Trump is an obvious RACIST his entire life. He hates all minorities.  Register and vote in the November midterms.
p591
aV@ABC Jail the crooked Trump campaign leader - and take Lying Trump too.
p592
aV@Reuters Drumpf is do not bviousky guilty, he should go directly to jail. No doubt he has assaulted countless with\u2026 https://t.co/WAQHOxguVC
p593
aV@AP Uh duh - Hispanics are amazing outdoor workers who never complain.  I know many and admire them.  Why are non-H\u2026 https://t.co/0aAg83fyxl
p594
aV@realDonaldTrump Drumpf owes Barack a TY as Barack was the engine.  Drumpf would have thrown GM etc into bankruptcy\u2026 https://t.co/2cW9kXcrxm
p595
aV@davidhogg111 Go David!  We\u2019re all behind you.
p596
aV@realDonaldTrump Follow Nixon\u2019s path, you complete moron.  You have Made American Hate Again. Divide and insult is his platform.
p597
aV@realDonaldTrump Lying Scum. The Con Man has made America a complete joke to the world.
p598
aV@MSNBC Be an Activist and encourage everyone to not only register but VOTE in November.  Let\u2019s send Make America Ha\u2026 https://t.co/H9UOxHJ1f4
p599
aV@cnni She is a LIAR just like Drumpf.  Rise up and have morals, Republicans!
p600
aV@realDonaldTrump Bone Spurs Draft Dodger Drumpf cannot even tie the shoelaces of Patriot McCain.   Trump is scum and McCain a hero.
p601
aV@FoxNews @KellyannePolls @realDonaldTrump Lying horrible woman just like her despicable fake Trump.
p602
aV@FoxNews @POTUS Whore Fake President \u2014 Trump is destroying America.
p603
aV@FoxNews @POTUS LIE - Trump is the least effective President ever - destroying America.
p604
aV@FoxNews @POTUS LIE - it is that Trump has caused the World to turn against America. He is a despicable, abhorrent Racist.
p605
aV@FoxNews @POTUS Lying Trump is destroying America\u2019s institutions and morals. Despicable.
p606
aV@FoxNews Roseanne\u2019s opinion is like those if Trump and his lemmings \u2014 RACIST because they are exactly that.  Trump\u2019\u2026 https://t.co/CQqknEGoSx
p607
aV@realDonaldTrump @nytimes Republicans are leaving Trump because they finally see him as caring more about him than\u2026 https://t.co/EQjEGYGvft
p608
aV@ChrisMurphyCT @maddow Trump cares ONLY about himself.  Republicans are finally understanding this and trying to ch\u2026 https://t.co/7IATnAmJQP
p609
aV@realDonaldTrump Morin the word is their and not there.  Dan Quayle was a more accurate speller than you are. SERIA\u2026 https://t.co/8h53SrSbR9
p610
aV@FoxNews @realDonaldTrump @Comey Drumpf dies not care about anyone be other than himself.  Wake up America and see\u2026 https://t.co/GFTma0EKpm
p611
aV@FoxNews And Trump is next when women he has groped and committed adulterous affairs with get him in court. People\u2026 https://t.co/fjTybusaow
p612
aV@realDonaldTrump Kim has made a fool of you.  He and others know you are a joke and can negotiate far better than y\u2026 https://t.co/PxefWN4wwv
p613
aV@realDonaldTrump MAGA - Moron Against Great America -  you negotiate like a third grader. Lie, insult, brag, threat\u2026 https://t.co/b9jUbL8afo
p614
aV@realDonaldTrump At least Dems can read unlike Fake Trump. Trump has no interest in policy.
p615
aV@realDonaldTrump From our Racist President who hates backs being in \u201chis\u201d country \u2014 he looks the other way and endo\u2026 https://t.co/VmCSf4bvJq
p616
aV@washingtonpost Problem le arexsaying she is doing great because she doesn\u2019t have to interact with you. Divorce time!
p617
aV@realDonaldTrump No one believes your LIES any more. People are saying you are one despicable scammer.  Lock him up.
p618
aV@realDonaldTrump @NavalAcademy The Navy should shun Serial Lying Trump as he is unfit and a despicable scum.  Worst\u2026 https://t.co/rJUaTCuFrW
p619
aV@chanceler_young @SRPainter @washingtonpost You\u2019re an idiot.
p620
aV@FoxNews @JesseBWatters @realDonaldTrump Trump is a coward.  Big bragger said he\u2019d go into a school to confront a s\u2026 https://t.co/u1PWFlFhjy
p621
aV@realDonaldTrump Hey Fake Pres these are not real estate deals, this is America.   You should be tried for treason\u2026 https://t.co/PU63CcYCtX
p622
aV@realDonaldTrump Add this totally baseless LIE to those you said about Obama Birther, Obama Wire Tapping, illegal C\u2026 https://t.co/ji5eZJ6hYX
p623
aV@SenSanders Dems need a blast of fresh young leadership to take back the WH.
p624
aV@stevedaniels27 @CrainsChicago @WeatherTech Bribes bribes bribes.  We have the best Congressmen money can bribe.  U\u2026 https://t.co/Usbk2NvcTC
p625
aV@RepAdamSchiff Kelly and Flood\u2019s actions show Trump\u2019s obstruction of justice.  Lock Trump up.
p626
aV@APFactCheck @AP Of course Trump distorts words, he is nothing but a LIAR all places all the truth me. Lying is in Trump\u2019s DNA.
p627
aV@realDonaldTrump He cancelled because Trump could not be trusted as he Trump LIES about everything.  Bolton Trump a\u2026 https://t.co/c2sqyHh9aF
p628
aV@MSNBC @NYCMayor Our moron Drumpf does not understand players are NOT unpatriotic.  They are protesting the police\u2026 https://t.co/daaSXoyfxC
p629
aV@realDonaldTrump Trump has worked to destroy the FBI CIA and Intel Agencies.  He truly is unAmerican and he should\u2026 https://t.co/oCaDHvxgsH
p630
aVLemon: America is in the middle of a crisis @CNN https://t.co/XfxUVqtv7q
p631
aV@realDonaldTrump Everyone knows Trump is spreading a BIG LIE again. He is immoral, indecent, an adulterer, scammer,\u2026 https://t.co/57Q6HFH2H4
p632
aV@realDonaldTrump Trump admits he attacks the Free Press, FBI, Justice and Courts so no one will believe negative st\u2026 https://t.co/82vpoRRvux
p633
aV@realDonaldTrump Trump promotes Conspiracy Theories which have zero facts to try to make them legitimate by LYING a\u2026 https://t.co/tTuIhGlQk9
p634
aV@realDonaldTrump Why has Drumpf LIED about draining the swamp?  He is IN the swamp up to his eyeballs. Another brok\u2026 https://t.co/nOKhxBnMmX
p635
aVAllstate Accident Forgiveness TV Commercial, 'Grounded' - https://t.co/UacVm86xeO #ispottv
p636
aV@FoxNews @POTUS Drumpf and other NRA-owned politicians are spineless whores.  Would Drumpf change if son Barron had\u2026 https://t.co/YGpIS5u4tY
p637
aV@realDonaldTrump Drumpf and the NRA-owned Congressmen are nothing but spineless whores. PLEASE put a photo in the m\u2026 https://t.co/YY8JxsIgSE
p638
aV@realDonaldTrump Drump\u2019s untruthful hyperbole again.  What has he done?  Enriched the Wealthy and Corporations by b\u2026 https://t.co/UZEDfSp3jv
p639
aVBloomberg warns of 'epidemic of dishonesty' (from @AP) https://t.co/BFTZjWWHMn
p640
aVRT @hardball: "Donald Trump deferred the draft 5 times, he ran away from that war. So he doesn't get the right to say that, president or no\u2026
p641
aVRT @MSNBC: .@MaddowBlog: Just days after Trump boasted, "When I make promises, I keep them," he audaciously broke one of his most populist\u2026
p642
aV@PeterRoskam Why did Roskam support taking money from the middle class and give it to the Rich Wealthy class and Ca\u2026 https://t.co/B0xf4Gzpbq
p643
aVRT @MichaelAvenatti: In 2017-18 - Why was Mr. Cohen paying Demeter Direct Inc. in Los Angeles large sums of money from his Essential Consul\u2026
p644
aVRT @davidhogg111: Crisis actor sounds like a great name for these politicians that act like they care after an atrocity but do nothing afte\u2026
p645
aV@PeterRoskam @nytimes Rodman knows the Tax Scam Bill was simply a transfer of our tax money to the Koch Brothers, R\u2026 https://t.co/O1SHN9qBCN
p646
aV@realDonaldTrump Drumpf is now attacking John Kerry.  What a despicable moron.   I recall an architect who did a Tr\u2026 https://t.co/keeMSAbtdd
p647
aV@realDonaldTrump No the Mueller Investigation is NOT a witch hunt.  Drumpf's m.o. Is to tell his lies repeatedly da\u2026 https://t.co/EC86LIp1x7
p648
aVTrump lied clearly about HIS medical conditions, but then castigated Hillary by saying she was hiding her medical p\u2026 https://t.co/kxbWnoelHQ
p649
aVRT @ASlavitt: Want to make sure this is not quiet. https://t.co/gwcYzgutYO
p650
aVd.trump wants online retailers to collect sales tax, but his TrumpStore cheats state and local governments by charg\u2026 https://t.co/A1gxIOhyRh
p651
aV@JacobAWohl @realDonaldTrump You obviously don't not know that the PO has always offered discounts to bulk shippers\u2026 https://t.co/6ovQZBYjrO
p652
aV@realDonaldTrump "Bourne" shows what a lousy speller Frumpf he is - the word is"borne" duh. Shows Hope et al are go\u2026 https://t.co/f9r0UKP4yF
p653
aV@MSNBC Why are you letting FOX to tweet 10x the number of tweets by MSNBC???  \u000a\u000aPlease start showing more strength\u2026 https://t.co/ne4KWEkpOT
p654
aV@zackdist @realDonaldTrump And dt admitted using the laws to go bankrupt five times and stiff his creditors.  Fails\u2026 https://t.co/IO13fihz5N
p655
aV@realDonaldTrump If dt were to actual read instead of just letting his mouth run, he would find the USPS loses mone\u2026 https://t.co/7RGxG66BkU
p656
aVRT @NancyPelosi: The Trump Administration\u2019s announcement of a new citizenship question violates the clear constitutional mandate to provide\u2026
p657
aVRT @votevets: With the firing of Sec. Shulkin, you'll be hearing a lot about the VA in the news today. Our own @will_c_fischer explains why\u2026
p658
aV@JoeyBenedetto5 @realDonaldTrump Another lie -- GDP increase for 1Q2018 has been revised DOWN from 3.00% to only 1.60%.  Fact.  Truth.
p659
aV@FoxNews @robertjeffress @POTUS FOX lies just like...what's his name...   Faith to Trump refers to a Hustler center\u2026 https://t.co/7sQjVbvafV
p660
aV@realDonaldTrump One more Lie - top lawyers don\u2019t want anything to do with him. He is just spouting words to offer\u2026 https://t.co/JlStsPKSdi
p661
aVWith the best words you can read the high level of wordsmithing employed by the high IQ of Trump. As many observe,\u201d\u2026 https://t.co/sYnf28lnNt
p662
aV@realDonaldTrump Trump does NOT want DACA \u2014 Lying Con Donnie wants DACA kids to be deported.   Cannot trust this despicable guy.
p663
aVWith Trump it is now ok to outright LIE and outright moral people do not overwhelmingly object.  Parents will face\u2026 https://t.co/k3NSeKDUEw
p664
aVRT @EnsignLeeDS9: @realDonaldTrump I can't believe we live in a country where people have to decide who is telling the truth - two veteran\u2026
p665
aV@realDonaldTrump Trump is WEAK. He is a complete chicken against the NRA. His LIES about doing something constructi\u2026 https://t.co/VBy9BhFxqH
p666
aV@SenWarren With Trump\u2019s \u201cBipartisan\u201d WH reality meetings on both DACA/Immigration and Gun Safety/Parkland topic, Co\u2026 https://t.co/fIAAVX9Vlr
p667
aVRT @nytimes: Trauma surgeons recount the horror of assault weapons: \u201cYou will see multiple organs shattered. The exit wounds can be a foot\u2026
p668
aVRT @cfreshsobrookln: @FoxNews @hogangidley45 @realDonaldTrump https://t.co/fwg6P2Osch
p669
aVAK-47 expanding production in FLORIDA!  They will give tax credits of $162,000. Outrageous \u2014 Scott and Rubio are ph\u2026 https://t.co/B5p2qLuooM
p670
aV@realDonaldTrump Trump is a fraud on this as Gun Safety is a Federal issue (just as Congress repealed the Assault W\u2026 https://t.co/jPwKf36aG1
p671
aVWatch this about arming school teachers \u2014 then decide if It\u2019s a good idea or not. https://t.co/AvwnNjVF0b
p672
aVRT @RVAwonk: So I'm pretty sure Trump would not have gone running unarmed into the line of fire.\u000a\u000a.... this is what he did when confronted\u2026
p673
aV@JamesSchmittJr1 @Laighe @JulianSvendsen @realDonaldTrump Bull. The Second allowed for MILITIAS to have muskets to\u2026 https://t.co/xwlIpN7fqj
p674
aV@realDonaldTrump Showing he embraces Russia, Trump met with two Russians IN the Oval Office the day after Trump fir\u2026 https://t.co/0q2CGbpvli
p675
aV@realDonaldTrump Assuming Trump remembers his Presidential oath to defend the Constitution, he pledged to defend us\u2026 https://t.co/WxBRJY5Wvv
p676
aVRT @Sam_Levine: @realDonaldTrump You loved laughing your considerable ass off with Russian Spymasters you secretly invited into our Oval Of\u2026
p677
aVRT @capefirefly: @realDonaldTrump FINALLY your admission of Russian interference &amp; that their goal was to install a PUPPET to do the dirty\u2026
p678
aV@realDonaldTrump Lying Trump is now finally admitting Russia meddled in our election after denying this from the st\u2026 https://t.co/FeRsNozpXA
p679
aV@realDonaldTrump You are to blame Trump for signing a bull to roll back gun checks for mentally ill people so he ca\u2026 https://t.co/9uT7HTOoLY
p680
aV@realDonaldTrump This phony tweet reminds me of your obviously phony WH statement. You cannot be believed as your v\u2026 https://t.co/y4vZhnY9vV
p681
aVRT @Katie_Toledo1: @ABC Ms. Gonzalez, you will be among a group of young heroes that will save your children and your children\u2019s children.\u2026
p682
aV@ABC You go, Girl.  These Congressional whores are being exposed.  If their children were murdered, would they chan\u2026 https://t.co/IbzFaFZPqI
p683
aV@realDonaldTrump Trump is a fake President.  He would have lost and been a loser but Russian and Comey stole the el\u2026 https://t.co/ejqape5kT7
p684
aV@FLOTUS If your little boy Barron was a murder victim of a school shooting with an Assault AR-15 or AK-47 at his sc\u2026 https://t.co/UPTyQIZoNm
p685
aV@RepKinzinger Then why does Trump visit continue to deny the obvious?   He is definitely worried about his financia\u2026 https://t.co/TVktZxd8EO
p686
aVRT @TheBeatWithAri: Gun de-regulation under Trump: https://t.co/pYZkqKZEDt
p687
aVRT @BangingChains: It's time to make the @NRA toxic. They actively prevent congress from enacting the will of the people. They are responsi\u2026
p688
aV@marcorubio America is NOT an exceptional country with little children\u2019s heads blasted with AR-15s.  BAN THEM as th\u2026 https://t.co/cmHkAyLV1h
p689
aV@marcorubio With your being an NRA puppet, you have children\u2019s blood on you.  What kind of subhuman accepts NRA bri\u2026 https://t.co/yGdYZVTAqT
p690
aVDead children due to NRA Politicians encouraging proliferation of Military Assault Rifles.  Is your Congressman bri\u2026 https://t.co/nSoCYb7O7N
p691
aVRT @pzraidi: @realDonaldTrump  https://t.co/1YNvrRkA8F
p692
aV@realDonaldTrump Imagine just what imagine Mr. Trump if your son Barron had his head blown off at his school by an\u2026 https://t.co/dfeI4Y2c6z
p693
aV@RealKidPoker Agree Dan - do you think Drumpf would be upset enough to ban AR-15s if his 10 year old son Barron\u2019s h\u2026 https://t.co/Iy7asEQ1pY
p694
aVRT @beckoh: @realDonaldTrump  https://t.co/rrdoYXfmAO
p695
aV@realDonaldTrump Worthless words coming from a gutless man who accepts major bribes from the NRA. Simple question -\u2026 https://t.co/H6XzkpALvl
p696
aV@realDonaldTrump Trump is trying to say he cares when it is evident he does not.  No mention of the OBVIOUS that th\u2026 https://t.co/Lgijkt5Wug
p697
aV@cnni Phony tears for certain. The play continues in another school next week.  US domestic terrorists continue the\u2026 https://t.co/x51hA8dS3Y
p698
aV@ABC Complete joke - Groundhog Day - Same old same old -  prayers thoughts funeral NRA and then repeat.  Congress h\u2026 https://t.co/Lh7FnzQdcD
p699
aVWith her contempt for the press reporters and her put downs for asking difficult questions, she is a complete joke.\u2026 https://t.co/5Qhvcfje4h
p700
aVRT @SenSanders: Donald Trump will receive a tax break of up to $11 million a year as a result of the Republican tax plan he signed into law\u2026
p701
aVRT @SenSchumer: Utterly astounding that 6 wks after slashing taxes on the wealthy &amp; biggest corps, creating a huge deficit, @realDonaldTrum\u2026
p702
aV@realDonaldTrump Another Trump scam to lay costs on states and cities and only offer a grand total of $20B annually\u2026 https://t.co/GFNvOJk1D2
p703
aV@realDonaldTrump You are wrong, Trump, if you think you can just repeat and repeat this lie and voters will agree.\u2026 https://t.co/1WGskZfl3t
p704
aV@realDonaldTrump Corrupt Trump cares ONLY about himself and is willing to take down our venerable institutions on t\u2026 https://t.co/QX4QjSosUL
p705
aV@realDonaldTrump And Trump\u2019s favorite stock market was down -665 points.  His promises are shallow and Cheetohead w\u2026 https://t.co/pNEwpQUjIi
p706
aV@realDonaldTrump Trump is scared as he was not elected by the popular vote and his election is suspect.  The wannab\u2026 https://t.co/oWzsHgI2R9
p707
aVPruitt can\u2019t remember his slam against Trump!  And he\u2019s carrying Trump\u2019s water by dismantling the EPA which now all\u2026 https://t.co/k2vAtWWXps
p708
aVAnd how many \u201cfollowers\u201d did Trump purchase?  Most likely he had other entities \u201cbuy\u201d millions of followers to his\u2026 https://t.co/3BchpgHa4R
p709
aVRead this list of Trump insults - our Founding Father\u2019s must be turning over in their graves.  This narcissist has\u2026 https://t.co/IqgPCJs5G0
p710
aVSilence is complicity.  These hypocrites would be perfect members of Hitler\u2019s band. Attack and try to discredit the\u2026 https://t.co/0xAk5UfdbM
p711
aVHypocrites All \u2014 scary column.  https://t.co/X1ZrEQYMcu
p712
aVTrump says he, as President, he is to blame for the shutdown just as he blamed Obama for the one in 2013.   https://t.co/cC9kSPYoXT
p713
aVTrump LIED that graduated top in his class at Wharton undergrad (not MBA).  He did graduate but without honors. He\u2019\u2026 https://t.co/LRdlxS2gZl
p714
aV@realDonaldTrump @dcsheriff Trump sheds crocodile tears but doesn\u2019t mean it b/c he cares not about people getting k\u2026 https://t.co/39DUTM515s
p715
aV@realDonaldTrump Is everything about a buck?  Trump could have all the world\u2019s assets and would still want more.  G\u2026 https://t.co/wasQLxNcXG
p716
aV@realDonaldTrump The reason is to get rid of Trump who is insulting, amoral, three marriages, four bankruptcies, a\u2026 https://t.co/jnoDqchlf4
p717
aV@realDonaldTrump Trump did NOT author this.  There are complete sentences, typos, capital letters.  His childish mo\u2026 https://t.co/hj4rrZErw2
p718
aV@realDonaldTrump Trump is sick - always needs to be told how great he is as a sycophant. Remember this Lying Trump\u2026 https://t.co/C4p9TpXhgA
p719
aVTrump said in this article that VP Pence \u201cwants to hang all gay people.\u201d  Wanting to ban gay marriage, Pence must r\u2026 https://t.co/eawjtk6W85
p720
aVAs Trump eliminates regulations, the consumer suffers.  Thanks again to Drumpf for screwing the middle class which\u2026 https://t.co/19KtG6FxLd
p721
aV@realDonaldTrump Taking money from the middle class to\u201dmake the rich a lot richer\u201d as Trump stayed is amoral. Yet w\u2026 https://t.co/c3M6pojkFY
p722
aV@RodneyDavis Are you aware that you voted to eliminate Personal Exemptions?  A family of 4 or more is WORSE OFF \u2014 d\u2026 https://t.co/UUplIngZjI
p723
aV@realDonaldTrump @foxandfrlends Lying con men always attack before the FBI gets them. How unpresidential even for D\u2026 https://t.co/43nFqatHJo
p724
aV@realDonaldTrump Trump is one sick Narcissist.  Bankruptcies, bastard child, scam rip-off university, insults every\u2026 https://t.co/5nKal2WtcP
p725
aVNOW Trump admits his LIES and says the Tax Scam Bill made his rich friends including Trump and Family a lot richer.\u2026 https://t.co/ItKeYgBhk0
p726
aV@FoxNews @SebGorka @realDonaldTrump @IngrahamAngle That is a LIE - check the records for 2012-2014!!!
p727
aVRT @paulkrugman: Nobody could have predicted that Trump's job promises would turn out to be completely empty https://t.co/oCfEdK7J1f
p728
aV@FoxNews @LisaMarieBoothe It\u2019s unpopular b/c the middle class got screwed. Give $12,000 in Standard Deduction but k\u2026 https://t.co/aXzRAz8Xom
p729
aV@ABC Trump attacks countries who put their own country first. He said they should \u2014 he was lying again as he condem\u2026 https://t.co/3bV6oarxl3
p730
aV@washingtonpost Absolutely!!! Give the middle class crumbs and the giant cake to Trump Family wealthy and the PAC bribers.
p731
aV@realDonaldTrump Loser Trump screws over the middle class to put us in debt so the Trump Tax Scam Bill can reward b\u2026 https://t.co/yWKYvds7go
p732
aV@RepLaHood Why don\u2019t you admit that Trump is killing Personal Exemptions worth $4,150 each so a family of 4 is a BI\u2026 https://t.co/tv74bHzq2l
p733
aV@realDonaldTrump And Trump makes sure housing will tank through the Trump Tax Scam Wealth Transfer. The real estate\u2026 https://t.co/kVGYPG0HMy
p734
aV@realDonaldTrump No not all together. The Repubs scammed the voters who don\u2019t yet realize it.
p735
aV@SenSchumer Trump took away Personal Exemptions from the middle class so a family of 4 is screwed \u2014 but the Tax Sca\u2026 https://t.co/F6QV0oVjrR
p736
aV@SpeakerRyan @POTUS Takes away Personal Exemption and legislators snuck on a tax break for Trump, Corker and commer\u2026 https://t.co/Slpm266d2y
p737
aV@Scavino45 @POTUS @realDonaldTrump What about police who kill civilians?  Zero penalty.
p738
aV@realDonaldTrump @POTUS Bull crap. Trump knows corporations will only use the money to pay higher dividends, share\u2026 https://t.co/wiMszTJNjB
p739
aV@realDonaldTrump @POTUS Then why did Trump cut the Railway Safety Agency budget by 43%?  Lying conman cares for no one but himself.
p740
aV@realDonaldTrump @POTUS Then why did you, Lying Donnie, cut the budget by 43% for the Railway Safety Agency???  Tru\u2026 https://t.co/EiRvwryNQS
p741
aVRT @SenSanders: Another reminder that as soon as Republicans pass their massive tax cut for the wealthy and large corporations \u2013 running up\u2026
p742
aVRT @SenWarren: While the @HouseGOP are set to vote tomorrow on the #GOPTaxScam, they're also gearing up to vote on a bill that would roll b\u2026
p743
aVRT @SenSanders: Goldman Sachs alone will get a $6 billion tax break from the Republican tax bill. That is a disgrace. https://t.co/0hOr2aGD\u2026
p744
aV@SenMikeLee Stop lying. It is fact that you are aiding taking money from the middle class and giving it to the weal\u2026 https://t.co/2ML2yzjBys
p745
aVRT @SenSchumer: Know this: the #GOPTaxScam will explode the deficit, starving our investments in ed, infrastructure &amp; research. After all t\u2026
p746
aVRT @NancyPelosi: The #CorkerKickback is just another example of how the #GOPTaxScam is a Frankenstein\u2019s monster of giveaways to special int\u2026
p747
aV@realDonaldTrump Trump LIES.  Taking from the middle class to give to the wealthy and corporations. He\u2019s scammed th\u2026 https://t.co/nXo8B438Ce
p748
aVTrump cares less about Puerto Rican\u2019s b/c they are not white.  He is a racist pure and simple wanting to help rich\u2026 https://t.co/bxnxzsHHqF
p749
aVRT @SenSanders: People like @AdyBarkan are what this fight against the #GOPTaxScam are all about. We can defeat this horrific piece of legi\u2026
p750
aVNever Forget. A sick American armed with an AR-15 assault gun weapon of war executed 26 children and adults.  If pe\u2026 https://t.co/j9p8W7hmsb
p751
aVRT @paulkrugman: I wrote about Republican disdain for people who work as employees -- even if they earn high incomes. But I didn't have eno\u2026
p752
aV@realDonaldTrump @foxandfriends Are you ignorant?  It is spelled media not meadow, Drumpf.
p753
aV@realDonaldTrump @nytimes Wannabe Dictators like Drumpf do not want a free press. Although he purports to love the\u2026 https://t.co/Ml2B7Ema9r
p754
aV@RepLaHood Why are you hiding the fact that stopping Personal Exemptions hurts a family of 4+ to lose $4,700. Tax Scam not cut.
p755
aV@realDonaldTrump Trump dissed us by lying about showing his tax returns. Lies claiming to help middle class, but he\u2026 https://t.co/wjJW9iNGAt
p756
aV@realDonaldTrump Unfortunately Lying Trump should admit that President Obama is the one who should get credit. He S\u2026 https://t.co/kjmjJDo9c0
p757
aVSerial Liar Trump cannot stop \u2014 he lies and lies as a matter of who he is.  Con man thinks people believe his lies\u2026 https://t.co/XmrxQhWWol
p758
aVRT @SenSanders: Our health system isn't designed to provide quality care to all in a cost-effective way. It's designed to provide huge prof\u2026
p759
aVRT @Reuters: Germans see Trump as bigger problem than North Korea or Russia https://t.co/9tEelI47d8 https://t.co/LbPZAz8NRZ
p760
aV@realDonaldTrump Your \u201cmany people are saying\u201d is a lie.  How about many people are saying that Ivanka says you sex\u2026 https://t.co/fClOgSfsL9
p761
aVRT @SenSanders: .@realDonaldTrump, I have a challenge for you: https://t.co/i51O9st290
p762
aVRT @AP: 'Of course he said it.' Billy Bush says in New York Times op-ed that the 'Access Hollywood' tape of Donald Trump discussing groping\u2026
p763
aVRT @SenatorTester: I was just handed a 479-page tax bill a few hours before the vote. One page literally has hand scribbled policy changes\u2026
p764
aV@realDonaldTrump LIE I\u2019ll stop the hedge funds carried interest. LIE I\u2019ll help the middle class. LIE I\u2019ll drain the\u2026 https://t.co/qUsq6lOrol
p765
aV@realDonaldTrump I\u2019ll help the middle class.  LIE. I\u2019ll drain the swamp.   LIE. I\u2019ll stop hedge funds carried inter\u2026 https://t.co/nmgQAhnwBF
p766
aV@realDonaldTrump Tax Scam Bill - steals from middle and lower classes and gives it to rich and wealthy.  Best gover\u2026 https://t.co/Ocy7C0bezq
p767
aVLying Trump exposed.  Excellent read.  https://t.co/2ZCTk07BO3
p768
aVRT @PeterSchiff: @realDonaldTrump Too bad #Republicans won't cut government spending so that Americans can have real tax cuts instead of th\u2026
p769
aVRT @ManualLabor1: @realDonaldTrump  https://t.co/Px0viYRSzW
p770
aVRT @GregShugar: @realDonaldTrump 75% of America opposes this tax reform bill. The other 25% is too uninformed to understand that it\u2019s THEIR\u2026
p771
aV@realDonaldTrump Created in darkness with zero hearings etc.  Why?  Simple.  It would NEVER be approved otherwise f\u2026 https://t.co/n4gpn3vUt5
p772
aVRT @SenSanders: Today Senator Rubio tried to tell me he wouldn't cut Medicare or Social Security. That's not what he said yesterday morning\u2026
p773
aVInterest how Senator Graham can change about calling Trump our as a kook and unfit.  Now receiving \u201cbribes err camp\u2026 https://t.co/qlnlNKQ4Va
p774
aV@realDonaldTrump Trump has to pass the tax bill or the Big Bribers will no longe game be cash as bribes to legislat\u2026 https://t.co/FTeQpWWsQ9
p775
aVBartlett was Republican Reagan\u2019s architect of supply-side economics \u2014 admits tax cuts are an excuse, when revenues\u2026 https://t.co/3iMUZTND4e
p776
aVLyin\u2019 Trump criticizes Sen Warren about her heritage, but he and his Father have LIED saying they were from Sweden\u2026 https://t.co/XSEgvjELM2
p777
aVTrump is unhinged and unfit to lead. His racism is evident and he is like a little child with his bullying and insu\u2026 https://t.co/zr75YamDWp
p778
aVThis Tax Scam has no bipartisan hearings, no basic analysis and they are trying to ram it through without and trans\u2026 https://t.co/g3d38fmcS7
p779
aVThis book describes how Russia helped Trump win the election.  Mueller will uncover the truth.  https://t.co/bSL6DxGaXn
p780
aV@realDonaldTrump It is a Scam and Trump is the proven Scam Master, eg failed businesses, failed casinos, failed Tru\u2026 https://t.co/6HXlxyZxHd
p781
aV@realDonaldTrump Truth: President Obama made itself economy hum along after the 2007-2009 financial disaster.  Trum\u2026 https://t.co/O8XZMNTgwz
p782
aV@IamPDJT000001 @AliceVincit @Brimshack @realDonaldTrump Craig - a architect friend who worked w Trump on a major pr\u2026 https://t.co/FQdoEuHkLZ
p783
aV@realDonaldTrump Trump has failed to equal what President Obama\u2019s did on his first year.  Obama was a Leader while\u2026 https://t.co/y7tRsFgRtj
p784
aV@realDonaldTrump @FoxNews Cheetohead is a wannabe Dictator \u2014 he is an enemy of the First Amendment and the Free Pre\u2026 https://t.co/a4bwLkkLW7
p785
aVDamned lies and tax cuts - NY Daily News https://t.co/74QBs08J2R
p786
aV@realDonaldTrump Get it right \u2014 Pres Obama saved the banks and GM.  Repubs put the US in the financial crisis.  You\u2026 https://t.co/cdZyNPBG89
p787
aVRT @washingtonpost: Senate GOP tax bill hurts the poor more than originally thought, CBO finds https://t.co/7VfCj8Xq6I
p788
aVRT @Shahoozny: People.......why? #digraceful \U0001f614 https://t.co/rXRdrlrlFE
p789
aVRT @SenSchumer: I agree with @CWAUnion - big corporations should pledge $4,000 wage increase for workers in writing before Congress acts on\u2026
p790
aV@FLOTUS @PressSec @WhiteHouse Sanders is a complete joke \u2014 horrible Press Secretary.  Go back to Junior League.
p791
aVRT @baalat1: @washingtonpost @CnBsNana  https://t.co/L7WrGBF32C
p792
aV@washingtonpost Trump has zero morals and knocked up Marla and Trump has our-of-wedlock Tiffany.  Trump must be pro\u2026 https://t.co/DmueGW3mvX
p793
aV@realDonaldTrump MAKE AMERICA HATE AGAIN.  Your racist comments and childish insults show Trump's thin skin narciss\u2026 https://t.co/W2F0KAkojm
p794
aV@RepLaHood You are lying.  It throws 13 million off insurance to give $$ to rich wealthy -Trump who saves $35 Milli\u2026 https://t.co/ld1syuJbR7
p795
aV@SpeakerRyan @RepKinzinger LIAR.  It throws 13 million off insurance just to give $$ to wealthy and corps. Trump ga\u2026 https://t.co/HFCXcN0hQu
p796
aV@RepKevinBrady @RepShimkus LIAR.  Taxpayers as a couple +2kids LOSE $16,700 in Personal Exemptions!  They are worse\u2026 https://t.co/R3Ef7JqE8P
p797
aV@realDonaldTrump US will follow Kansas into near bankruptcy with tax cuts.  But Trump is a bankruptcy maker and has\u2026 https://t.co/Qq55iL5nVg
p798
aV@realDonaldTrump @foxandfriends @Varneyco FYI President Obana saves the financial system and GM after Dubya caused\u2026 https://t.co/UG3GudGSZh
p799
aV@realDonaldTrump Trump acts like a 5 year old with his insults.  VERY immature and can not compare at all with past\u2026 https://t.co/fMPOrLrW0b
p800
aV@realDonaldTrump Show us your tax returns to show you\u2019re a loser.  He will gain $35 MILLION from AMT and $1 BILLION\u2026 https://t.co/lOlFjCRopt
p801
aV@VP @WRBethesda @SecondLady Why has Pence been so quiet?  People are saying he agrees Trump is a moron and wants ou\u2026 https://t.co/3AJe337yRP
p802
aV@realDonaldTrump Trump is a narcissistic childish bully.  What about it, Cheetohead?  Fatso?
p803
aV@realDonaldTrump Have an independent group review Trump\u2019s tax returns.  He is such a LIAR as he will save $35 milli\u2026 https://t.co/mqkVkIlqxo
p804
aV@RodneyDavis @eifoodbank You threw your voters under the bus and screwed the middle class by giving tax cuts to the\u2026 https://t.co/swR5tkOtkj
p805
aVKansas and Oklshome tried tax cuts, their economies tanked and they had to raise them back up.  Trump must show his\u2026 https://t.co/Uzdg8ZisGs
p806
aVDo you know that Kansas and Oklahoma, both which enacted. tax cuts to grow their economies, almost went bankrupt be\u2026 https://t.co/7PbONGQLtX
p807
aV@GettysburgNMP You sold your voters out to shift their money to the rich and corps.  Shame.
p808
aV@realDonaldTrump Trump\u2019s tax reform is cuts fir the wealthy and NOT the middle class. Why no Trump tax returns?  Bc\u2026 https://t.co/izQHUVDt6z
p809
aV@RepKinzinger You sold out your middle class voters to the rich and corps.  How much $ bribes from PACs?  Have you\u2026 https://t.co/RrVsaKes88
p810
aV@AP Truth: people don\u2019t understand that the tax bill takes away the personal exemption which hurts the middle class\u2026 https://t.co/bnc8k09acS
p811
aV@realDonaldTrump Trump is like an infant.  His narcissism, lack of morality and his need to \u201cget even\u201d are a danger\u2026 https://t.co/PzGTOkUdiE
p812
aV@HouseGOP @RepShimkus Look at the horror created when Kansas cut their tax rates.  Their economy plummeted!  They w\u2026 https://t.co/4HrZLe9XLB
p813
aV@cnni Trump thinks that way bc he\u2019s a narcissist and cares about no country other than the US.  And only about hims\u2026 https://t.co/XHvF5TYyln
p814
aV@RepKinzinger @HouseGOP Then why vote to eliminate personal exemptions on taxes of middle class.  You hurt your vot\u2026 https://t.co/lRihP7B9Mm
p815
aVFACT: Loss of personal exemptions more than offsets change in standard deduction - family of 4 loses $16,600 and ga\u2026 https://t.co/MXyXzM0g7C
p816
aV@VanSwanson @RepKinzinger @HouseGOP @WaysandMeansGOP Trump family saves $35 million with AMT and saves $1 BILLION w\u2026 https://t.co/9fSQdlHtu9
p817
aV@RepKinzinger @HouseGOP @WaysandMeansGOP Bs. You must be accepting campaign donations as you know it\u2019s a massive we\u2026 https://t.co/JZLwVAfbeU
p818
aV@CrainsChicago @PeterRoskam Shame on them. Scam tax bill hurts middle class to transfer assets to the rich and corp\u2026 https://t.co/AVq27SwMfR
p819
aV@RepShimkus Vote NO. Horrible wealth transfer to rich from middle class.  Trump gains $$ with killing Estate Tax an\u2026 https://t.co/u6SsyZFmSc
p820
aV@RodneyDavis Vote NO. Giveaway to rich. Couple+2 kids LOSES $3,500 w $16,200 loss in exemptions vs $$12,700 increas\u2026 https://t.co/BzID55b8WH
p821
aV@realDonaldTrump Tax cuts benefit Trump with AMT and killing estate tax to benefit him and family.  Show your tax r\u2026 https://t.co/yLqwx48kJt
p822
aV@realDonaldTrump No Tax Returns = No Tax Cuts for Rich 1%.  Trump saves $1 Billion by killing the estate tax and $3\u2026 https://t.co/1UU8kEmSq1
p823
aV@RepKinzinger Vote NO. Couple+2 kids gains $12,700 in std deduction but loses $16,200 in exemptions. Thus LOSES ($3\u2026 https://t.co/SmdY7zEJna
p824
aV@RepShimkus Be truthful. A couple+2 kids gains $12,700 with standard deduction but LOSES 4 exemptions or $16,200.\u2026 https://t.co/uTRR72qTZr
p825
aV@realDonaldTrump Tax bill reduces exemptions by $16,200 for couple+2 kids, but only increases standard deduction by\u2026 https://t.co/blyLdpesey
p826
aVRT @RepJayapal: The #GOPTaxScam is a thinly-veiled attack on the initiatives that millions of Americans count on every day, including Medic\u2026
p827
aVRT @paulkrugman: Consider the children -- but only if their parents are wealthy https://t.co/WM14M8gNnU
p828
aV@realDonaldTrump Cheetohead is so thin skinned and narcissistic that he can insult others but will not accept other\u2026 https://t.co/9BilugwyUC
p829
aV@AP This 10 Commandments nutcase is a total hypocrite.   Slam others for their sexual preference\u2014and then sexually\u2026 https://t.co/PkFki8lHl4
p830
aV@realDonaldTrump What has Trump been smoking?  More LIES.  Proves my acquaintance who worked with Trump Org right t\u2026 https://t.co/dsRk86iKDJ
p831
aV@realDonaldTrump No Tax Returns means No Tax Changes to help Trump including eliminating the Estate Tax to save $1,\u2026 https://t.co/RbzLp9LBD7
p832
aV@realDonaldTrump @nytimes No Trump Tax Returns = No Tax Changes or Else Elimnating Estate Tax Which Benefits Trump
p833
aV@realDonaldTrump Sorry \u201cNo tax returns = No tax cuts for the wealthy!\u201d   He and his children will personally save $\u2026 https://t.co/3AzHFbUq7d
p834
aV@realDonaldTrump TY for the AK-47s which protect our citizens:  \u000ahttps://t.co/Z002z6zBfk
p835
aVLooks like Trump has been eating too much fast food. Massive double chin.  No wonder he bribed his doctor's report. https://t.co/JflHo9iqUO
p836
aV@AP Using Trump's 2005 tax return, his taxes would decrease 85%.  No Tax Returns = No Tax Changes.  Big gift to wea\u2026 https://t.co/zxzitq4f7C
p837
aVTrump Tax Plan Benefits Wealthy, Including Trump -           New Slogan: "No Trump Tax Returns No Tax Changes" https://t.co/rHTQRHm26R
p838
aV@realDonaldTrump No tax returns = No tax changes!!!   Trump LIED saying how would not benefit.  Another daily LIE -\u2026 https://t.co/X8RGQppnKU
p839
aV#TaxReform - Don the Conman LIED saying he would not benefit from his tax proposal!  Stopping the estate tax saves his family $1 Billion!
p840
aVCobb County Police Lt. Greg Abbott tells driver: "we only kill black people" CBS TV.  This Lieutenant MUST be fired! https://t.co/26zcRUnrpQ
p841
aVCNN anchor lists Trump\u2019s latest controversies in 3 minutes  https://t.co/dVjuV8nAOJ
p842
aV@BarackObama We miss you and your morals/values so much, Mr. President.  Thank you for serving our country and maki\u2026 https://t.co/gnHCXnIcQo
p843
aVRT @BarackObama: "People must learn to hate, and if they can learn to hate, they can be taught to love..."
p844
aVhttps://t.co/7RortOzrEe
p845
aVDaily Stormer \u2013 The World's Most Genocidal Republican Website - the Alt Right is Happy Trump gave them a free pass.  https://t.co/8jsYI8ahgy
p846
aVTrump lit the torches of white supremacy in Charlottesville. We must extinguish them. - The Washington Post https://t.co/LlGFJToXGB
p847
aV#SeattleSlew - $2 Win Ticket from 1977 Kentucky Derby fir sale on EBay.    https://t.co/gzPlheIMIM
p848
aVRT @nytopinion: The very affluent, and only the very affluent, have received significant raises in recent decades, says @DLeonhardt https:/\u2026
p849
aVTrump\u2019s White House Mess - WSJ https://t.co/lcwfOlGYTc
p850
aV@nytimes With growth in employee wages dropping from 2.5% to 2.3% under Trump, he has NOT helped the American Worke\u2026 https://t.co/FzaKWtDSoT
p851
aV@realDonaldTrump Trump is a Russkie Putin Lover which is treasonous. Reagan is laughing at our weak fake Pres. Muel\u2026 https://t.co/IM6MueZlxi
p852
aV@washingtonpost @petridishes Stephen Miller is a disgusting jerk who insults others just like Trump.  Total obnoxious little boy.
p853
aV@realDonaldTrump This vulgar and ignorant clown LIED about getting a call from the Boy Scout praising his speech?\u2026 https://t.co/cubnhdpmwh
p854
aV@nytimes His attorney LIED denying this -- Trump obviously LIED to his attorney.  More ammo for Mueller's investigation. How many more LIES?
p855
aV@washingtonpost His brain disconnect is evident - talking about sex on a yacht and vulgarity in front of the Boy  S\u2026 https://t.co/yELV2JCM1i
p856
aV@thehill Trump should be charged criminally with inciting violence every where he goes.  Yet  he lied about his foo\u2026 https://t.co/7IcexHsxqf
p857
aV@washingtonpost Now insulting elected Senators. This fool fake Pres has insulted EVERYONE which proves he is a bull\u2026 https://t.co/e2Co9d9XCH
p858
aV@nytimes Nice role model in Scumoochie just as vulgar, disgusting and low life as Lyin' Donnie. Another cyberbully\u2026 https://t.co/UyrWJojjYz
p859
aV@nytimes After listening to his interview, he is a major jerk talking over the interviewer. Mooch is a sycophant me\u2026 https://t.co/BfEUAJ09s2
p860
aV@nytimes Trump used anonymous Generals who allegedly agreed with him on the trans issue. People are saying this is\u2026 https://t.co/7TEyOxogsT
p861
aVScaramucci wrote 'America deserves better' than 'unbridled demagoguery' in early 2016 op-ed aimed at Trump.  https://t.co/R4mmfAIJmc
p862
aV@washingtonpost Trump's tweet to Sen McCain was hypocritical call as Trumo terribly insulted McCain by calling him\u2026 https://t.co/RcG3p58mjQ
p863
aV@yashar Yes Trump is BUSTED after lying about not knowing about the meeting.  Jr Jared and Manafort met at Trump To\u2026 https://t.co/Sdf3ypQd09
p864
aVSure Looks Like Trump Knew His Son Was Meeting With Russians - YouTube https://t.co/qvF5EdezPA
p865
aV@nytimes MAJOR TRUMP SR LIE - said he would give big speech with new dirt on Clintons but thus was 2 days before Jr\u2026 https://t.co/qBRWQdXfsn
p866
aVTrump is caught in MAJOR LIE as he was to have a speech giving new dirt on Clintons -- except he said this 2 days BEFORE the June 9 16 mtg!!
p867
aVTwo days before Jr met with Russia, Donald Trump announced he would imminently reveal dirt on Hillary Clinton  https://t.co/bBWFnKar9x
p868
aV@Miriam2626 First thing authoritarians do is try to dismantle the free press.
p869
aVJustice official quits over White House conduct "I would not tolerate seeing in a company" https://t.co/3OgWgNzm6C # via @HuffPostPol
p870
aV@washingtonpost Trump is violating the First Amendment's Freedom of the Press. Since he can't read more than one pa\u2026 https://t.co/DGFooyQAhB
p871
aV@nytimes If Obama did even 1 of the 100s of horrible things Trump has, Repubs would call for his lynching. Trump ha\u2026 https://t.co/JO3ar1sYOv
p872
aV@washingtonpost Trump proves he is violating the First Amendment on freedom of the press.  First sign of attempted\u2026 https://t.co/sXGOsKRHIL
p873
aV@nytimes Trump is mentally unfit to lead America. The sooner he is exposed and removed from office, the better we w\u2026 https://t.co/CaamiKAoIT
p874
aV@hearthetin @washingtonpost Obvious that he is guilty of like tax fraud or illegal activities.  If not then why hid\u2026 https://t.co/GjRW1Z4qwH
p875
aV@washingtonpost States know Trump is using this ruse to purge the voting roles of anti-Trump voters.  This is the p\u2026 https://t.co/c64a3lE9g1
p876
aVSE Cupp: Healthy, happy people do not behave like Trump @CNN https://t.co/abO7OQ5LNl
p877
aV\u2018Disgraceful &amp; Shameful\u2019: Twitter Goes Nuts Over Trump\u2019s \u2018Bleeding\u2019 Facelift Tweet | Mediaite https://t.co/8RqXUeJrNm
p878
aVRT @peterbakernyt: Trump, whose properties display fake Time magazine covers with his picture, calls the Washington Post "fake news" after\u2026
p879
aVSick. Mocking a disabled person boosts Trump's self-image. Image if Pres Obama ever did this!  Sad for our nation.  https://t.co/Ec5pxSiESA
p880
aV@SenSchumer @SenateGOP Let's protest Trump's effort to stop normal WH press briefings. Imagine if Pres Obama had do\u2026 https://t.co/7Vr5AJ06Tw
p881
aVThe GOP\u2019s fantastically anti-democratic quest to kill health care in the dark - The Washington Post https://t.co/F5WEgQTHHv
p882
aV@FLOTUS Still not holding hands. She can't stand Conman Donnie.
p883
aV@FLOTUS Divorce time based on her hatred of husband Drumpf. Take Barron and avoid continued embarrassment.
p884
aV@realDonaldTrump Jared is hiding something asking for back channel to the Kremlin.  People are saying he is the key\u2026 https://t.co/mimsm2yzj6
p885
aV#WestVirginia Trump hurts WV citizens - https://t.co/CNsU4TQ9ez
p886
aVRT @nytimes: European visits by Trump and Obama: a study in contrasts https://t.co/pcF2ub6eB5 https://t.co/dx08zjVHYu
p887
aV@realDonaldTrump Must read   https://t.co/3bdEIgZXwD
p888
aV@realDonaldTrump You did not!  Trump played up to the Saudi backers of ISIS and AQ. what a complete zero and b s master.
p889
aV@realDonaldTrump @FLOTUS But can he find it on a map?  New theme is now Lock Jared Up!
p890
aV@realDonaldTrump Phony biased poll. Truth is 34% and falling.
p891
aV@nytimes Trump Is so fat that he can't button his coat.  So professional...NOT.
p892
aV@realDonaldTrump How did the Pope like Trump's "pussy grabbing" comment?  Two exact opposites - one an ignorant con\u2026 https://t.co/aEtz6Um0N1
p893
aV@PatcohenNYT Tax cuts have failed every time to stimulate growth.  Trump doesn't read so he's clueless.
p894
aV@realDonaldTrump Trump had no clue -- he was against immigration and helping the poor as he just favors the rich. H\u2026 https://t.co/h1P2DeESW3
p895
aV@SenSanders Trump is one master con and hypocrite who has lied to his base. Those lies will cost the Repubs. Lyin' Donnie is a scam artist.
p896
aV@realDonaldTrump Your base is upset as you broke your promise to stop Muslims in their Islam Hates Us talk.  Total\u2026 https://t.co/FMULdasPog
p897
aV@realDonaldTrump Hypocrite Trump derided Michelle for not wearing a headscarf, yet he simply says nothing about Mel\u2026 https://t.co/6GStI2bq8L
p898
aV#seattleslew Original $2 Win Kentucky Derby Ticket now on EBay!
p899
aV@realDonaldTrump @FLOTUS Strange words from a misogynist.
p900
aV@realDonaldTrump Clapper did NOT say that. Lying Don the Con is the master spinmeister.  BYW has Jared ever spoken\u2026 https://t.co/zmo7vsbipJ
p901
aV@realDonaldTrump Do others agree that Trump has seemed to age quite a bit in 6 mos?  He has less hair and his face\u2026 https://t.co/Z8m8ji8nqF
p902
aV@realDonaldTrump Logical -- if Trump is innocent, it would only be logical to have an Independent Commission invest\u2026 https://t.co/vzG8fIN6TT
p903
aV#seattleslew Go to EBay to collect a $2 Win Ticket from the May 7, 1977 Kentucky Derby on the 40th Anniversary of Skew's amazing win!
p904
aV@realDonaldTrump @CNN Why is Trump in hiding?   No public appearances. No news conferences. Scary stuff coming down on him.
p905
aV@realDonaldTrump Why is Trump in hiding?  Is he afraid?  Unwilling to hold a news conference on this which is only\u2026 https://t.co/pk9IE2PQjq
p906
aV@realDonaldTrump Trump's excuse for firing Comey is phony going back to HRC's email   It is obvious that was not th\u2026 https://t.co/jh6eOXJaB3
p907
aV@realDonaldTrump It is evident Trump did not write the Comey firing letter - too many multi-syllables and failure t\u2026 https://t.co/VnnAIS7HHp
p908
aV@nytimes It is evident Trump did not personally write the Comey firing letter -- too many multi-syllable words with\u2026 https://t.co/LnqWwsdcEt
p909
aV@kevliz97 @ABC Impeach the Malignant Narcissist!  And take his extended family too.  Lock them all up and bring civ\u2026 https://t.co/oRJ9gziBOC
p910
aV@realDonaldTrump Isn't Americans demand for drugs the real problem?   Suppliers merely fulfill that demand. If dema\u2026 https://t.co/AKCMvFEeT1
p911
aV@realDonaldTrump @SuperBowl @Patriots Love the Pats who boycotted visiting Trumo today out of respect to their fami\u2026 https://t.co/fnjpQE0IX4
p912
aVTrump\u2019s strike against Syria doesn\u2019t change the narrative https://t.co/A4aA6gWrcR
p913
aVWhy is Trump playing golf when Syria s a mess?  Sad.  Cannot believe he criticized Obama for just that!!! https://t.co/8gPTYJpozu
p914
aVPersonal irresponsibility: A concise history of Trump\u2019s buck-passing  https://t.co/0Wc88TpJ0i
p915
aVHas anyone ever heard Jared Kushner actually speak?  He appears stone faced with lips together. Can he talk?
p916
aVTrump Administration Hits Women's Health Fund  https://t.co/aueTQ6PgLl
p917
aVTrump Pulls Back Obama-Era Protections For Women Workers  https://t.co/xErxDjc0xg
p918
aVWhy Trump lies - Los Angeles Times https://t.co/c8nWdkNR2O
p919
aVOur Dishonest President - Los Angeles Times https://t.co/6FNzYYUtCA
p920
aVJudge to Trump: No Protection for Campaign Rally Speech Inciting Violence - NBC News https://t.co/HxKh8yO5Lo
p921
aV@realDonaldTrump Throwing 14 million off health care is subhuman to prove Trump has NO PLAN. Lying Kingpin Donnie h\u2026 https://t.co/wk9fpOnJx2
p922
aV@realDonaldTrump @FoxNews Lock Flynn up!  Lock Flynn up!  He is guilty bigly.  A black stain on Trump as he did zer\u2026 https://t.co/0Cjf9kqvgu
p923
aV@realDonaldTrump @FoxNews Trump failed again as Caterpillar shut an Illinois plant and laid off 800 workers.  Break\u2026 https://t.co/aJkuIezKyq
p924
aVA smart approach idea for health-care reform: Listen to the doctors! https://t.co/MpH4yfQqMw
p925
aVRT @originalgriz: Trump taking credit for Obama\u2019s economy is like someone inheriting millions from his dad and bragging about what a smart\u2026
p926
aV@maddow Rachel - re CIA Wikileaks how about playing Trump saying "I love WIkikeaks!"Yes but only if it benefits the moron.
p927
aV@realDonaldTrump  interesting how Drumpf tries to shift attention to outrageous allegations when he's in trouble for his Russia ties.
p928
aV@realDonaldTrump @politico   Yes Trump - change the subject and focus.  You cannot escape a formal investigation into your ties to Russia.
p929
aV@realDonaldTrump  made up this lie to try to shift the news from Russia as he did with Hamilton. He does NOT want a special investigation!!
p930
aV@realDonaldTrump  Drumpf is so obvious that he's trying to shift the news to this instead of Russia. Waited 6 months and has no claim source
p931
aV@williamlegate @realDonaldTrump  Americans must agree that Dictator Drumpf wants to silence the media and only allow his tweets as news!
p932
aV@realDonaldTrump @foxandfriends.  Why did Drumpf not have cameras when he allowed the mentally ill to buy guns w no background checks?????
p933
aV@POTUS   Draft Dodger Drumpf and his heel spurs excuse says "We have to start winning wars again" - a very scary thought for America.
p934
aVSweden\u2019s Defense and National Security Adviser? \u2018We Don\u2019t Know This Guy\u2019 - Bill O'Reilly/Fox News' Own Fake News https://t.co/Pb0s93JIcc
p935
aVRT @jcwolf5: @David_Gergen @CNN How about honoring long time First Amendment defenders Tom Brokaw, and Dan Rather at WHCD since President d\u2026
p936
aVTrump Voters, Your Savior Is Betraying You, via @nytimes https://t.co/c68QT2j0Kz
p937
aV@POTUS @USATODAY. Trump "owns" the killing of two Indians In KS due to his hatred and stirring up anger against immigrants.  Trump=hate.
p938
aV@realDonaldTrump Limbaugh is an obsolete guy with zero following. His lies are as bad as Lying Donnie-the Master Narcissist w thin skin
p939
aV@realDonaldTrump so stupid to think 306 is greater than 365 or 436. Someone told him his 306 was the highest. A complete lying moron.
p940
aV@realDonaldTrump sad that Drumpf likes leaks for him but not against.  Would have jailed Woodward and Bernstein and Nixon would be free!
p941
aV@realDonaldTrump Saying the Travel Ban was a smooth rollout proved he is a liar and acts like a dictator which he is trying to be. Impeach!
p942
aV@realDonaldTrump looks like it goes right up to Trump and Pence. Coverup.
p943
aV@realDonaldTrump reminds me of Nicon's Watergate coverup. This l
p944
aV@kylegriffin1 @maddow too difficult to believe Flynn told Russia the sanctions would be lifted. Who gave him the order?  Pence or Drumpf?
p945
aV@realDonaldTrump @nytimes Mr Drumpf cannot read as the NYTimes said no call with Xi before yesterday. Cannot read more than 140 words.
p946
aV@realDonaldTrump Do you know that people are saying Drumpf is lying when saying he wanted to delay the Travel Ban. He waited TWO WEEKS!!!
p947
aV@realDonaldTrump Do you know that peoplexsrevssy
p948
aV@Deana08757 @jules_su @JordanUhl are you aware the 911 attackers were from Saudi Arabia??!  Duh!!!
p949
aV@realDonaldTrump All we need to say is that Drumpf LIES (again).  Phony poll. Americans are against the Travel Ban!
p950
aVRead the letter Coretta Scott King wrote opposing Sessions\u2019s 1986 federal nomination https://t.co/2AUByEJcCO
p951
aV@LibertyUSA1776 @SenateDems McConnell blocked Barack all the time esp SC nominee. How do Repubs like that block and stop stuff now???
p952
aV@realDonaldTrump trump is a malignant Narcissist who is going to be impeached!
p953
aV@realDonaldTrump Lying Donnie is a jerk and has no idea what he's talking about. He's going to be impeached!
p954
aV@realDonaldTrump False Facts Donnie - BO Said the 7 countries were dangerous to visit" and NOT sources of terrorism. No one died ever!
p955
aV@realDonaldTrump @nytimes Drumpf attacks any media or person who has a different view. Just like Dictators Putin and Kim Jong Il.
p956
aV@realDonaldTrump Take responsibility Lying Donnie as YOU may start WW3
p957
aV@alicewonders101 You must love Maignant Narcissists!
p958
aV@POTUS Drumpf's immigration acts are deplorable. He is anti-US values.
p959
aV@POTUS Drumpf's imm
p960
aV@POTUS Trump is one sick Narcissist
p961
aV@POTUS Trump's ban on Muslim immigrants is reprehensible.
p962
aV@POTUS Trump's ban on Muslim immigrants is reprehensible.  He is a child with an uncontrollable tantrum.
p963
aV@POTUS Trump's ban on Muslim immigrants is reprehensible.  He is a child with an uncontrollable tantrum. Lying Donnie takes US back 40 yrs
p964
aV@POTUS the Mexican President is standing up to Trump's bullying tactics.  Trump's ego is a problem.
p965
aV@realDonaldTrump full support
p966
aV@realDonaldTrump Gen Mattis put Drumpf in his place by not allowing Drumpf to use torture against combatants.  Thought guy Trump no longer.
p967
aV@realDonaldTrump Mexicans are wonderful people!
p968
aV@realDonaldTrump @GOP @VP @SenateMajLdr @SpeakerRyan Lying Donnie told a Big Lie saying the Mexico meeting was mutual-liar. Pena cancelled!
p969
aV@GlennKesslerWP @maddow @ABC What else would you expect from Lyin' Donnie?  An architect who dealt with Drumpf termed him "despicable."
p970
aV@realDonaldTrump This is another example of this sick narcissist -- Lying Donnie and his major ego will be his downfall.
p971
aV@SenSchumer @SenateDems Dems need a Top Tweeter to counter POTUS and %realDonaldTrump
p972
aV@realDonaldTrump Just as he has a history of bankruptcies, so will Lying Donnie increase the deficit and natl debt just to satisfy his ego.
p973
aV@realDonaldTrump So watch Lying Donnie tell us the cost will now be 25B min. America under Drumpf is the laughing stock of the world now.
p974
aV@POTUS People are saying Melania wants no part of being FLOTUS.  She wans to live a separate life and will keep Barron in NYC not WhiteHouse
p975
aV@realDonaldTrump @WhiteHouse  Lyin' Donnie thinks we're fools as he lies about his having studies re the 3-5 million illegals voted no. Liar
p976
aV@realDonaldTrump broke a key campaign pledge as he now says he won't release his tax returns--ever!  Get used to Lyin' Donnie folks.
p977
aV@realDonaldTrump With all of the problems in the world, interesting this Narcissist elects to tweet about his low approval ratings. Sick.
p978
aV@realDonaldTrump is not publicly honoring MLK. A tweet is different from making a visit to an AA church and truly honoring him.
p979
aV@realDonaldTrump Why is Trump not publicly h
p980
aV@realDonaldTrump if you sue the 10 accusers, you will be open season in a deposition and discovery. Is Drumpf that ignorant?  YESSS!
p981
aV@realDonaldTrump LOSER Trump is seeing his Trump Hotels seeing -20% sales decline as smart people are boycotting anything Trump/Drumpf.
p982
aV@DonaldJTrumpJr  the rotten apple doesn't fall far from the tree with vicious remarks.  LOSER Trump Hotels - people say going bankrupt.
p983
aV@HillaryforIA @HillaryClinton Stand strong against the LOSER Drumpf who is simply a serious Malignant Narcissist!  He is ruining democracy!
p984
aV@DonaldJTrumpJr Oh Donnie Junior - too bad your Trump Hotels are going bankrupt too!  True Americans are boycotting anything Trump. SAD4U
p985
aV@TeamTrump @realDonaldTrump LOSER Trump is unpatriotic b/c he avoided the draft with his phony heel spur excuse.  He stiffs the vets too!
p986
aV@realDonaldTrump LOSER Drumpf lashes out b/c he is a Malignant Narcissist--an ignorant child who never matured.
p987
aV@gaywonk @CNN
p988
aV@MELANIATRUMP @people Your husband hates your thick lips!
p989
aV@MELANIATRUMP @people Trump really hates your thick lips!
p990
aV@realDonaldTrump @nytimes Lying Donald LIED saying Russia was killing ISIS as their targets are Syrian rebels. Ignorant narcissist.
p991
aV@realDonaldTrump Lying Trump LIED as US taxes are NOT the highest on the industrial world. Educate Trump on the truth sometime.
p992
aV@realDonaldTrump The vile Unamerican Drumpf is a classic malignant narcissist.  All symptoms are present--lashing out at perceived slights.
p993
aV@realDonaldTrump Dysfunctional Donnie only wants his base in Trump Media and doesn't want the Presidency.
p994
aV@realDonaldTrump How can Piggy Drumpf demand Obama's birth cert yet not release his tax returns. Not rich as he says!
p995
aV@realDonaldTrump @politico Mr. Piggy Chubby thinks he's a gift to women. Funniest thought ever!  Woman know he's a cad.
p996
aV@realDonaldTrump So sad I wasn't in Chicago when you were at the PNA.  I would have a sign saying Sniffles Lyin Drumpf. Melania is out.
p997
aV@realDonaldTrump @GovernorSununu even Gary Johnson is smarter than Drumpf and that is do sad.
p998
aV@RealKidPoker Danny please get into politics in addition t
p999
aV@RealKidPoker Danny please get
p1000
aV@realDonaldTrump Mark Cuban as a businessman makes Drumopf look like an unsuccessful student in Junior Achievement.
p1001
aV@RealKidPoker I am totally impressed at your political chops.  You have a shot in politics - smart and on point. Keep it going, Kid.
p1002
aV@realDonaldTrump Duuhhmmbb Donald didn't watch POTUS's full explanation today.
p1003
aV@realDonaldTrump Between Trump's racism gor all non-Caucasians and complete ignorance of the World, he
p1004
aV@realDonaldTrump Lying Donald is a complete ignorant dishonest narcissist. Show the tax returns Lying Donald!
p1005
aV@realDonaldTrump How ignorant is Trump saying there are 12 Articles in Constitution when just 10!  Trump should one day even try to read it.
p1006
aV@realDonaldTrump The reason you have any followers is that we want to seeyour horrible and degrading comments. Most ARE NOT your supporters!
p1007
aV@realDonaldTrump By insulting our military, you are sick. But by calling John McCain a "loser", you show you lack humanity and despicable.
p1008
aV@realDonaldTrump now you are trying to bully Mike Bloomberg by calling him "Little."  You are a 5 year old child bully with your insults.
p1009
aV@RealKidPoker Amazing to hear your spot on political comments.  Think you have a political career after poker!  Really proud of you!
p1010
aV@RealKidPoker So proud of you Danny for show
p1011
aV@realDonaldTrump was upended by Elizabeth Warren. Trump lashes out b/c he hates women who challenge him. Lying Pinocchio Donald.
p1012
aV@realDonaldTrump was upended by Elizabeth Warren. He is angry and lashes out b/c she knows he is Lying Pinocchio Donald.
p1013
aV@JoeWalsh
p1014
aVIf @realDonaldTrump is in favor of people having guns, why are they not allowed in his private rallies?  What a chicken!
p1015
aV@realDonaldTrump should be charged with treason for saying @POTUS favors our enemies over Americans.
p1016
aVChicago Tribune https://t.co/fbr81QpOt3
p1017
aVYou mean MAKE AMERICA HATE AGAIN!
p1018
a.