(lp0
VRT @villaverjerre: Obrador is a sell out to America if this was Enrique Pena Nieto non would this been happening they thrash Mexico big tim\u2026
p1
aVRT @wikileaks: Spanish newswire EFE quotes Ecuador's Attorney General on a plan to go with UK to binding international arbitration, then to\u2026
p2
aVRT @I_Katchanovski: Female pro-Maidan activist in #Ukraine died following acid attack. As usual, Ukrainian &amp; Western media, with rare excep\u2026
p3
aVShe\u2019s too Incase in her own self in Hollywood SVR finding that next hombre will question her between excess baggage or what she entails
p4
aVRT @elenaevdokimov7: I do not think that Sergey Skripal knew what he was getting into when he agreed to tell Steele/Miller some of his anec\u2026
p5
aVRT @elenaevdokimov7: Cyber-security firm CrowdStrike was the only one that was trusted by the Democrats, only it had access to the DNC serv\u2026
p6
aVRT @marklevinshow: Ken Starr: Trump hasn\u2019t committed anything close to an impeachable offense\u000ahttps://t.co/wU5jd1fI1H
p7
aVIt must be difficult for Selena to keep up on Bieber\u2019s antics but hey no jealousy  what  goes around comes around \u2614\ufe0f
p8
aVJustin Bieber 'Feels Something Is Missing' from Life \u2014 But Is 'Grateful' for Hailey Baldwin: Source https://t.co/xOBuZcb5kq via @Yahoo
p9
aVRT @mannypacquiao: Lovely day in London. On our way to church. https://t.co/2VR809qnRp
p10
aVRT @Breakingviews: Brazil\u2019s Bolsonaro gives China electric shock, says @cbeddor: https://t.co/zSUgb0G1bC https://t.co/0X5j3jvXpw
p11
aVBari Weiss | Real Time with Bill Maher (HBO) https://t.co/lJrwCm4BqZ via @YouTube
p12
aVRT @villaverjerre: Oliver Stone - Speech at Writers Guild Awards 2017 [ABRIDGED] https://t.co/Z5vxEVlrJY via @YouTube
p13
aVThe Munk debate in Toronto wow wow we
p14
aVRT @villaverjerre: Evidence the Israel Lobby Control the US Government https://t.co/9GA4fQEKS8 via @YouTube
p15
aVRT @villaverjerre: Munk Debate: The Rise of Populism https://t.co/quxzKIURto via @YouTube
p16
aVRT @villaverjerre: The U.S. is Plotting a Color Revolution in Russia https://t.co/wseF8wvNQ4 via @YouTube
p17
aVI got news for you folks whether you like it or not the Trump Putin changing the world template is definitely on ju\u2026 https://t.co/RwWGnY9KdR
p18
aVWho cares if priyanka Celebrates  her bachelorette party or the Bieber eats his burrito sideways remember where in\u2026 https://t.co/Ur6Zi7yEvb
p19
aVRT @haaretzcom: Jeursalem municipality inspectors caught on camera confiscating Palestinian female vendors' goods https://t.co/S0dnYYUFiP
p20
aVThis is vital for mankind\u2019s conscience what\u2019s good wll it do in good sleep when we know someone\u2019s suffering
p21
aVIf Hollywood can\u2019t free Assange who will  ? this is were putin trump comes  steps in
p22
aVLet\u2019s get this one right as quoted by Mark \U0001f64f levin
p23
aVObrador is a sell out to America if this was Enrique Pena Nieto non would this been happening they thrash Mexico bi\u2026 https://t.co/c67FwXXVRy
p24
aVFolks it\u2019s no brainer the dems victory will be 50 - 50 or  the on plus side however you translate it Potus will ext\u2026 https://t.co/0ukLcSwkSu
p25
aVIs Trump a extension of Obama  n what did Obama whisper to Melania on the capitol during marine one left on Inauguration Day ?
p26
aVRT @DeanObeidallah: Louis Farrakhan on Trump: \u201cThe nature of this administration is good for us,\u201d adding as a compliment, \u201cThere\u2019s never be\u2026
p27
aVLet\u2019s be honest we\u2019ve lost more navy seals because of very bad policy\u2019s of our government n who to blame the voters in part so vote \U0001f5f3
p28
aVRT @theintercept: Until we start to understand the causes of the cultural, economic, and political alienation spreading across the world, w\u2026
p29
aVThis is it folks our life in the planet betterment or destruction  n more suffering to the hands of the Rothschild\u2026 https://t.co/uSG77wdnps
p30
aVPause m glorify the our Lord n saviour \U0001f64f https://t.co/QWiJJlFgRE
p31
aVDrop your dislike and save your breath DJT and Melania will win 2020 whither you like it or not
p32
aV\u2728Haaretz is to Tel Aviv as Tass is to Moscow powerful print n digital media\u2728
p33
aVIf Sinatra was still with us this was been taken care of
p34
aVIt\u2019s not good to make someone suffer whatever your intentions are  if America don\u2019t want Assange  pres Putin takes lightning action
p35
aVPlea : we need world leaders politicians now Hollywood celebs religious groups institutions or think tanks who\u2019s no\u2026 https://t.co/tJx6JnTEcI
p36
aVIt\u2019s one of us a mother who cares for a son or daughter Julian Assange mom begs to have her son freed the Uk \U0001f1ec\U0001f1e7 n A\u2026 https://t.co/xZmlcvm2U5
p37
aVShe gonna uber herself SVR from Hollywood Bl \U0001f4b0abt 12;20 am
p38
aVEvidence the Israel Lobby Control the US Government https://t.co/9GA4fQEKS8 via @YouTube
p39
aVWill Prince Harry and Meghan the Duchess of Sussex make their goal for humanity in freeing Julian Assange
p40
aVWhen you go to sleep tonight pray for Julian Assange  and what is the U K government doing about it
p41
aV@McDonalds  is big in Tel Aviv with 150 branches 50 are kosher
p42
aVRT @villaverjerre: Loma Linda unveils rendering of new hospital - KESQ https://t.co/5iimcP0xco
p43
aVRT @villaverjerre: Loma Linda University Health performs Southern California&amp;rsquo;s first Vercise implant to treat Parkinson&amp;rsquo;s disea\u2026
p44
aVOpinion : Putin believes in second chances only if the west take heed Putin is so entrench in power and people supp\u2026 https://t.co/G7ZwvYJZY0
p45
aVWhat\u2019s the use of being the chosen ones if you don\u2019t speak up against domination and one sided  in justice
p46
aVBannon was to Trump as Axelrod was to Obama
p47
aVBannon was meant to be in the outside looking in that how the games is played
p48
aVMunk Debate: The Rise of Populism https://t.co/quxzKIURto via @YouTube
p49
aVThis the right time in my opinion to ask the burning question when wil we stop \U0001f6d1 handing out  billions $ foreign ai\u2026 https://t.co/zPAiOMeSdp
p50
aVLiving under the oppressive regime of Bar Refaeli https://t.co/IDq6mQBp51
p51
aVWatch for signals and noises there's  gonna be Flash Bangs everyday........Bannon
p52
aVBannon is to Trump as Alexrod was to Obama
p53
aVThe U.S. is Plotting a Color Revolution in Russia https://t.co/wseF8wvNQ4 via @YouTube
p54
aVStop wasting your time energy n dislike Trump n gorgeous Melania will again grace the White House January 2021\U0001f64f
p55
aVOpinion :What did go wrong Obrador got elected  greenlight on the caravan push thru with Enrique Pena Nieto this wo\u2026 https://t.co/UtoexU7j0M
p56
aVOpinion: obviously it is political correctness but the caravan issue to change immigration loop hole it\u2019s abt China\u2026 https://t.co/0yL6I5Cskg
p57
aVMark Levin November 02 2018 Podcast https://t.co/qT4DCx03jp via @YouTube
p58
aVMy bets goes to kemp Nelson hill rouda Feinstein
p59
aVI\u2019ll go out on limb Mcsally takes Arizona Senate seat $
p60
aV\u2728Giselleblondet\u2728
p61
aVForever Young: The Beauty Rituals of Mikaela Lagdameo-Martinez https://t.co/P2RBJHeLfm #Townandcountry.ph via @tandcMagph
p62
aVhttps://t.co/0RdHlOWYI3
p63
aVRT @mikaelamartinez: We\u2019ve both been so busy these past few months, it was a miracle to finally find a date to catch up with this superwoma\u2026
p64
aV@johnfkirby63 @JohnKerry @msfsinfo How was it working with Victoria Nuland in few sentence ..........
p65
aVRT @villaverjerre: Acts 2:17  K J version...... in the last days God says i will pour out my spirit in all flesh your sons and daughters sh\u2026
p66
aVRT @villaverjerre: People change\u000aFeelings fade
p67
aVBarbra Streisand - Someone That I Used to Love https://t.co/yHlMzYfEAz via @YouTube
p68
aVCan the populations of Jerusalem and its surroundings  Sleep good at night knowing their nation has 200 Nukes ?
p69
aVHow America Was Almost Destroyed By Criminals - and How They LOST! https://t.co/cg60oHF9Mz via @YouTube
p70
aVManny Pacquiao To Speak at Cambridge, Oxford Universities - Boxing News https://t.co/nF6J3C4nib
p71
aVOpinion: as the positive charge of the me too movement and investigate Russia  fizzles out will they recoil and spr\u2026 https://t.co/vIhGXfszGi
p72
aVMy guess another major major revelation will buzz out of Hollywood soon
p73
aVJOE ROGAN - HILLARY CLINTON was "FLAWED", SETH RICH MURDERED by CLINTONS? https://t.co/efqNnez581 via @YouTube
p74
aVRT @andrewrsorkin: Thiel thinks the Democrats badly overplayed their hand re allegations that Trump is tied to the Russians. He also thinks\u2026
p75
aVIDF sees move south as way to rebrand as tech giant | The Times of Israel https://t.co/jDxXrUmpjO
p76
aVThe Negev\u2019s one-stop shop | The Jerusalem post https://t.co/4jCJKrjdX1
p77
aVThe  Arnold the terminator will be on  axelrod files
p78
aVOpinion : Pelosi Cruz Feinstein will be overcome n stay in political shell but King Rohrbachr Gillum and Abrams comes short
p79
aVWith Oprah a Democrat for Obama but with abrams she\u2019s independent what a switch?
p80
aVEnrique Pena Nieto  was a July contender like Bush meaning tough the caravan wouldn\u2019t happen on Nieto pans watch bu\u2026 https://t.co/v3LpEPGzp0
p81
aVRT @michellemalkin: Joining @PC1170 on radio - KFAQ in Tulsa - to talk news of the day &amp; #freedanielholtzclaw
p82
aVRT @amychua: Here\u2018s a link to an NBC story with excerpts from my statement: https://t.co/aeQYWJyag7
p83
aVRT @lizwahl: Looks like Russian trolls are busy trying to spread disinformation to discredit Mueller. The far-right and @seanhannity are en\u2026
p84
aVMark Levin November 01 2018 Podcast https://t.co/g18mEUaByM via @YouTube
p85
aVBarbra Streisand - Someone That I Used to Love https://t.co/yHlMzYfEAz via @YouTube
p86
aVRT @villaverjerre: The Map That Shows Why Russia Feels Surrounded - Mike Maloney https://t.co/rZIWEqG6oj via @YouTube
p87
aVOpinion : Pres Putin thinks good alliance with America as always deserves a second change if Washington ignores thi\u2026 https://t.co/z2754rBHOS
p88
aVWhy Did Israel Wonder in the Wilderness 40 Years? https://t.co/XK2NQhcPia via @YouTube
p89
aVRT @haaretzcom: New immigrant from Russia came to Israel leaving a $500 million debt behind https://t.co/dwq7qBi9lC
p90
aV\u2728Actors Will Lyman and Liev Scbreiber are the two premier narrator voice over artist of our time their destinctive\u2026 https://t.co/GSLW9V6sPo
p91
aVJewish History - Evidence Of Ancient Israel - Full Documentary https://t.co/3rFKpnZLXB via @YouTube
p92
aVISRAEL'S SECRET WEAPON - THE TALPIOT PROGRAM https://t.co/kdrBGF5J5Z via @YouTube
p93
aVPeople change\u000aFeelings fade
p94
aVRT @villaverjerre: \U0001f1fa\U0001f1f8MARK LEVIN: Steve Schmidt is a PARASITE, and better HOPE we never meet... https://t.co/FroDEsExYN via @YouTube
p95
aVRT @DEADLINE: \u2018Saturday Night Live\u2019 Sets Liev Schreiber To Host In November https://t.co/zYzSNR8SHy https://t.co/HgkC9HTs5w
p96
aV\U0001f1fa\U0001f1f8MARK LEVIN: Steve Schmidt is a PARASITE, and better HOPE we never meet... https://t.co/FroDEsExYN via @YouTube
p97
aVDon\u2019t be to harsh what made say that wait till gets in office he need more time in actuality this the new world pol\u2026 https://t.co/OilWZrS3U7
p98
aVYOU MADE ME LIVE AGAIN - JANET BASCO with Lyrics-(bccalugas) https://t.co/e8lPLmAEEp via @YouTube
p99
aVGuesstimate rohrbachr n  King might lose they\u2019re seats but I may wrong
p100
aVRT @haaretzcom: A private Mossad\u000ahttps://t.co/QdUBoxs9C2
p101
aVOpinion : Megyn Kelly African American face stunt 3 strike rule should been have applied or second chances by Comca\u2026 https://t.co/cpdspd11mv
p102
aVRT @villaverjerre: Haaretz is Tel Aviv as Tass is to Moscow Both Print and Digital  Power House
p103
aVAnchor babies illegal maternity ward in San Gabriel Valley are thriving\u000aBirth right citizenship may be signed by PO\u2026 https://t.co/nvXDfOUYmd
p104
aVWhy does Tel Aviv want so much billions $ from Uncle Sam Obama give them 63 bil $ they got $!Hollywood n the Rothsc\u2026 https://t.co/0vLYZPXR2t
p105
aVRT @Rita_S__: @IvankaTrump https://t.co/zpMJOO2fSx
p106
aVThe Untold Lives Of The Saudi Royal Family https://t.co/AdkyJxNQ4J via @YouTube
p107
aVJust like what happened to Andrew Breitbart Jamal Khashoogi Boris Nemtsov MH 370  We will never know ...that life?
p108
aVMy guess Megyn Kelly will make that leap R T Russian today T V  Senor Putin's baby in the cradle
p109
aVThe Savage Nation with Michael Savage Oct 29, 2018 https://t.co/ePG3Yr3pPP via @YouTube
p110
aVOliver Stone - Speech at Writers Guild Awards 2017 [ABRIDGED] https://t.co/Z5vxEVlrJY via @YouTube
p111
aVMust we the people say more ?
p112
aVRT @Rita_S__: @IvankaTrump https://t.co/2zylvmBOhd
p113
aVFocus on Mexico \U0001f1f2\U0001f1fd their leaders are mum abt it allow this  poor hungry migrants stomp on sovereignty garbage and t\u2026 https://t.co/UpfgdcGZ8A
p114
aVRT @LauraLoomer: Ummm\u000a\u000a@jack? \u000a\u000aHello? \u000a\u000aIsn\u2019t this a violation of your TOS? https://t.co/KjkKObPOkR
p115
aVHaaretz is Tel Aviv as Tass is to Moscow Both Print and Digital  Power House
p116
aVBannon is to Trump as Axelrod was to Obama look for signals and noises there gonna be flash bangs everyday ? ......
p117
aVSteve Bannon | Real Time with Bill Maher (HBO) https://t.co/E8TVvn7w3w via @YouTube
p118
aVPresident Duterte fires all top Customs officials https://t.co/0qx81weMPd via @YouTube
p119
aVThe tree of life......................Wikipedia \u270d\ufe0f
p120
aVThe nations of world clearly understands now is the time ............forget how Justin Beiber' s eats his burrito s\u2026 https://t.co/q6hqF2rJys
p121
aVWe cannot forget what THEY did to Andrew Breitbart
p122
aVJair Bolsonaro wins In Brazil
p123
aVConjecture conjecture .....In a dramatic way Dodgers will win tonight force a game 6 in Boston OR Monday news will\u2026 https://t.co/4Gm8yf9E49
p124
aVOur world is beleaguered in trying times divisiveness mix emotions and a lot of perplexities only God can heal
p125
aVIt wasn't mean spirited just face what's true and fair
p126
aVWe won't allow KSA and Tel Aviv to control America any longer it breeds distaste and overpowering think about it wh\u2026 https://t.co/OCa5k8WSq8
p127
aVWhy did Chinese pick southern Mindanao to do Business and open a Consulate  ? \u000a Bonanza  of PINEAPPLE its Pres Dute\u2026 https://t.co/FIBLgSXRgO
p128
aVOpinion :15 States out of the USSR was meddled influenced robbed big by the West\u000ain case you forgot...........the R\u2026 https://t.co/dQeJJ7GnZU
p129
aVLeningrad\U0001f307Stalingrad
p130
aVThe re-opening of Boracay island counts as Pres Duterte achievement https://t.co/jVMDfrTxjk
p131
aVIvanka Trump Spring 2013 Collection Photo Shoot https://t.co/id2Jp2wgPN via @YouTube
p132
aV\u2728 Ivanka Trump for President 2024\u2728
p133
aVIvanka Trump Fragrance https://t.co/PSQBakKrge via @YouTube
p134
aVWatch \u201cThe Issachar Factor\u20142\u201d on #Vimeo https://t.co/Z8NFJz5bmF
p135
aVRT @riley1999: Wasn't it just 2 days ago that Fl Democrat gubernatorial candidate Andrew Gillum had someone forcibly removed from a synagog\u2026
p136
aVTel Aviv is hammering us with billions of foreign aid they don\u2019t need pondering \U0001f914 do you think that fair
p137
aVOpinion : the next false flag is pharma and the Rothschild withdraw some money in case the atm go bust
p138
aV15 states out of the USSR was meddled and influence by the west and you wonder why Putin is finding ways to get his\u2026 https://t.co/iTLUO2KGt4
p139
aVRT @Piaget: Let the music play with the Colorful Symphony. A watch in white gold set with 2 saphhires, emeralds and diamonds. #PiagetSunlig\u2026
p140
aVActs 2:17  K J version...... in the last days God says i will pour out my spirit in all flesh your sons and daughte\u2026 https://t.co/SLp79h0grz
p141
aVWhats the used of the BilderBerg Group and CFR if most brilliant btains cannot come up a final solution for the Mid\u2026 https://t.co/T1HzNmuLwT
p142
aVWe been bamboozled over and over again this cycle of asking foreign aid from uncle Sam will haunt us for the rest o\u2026 https://t.co/mRR5Tk7ciy
p143
aVThis piece applies not only nuclear with Russia \U0001f1f7\U0001f1fa Iran \U0001f1ee\U0001f1f7 India \U0001f1ee\U0001f1f3 Pakistan \U0001f1f5\U0001f1f0 North Korea \U0001f1f0\U0001f1f5 but nuclear \u2622\ufe0f Tel A\u2026 https://t.co/qGSfKQya4W
p144
aVThe Savage Nation Michael Savage October 26, 2018 https://t.co/9VKd49X9Zw via @YouTube
p145
aVI reckon if Bill Maher's Guest goes in style they stay at @Sofitel Or #Waldorfbh
p146
aVForget Justin Bieber how he eats his burrito  sideways front ways ....who cares WE got to get this thing right
p147
aVBannon was meant to be in the outside lookin manageable this way Bannon was to Trump as axelrod to obama
p148
aVSayoc is framed by syops \U0001f4b0
p149
aVSafely through another week..........Adventist hymn
p150
aVHmm plantation that were a journalist got kicked out by gillum
p151
aVOnly the ones not brief goes tv  and gives emotional testimony of their made up plight that  they might reach the p\u2026 https://t.co/sGDrVScAfF
p152
aVThe plights of Central American caravan is affecting everyone compassion shock mind boggling prayers but truth stil\u2026 https://t.co/UwQFJX01rO
p153
aVISRAEL'S SECRET WEAPON - THE TALPIOT PROGRAM https://t.co/kdrBGF5J5Z via @YouTube
p154
aVIs Pm Netanyahu frustrated with America \u2b55\ufe0f?
p155
aVOpinion How did the ancient Israelites got it  so wrong when God bestow then the the the blessing of being the  cho\u2026 https://t.co/oZxdanRqVq
p156
aVThe Rothschild oops i mean Red shield Domination  is failing  to a precipice that we won't regret
p157
aVFormer President Enrique Nieto Pena Disapprove of the caravan crossing Mexico's Sovereignity but when Obrador came\u2026 https://t.co/MTAAEaBItE
p158
aVAm quite curious high low % of ashkenazi have ancient Israelites have on them?
p159
aVFace recognition is here ask yourself and note ..........1. Alien ? or  2. Human ?
p160
aVHAARP-- What is HAARP  IS HAARP Dangerous   HAARP and Weather Control.flv https://t.co/pTK0xaLZOk via @YouTube
p161
aVHaarp like can be produce in 3 days ? there are Haarp station around the globe who releasing what/ https://t.co/GY43I6fcYL
p162
aVAll that glitters is not all gold\u270d\ufe0f
p163
aVOpinion: President Putin ambition towards Eurasia alliance is in back burner mending America\u2019s negative \U0001f44e approach\u2026 https://t.co/LB8MQD6wXB
p164
aVTwo can play the game https://t.co/SbZ9OffybZ
p165
aVWhat next for the Saudis if the only commodity oil is out of the equation ? https://t.co/wHMvBsVhV1
p166
aVA grand repercussions for Mexico \U0001f1f2\U0001f1fd thru the garbage and trash this straggling folks  bring  and the disease and unvetted health ailments
p167
aVFed's Fischer: Bail-Ins Coming For Your Cash https://t.co/REzppNnqEl via @YouTube
p168
aVAttack Of The Algorithm https://t.co/HzAT7Yjw9k via @YouTube
p169
aVOnly if American Geniuses in higher learning the like of Harvard Yale Princeton And Stanford would come up with fin\u2026 https://t.co/GkHEq0hOwP
p170
aVYou kill the golden goose you will not have those golden eggs per Mark Levin \u270d\ufe0f
p171
aVNo state income tax in Florida
p172
aVManny Pacquiao vs Adrien Broner Reportedly Set For January  https://t.co/KoMSt0oXai via @HotNewHipHop
p173
aVThis is Trump's  secret\u2728 weapon Melania the first lady if you stay course with them..... all or nothing .....we got\u2026 https://t.co/zBYO94avCC
p174
aVShe great a\u2728 Slovenian beauty  has grace and glamorous luxurious\u2728 https://t.co/HLgn4tZHX9
p175
aVWith the advent of electric cars and LPG vehicles  and less dependent in oil \u000aIs oil becoming extinct ?  Former Sec\u2026 https://t.co/aanyZ3QOyE
p176
aVOil is not the way it used to be ..... former defense sec ash carter
p177
aVObama Pope Francis and Dr Ben Carson have in common their families are 7th Day Adventist
p178
aVI beg to differ Sen Pacman 60-7-2- 39 KO is managed  by a finicky  promo dude all all all about this\U0001f4b0why do you thi\u2026 https://t.co/JfkQ5dVz4i
p179
aV@Araksya My thought ..... obviously watch n wait but its better to leave them alone let them come to America home o\u2026 https://t.co/EgxIMpRnVQ
p180
aVWhat are the chances both escort twins has decorated neck chain it just looks glam
p181
aVWhat gem and a blessing to have Foreign Journalist who speaks Bulgarian Arabic Russian and Italian in the order and\u2026 https://t.co/dv3inVagTR
p182
aVIt difficult to decipher the Istanbul  Khashoggi hit but it certainly mirrors the mossad take down on one target in\u2026 https://t.co/pnJv1i86rx
p183
aVThe balm in gilead\u2728
p184
aVHaarp 72 hour models Hurricane Willa is slated to pound Sinaloa and Nayarit acaray
p185
aVOpinion:a similar organized plan for the south american migrants workers to intrude into Mexican sovereignty was su\u2026 https://t.co/kWntu3V0z9
p186
aVSmh the Dodgers payroll is over 200mil a season ?
p187
aVRT @PiaWurtzbachUni: Michele Gumabao, Philippines is now ready to conquer the GLOBE! #MGforMG https://t.co/K1qkJeiul6
p188
aVUNMASKED: The Hero Who Brought Down Obama and the Democrats https://t.co/T2iSsLYAQC via @KevinJacksonTBS
p189
aVHas China been duping the US for nearly half a century? https://t.co/cGAYZi05Dj via @YouTube
p190
aVNetanyahu At War Part 2 https://t.co/SkSflFYHf3 via @YouTube
p191
aVNetanyahu At War Part 1 https://t.co/p0rV9tvYlO via @YouTube
p192
aVBut wait up distancing ourselves to Russia n applying sanctions is not the right corridor it begets contempt ? https://t.co/7kvOsXCoXD
p193
aVThanks for service to America sir \U0001f1fa\U0001f1f8\U0001f64f https://t.co/rbcyz4ZNUG
p194
aVLots candidates posturing for public office n congress but nowhere do they address aipacs control so when do start\u2026 https://t.co/2AYezyXvy7
p195
aVThere more to Khashoggi takedown perhaps on the dark side of high finance if he was handcuffed when the Turks disco\u2026 https://t.co/aLEFZWDlEO
p196
aV"The World Is a Business, Mr. Beale" https://t.co/pTiMH6rfdh via @YouTube
p197
aV"Tolstoy's Confessions" by Clifford Goldstein https://t.co/7v0QLabyuI via @YouTube
p198
aVOur skies are polluted from 13k jets crowding the firmament the wine have traces of Fukushima disaster the door to\u2026 https://t.co/v6Kd2dheFe
p199
aVL A businessman Peter O Malley sold the Dodgers to 20th C Fox Rupert Murdoch $350 mil  and Mr Murdoch subsequently\u2026 https://t.co/hbsDskYwYt
p200
aVLoma Linda University Health performs Southern California&amp;rsquo;s first Vercise implant to treat Parkinson&amp;rsquo;s\u2026 https://t.co/zj4rHGF259
p201
aVLoma Linda unveils rendering of new hospital - KESQ https://t.co/5iimcP0xco
p202
aVI have news for you Trump will win 2020 Trust me\U0001f64f https://t.co/oLqLLpUm8p
p203
aVThe West stole  influence  meddled 15 states out of the former USSR if not we wont have this this  this Trump-Russia narrative ?
p204
aV@LorettaLynn \U0001f64f\U0001f64f\U0001f64f\U0001f64f\U0001f64f\U0001f64f\U0001f64f
p205
aVSaudis\u2019 Image Makers: A Troll Army and a Twitter Insider https://t.co/NGx7R2r98D
p206
aVMission: Impossible 5 - Rogue Nation - Prime Minister Scene (HD) https://t.co/pfI57H1vUr via @YouTube
p207
aVRT @JoseCortesJr: 6/6 Really enjoyed my time sharing with present and future Medical Doctors and Scientists at Loma Linda University last n\u2026
p208
aVRT @JwPrebich: #ff #poets\u000a\u000asome people\u000awho come into our lives \u000aleave footprints\u000aon our hearts \u000aand we are never the same\u000a\u000a\u2014 amy winehouse\u2026
p209
aVRise of the Rothschilds: The World's Richest Family https://t.co/nJSV7hPoiH via @YouTube
p210
aVAlthough cabernet bottled after the 2011 disaster contains double the amount of pre-Fukushima radiation, researcher\u2026 https://t.co/A9tfTVCjLI
p211
aVKarlie Kloss and Josh Kushner tie the knot https://t.co/GnwEpBrrgE via @pagesix
p212
aVLet go for halo halo  since its warm in the city of Angels at Joliibee's the McDonald of the Philippines they're ar\u2026 https://t.co/Pcw3pBJ7yu
p213
aVIf Khashoggi was targeted n had excess bagagged  in his past why the hit now was high finance in the mix? https://t.co/OjAarnoXEv
p214
aVPBS frontline undercover  video reveals the other side of Kingdom of Saud Arabia
p215
aVAre seafood in the pacific catch contaminated by Fukushima nuclear incident \u2622\ufe0f
p216
aVRT @sunstaronline: Philippines, Israel sign oil exploration deal https://t.co/4TuZaWi1fj https://t.co/xpI4qPmEvk
p217
aVWatch \u201cTales From A Vineyard: When You Can't Get Any Closer!\u201d on #Vimeo https://t.co/e1RsVzsmG5
p218
aVBob Arum Won't Promote Pacquiao vs. Mayweather II, 'They're Not Elite' https://t.co/K6mehY0stW via @TMZ_Sports
p219
aVI'd Dump the Israelis Tomorrow --Ex-CIA Michael Scheuer Tells Congress https://t.co/YSeRx5DpdI via @YouTube
p220
aVRT @AdventistHealth: In honor of Women\u2019s Health &amp; Fitness Day, we\u2019ve asked Adventist Health associates how they enact small, healthy change\u2026
p221
aVRT @wikileaks: U.S. comedian @Jimmy_Dore on Facebook's censorship spree against establishment-critical sites https://t.co/ZOQvmrOMdX
p222
aVI don\u2019t think Beto can\u2019t force Ted out he\u2019s deepseated in government hard try \U0001f64f
p223
aVOnly Three Countries Left Without a ROTHSCHILD Central Bank https://t.co/kgv3EWlQ32 via @wordpressdotcom
p224
aVWhat they did to Al-Waleed Bin Taal was HORRIBLE speculations and reports suggest  they hung him upside down  true\u2026 https://t.co/9gxBynk3S3
p225
aVRT @go_show95: An American with a pair of balls\u000a\u000aWhat the fuck is wrong with the rest of you https://t.co/ibwia8zbOu
p226
aVRT @haaretzcom: Polluted Water Leading Cause of Child Mortality in Gaza, Study Finds\u000ahttps://t.co/25tfYhB02x
p227
aVEvidence the Israel Lobby Control the US Government https://t.co/9GA4fQEKS8 via @YouTube
p228
aVAIPAC was founded 1951 By Canadian born Isaiah Kenen american journalist lawyer and philantrophist
p229
aVRon Burkle buying Bob Hope\u2019s Toluca Lake estate for $15M https://t.co/3bpUdj2QiJ via @CurbedLA
p230
aVRT @lucchesi: tl;dr: \u000a\u000aThere will be lumpia at @chasecenter. This is awesome, and the way it should be. It is reflective of the Bay Area. h\u2026
p231
aVIs it ripe for Amy Coney  Barrett to replace RBG it remains to be seen
p232
aVMy guesstimate Meghan Markles baby will be a princess \U0001f478
p233
aVSometimes i Smh The Trump phenomena never been done before and come 2024 when ivanka Runs Jared will be happy as a lark \U0001f644
p234
aVISRAEL'S SECRET WEAPON - THE TALPIOT PROGRAM https://t.co/kdrBGF5J5Z via @YouTube
p235
aVRT @USEmbRuPress: Ambassador Huntsman reflects on the importance of people-to-people connections during his first year serving as U.S. Amba\u2026
p236
aVRT @officialmcafee: My presidential run and its potential boon to the CryptoSphere is being talked about as far away as Qatar. The Blockcha\u2026
p237
aVMost Containers that goes to thru the port of Long Beach and port Of L A not thoroughly check
p238
aVCrawford could pose a threat to Pacquiao........not !
p239
aVHistory of Russia (PARTS 1-5) - Rurik to Revolution https://t.co/Dmj9a4M2ZK via @YouTube
p240
aVIsrael / Palestine - History of the Jews (Part 1) https://t.co/EAhSYfuvqo via @YouTube
p241
aVHarbingers\U0001f1fa\U0001f1f8
p242
aVUkraine's Anti Russian Stance Is a Zionist Masterplan - Sheikh Imran Hosein https://t.co/fdmCtFMT0F via @YouTube
p243
aVThunder and lightning peeling over Los Angeles heavy down pour of rain?
p244
aVThe Meaning of Life - Sam Harris https://t.co/Wc4eoAASNZ via @YouTube
p245
aVIf its Friday its new rules on real time with Bill Maher with guest Rebecca Traister and Omarosa to name a few
p246
aV@briantylercohen has eyes by blind to see ?
p247
aVWhat Jamal Khashoggi Story Says About US Leadership | Morning Joe | MSNBC https://t.co/c2O2OuOeS5 via @YouTube
p248
aV@etnow Either way she look pretty with this hair makeover
p249
aVFree him and let them enjoy 50-50 split with Floyd
p250
aVWar is good business the threat of war is good business
p251
aVthey used depleted uranium and white phosphorus
p252
aVFarrakhan Speaks! The plot against Pres. Obama, Global Depopulation, &amp; A... https://t.co/4m394gR3wh via @YouTube
p253
aVRussia China and the United States have haarp weather modifications technology so you know Tallahassee
p254
aVPetrodollar Scam Breaking Down https://t.co/KoLOFwtU6Z via @YouTube
p255
aVif they go war against Iran They  will lose the Presidency and Melania wont let it happen too much is at stake
p256
aVRT @jeffreyatucker: My instincts tell me that Taylor Swift is not the reason voter reg just spiked nationwide. More likely, it was the reve\u2026
p257
aVTHEY ARRIVE - BILDERBERG 2016 https://t.co/PMEeRpYV1h via @YouTube
p258
aVSome claiming a cover-up surrounding Justice Scalia's death https://t.co/kzYy82MIcZ via @YouTube
p259
aVAmerica's Lies On Ukraine https://t.co/dWtSWD6iXS via @YouTube
p260
aVNo. 24: Dennis and Carol Troesh https://t.co/v2rNfpukkS via @Philanthropy
p261
aVhttps://t.co/eWbV147mAZ
p262
aVBloomberg Values Adventist Investor at $2.2 Billion https://t.co/S8XvFTJvat
p263
aVQuinquennial Report - Loma Linda University Health https://t.co/10Y649cETV via @YouTube
p264
aVSpaceX Falcon 9 Launch &amp; Landing SAOCOM 1A MISSION LIVE Stream https://t.co/x1HnsNhuod via @YouTube
p265
aVBoxing and MMA identical in terms  $ follow the Money since loud mouth Conor has 3 loses i hope  he doesn't get Shi\u2026 https://t.co/t29jXAHLAZ
p266
aV@OzzyOsbourne @ShorelineAmp \U0001f64f
p267
aVThe Whole Jewish History in One Hour https://t.co/sWTYXQSEh9 via @YouTube
p268
aVJewish DNA - Genetic Research and The Origins of the Jewish People https://t.co/p3KnqAoDdj via @YouTube
p269
aVBannon was to Trump as Axelrod was  to Obama James Carville was to Bill Clinton and Carl Rove was to  the Bush mach\u2026 https://t.co/TtDN0TrIwY
p270
aVDare to be a Daniel dare to stand alone
p271
aVLayers Of Jewish Power ! Shocking Video https://t.co/9jgVtILNo7 via @YouTube
p272
aVTupac is alive in Malaysia, according to Suge Knight's son https://t.co/cNwHhzqoSX via @businessinsider
p273
aVChina used a tiny chip in a huge hack that infiltrated Apple and Amazon https://t.co/9uLpOLUHp4 via @BW
p274
aVPotus choices for Scotus; waiting the wing Are Amy Coney Barrett -Raymond Kethledge - Mike Lee of Utah and perhaps a Hispanic Judge
p275
aVThe first surveillance team was key and yet ? they should have heard static in their radio's or they ignored it
p276
aVDid a former rogue Mossad bungled the operation all of them were experts but none knew they were like sitting ducks in the row
p277
aVThe Russians needs Crimea  warm water port  for their Navy Fleet thru the Bosphorus strait
p278
aVThe Map That Shows Why Russia Feels Surrounded - Mike Maloney https://t.co/rZIWEqG6oj via @YouTube
p279
aVMy Rolex Datejust is smooth bezel with pink dial i should have gotten the fluted  bezel blue dial
p280
aV@CleverTitleTK any fish  is rich in omega as long as you avoid fish from the pacific it is all ready contaminated f\u2026 https://t.co/crlmfT0248
p281
aVTrophy Wife Official Trailer https://t.co/W3cWXV6seX via @YouTube
p282
aVRT @ABSCBN: The tandem that charmed us last night, #LizQuen! See more of their photos during the #ABSCBNBall2018 in this gallery: https://t\u2026
p283
aVWhat do Jews in Israel think about Jesus Christ the Messiah and God in t... https://t.co/e1rsRvzqwM via @YouTube
p284
aVCould a tsunami happen in California coast ? Get ready you know there are times life unkind
p285
aVRT @ABSCBN: Cristine Reyes looks foxy in her sexy gown! \u000a\u000aSee more of #ABSCBNBall2018 updates at https://t.co/rzqW49uB5j! https://t.co/5ZpI\u2026
p286
aVRT @ABSCBNNews: From the red carpet debuts to the most kilig moments, check out exclusive updates, photos, and videos at https://t.co/ONNIC\u2026
p287
aVThere will come a day In Philippine politics Sara Duterte and Bong Bong Marcos will aspire to be the 17th President of the republic
p288
aVAn Empire of Their Own  How the Jews Invented Hollywood 360p https://t.co/mUaGJTj3Gu via @YouTube
p289
aVVision 2020 - Architectural Presentation of New Hospital https://t.co/CCkIsRa9de via @YouTube
p290
aVHow Meghan Markle shook Britain\u2019s \U0001f1ec\U0001f1e7 royal kingdom thru modesty principled and true honest charm out of love \u2764\ufe0f
p291
aV@BayesianNetwork Now her blemish she can\u2019t sleep thinking of huge error in picking sangho of the Rancho as pastime for stain
p292
aV2/ Juan Ponce Enrile is in his 90\u2019s akin to Ferdinand Marcos missteps can be fatherly advising the young Marcos
p293
aVThe way it\u2019s brewing most likely bong bong Marcos for President  is a strong possibility n poise to follow in his d\u2026 https://t.co/iHQ5Pvpjgt
p294
aV@marklevinshow We love and admire you  Sir \U0001f64f
p295
aVNATO needs to subsidize their own game WE A R E NOT AT WAR
p296
aVRT @jensstoltenberg: Serious disagreements make dialogue even more important. I welcomed the opportunity to meet Foreign Minister Sergey La\u2026
p297
aV11/8/2013 -- Microwave Pulse gives birth to Typhoon Haiyan (Yolanda) https://t.co/Qn4h3GyRJ2 via @YouTube
p298
aV@TwitterGov Got it !
p299
aVHeart Evangelista is one of Ferragamo's 'on point' guests at Milan Fashion Week | Lifestyle | GMA News Online\u2026 https://t.co/lf5yNUo45D
p300
aV84. It Is Written TV: "Mission Mongolia" (Complete) PBMC https://t.co/nDr8rtCXdP via @YouTube
p301
aVMoneylending and Jewish Law - Questions &amp; Answers https://t.co/9rrpKhMFZq via @Chabad
p302
aVCloseted admirations for Trump is at all time high but no one wants to admit that good that's good Melania will gra\u2026 https://t.co/DK1g0DQaLo
p303
aVand planned Parenthood that cost billions and the Maternity birth tourism Racket
p304
aVAvocado \U0001f951Cilantro Dip ? \U0001f961
p305
aVDiabolical Sancho of the Rancho
p306
aV@haaretzcom Words to live by  Mr. Prime Minister how about not relying  of foreign $$$ aid from the United States t\u2026 https://t.co/XngiKClXE1
p307
aVSignificance and importance of the Bering Sea
p308
aVA Superhighway Across The Bering Strait - Classic Documentary https://t.co/GL5hpG55ts via @YouTube
p309
aVUS sending $38 billion in military assistance to Israel https://t.co/kdrhF0QX30 via @YouTube
p310
aV@PhilippineStar After viewing this footage anew not only Mother Nature is pissed at this planet it\u2019s definitely wea\u2026 https://t.co/3U0dmmcnu5
p311
aV@maryanntrade nice choice instead of my rose Oyster Datejust Rolex
p312
aVIn the last  days people will run thru and fro \u000aits happening now;;;;;;;;
p313
aV@TMZ Another Hermes bag for Jinkee \U0001f4b7\U0001f4b6\U0001f4b4
p314
aVRT @PhilippineStar: WATCH: Aparri, Cagayan faces #OmpongPH under storm signal no. 3 on Friday. Ompong's strength can topple posts, uproot t\u2026
p315
aVSenate Chaplain Barry Black delivers inaugural luncheon invocation https://t.co/rVRuyETW8p via @YouTube
p316
aVRT @PageSix: Roman Abramovich transfers $92M of property to ex https://t.co/Wm66wLLM70 https://t.co/0u1xr92YeT
p317
aVBombshell: Professor Stuns MSNBC Panel On Syria https://t.co/mFxyN5AQ2H via @YouTube
p318
aVA fine place to hang out  and lodge  the Waldorf BH is owned by Beny Alagem an  hotelier born in Tel Aviv a tank dr\u2026 https://t.co/YWK4pJXNLc
p319
aVIsrael and Palestine: A very short introduction https://t.co/djh4IaOkWl via @YouTube
p320
aVAnd so we wait ...the win\u000aKavanaugh \u2705 \u000aBiaggi \u2705\u000aCoumo\u2705\u000aGolovkin\u2705\u000aCruz\u2705
p321
aV@InvestigateRU You just disturb the anthill it\u2019s not $ drive this politician Lindsay graham is very respected in co\u2026 https://t.co/GEA58pTIlh
p322
aVDid Wendy just say Sancho is a bum or the bomb?
p323
aVMy guesstimate Cynthia entry into politics was a gift to Coumo NY needs Coumo n is deep seated in New York politics but  I could be wrong \U0001f4b0
p324
aV@PhilippineStar @reygalupo Philippines drug war is doubly worse than originally thought kinda like drug cartel from\u2026 https://t.co/lmDHb0OWwg
p325
aVIf hurricane Florence is massive so seem Philippine typhoon Ompong
p326
aVHow Israel helped create Hamas https://t.co/IbEbpJ0fad
p327
aV@mariasearth @AmandaSalas @TheRitaGarcia @VanessaBorge @FOXLA Please don\u2019t leave out Marla T she\u2019s vital in this ensemble too \u2728\U0001f64f
p328
aVCorrect me if am wrong Queen Beatrix is largest shareholder  royal dutch and member of the BilderBERG group
p329
aVInside Shell\u2019s $7 Billion Gamble for Oil in Remote Arctic Seas | NBC Nig... https://t.co/37AP6XtGpS via @YouTube
p330
aV@haaretzcom If only Jared can do more hungry kids of Palestine plus it would be awesome if the house of Saud with t\u2026 https://t.co/WywGY0YuHw
p331
aV@TheGrok Still hoping n hoping that Tel Aviv will reconsider not relying on uncle sams $ in the billions were total\u2026 https://t.co/MdcWxLjyI4
p332
aV@StephenEspinoza \U0001f64f
p333
aVLook to the heavens ....there will signs in the sun moon and stars
p334
aV@danrafaelespn @GoldenBoyBoxing @OscarDeLaHoya @TomLoeffler1 @Canelo @makeawar @RamirosCorner @GabeRivas03\u2026 https://t.co/ovBNLnLbH2
p335
aVDr Cornel West has Degrees from Union Theological Yale Harvard Princeton and Now Honorary Degree From  @OakwoodU  i\u2026 https://t.co/ofE6Kdr1Mk
p336
aV911 PH CONNECTION https://t.co/gu5kmK3YfT via @YouTube
p337
aVThe EyeOpener- Chatham House Rules: Inside the Royal Institute of Intern... https://t.co/2ur1c8MBp0 via @YouTube
p338
aVNSA Whistleblower William Binney: The Future of FREEDOM https://t.co/uZUj39bpj1 via @YouTube
p339
aVIsrael: The Promised Land of Organized Crime - Full Version https://t.co/pDzHpSQ1SQ via @YouTube
p340
aV@AlCardenasFL_DC One estimate Les Moonves to accept as high as  $ 144 mil sp-so
p341
aVRT @LLUHealth: Loma Linda University Medical Center has been recognized as a Best Hospital for 2018-19 by U.S. News &amp; World Report.\u000a\u000aRanked\u2026
p342
aV@mariasearth \U0001f64f\U0001f337\U0001f33a\U0001f339\U0001f64f
p343
aVAnonymous wasn't at the National Cathedral on Songbirds Memorial
p344
aVOutspoken Senate Chaplain gets noticed https://t.co/tcoDjPi9D6 via @YouTube
p345
aVLoma linda medical center $ 1.2 billion replacement building is scheduled for ribbon cutting in 2020 could it be po\u2026 https://t.co/geagEg45dx
p346
aV@brianstelter @KyleHunter Les moonves yield to the me too movement to validate Tel Aviv control in Hollywood but wh\u2026 https://t.co/56TCX5ItMx
p347
aVThe only thing we fear is fear itself........Thrive please we got nothing to lose
p348
aV@Amie_FR @Olivia_Gazis Another useless base by the devils workshop to undermine Putin\u2019s Russia \U0001f1f7\U0001f1fa they will never succeed paid $ simpletons
p349
aV@tictoc @echasan Turkmenistan\u2019s door \U0001f6aa to hell darvaza crater in the Karakum desert is still to this day spewing ga\u2026 https://t.co/hlSBCVo0MF
p350
aV@paulkrugman POTUS after Potus cannot rid the fed and Wall Street you lose more and gain less oldest con game in th\u2026 https://t.co/zvCK6W4g1W
p351
aV@iloveruffag \u2728utterly \u2728 gorgeous  \u2728
p352
aVRT @haaretzcom: Israel Secretly Armed 12 Syrian Rebel Groups, Paying 75$ per Rebel per Month\u000ahttps://t.co/ctgFUccL4G
p353
aV@RichardHaass Taking down NATO with be a gift to Pres Putin thus for better peaceful world no war or threat of war\u2026 https://t.co/vZL7FLwrzz
p354
aV@TheAtlantic @russellberman Guesstimate Slim margin but confirmed too obvious by the left to not
p355
aV@mariasearth although blue is preferred in Melania's sphere  likes pick the left one
p356
aVRelaxing Piano Music: Relaxing Music, Sleep Music, Study Music, Beautifu... https://t.co/fmtBSBfTOL via @YouTube
p357
aVRT @GustBrian: Someone is pissed off https://t.co/gioEYtQSz1
p358
aV@Duaa_IQ @DanielWickham93 how can this be ? once a rich oil country begets turmoil
p359
aVRT @HotelBelAir: A healthy start to the day https://t.co/V3my6SCxur
p360
aV@stuartathompson try the Chrome HP
p361
aV@FOXLA @MattJohnsonNEWS Joe will not RUN Trump set for inaguration 2021
p362
aV@JimmyUnofficial Try this on you tube titled " Jimmy Carter hands John his ass" over 5 minutes  video publish 3 years ago
p363
aV@OMAROSA Yes indeed the truth always prevails\U0001f1fa\U0001f1f8
p364
aV@cbudoffbrown @IsaacDovere @politico Biden will not run nor the Rock  Oprah  Garcetti Michelle it\u2019s a hands down 20\u2026 https://t.co/JbeGI8lJEB
p365
aVInstall a different equation perhaps ?
p366
aV@SherriEShepherd \U0001f64fWe Love You \U0001f499
p367
aVSchumer had coffee with Putin Hon. Sen Feinstein has grandparents from St Petersburg  RBGinsburg is from Odessa former Russian empire
p368
aVDid Bourne filming Crews Missed that private island  of rogue agents 6 years ago  watch the wide angle shoot Floyd\u2026 https://t.co/27ANwZUtNc
p369
aVBourne Legacy Ending Music https://t.co/1NF4Xql3WI via @YouTube
p370
aV@jimmykimmel Missoula ? \u2728
p371
aVNow believe Jared Kushner sings along with the hymn at National Cathedral wow what a sight to see ...Warren Beatty is next to Joe Biden ?
p372
aV@jeffzeleny 58k Americans dead  or count is higher either way the toll bc mental suffering of our veterans no more\u2026 https://t.co/14j1Ng6aWD
p373
aV@jessica_roy Surprisingly agreeable let me Try this for a year see if I square healthy arteries
p374
aVRT @mi_la_ya_mila: https://t.co/XcW5N07fCh
p375
aVRT @PetersonDaily: The vocation of pastor has been replaced by the strategies of religious entrepreneurs with business plans.
p376
aVForbes estimates Viktor VekselBERG fortune at  $13,6 Billion
p377
aV@freddie1999 Don\u2019t worry they\u2019ll reconsider Ivanka is on this one with Trudeau playing hard to get their still hurt u know
p378
aV@themotleyfool Thank God for Russ Feingold
p379
aVWhat a sight to see rain falls in the U S capitol for Sen John McCain last farewell just like rain fell in Russia c\u2026 https://t.co/KLbNK52P2i
p380
aVRT @TheMissAP: Ring that bell, because we\u2019ve arrived. Welcome to Hotel Au Provocateur. Join us for an unforgettable stay: Check me in and C\u2026
p381
aVRT @villaverjerre: \u2728Pres Trump's approval rating stay  high at 42% retweet that \u2728
p382
aVThe last remaining spy from Illinois
p383
aVWar is GOOD business the threat of WAR is good business
p384
aVHelen Thomas on Joy Behar https://t.co/g52afJgyx6 via @YouTube
p385
aVRT @HotelBelAir: Take a walk around the hotel and enjoy an array of brightly colored blooms, many of which are rarely seen in Southern Cali\u2026
p386
aVSince the Caspian is land lock sea encompassing 5 nations Pres Putin will solidify Crimea a fresh water port the R\u2026 https://t.co/R3IS4FotOV
p387
aVDr. Michio Kaku America Has A Secret Weapon https://t.co/Vs2WDHOSK7 via @YouTube
p388
aVRAW: India\u2019s External Intelligence Agency https://t.co/CtJu3LFR8j via @CFR_org
p389
aVRichard Engel investigates Black Cube https://t.co/1sEfjR2W0q via @msnbc
p390
aV\u2728Pres Trump's approval rating stay  high at 42% retweet that \u2728
p391
aVCool quote ...... \u2728 I Bring Nothing To the Table... I Bring the Table \u2728
p392
aV@haaretzcom It\u2019s easy as flipping pancakes Iran U S and Russia are i Syria Because of Tel Aviv greater land expansi\u2026 https://t.co/eesVYgdO7I
p393
aV@nomadsusan1963 @BlairINFINITE @1VoiceForMe There will never be impeachment proceedings the motion will backfire save your precious breath\u270d\ufe0f
p394
aV@DavidJollyFL There will never be impeachment proceeding this  motion will backfire\u270d\ufe0f
p395
aV\U0001f327\ufe0fBaby The Rain Must Fall\U0001f327\ufe0f\u2614\ufe0f
p396
aV@mariasearth @FOXLA safely through another week hymn lyrics
p397
aVAIPAC is the "Swamp" https://t.co/sLG3AaaZJr via @YouTube
p398
aV@Anna_Giaritelli Goody goody let him rot in hell.... sorry
p399
aV@SuperSaf If the world doesn't end manana am getting this for my living room
p400
aV@nytimes @Michael_S_Chase Happy now what a shame instead of rallying around the flag country and The President we c\u2026 https://t.co/lQVYyMmLjB
p401
aV@I_amTrey Thanks for input my friend your a good man\U0001f64f
p402
aV@I_amTrey \U0001f44dnot so fast buddy they got nothing on him its all drama its not over till its over
p403
aV@I_amTrey i'll bet you $ 500 he will \U0001f923 be re-elected  btw he too  was also selected by before elected just like barack
p404
aV@timkmak How about mossad  ?do they target non conformist for  Aipac
p405
aVHow NSA Tracks You (Bill Binney) [improved audio] https://t.co/Q1F3RF5Tk4 via @YouTube
p406
aV@PaulaChertok @Euan_MacDonald @craigunger @AnaCabrera omg not again
p407
aVTry going on top Mt Wilson highest elevation in Los Angeles look down all you is brown HAZE that what folks in L A\u2026 https://t.co/5Xw9RAI7Ji
p408
aV@BetteMidler Also consider this the darvaza gas crater In Turkmenistan  called the door to in the Karakom desert is\u2026 https://t.co/gCQAZR8VfM
p409
aVNo Jews Are Israelite Descendants ~ Miko Peled Israeli General's Son https://t.co/URcluhYZaj via @YouTube
p410
aVMueller\u2019s Indictments Debunked By NSA Whistle-blower. w/Bill Binney https://t.co/rek5TPlEH0 via @YouTube
p411
aV@DannyLipford Most granite in Asian start up businesses only sells granite 9 ft cut while simulated granite look wo\u2026 https://t.co/Wgf1Hxr53a
p412
aV@Jollibee halo halo again ?
p413
aVThe intrusion of foreign power into america core is overwhelming were do you even start but Trumps all in and  sort\u2026 https://t.co/CX1opUAr4g
p414
aVRT @WendyMeer11: @gregolear Do you have any premonitions on how we can help young Veteran Reality Leigh Winner? We can't seem to bring this\u2026
p415
aV@SASMEX Although this area state of Guerrero is battered with minor swarm of quakes .... porque is HAARP trajectory\u2026 https://t.co/OHSNVNURDX
p416
aV@bra3512 @VoxPopuliv2016 @gregolear Still not guilty think so n then again why used the second option or plan b now
p417
aVLEVIN: Is former CIA director John Brennan a Russian plant? (July 19 2018) https://t.co/DJtvLM5Cw4 via @YouTube
p418
aV@VoxPopuliv2016 @gregolear I still think Manafort walks no collusion he was money hungry \U0001f4b0So hungry
p419
aV@Duckpon12 Goody goody be careful Chicago is goons town nyet joke
p420
aV@SethAbramson @dorgal In my opinion the greatest  hostile power is Tel Aviv with their talpiot program federal rese\u2026 https://t.co/ypFdIgsYbR
p421
aV@gregolear What if Manafort goes free bc of technicality?
p422
aVRT @janycekdd44: Never forget who was with you from the start
p423
aVHiring workers from home improvement centers to cut expenses is a terrible idea try it and observe
p424
aVIn the Bush administration  Carlos Gutierrez former CEO of Kellogg was Bush Commerce Secretary  fast forward to Tru\u2026 https://t.co/KJsFDDP3ks
p425
aVRT @FourSeasons: Start Thursday right with views of #LosAngeles from your private balcony at @beverlywilshire. Follow along with us this we\u2026
p426
aV@CNNPolitics @paolaychavez_ Uncool and uncollected hope whispers around his ears hope the the shi don\u2019t hit the fan\u2026 https://t.co/Pt8eiTAq7o
p427
aVHow fair is that ? Euro think tank just formed the kremlin watch of some sort how about who\u2019s forming the aipac watch
p428
aV@haaretzcom Buenos Aires  is likely  to be an extension of Tel Aviv in a unique way too metro ...,.,,.,eye \U0001f441over Argentina
p429
aV@panchescosanher @SismologicoMX thanks\U0001f64f
p430
aV@SismologicoMX So many after shock in this region in the last several months ?
p431
aV@SismologicoMX Just a q is H A A R P targeting Mexico has a population of ?
p432
aVRT @TullianT: \u201cArrogance is the camouflage of insecurity.\u201d Tim Fargo
p433
aVWhy are the Palestinians always the underdog by the chosen ones .....,so sad
p434
aVGot me thinking Harvard Yale Princeton an Stanford are top universities so far none has come up with a fantastic n\u2026 https://t.co/ybQcCPrbij
p435
aV@paulbhb @saffer70 Leave omarosa alone for heavens sake she\u2019s promoting a book \U0001f4da\U0001f4b0
p436
aV@voxdotcom There might be sign in the Sun\U0001f31e Moon \U0001f319 Stars \U0001f31f
p437
aV@haaretzcom Right away but Senor Bebe wants to what Bebe wants Bebe gets
p438
aVFEW CARRY THE LIGHT.....  hombres .... lets go ! and also famous  words of Mark Levin lets get this one right\U0001f64f
p439
aVIsaac Herzog: \u2018Diaspora Jews are drifting away from Israel\u2019 https://t.co/9Ajc5eKiGb via @timesofisrael
p440
aVActs 2:17 kjv ......And it shall come to pass God says i will pour out my spirit on all flesh your sons and daughte\u2026 https://t.co/zij0GO40hK
p441
aVHarbingers
p442
aV@haaretzcom To silence Hamas and kill its leader is murderous in my humble opinion  will $ backfire ?
p443
aV@catchatweetdown This is U S taxpayers $$$ just swell beautifully done and Manila gets a lousy $ 155 mil even swindle oops swell
p444
aV@haaretzcom The group they help and created backfired with its plan became unstoppable and uncontrollable what if t\u2026 https://t.co/rA00T8kHhB
p445
aV@molodyko Goody goody slash military assistance to Pakistan \U0001f1f5\U0001f1f0 Slash nations of assistance find fault in a country\u2026 https://t.co/gqUeAKIejM
p446
aVin a given day imagine this  myriad planes  airborne polluting the atmosphere God helps us allI https://t.co/wtObF9ctNQ
p447
aVIsrael could take control of hijacked passenger planes long before 9/11 https://t.co/noao2nLBmZ via @YouTube
p448
aVNorad and F 15  fighters dont have to pursue  hijack or stolen airplane used Dov Zackheim technology flight termina\u2026 https://t.co/FvyJfbOD4n
p449
aV@aarondmiller2 Bc they have \U0001f4b0this ....a list of human rights violations entails
p450
aVJinkee Pacquiao  i heared after every fight gets a Hermes Bag True or False\u000aHermes cost from $  5k to  $20 k Time t\u2026 https://t.co/y0gbziCEG8
p451
aVTop 5 Philippine Made Products Exported to Russia https://t.co/CmiWnOcFEW via @YouTube
p452
aV@PamelaChelin \U0001f44d\U0001f64f
p453
aV@davidluhnow @kenbensinger fumble and below the belt journalism perhaps she was framed  by the new  world order my\u2026 https://t.co/nl39blWoLx
p454
aV@jbarro Give it a run senor drawback the pay  is only mere close to a mil plus expenses a whole lot of headaches in your plate
p455
aV@mariasearth @FOXLA @TheRitaGarcia @Megancolarossi @AmandaSalas Who runs World I say the FGF  gals fabulous gorgeous fantastic  4 of Fox \U0001f98a
p456
aVJust ask yourself what would Jesus do \U0001f64f
p457
aV@nikiinthehouse You mean Like Tel Aviv soldiers turning back on they\u2019re woman instructor bc of religion ?
p458
aV@ggreenwald @marlo_safi The killing continues we\u2019re ARE their CONSCIENCE God help us all\U0001f64f\U0001f1ec\U0001f1e7 Saudi is bad off our pl\u2026 https://t.co/bNUGf7RahM
p459
aV@jdbalart Queda te Senor \U0001f64f saludos igual ...Croatia is wonderful in summer
p460
aV@AdrienneMaloof Tent out in the big yard \U0001f4a6or phone that 24 / service
p461
aV@AdrienneMaloof Fear not nighttime temp will dip upper 60 in L A basin by mid week\U0001f64f4 \u2614\ufe0f
p462
aV@Shiraanani @haaretzcom Relax friend I was just sharing an article by Washington compost how it help n create Hamas\u2026 https://t.co/5N0jeviJfb
p463
aV@haaretzcom If you can sleep good at night tune in to this its bs more collateral \U0001f4a5 damage
p464
aV@haaretzcom This what i mean of tel aviv getting the carte blanche vice versa both guilty of misdeeds they created\u2026 https://t.co/mJ0qre7xh2
p465
aVA Mole in Sen Pacquiao's  camp perhaps  relay  pac-man shoulder injury to the other team
p466
aVMayweather Pacquiao AT LAST Full Episode https://t.co/FF3uwXk1HC via @YouTube
p467
aV@McFaul Well it usually a two street in negotiations advancing America is always prime but just remember the person\u2026 https://t.co/oFCdmu8kXg
p468
aV@thedailybeast @KarenPilarski Girl you in trouble big time flotus never tolerates this \U0001f34e
p469
aV@molodyko The perpetrators  hit twin towers own by Silverstein he made millions bc insured 2k perished their got th\u2026 https://t.co/yE4mdQRURD
p470
aVSeems like a steady genius thought it all out pick a fight or create a negative difference with certain country n o\u2026 https://t.co/ozd2s3Fdik
p471
aVCorrection: NYT is still own by Sulzberger family but percentage wise is own by Carlos Slim Helu of Mexico a Lebanese Maronite
p472
aVAs I understand it to strike Iran  do a worthless aim would jeopardize a27 bil  $ deal with Boeing for Americans wo\u2026 https://t.co/58UExnOWy0
p473
aVRT @SCMPNews: Vessel tracking map shows US$250m luxury yacht at centre of #Malaysia #1MDB scandal near #Singapore https://t.co/KoomBdOziL
p474
aV@molodyko ditto their war mongers aided by brooklynites sorry to say world bank and IMF funded however its was done\u2026 https://t.co/Scr6E3dBve
p475
aV@molodyko Nuland run the most extensive campaign in all aspect of its operations in$ in Ukriane then FAILED bigtime
p476
aVA prevalent  circle of groups celeb  or political mavern who works double time just to make Moscow the bad unfavorable entity
p477
aV@Jayde_Nicole Your wish is granted 1 will do the rain dance for only you \u26c8\ufe0f\u2614\ufe0f\U0001f327\ufe0f\U0001f326\ufe0f
p478
aVAir Force remains silent after huge meteor hits near US military base https://t.co/smznLcCnV7 #FoxNews
p479
aV@KatyTurNBC The plan sounds good however if I were you try yosihinoya it comes clam chowder soup \U0001f35c for wintery seas\u2026 https://t.co/Aeo4MLuzE5
p480
aV@EricBlake12 @MichaelRLowry H A A R P stations can brew a storm 72 hours
p481
aV@gcluley My guess the Talpiot program kill switch ? who's next
p482
aVDoes the gate of Hell in the krakom darvaza crater In Turkmenistan still burning after a decade contributing to glo\u2026 https://t.co/stmtuVFzGd
p483
aV@rufusgifford NICE .......like i was saying all along they were all feed clothe given the med treatment they need a\u2026 https://t.co/nOuyGTEOsx
p484
aVdov zakheim 9/11 mastermind https://t.co/uJVEllaE3j via @YouTube
p485
aV@aravosis @pdacosta @Acosta Put it rest Mr Jim Acosta thanks for helping Sarah vent out  a delayed reactionary emot\u2026 https://t.co/cdWSnX3bwN
p486
aVO How He Loves You and Me https://t.co/ZK3jY0EFEM via @YouTube
p487
aV@geraldcelente So what\u2019s Moscow plan for pullback of u s treasury bond of $ 47 billion over half of $ 96 b in bonds they own
p488
aV@TMZ \U0001f64f
p489
aVProverbs 3:6 In all thy ways acknowledge him and he shall direct thy paths
p490
aV@haaretzcom Regardless your looking next first family perhaps 2025 inaugural day \U0001f64f
p491
aV@senatePH Its about time\u23f2\ufe0f
p492
aV@RadioFreeTom @EWErickson If president Obama was selected before he was elected quoting from Hon Louis Farrakhan th\u2026 https://t.co/pJR26FvISd
p493
aVMiko Peled - The General's Son: Journey of an Israeli in Palestine https://t.co/73SYoF8bmZ via @YouTube
p494
aV@RealJamesWoods But but this is just for the cameras no say  what they're up to ....
p495
aV@WayneDupreeShow @grandmajan47 @POTUS Due respect you just  heard it now ?  and did know who controls the conglomer\u2026 https://t.co/d0iwwjp8Sv
p496
aV@kayleighmcenany Forget the Dem's lets focus the rep's what they do  6 years and beyond can't wait for Ivanka Trump\u2026 https://t.co/6r3SHMYjPS
p497
aV@MollyMcKew Pres Putin does control for own purpose against others he advocates leveling the playing field that ens\u2026 https://t.co/rF9WM5tR6i
p498
aV@mitchellreports Perhaps more time needed at hand n logistics is required definitely not fly night operation it wil\u2026 https://t.co/hYXQHoyhJZ
p499
aV@RealSaavedra @conservmillen Aipac not involved on this one  thank God  categorically  ?but not close for comfort a\u2026 https://t.co/c7DFc2TBkf
p500
aV@CRTV
p501
aVThe New Yorker Magazine is under  by Advance Publications and OWNED by the descendants of S I Newhouse Sr
p502
aV@mariamenounos \U0001f64f
p503
aVCity of Los Angeles populations is capabable of reaching 5 million n 4 short years census registered or non census\u2026 https://t.co/aGuhTEq1Q6
p504
aV@juliaioffe Smart move mueller btw will never in wildest dream indict a seating president that in American especial\u2026 https://t.co/TNvUsuvtMY
p505
aV@people Swift .....what a pair congrats \U0001f37e\U0001f38a
p506
aV@GerryConnolly Here a coded opportunity internship in District of Columbia exemplary
p507
aV@phildstewart @abcnews Oh shi another made up war why n who benefit this time around Halliburton\u2019s again if the ans\u2026 https://t.co/cGZIpFHlpu
p508
aVWhat story book would you like to be a part of ?
p509
aV@MaxBoot Wrong again Think really hard the populace wanted Trump bc  they're tired of bull
p510
aVDon't u get that feeling regardless how you exert effort in bringing  144K as in concordance with the Biblia its wi\u2026 https://t.co/rfkTKqNiAY
p511
aVSAUL OF TARSUS - https://t.co/U8jNGynXDy https://t.co/jKKjT0rMtT via @JewEncyclopedia
p512
aV@scottienhughes @realDonaldTrump request granted on the way ?
p513
aV@JamesKosur Plus he didn't want against Pres Obama at that time he was made to order kinda
p514
aV@JamesKosur If you remember they roasted him in tinseltown by roast master general Jeff Ross member once you appear\u2026 https://t.co/Umxm3IVwzj
p515
aV@haaretzcom The Palestinians will never ever get used of Palestine again as long as PM Netanyahu rules so unbalanced n sad but true
p516
aV@wgoobar The million # Q is who's willing to take Assange in and much info n leverage  does he have left  in his sleeve
p517
aV@speriod The main thing is not panic  n stress out stay cool buddy \U0001f64f
p518
aV@JuliaDavisNews @JohnJHarwood Bull ! Try again ?
p519
aV@Makeiev @olniz In my opinion why would Moscow waste it\u2019s time over Donbas when Crimea is prime meat  Ukraine is ta\u2026 https://t.co/05RTEPc4dI
p520
aVFamous word of the late Zbigniew Brzezinski Rid Tel Aviv with its Nukes perhaps Iran will rid  theirs......
p521
aV@juliaioffe No surprise here what Trump wants Trump gets !
p522
aV@phillipadsmith You\u2019re always welcome one God one life one world let\u2019s make this count
p523
aVEphesians 6;12
p524
aVHay un ro * Heritage Singers - 45 Aniversario https://t.co/RAB4PNYfV4 via @YouTube
p525
aVThe  first enlightenment in your life will be while on your back looking towards the heavens breathing shallow brea\u2026 https://t.co/kw1wgiGEoy
p526
aVActs 2:17 In the last day God says i will pour out my spirit to all people your sons and daughters will prophesy yo\u2026 https://t.co/mtZqbhn5OP
p527
aV@haaretzcom Sweet n with pride thanks to America\u2019s billions$ long live their aspirations
p528
aV@BrookeBCNN @wolfblitzer True true true
p529
aVwhos more powerful The Council on Foreign Relations or The BilderBERG Group
p530
aVBeneath the Cross of Jesus \u4e3b\u5341\u67b6\u4e0b Lloyd Larson piano only prelude arrangement https://t.co/DloeVRvH3m via @YouTube
p531
aVWhat exactly did Andrew Breitbart and Michael Hastings knew about Hollywood and The Government? The should make a m\u2026 https://t.co/7vL4nTawhF
p532
aV@RayLong @BostonGlobe Alan is  gem\U0001f48e please don't argue with the  Expert a prof Harvard law school
p533
aV@ConfessionsExMu @SamHarrisOrg It goes without saying always a gentleman\u2728
p534
aV2 temples in Jerusalem 1st temple was destroyed by the Babylonians 2nd temple was destroyed by the Romans
p535
aVIsrael Has Used America as a Whore https://t.co/YwXA4Rh7A1 via @YouTube
p536
aVIn complex n bifurcated world be the odd person out we we cannot be in one basket
p537
aV@StephenAtHome No Senor Colbert \U0001f64f
p538
aVCANADA DOES NOT OFFICIALLY POSSESSED  WEAPONS OF MASS DESTRUCTION HOW ABOUT THAT BUT FREAKING TEL AVIV has 300 NUKE\u2026 https://t.co/8W1Tp5aGl8
p539
aV@brianschatz Now we can focus on denuclearization of Tel Aviv with 300 nukes at bay rid in Jerusalem with its nukes\u2026 https://t.co/Vdb3T2StE7
p540
aV@AlbertBrooks Least we forget a Nuclear Iran  NoKo &amp;  Tel Aviv 300 nukes couldn't be clear than that they want us\u2026 https://t.co/nTUDfxmReu
p541
aV2 chronicle 7 14.... if my people who is called by my name  shall humble  themselves and seek my face and turn from\u2026 https://t.co/3vMakpdzbk
p542
aV@AnaCabrera That\u2019s promising make that call let\u2019s bring him to fold the G8 ? The more the merrier
p543
aVBtw just a reminder God is available 24/7 for the lost least lonely \U0001f64f
p544
aVEphesians 6:12 kjv .... for we wrestle not.....
p545
aV@LizHabib Cavs to sweep lebron is too exhausted ?
p546
aVTHEY ARRIVE - BILDERBERG 2016 https://t.co/PMEeRpYV1h via @YouTube
p547
aVFamily that prays together stays together
p548
aVHe was amazed at their  lack of Faith Mark 6:6
p549
aVMelania Trump moved to tears during worship song! https://t.co/8adj8unIZ3 via @YouTube
p550
aVWhen i survey the wondrous cross
p551
aV@JessicaGKwong Give to him it could be his last hurrah\u000awhats money when your dead
p552
aVIt is well with my soul
p553
aV@VRSoloviev Says tweet unavailable
p554
aVFarrakhan Speaks! The plot against Pres. Obama, Global Depopulation, &amp; A... https://t.co/4m394h8EUR via @YouTube
p555
aV@addietempra @untappd Be happy Be bright Be YOU............that's refreshing indeed
p556
aV@therealroseanne IN TIMES LIKE THIS ALWAYS REMEMBER GOD LOVES YOU \U0001f64f
p557
aVSatan At The Wailing Wall https://t.co/YR1ea21SgJ via @YouTube
p558
aVHow do you earnestly preach to the people of Nazareth when they are recalcitrant .... there's more to Jesus than meets the eye
p559
aVWE ALL BREATHE THE  SAME AIR...... WOW POWERFUL .......jfk\U0001f64f
p560
aV@BretBaier Three Days in Moscow
p561
aV@BretBaier Three days in Moscow\u2728
p562
aV@sharon_cuneta12 glad to know Bacolod is in your schedule God Bless btw Visit Bacolod Adventist Hospital is you can they do a lot of Good
p563
aV@rulajebreal @Sayda_Z What a contrast pain n suffering over jubilee n celebration \U0001f37e\U0001f389
p564
aV@NADadventist The addressing question of refurbishing churches &amp; medical centers  worldwide\u000aManila Adventist Medica\u2026 https://t.co/tU2SudlB21
p565
aV@AuspiciousTruth Exhibit A Hamas if am not mistaken was created  help by Tel Aviv till it went rogue haywire n unstoppable \U0001f4a5
p566
aVHere's what NYC would look like if sea levels rise by 8 feet https://t.co/x3NTo12jvT via @CurbedNY
p567
aV@DavidLimbaugh your tweet is unavailble re-tw
p568
aVRT @OsmundsenTerje: Not yet summer, but already a Record 122.4F/ 50.2 degrees Celsius in Pakistan in April https://t.co/Mk78HcSJ8k\u000aMeteoro\u2026
p569
aV@JackPosobiec your breaking apart
p570
aV@haaretzcom Iran regime change ? we have stable Iran leader in terms of keeping the masses at bay though several at\u2026 https://t.co/QDXD8buRGw
p571
aVRT @creative_prop: How to convert a #garage \u2013 to make your room work for you https://t.co/SF6uPBWOoh #property #conversion #HomeImprovement\u2026
p572
aV@kayleighmcenany @seanspicer \U0001f64f
p573
aV@jilevin Yayyyyyyyy !
p574
aV@FranTownsend We stick our noses to other nations business n it usually zero return and through it all were still called imperialist
p575
aV@amyfiscus @ryanbeckwith In my opinion he deserves more...should sell 10x more  predictively its not worth squat si\u2026 https://t.co/MDbG9Sfeac
p576
aV@LahavHarkov Potus is 6' 3"  add 3 to bebe height Bebes
p577
aVMilkfish or Bangus harvest in the Philippines (Occidental Mindoro) https://t.co/u0D0OM4U38 via @YouTube
p578
aV@brianschatz Does 50-50 equity sounds ok ?
p579
aVDiscover the Four Exiles of the Jewish People - The history of galut - Jewish History https://t.co/zzdolo1CXL via @Chabad
p580
aVEveryday i include in prayer baby Henry i hope you do too \U0001f64f
p581
aVDirector of CIA General Michael Hayden On MI6 and Spy Agencies Across th... https://t.co/Zq3ZRoT7ur via @YouTube
p582
aVHeritage Singers / "A Quiet Place" (Live from Prague) https://t.co/5qLs2KGWM9 via @YouTube
p583
aV@NBCLA Is it time to moved out of L A ......I Love L A
p584
aV@JohnCena \U0001f64f
p585
aVYoung Hearts Presents: Unwanted Girlfriend EP01 https://t.co/4rnP7Y5JSj via @YouTube
p586
aV@SputnikInt Trumps believe in second chances n second  look
p587
aV@zerohedge Declaring a war does help boost power man up
p588
aV@SputnikInt The unpredictable weather is enough to kills all let alone our bickering with other nations
p589
aV@rohit_khurana Likewise dhanyaavad
p590
aV@HansNichols @lrozen Interesting ......Good old Sir Henry always trying to save the world\U0001f64f
p591
aVYou're My Boss Full Trailer https://t.co/6yw4Xu54E8 via @YouTube
p592
aV@georgelopez @attcenter @ComedyGetDown Sir george the page is not available le deje
p593
aV@patsajak \U0001f64f
p594
aV@PamelaLastimosa \U0001f64f
p595
aV@ladybeast05 Follow me back on twitter daghan salamat
p596
aVMossad Murder in Dubai - Complete Timeline https://t.co/rTGIwFMQxt via @YouTube
p597
aV@christuckerreal \U0001f64f
p598
aV@ejacqui \U0001f64f\U0001f64f\U0001f64f
p599
aV@marinellaflores Follow back pls maraming salamat
p600
aV@itskrystaljane follow back pls maraming salamat
p601
aV@bIaiirwaIdorfs Try Filipino empanadas check it out any red ribbon \U0001f380 bakery\u2019s
p602
aV@MicahEstrada22 Follow me. Back pls maraming salamat
p603
aV@ysasantiagow follow back pls maraming salamat
p604
aV@ysasantiagow follow back pls maraming salamat
p605
aV@marinellaflores follow back pls maraming salamat
p606
aV@ysasantiagow Follow me back on twitter pls maraming salamat
p607
aV@hiramisuuuu follow back pls salamat
p608
aV@AkishaAshley Follow back salamat
p609
aVChina\u2019s Intelligence Networks in United States Include 25,000 Spies via @freebeacon https://t.co/mgOwdEPPTD
p610
a.