(lp0
VNumbers. Can you please clarify what the numbers signify, whether or not it means I'm a bot, and whether or not I c\u2026 https://t.co/6rZFAOQ3oZ
p1
aV@Twitter I'm hoping that you can solve a mystery for me. When I created my account, a bunch of random numbers were\u2026 https://t.co/99sAKkAquA
p2
aV@KariSOR2010 Hello! Thanks for the follow. :)
p3
aVRT @Diversity_Proj: @SteveKingIA Nope. You\u2019ve said things. Out loud. https://t.co/LCCsVyS32x
p4
aV@Elmonndo @ACamille38 @Tslab1970 Thank you for your support.
p5
aV@Elmonndo @ACamille38 @Tslab1970 You're right, it's a completely understandable concern and I certainly don't blame\u2026 https://t.co/ZpDXbKlE54
p6
aV@ManInBlack9 Yeah. I didn't think about it too much never having had a twitter account but I thought vaguely that "\u2026 https://t.co/IuEO8tFpeN
p7
aV@sylviakaydavis1 Lol following. Sorry it takes a long time to catch up. :)
p8
aV@SnowBopp I'm right there with you. It's gotten to the point that I'm afraid to turn on the news in the morning to\u2026 https://t.co/zoLMCWGrvP
p9
aV@ElosserDonna https://t.co/9iW9mzc8Pi
p10
aV@gmarie55 I'm confused. Are you asking why haven't I been on Twitter the last two years?
p11
aV@SnowBopp Inhumane act supported by another inhumane act. None of this is who we are.
p12
aV@SnowBopp And you're entirely right. The horror these poor children are facing right now should be more prominent i\u2026 https://t.co/RoxeLDZB9C
p13
aV@williewill71 And they were being rather rough with her too. She wasn't violent or volatile. She was doing what the\u2026 https://t.co/5T3JLe955T
p14
aV@boogykas This is the best gif I've ever seen! It makes me absurdly happy!
p15
aV@AmericanSmith79 Thank you!
p16
aV@gaylinnenola Thank you! I think it's important for us all to stick together now. I'm glad you're following :)
p17
aVRT @_SJPeace_: His sign says \u000a\u000a"Hi, I'm Muslim and people call me a terrorist. Do you trust me? If yes, hug me."\u000a\u000aRETWEET IF YOU WOULD HUG\u2026
p18
aV@MrsTammyMM @drpatsyp Hi! Thanks for the follow!
p19
aV@ACamille38 @Elmonndo @Tslab1970 say bot, I think of Westworld, which is awesome. But in this context, it can be da\u2026 https://t.co/t8B2msq8Yn
p20
aV@ACamille38 @Elmonndo @Tslab1970 played was Oregon Trail when I was in elementary school. Then in high school, we u\u2026 https://t.co/X6nNRU8zxO
p21
aV@ACamille38 @Elmonndo @Tslab1970 Thank you! The hilariously ironic thing about it is that anyone who knows me knows\u2026 https://t.co/V2J4KcSziE
p22
aV@Elmonndo @Tslab1970 Thanks for the advice! I think I will edit my bio to mention it.
p23
aVRT @palee1960: @Fallon08803043 https://t.co/HaU9IOhpyq
p24
aV@ManInBlack9 yet.
p25
aV@ManInBlack9 They signify nothing to me. When I signed up for my account, that was put behind my name. I have no id\u2026 https://t.co/kKsp0SMdaO
p26
aV@ShaalanHesham That's a wonderful example of simple human kindness and compassion. There's so much negativity in th\u2026 https://t.co/Gt8DJY5iDk
p27
aVThis is what it's all about. This is what is lacking today. This is what humans are capable of. https://t.co/lIoyarAnES
p28
aVEvery time you think that we can't get any lower... https://t.co/LwGYfwGqdV
p29
aV@kurtis4all @HolmesTeganimi You're the first local resistor I've found! Thanks for the follow!
p30
aVRT @Dzar888: @Fallon08803043 @steelers8369 https://t.co/MgsBvDCulD
p31
aVRT @DalaiLama: We need to be determined to achieve positive change, and also be able to take a long view of what needs to be done. What is\u2026
p32
aV@SnoopEastwood Agreed. I look forward to the day he's tried for treason.
p33
aVRT @carlreiner: What is on my mind will be coming out of my mouth as you watch this: https://t.co/fZkyGg8rlU
p34
aV@ChrisStone9174 @heide_g Thanks!!!
p35
aV@Myrddn Lol! I would read this book right now.
p36
aV@Myrddn Lol!!!
p37
aV@Tslab1970 Anyone know how to change it by chance? Under edit it only asks for name, bio, location, website, and dob
p38
aV@Tslab1970 Shit. That's not good. I can't even remember if it gave me the option when I signed up. I'll check it ou\u2026 https://t.co/jhzPNiysYq
p39
aV@reedsrx Lol! A Sharknado type situation seems appropriate.
p40
aVRT @Lamiko8: Please #share #donate #retweet remember us when you pray. We sincerely appreciate those of you who help support our cause by p\u2026
p41
aV@ccarson004 @BentzTheMichael Lol!! We could do it. All we'd have to do is inflate his ego by telling him that he wo\u2026 https://t.co/AnAJDtUvpN
p42
aV@DeznutzJimmy @Whatsit2yaPaiut I voted 2 weeks ago. Thank you for your vote. :)
p43
aV@J_Michael702 Thank you!
p44
aVRT @NoMoreBS14: @Fallon08803043 @morgang962 https://t.co/3se9OvDbBK
p45
aVRT @koslen_bambi: @Fallon08803043 RESIST/VOTE DEM!\u000aNation\u2019s at a cross roads.\u000aWe must embrace compassion,kindness,empathy\u000ainclusion,toleran\u2026
p46
aV@Jill_Gregory @nowthisnews I love him too! He's always fought for the good of our nation and he's an important leader in these dark times.
p47
aV@rajramos Hello! Thanks for the follow back! #resist
p48
aVRT @ilyamerica: On this week\u2019s #ILYAmerica, @CoryBooker reminds us that we are all Americans. https://t.co/TbdvTGAYH6
p49
aVIf you're sick and tired of Trump and the GOP desecrating our country and people and want to #VoteThemOut, if you b\u2026 https://t.co/vUJjZWlN0B
p50
aV@JoywheatJw you ever need to talk.
p51
aV@JoywheatJw You don't know me. I saw your tweet on my feed and I just had to say how very truly sorry I am. There a\u2026 https://t.co/RILDCbiKMC
p52
aV@ccarson004 @realDonaldTrump We should be meeting them at the border with warm food and water, blankets, sympathy and support. Not an army.
p53
aV@DlSTORTED These are fantastic!
p54
aVRT @nowthisnews: Joe Biden just *went off* on the Trump administration like only Joe Biden can https://t.co/Lr2M8zveaD
p55
aV@bubbagump324 Out of my sight thank god! Although you're right. It is kind of unsettling not knowing where he is or\u2026 https://t.co/CT6sxS0UEI
p56
aV@Stop_Trump20 https://t.co/kQnEkuCVpD
p57
aVRT @HoracioRoyce: Ya know what frightens @realDonaldTrump the most? The fact that a woman won the popular vote in the 2016 election, even w\u2026
p58
aV@george_capen America, anything is possible and even likely. But we should be considering these things so that we c\u2026 https://t.co/N5Tj1rKFMn
p59
aV@george_capen The thing is, the reason these ideas seem outlandish when we say them is because everything we are go\u2026 https://t.co/xEmLEG9IJj
p60
aV@ItsMeCathi @BetoORourke Need someone in 2020 who is an old hand in politics, has the right ideology, and who is st\u2026 https://t.co/18yN7Wsdsv
p61
aV@ItsMeCathi @BetoORourke I love Beto! Last night I watched the town hall with my 9 year old daughter and I told her\u2026 https://t.co/KxK5Fl9ygA
p62
aV@FredHubbell @KimReynoldsIA @SteveKingIA @ChuckGrassley Reynolds and King and think we're all like them. I disavow\u2026 https://t.co/ZDQno0mnTD
p63
aV@FredHubbell @KimReynoldsIA I call on @KimReynoldsIA  and @SteveKingIA to step down. There is no room for hateful r\u2026 https://t.co/VZluLHasJQ
p64
aVRT @FredHubbell: Steve King's actions do not represent our Iowa values and I call on Governor Reynolds to remove him from his leading role\u2026
p65
aVI fucking love @Pharrell! He's such a good dude and a great artist. What an appropriate response to our sociopathic\u2026 https://t.co/4Vf8PDkzJ9
p66
aVThey thought they won, but they lost. They thought they silenced him, but they only amplified his voice, made his m\u2026 https://t.co/Ab1nc5SSmr
p67
aVFear is a strong ally. What's the remedy? Facts are lost in Trump's America. How do we fix it? The more false infor\u2026 https://t.co/wI38zgqksr
p68
aVTHIS is #Resistance. This is inspiring. I think that we should do this anytime he enters any state. Let\u2026 https://t.co/T8bNxLQ8xH
p69
aV@EvelynALizette I had PTSD before Trump became president but it didn't help it any. And I was clinically depressed\u2026 https://t.co/LP40p2grZd
p70
aVAnd that's how it's done. Nothing more than simple truths. #Florida Please vote for @staceyabrams https://t.co/f48iPIW0Bi
p71
aV@Sethrogen And it also makes me sick to think that some of those killed were survivors of the Holocaust and they su\u2026 https://t.co/quO7BPWPmY
p72
aVRT @IAStartingLine: When one party has actual farmers on the ballot \U0001f447\U0001f447\U0001f447 https://t.co/H3TxAn24dY
p73
aVRT @octavio_ferraz: For those interested in knowing a bit about Brazil\u2019s likely future president, his latest speech, with English subtitles\u2026
p74
aVThese women have a remarkable amount of patience. I'm diplomatic where possible but there is a line and this crazy\u2026 https://t.co/J9z58u1e4A
p75
aV@SunnQuest123 @realDonaldTrump Others for their own advancement. This is a man who has always demeaned anyone and e\u2026 https://t.co/ATCtrebdnK
p76
aV@SunnQuest123 @realDonaldTrump Are we talking about the same guy? Let me break out the world's tiniest violin, it b\u2026 https://t.co/butb0hd63u
p77
aVRT @joncoopertweets: A Week Of American Hate: Bombs Mailed, Black People Executed, Jews Slaughtered https://t.co/D2H1oZRYKx
p78
aV@TheTrumpAdmin @realDonaldTrump One of the @JoeManchinWV's of the country. I'm sure there are a handful.
p79
aV@SunnQuest123 @realDonaldTrump Under actual intelligent leadership we could find a way to make it all work.
p80
aV@SunnQuest123 @realDonaldTrump end. We should extend our hands to help others. When did that rule of basic decency\u2026 https://t.co/CgOKbKIKSI
p81
aV@SunnQuest123 @realDonaldTrump Even if your assessment weren't completely inhumane, what on earth do you imagine th\u2026 https://t.co/mxBgIKt2rx
p82
aVRT @J_Harding: @SteveSchmidtSES https://t.co/gfDCCB4YIQ
p83
aVthis madness. I've lived enough of life to know that it doesn't really work that way. So how do we all come togethe\u2026 https://t.co/G5anvv9dhs
p84
aVa lot more to say than I thought. But ultimately, my question is: what do we do? I'm a mother and I will fight for\u2026 https://t.co/nSTcbzVDVH
p85
aVcorner of the world and, oh yeah, we only have a few years to figure something out about climate change or we are a\u2026 https://t.co/ORxDvvZ4s4
p86
aVimpunity. Meanwhile, we face outside threats from foreign nations, attacks on our democratic process, a trade war w\u2026 https://t.co/pvk842dyd4
p87
aVone who is leading us to disaster. We should be able to reach across the aisle, put aside our differences and fight\u2026 https://t.co/q9KDRbHtYb
p88
aVPlease don't mistake me, I'm not speaking of violence. I believe violence should always be the last recourse. What\u2026 https://t.co/jjuWCh8oTX
p89
aVevents have demonstrated. We are all counting on the #Bluewave and for the democratic process to win out but what's\u2026 https://t.co/azZ4KAB4Vu
p90
aVand people so blind to sense and the bare naked truth that it truly takes my breath away. All I can think right now\u2026 https://t.co/ySQYSbpuZj
p91
aVrash ideas on all sides. And after all that, I often find myself at a loss for words, staring at the keyboard and t\u2026 https://t.co/d0HvzMG7nL
p92
aVI often find myself on Twitter, thinking about the events of the day and wondering and worrying about what fresh he\u2026 https://t.co/vfbFsrjkPz
p93
aVRT @RepAdamSchiff: Mail bombs. Death threats. Political shootings. The proliferation of violence has many causes, but we cannot discount th\u2026
p94
aVRT @chaoticfiesta: I must agree, this was worth the two whole minutes I normally don\u2019t have, and it will be worth the two minutes out of yo\u2026
p95
aV@workwthecoach @realDonaldTrump There are too many things that I want him to change and changing just one would not\u2026 https://t.co/ufd4UjS2pX
p96
aVRT @staceyabrams: "The #GAGov race between Kemp and Abrams is the closest race in the nation." We can win this \u2013 for Medicaid expansion, fo\u2026
p97
aV@realDonaldTrump First of all, your lies and exaggerations are breathtaking. Secondly, after everything, how dare y\u2026 https://t.co/0wkujZYmnN
p98
aV@Blk_Hermione Ugh. I saw this yesterday and wanted to throw up. If a police officer EVER put their hands on my kids\u2026 https://t.co/9pou2D5e0Z
p99
aV@sizactaylor @GregAbbott_TX Yeah. I had my own moment with this when my 9 year old daughter talked to me about doin\u2026 https://t.co/IFFO5NbNj4
p100
aVI've been keeping my eye on strong congressional hopefuls like her. Her name is Abigail @SpanbergerVA07 and I hope\u2026 https://t.co/5kl5W6yb4E
p101
aV@george_capen @realDonaldTrump can give whatever lame excuse he wants. We all know the real reason he doesn't visit\u2026 https://t.co/4fqHXSTtES
p102
aV@SaysHummingbird @kstreet111 Yuck. It's a classic case of snobbery. If your biggest concern is that you can't affor\u2026 https://t.co/qR5CzpV7Ic
p103
aV@Stop_Trump20 @TailwaggersUSA Lol I never saw this. This makes my whole day!
p104
aV@realDonaldTrump You think that we're all stupid. We're not. Your base might buy into all your lies but the rest of\u2026 https://t.co/Z0x0RtpKN2
p105
aV@george_capen I got a chuckle out of that gem too, when I read it. I feel so much better about climate change and t\u2026 https://t.co/hBdX4VeAKo
p106
aVDid Ted Cruz say, "youth unemployment" was down? #TexasDebate
p107
aVRT @frodofied: Attention resistors. \u000a\u000aImmediately block any account you see beginning with the letters "NPC" followed by a series of number\u2026
p108
aVI'm doing this because I am among the thousands who can see that this nation is on fire. It's time to put out the f\u2026 https://t.co/R76VYZV3cX
p109
aVJust realized that you have to click on the picture to see I'm not flipping the bird. Lol!
p110
aVI voted early!!! Go out and do the same! Vote early, vote on time, just vote!!! #vote #BlueWave #TheResistance https://t.co/QUqwZhbj7Q
p111
aVgovernment rather than in our free and beloved Democracy which was laid out by our founding fathers, bled for by ou\u2026 https://t.co/6QAHdneuPB
p112
aVserve to further divide our nation which is already in turmoil. I respectfully request that you take these and othe\u2026 https://t.co/VpX1BsZH8z
p113
aVrights to freely speak and assemble. Though I do understand that this proposed rule is not designed to completely e\u2026 https://t.co/VkCcr3lKFT
p114
aVOnly a few days left to express your dissent to these dangerous and unconstitutional restrictions. This was my stat\u2026 https://t.co/npuA8kTgMd
p115
aV@Lawrence Fair point. It is a distraction. The Trump Administration has  become quite skilled at distracting from i\u2026 https://t.co/6tgwQOP3nl
p116
aVWhat. the. fuck? I am so confused. Did this scene really just transpire? And in the oval office no less. It was man\u2026 https://t.co/TLQAx9Th91
p117
aVRT @neiltyson: Earthquakes, tsunamis, tornadoes \u2014 traditionally \u201cActs of God\u201d on Insurance Forms. But as climate-change continues, and coas\u2026
p118
aV@Axne4Congress @realDonaldTrump Congratulations! I would consider it an honor and you're right: they are afraid.
p119
aV@funder @SenatorCollins Sounds about right. At least her vote wasn't bought cheaply.
p120
aVOne would hope that these findings will encourage "deniers of climate change" (I'm being kind here) to pull their h\u2026 https://t.co/6lSWWGMKZo
p121
aV@mrbromwich you misrepresent the facts.
p122
aV@mrbromwich Might as well call it legal racial profiling. If anything this will only incite more violence and furth\u2026 https://t.co/XFX1U3t4Pm
p123
aV@realDonaldTrump chaos be our legacy? "United we stand, divided we fall." Together, we all have the power to shephe\u2026 https://t.co/zAENwaZS7F
p124
aV@realDonaldTrump is for all, not just some. When did we all stop helping each other? Now is the time to lend each o\u2026 https://t.co/QU6yx6lRT0
p125
aV@realDonaldTrump I do know beyond any doubt is that we are at a point now when we must band together instead of pla\u2026 https://t.co/6jVXm0cxq4
p126
aV@realDonaldTrump elections of Germany and the United States, or Brexit in Britain, for example? Is this what's happ\u2026 https://t.co/llocSCU5uq
p127
aV@realDonaldTrump like a disease, threatening to overtake us. I'm not a conspiracy theorist. I see the facts before\u2026 https://t.co/HZWpqYclve
p128
aV@realDonaldTrump wouldn't rape her because she's not worthy of it. He has spoken of committing genocide without bat\u2026 https://t.co/MD7ozQyPUI
p129
aV@realDonaldTrump Brazil's #JairBolsonaro is proudly open about these same ideologies. He has spoken openly in the m\u2026 https://t.co/EaIdOyblyV
p130
aVunfortunately, the ring leader of their shit show is the equivalent of @realDonaldTrump  on crack. And I wish I wer\u2026 https://t.co/p7hcpCRCEX
p131
aVI know that we're dealing with our own shit show here at home and fighting our own fight, but I think it's very imp\u2026 https://t.co/hMNESD3YVb
p132
aV@realDonaldTrump Says the man who holds these rallies for the purpose of validating his overly inflated ego. Do you\u2026 https://t.co/joBTw0lETd
p133
aVThis speaks for itself. We are angry. We are mobilized. We do not accept. We are coming.\u000a#NovemberIsComing\u2026 https://t.co/yyoU5Q41fG
p134
aV@SteveSchmidtSES I think the worst part is that she actually gave people hope that she might be a decent, logical p\u2026 https://t.co/bdCyQih7g9
p135
aVRT @billmaher: I guess it's time to join the Beach Week Ralph Club. #SchlitzKavanaugh #SCOTUS #Sham https://t.co/xYYOAijpgj
p136
aVI just took action on @theactionnet: Sign up for our Newsletter. Take action here: https://t.co/xa6Ga8VypG
p137
aV@mitchellreports @ChuckGrassley Speaking as one of his women constituents, the only good response to this statement\u2026 https://t.co/1ebadlVPdP
p138
aVVolunteer https://t.co/Qf2x4LvSlQ
p139
aVRT @AustinFrerick: Since @ChuckGrassley was first elected to Congress in 1975:\u000a\u000a\U0001f449 Iowa has lost a 1/3 of its family farms \u000a\U0001f449 Iowa's incomes\u2026
p140
aV@SenatorCollins Ma'am, even if you believe the investigation was thorough, as you stated, at least remember that th\u2026 https://t.co/67NbxTmiRO
p141
aV@lisamurkowski Though we might differ in our political views, I have a lot of respect for you for being open-minded\u2026 https://t.co/BZj3sOncNk
p142
aV@JeffFlake You're a smart enough man to know the FBI investigation was not done as it should have been and to see t\u2026 https://t.co/e6xkNDSzyx
p143
aV@SenatorHeitkamp I just wanted to thank you, ma'am, for making the right decision, even if it wasn't an easy one. R\u2026 https://t.co/E92WusOfo0
p144
aV@Sen_JoeManchin Sir, I will only ask you to ask yourself this question: when the history of this moment is written,\u2026 https://t.co/Y5mjLjA8Xs
p145
aVExactly how I feel. I need this shirt. https://t.co/qLyIjWOgyv
p146
aV@desmoinesdem I'm kind of embarrassed but I just had to look up what a troll is lol. I understand now though. It wo\u2026 https://t.co/EMYLvPZ6s8
p147
aV@RickLangel @desmoinesdem @FredHubbell @iowademocrats @iowahousedems @IowaSenate @IndivisibleIowa It won't let me u\u2026 https://t.co/o3UAxfzqqf
p148
aV@RickLangel @desmoinesdem @FredHubbell @iowademocrats @iowahousedems @IowaSenate @IndivisibleIowa for too much acti\u2026 https://t.co/we58IuIdnR
p149
aV@RickLangel @desmoinesdem @FredHubbell @iowademocrats @iowahousedems @IowaSenate @IndivisibleIowa I had a really lo\u2026 https://t.co/YbhIlW3Qul
p150
aV@RickLangel @desmoinesdem @FredHubbell @iowademocrats @iowahousedems @IowaSenate @IndivisibleIowa Have you ever sto\u2026 https://t.co/0KA1E4ObN6
p151
aV@RickLangel @SenWhitehouse investigation which she wanted and he could not even get the words out of his mouth when\u2026 https://t.co/BiQXntLOfq
p152
aV@RickLangel @SenWhitehouse It is indeed a provable fact for the moment. But that is only because the FBI is just no\u2026 https://t.co/6UUvlJclLH
p153
aV@RickLangel @SenWhitehouse If it did we would be having a very different conversation and Brett Kavanaugh would no\u2026 https://t.co/PmKj7nK60p
p154
aV@RickLangel @SenWhitehouse field of Psychology. Again, these are facts that you can easily learn for yourself.
p155
aV@RickLangel @SenWhitehouse could see were in regards to exact time and location of the assault. As someone who has\u2026 https://t.co/kbBM26C744
p156
aV@RickLangel @SenWhitehouse already lied under oath to the committee (fact: look it up yourself) which does not befi\u2026 https://t.co/yLEnwcKuaw
p157
aV@RickLangel @SenWhitehouse what he has sworn under oath and what Dr. Ford has sworn under oath. The FBI will do thi\u2026 https://t.co/QqDr9hpQTV
p158
aV@RickLangel @SenWhitehouse vendetta against the Democrats and to try to discredit any factual findings. It will be\u2026 https://t.co/ZyLR96MW40
p159
aV@RickLangel @SenWhitehouse So if it had no bearing on the allegations, which you agree, then why did they choose to\u2026 https://t.co/AURW8XUcqk
p160
aV@RickLangel @SenWhitehouse sexual assault allegations made against him, not to find possible indiscretions in Senat\u2026 https://t.co/rRueWJmSI6
p161
aV@RickLangel @SenWhitehouse I agree with you that we should find all truths. This doesn't just apply to some it appl\u2026 https://t.co/glf00P1xMw
p162
aV@RickLangel @SenWhitehouse staff might have leaked it (this is said as a theory not a fact). Could Senator Feinstei\u2026 https://t.co/lqhTZTDl4c
p163
aV@RickLangel @SenWhitehouse That is a reasonable assumption and I'm sure we'll find out for sure in due time. Two th\u2026 https://t.co/gRbTyywamK
p164
aVRT @SenSchumer: 58 lives were taken one year ago in Las Vegas.\u000a\u000aWe remember their lives cut short too soon and pray for their families.\u000a\u000aWe\u2026
p165
aV@desmoinesdem @iowademocrats @IndivisibleIowa Thank you very much!
p166
aV@RickLangel @desmoinesdem @FredHubbell @iowademocrats @iowahousedems @IowaSenate @IndivisibleIowa we have duty to d\u2026 https://t.co/cswNWaqp0s
p167
aV@RickLangel @desmoinesdem @FredHubbell @iowademocrats @iowahousedems @IowaSenate @IndivisibleIowa When I speak with\u2026 https://t.co/vVm7gfBjCe
p168
aV@RickLangel @desmoinesdem @FredHubbell @iowademocrats @iowahousedems @IowaSenate @IndivisibleIowa however insignifi\u2026 https://t.co/xLug4seJoJ
p169
aV@RickLangel @desmoinesdem @FredHubbell @iowademocrats @iowahousedems @IowaSenate @IndivisibleIowa Thank you sir, fo\u2026 https://t.co/A4D7NRnfOI
p170
aV@RickLangel @SenWhitehouse why did they need to ask these questions in such detail while conducting a hearing whose\u2026 https://t.co/WHj3rjgnVl
p171
aV@RickLangel @SenWhitehouse (not a poor choice) and the prosecutor that the Republicans hired asked many, very point\u2026 https://t.co/GSN7E0HqGF
p172
aV@RickLangel @SenWhitehouse Neither you nor I know the details of how the letter was handled or came to light so you\u2026 https://t.co/SHYTqYu1n6
p173
aV@desmoinesdem @FredHubbell @iowademocrats @iowahousedems @IowaSenate @IndivisibleIowa Thank you for responding. I a\u2026 https://t.co/k8dSos6Wrg
p174
aV@SenWhitehouse who is not nearly as stupid as he looks.
p175
aV@SenWhitehouse of all of this as a game, the only way for Democrats to win is to start anticipating their moves and\u2026 https://t.co/LRHGdIyiFB
p176
aV@SenWhitehouse I sent a message to her saying as much during the hearing. I'm smart and I pay very close attention.\u2026 https://t.co/Tx8duuD3Oz
p177
aV@FredHubbell @iowademocrats @iowahousedems @IowaSenate @desmoinesdem @IndivisibleIowa There are so many people that\u2026 https://t.co/ZF202bHoUg
p178
aV@FredHubbell @iowademocrats @iowahousedems @IowaSenate @desmoinesdem @IndivisibleIowa absolutely no idea what is ha\u2026 https://t.co/Ojzs2sJ2Ku
p179
aV@fredhubbell @iowademocrats @iowahousedems @iowasenate @desmoinesdem @IndivisibleIowa I desperately need help in th\u2026 https://t.co/DsJsTaBC39
p180
aVRT @ACLU: We won't forget: Irreparable damage has been done to immigrant children at the hands of our government. https://t.co/kZhs35paxh
p181
aV@ChrisCoons @KamalaHarris @CoryBooker @SenBlumenthal @SenatorLeahy @SenFeinstein @SenWhitehouse @SenatorDurbin\u2026 https://t.co/RRU9GPnk0c
p182
aVRT @WomenMarchPDX: If #Kavanaugh ultimately joins the #SupremeCourt, you will not have another "Year of the Woman." You will have the "Cent\u2026
p183
aV@JeffFlake Thank you, sir. Truly. You did the right thing. It's fair. It's just. I think it's what John McCain would have done. Thank you.
p184
aV@ChuckGrassley You have failed in your duty as chairman of the Senate Judiciary Committee and as a representative o\u2026 https://t.co/n30R9gK04s
p185
aV@ChuckGrassley I hope you realize that you have sacrificed your job for Brett Kavanaugh's. Good luck in your next r\u2026 https://t.co/AV2DoTRKMB
p186
aV@SenatorCollins I appeal to you ma'am, as a woman and a mother. Please vote no. Please. Republican or Democrat make\u2026 https://t.co/9lxdBQ64D6
p187
aV@JeffFlake Sir, despite the public statement it's not too late to change your mind. The reason you've been so confl\u2026 https://t.co/V6w2rb8RgK
p188
aVRT @ACLU: If you believe a thorough and transparent investigation into sexual assault claims against Brett Kavanaugh should happen BEFORE a\u2026
p189
aVWhy do I feel like Kavanaugh was practicing sad face lion face before this? Anyone else notice that for all of his\u2026 https://t.co/iIHRQsfAg7
p190
aV@SenFeinstein You're a smart enough lady to know this yourself but the majority is trying to go after you too. I fe\u2026 https://t.co/Rnlf9ywpqa
p191
aV@LindseyGrahamSC My first comment to you was meant to jar you to your senses. From your statement to the press just\u2026 https://t.co/OApaZM6Zk1
p192
aV@ABraveStep Thank you. From the bottom of my heart.
p193
aV#WhyIDidntReport The man who decided to rub my body while I was sleeping at my best friends' house was my best frie\u2026 https://t.co/x8bXyNyqmI
p194
aV@LindseyGrahamSC "Show respect to all people and grovel to none." - Senator John McCain Have you forgotten your fri\u2026 https://t.co/h179JTY0hB
p195
aVJoin me and #BeAVoter in the U.S. election. Get started by registering to vote here https://t.co/xNPjQGPG4t
p196
aVWhen I was a teenager my mom decided to teach me a lesson about getting into her purse all the time for stuff. One\u2026 https://t.co/cUEY4h4NxQ
p197
aV@RJRosenstein Take heart, sir. Stand your ground. I beg you not to resign. Many people are with you right now in spirit.
p198
a.