(lp0
VRT @VoteCasten: Ken is an independent voter who wants to see his values reflected in his Representative. This year, Ken is supporting @Sean\u2026
p1
aV@Maggington52 And people like you! You both are pretty amazing in my opinion.
p2
aVRT @CBIL6th: You can get free stickers all across Illinois &amp; the USA between now and 7pm Tuesday 11/6. You can save democracy at the same t\u2026
p3
aVRT @SeanCasten: Bill Reilly, EPA Administrator under George HW Bush makes the good point that the Republican party doesn't have to be anti-\u2026
p4
aVRT @TopherSpiro: BREAKING: In the ruby red state of Idaho, the GOP governor just endorsed Medicaid expansion, which is on the ballot. This\u2026
p5
aVRT @CBIL6th: The @GlenEPatch story covers the protest of @PeterRoskam &amp; Marco Rubio, both of whom voted to eliminate protection for those w\u2026
p6
aVI definitely want my pharmacist second-guessing the personal medical decisions I've made with my doctor regarding m\u2026 https://t.co/Ky1nNsb1OE
p7
aV@kevinobrien1963 @MaryAnnAhernNBC When did facts become a leftist conspiracy? Ridiculous!
p8
aVRT @CBIL6th: Fact-check: Roskam fibs about facts - and fact checks - of health care record https://t.co/Y8UcSqHQBu via @suntimes
p9
aVRT @CBIL6th: "The biggest reported losers locally are residents of the 6th Congressional District."  @PeterRoskam raised taxes on many of u\u2026
p10
aVRT @CBIL6th: Join us to protest Peter Roskam &amp; Marco Rubio who voted to eliminate preexisting condition protections &amp; undermine affordable\u2026
p11
aV@thomaspublius @VoteCasten @joekennedy @realDonaldTrump @SeanCasten You're hysterical. Roskam has so much *outside\u2026 https://t.co/t2GKXOwBS0
p12
aVRT @CBIL6th: Chemical industry bought TV ads to thank @PeterRoskam just before Sterigenics became hot issue https://t.co/RVWWezW3LV\u000a@Action\u2026
p13
aV@SeanCasten As usual, @PeterRoskam seems to have a problem with little things like "facts". This is just one of the\u2026 https://t.co/D928YQ3OtC
p14
aV@BuzzwordHit @VoteCasten @SeanCasten @ellysaysopa Let's discuss all of the connections between the American Chemist\u2026 https://t.co/YRKqOxxSG4
p15
aV@BuzzwordHit @VoteCasten @SeanCasten @ellysaysopa Should we start listing all of the corporate donors who have been\u2026 https://t.co/hsLHhUU6kr
p16
aV@jerryf642 @PeterRoskam @VoteCasten @SeanCasten @CBIL6th @wttw @Action6thDistIL @chicagotribune @dailyherald\u2026 https://t.co/I0zFiTnkc2
p17
aV@SeanCasten @PeterRoskam  After viewing the "debate" it's clear why Roskam has been hesitant to appear w/ Casten: i\u2026 https://t.co/vV0hmzAocY
p18
aV@MaryAnnAhernNBC @GovRauner @JBPritzker Stooping to Jeanne Ives' level of homophobia and disgusting hate speech - Illinois isn't having it.
p19
aVRT @ChrisTrengove: .@SeanCasten CRUSHED his debate with @PeterRoskam. Sean knows his facts and will bring a calm, independent, pragmatic, a\u2026
p20
aVRT @VoteCasten: FACT CHECK: Roskam ranked #25 on the Lugar Center\u2019s bipartisan index for the 115th Congress BUT he was ranked #153 for the\u2026
p21
aVRT @VoteCasten: Tonight, @SeanCasten will join Peter Roskam for a final debate before we #FlipThe6th in Nov. Tonight\u2019s #ChicagoTonight deba\u2026
p22
aVRT @Mikel_Jollett: If you think voting is inconvenient, wait until you see how inconvenient fascism is.
p23
aVRT @MalcolmNance: WARNING: We are 15 days from the end of American Democracy. If the Trump opposition loses the House Trump\u2019s criminality w\u2026
p24
aVRT @DavidJollyFL: Just gonna say it.\u000a\u000aI don't think there's anything wrong with confronting elected officials in public. Nothing. Zero. We\u2026
p25
aV@GregHinz @Obamacare @PeterRoskam @SeanCasten Casten signs are disappearing daily. We replace them and get back to\u2026 https://t.co/NbcrzmuUyR
p26
aVRT @hadiyafordupage: It was so much fun to talk about my race with @runforsomething &amp; why I knew it was so important to run!\u000a\u000aCheck out the\u2026
p27
aVRT @RepAdamSchiff: Fitting and tragic that Jamal Khashoggi\u2019s final column calls attention to the threats to the freedom of the press in the\u2026
p28
aVRT @Lawrence: Here\u2019s the choice:\u000a\u000aA. Trump doesn\u2019t care about Saudis murdering a journalist. \u000a\u000aB. Trump approves of Saudis murdering a jour\u2026
p29
aVRT @MccollumReid: Weird that Roskam hasn't run a single TV defending his tax cuts for billionaires and corporations that screw his constitu\u2026
p30
aVRT @chrislhayes: This entire charade is beyond disgusting. https://t.co/U1UirwSJZo
p31
aV@stephaniew1978 @SeanCasten The statement was "biggest deficit since 2012" there's no omission, there's no lie, the\u2026 https://t.co/CEphtWuKH3
p32
aV@stephaniew1978 @SeanCasten Ah, yes, that well known liberal rag The Wall Street Journal.  Are you folks allergic to facts?
p33
aV@DeathlyRaccoon @obbibb @joshray @Jillsey11 @HaleyRhiannon @KRIS6News @BetoORourke You do understand that Hillary h\u2026 https://t.co/RWQxOwIKpL
p34
aV@hemmerle_mark @VoteCasten @SeanCasten Your willfull ignorance is ridiculous.  The entire scientific community agre\u2026 https://t.co/a4Pdch3eED
p35
aVRT @MccollumReid: Knock doors &amp; let's finish the job to replace @PeterRoskam with @SeanCasten!! Don't take ANYTHING for granted. The GOP ju\u2026
p36
aVRT @HillaryClinton: Eleven weeks ago, the administration was supposed to finish reunifying families it separated at the border. Eleven week\u2026
p37
aVRT @chrislhayes: Conservatism's ability to be both victor and victim will never cease to amaze.
p38
aVRT @CitizenActionIL: Wow!  Get out a Kleenex. Read this and then get back to work!  Thank you \u2066@AdyBarkan\u2069 \u2066!  \u2066@CBIL6th\u2069 \u2066@Action6thDistIL\u2026
p39
aVRT @MccollumReid: Knock doors this weekend to KNOCK OUT ROSKAM!!!\u000a\u000a"Party strategists said several other incumbents must recover quickly or\u2026
p40
aVRT @msbrayparker: Watch these #GBNCivics @GBNelects students at WTTW @MikvaChallenge governors debate tonight at 7:00 pm on Ch 11. @GBNSocS\u2026
p41
aVRT @VoteCasten: Huge News: Chicago Sun-Times Editorial Board (@CSTeditorials) endorses, with enthusiasm, @SeanCasten for Congress in #IL06\u2026
p42
aVRT @MccollumReid: "As part of our endorsement process, we repeatedly invited Rep. Peter Roskam to meet and talk with us, but he blew us off\u2026
p43
aVThank you! It's good to know we can count on our Senators to do the right thing for this country. https://t.co/p8N5bHOan5
p44
aVFuck. This. Asshole. https://t.co/OkHLWVwd8I
p45
aVRT @PreetBharara: Senators vote tomorrow. People vote Nov 6.
p46
aVRT @DanielBiss: This week, the Supreme Court, the US Senate, and the FBI all experienced great losses of credibility.\u000a\u000aThe patriarchy, on t\u2026
p47
aVRT @AdyBarkan: Every paragraph in this Susan Collins speech is more infuriating and absurd than the one before it.\u000a\u000aReplace her. Unseat her\u2026
p48
aVRT @AmyArgetsinger: OMG CNN. Please let us interview your chyron artist. https://t.co/wpeBmzZKO8
p49
aVRT @Conserv4Casten: Why am I supporting @SeanCasten?  Fundamentally, I'm very concerned for America.  We are heading in the wrong direction\u2026
p50
aVRT @SeanCasten: Remember when Jeff Flake sent that $100 check to Doug Jones with the message line that said "country over party"?  Now woul\u2026
p51
aVRT @VoteCasten: Instead of standing up to Donald Trump, Peter Roskam has been a rubber stamp.\u000a\u000aPeter Roskam voted to kick 30,000 people off\u2026
p52
aVRT @SeanCasten: Big news: Inside Elections moves #IL06 from "Toss Up" to "Lean Dem"!Keep this momentum going! https://t.co/QAprQzMd4p
p53
aVRT @VoteCasten: Some politicians meet once every 10 years with their constituents, others meet on a regular basis. https://t.co/oLOJ0dHksh
p54
aVRT @VoteCasten: Peter Roskam voted to cap the State And Local Tax deduction - a move that will increase taxes for many homeowners in #IL06\u2026
p55
aVRT @Conserv4Casten: Full house, open meet and greet forum for @SeanCasten in Wheaton. Taking and answering questions from voters. This is h\u2026
p56
aVRT @SeanCasten: Thanks @CitizenActionIL !  Proud to receive your support.  Now we HAVE to go win.   Democracy depends on it. https://t.co/r\u2026
p57
aVRT @CBIL6th: Business leaders race to buy private planes as they take advantage of a new write-off https://t.co/v89c88nNH6 via @WSJ
p58
aV@BernardoOReill2 @SeanCasten @PeterRoskam The point is absolutely clear to anyone with a brain. No one expected him\u2026 https://t.co/4pVKGhucXV
p59
aVRT @neeratanden: Friends, just a reminder. If Dems take the Senate, Grassley is no longer Chair of the Judiciary Committee.  The majority o\u2026
p60
aVRT @VoteCasten: Roskam and the GOP thought it would be a great idea to throw a little extra reward to their donors into the #TaxScam bill.\u2026
p61
aVRT @msbrayparker: Final results of GBN Mock Election. Thanks League of Women Voters. @GBNelects @GBNSocStudies #gbncivics https://t.co/A0fJ\u2026
p62
aVRT @CitizenActionIL: \u2066@PeterRoskam\u2069 CD6 won\u2019t forget!  \u2066@CBIL6th\u2069 \u2066@Action6thDistIL\u2069 \u2066@NaperGals\u2069 \u2066@IndivisibleNap\u2069  https://t.co/XosX4TgRsO
p63
aVRT @SeanCasten: Actually, it's a terrible bill and voters are smart.  But yes, you're also losing on "messaging", @PeterRoskam. https://t.c\u2026
p64
aVRT @paolamendoza: #DearProfessorFord, \u000a\u000aWe want you to know that you are not alone. You are a survivor. Millions of us have your back.\u000a\u000aWe\u2026
p65
aVRT @TopherSpiro: Whoa. The Trump administration is raiding money from Head Start, cancer research, AIDS programs, mental and maternal healt\u2026
p66
aVRT @SeanCasten: "A man is known by the company he keeps" - Aesop https://t.co/zdQtWj9WmH
p67
aVRT @MccollumReid: CBS fact checkers rate Casten's ads tying Roskam to Trump as TRUE. Always refreshing when the media tells the truth. http\u2026
p68
aVRT @CitizenActionIL: @IndivisibleChi @IndivisibleIL @IndivLakeviewLP Stop by 9-21 at 5:30pm in front of the Hilton 720 S Michigan. Join Cit\u2026
p69
aVRT @SeanCasten: Big news today - we are up 3% in #IL06.  Let's keep this momentum going and #flipthe6th!   https://t.co/hjWD4xt9aK
p70
aVRT @CBIL6th: Democrats' poll shows Casten ahead of Republican Roskam for 1st time https://t.co/nEm95xyIh7 via @suntimes
p71
aVRT @VoteCasten: Roskam often says that as a Republican, bringing down the debt is a huge part of his platform...it seems like what he actua\u2026
p72
aVRT @davidhogg111: Please vote November 6th. \u000aThank you and goodnight.
p73
aVRT @CitizenActionIL: Excellent New report about people with pre-existing conditions in Cook County whose healthcare is a risk under the Tru\u2026
p74
aVRT @CitizenActionIL: GOP passed #TaxScam and blew a big hole in the budget, again eyeing Medicare, Social Security and Medicaid spending sa\u2026
p75
aV@AllYouNeedIsATV @MamaLovestoEat @designmom @krmercier Hahahahaha! You have never raised a child have you?
p76
aVRT @Conserv4Casten: Respect for @SeanCasten who had pledged to continue to meet with voters in open public forums if elected.  He is not af\u2026
p77
aVRT @EamonJavers: The president\u2019s legal team put out an initial statement that said: \u201cthe President did nothing wrong and Paul Manafort will\u2026
p78
aVRT @DavidCornDC: Hey, don't forget this fun fact: Paul Manafort and Roger Stone had a notorious lobbying firm together for years. They're l\u2026
p79
aVRT @CBIL6th: Election Update: Democrats\u2019 Chances In The 13 Romney-Clinton Districts https://t.co/ZGt9sCT0AD
p80
aVRT @SeanCasten: Thread\u2014&gt; https://t.co/tdsX38DZnp
p81
aVRT @chrislhayes: The deficits being run up now aren't an accident, or some unfortunate byproduct, *they are the point*. They politically co\u2026
p82
aVRT @AdyBarkan: Corporate media conventional wisdom in a nutshell: \u000a\u000aKoch brothers\u2019 lobbying money? \U0001f44d\U0001f44c\u000a\u000a35,000 citizens speaking their mind\u2026
p83
aVRT @MccollumReid: More Sean Casten being awesome today! This time with Lauren Underwood! What a great pair. Too bad Roskam refused to show\u2026
p84
aVRT @SeanCasten: Meanwhile in #IL06 @PeterRoskam describes his 94% rubber stamp with Trump as being aligned with the values of the district.\u2026
p85
aVRT @CBIL6th: This evil Super PAC has $2MM on TV in IL06 &amp; a frield office in Glen Ellyn. It's time to stand up for our values or lose the r\u2026
p86
aVRT @SeanCasten: Good job on the WaPo for calling out CLF on their lies - including against me.  The GOP cannot win this election on facts.\u2026
p87
aVRT @brucejapsen: How Republicans Opposed To Medicaid Expansion Hurts Children via @forbes https://t.co/AqWmTZJYXN #CNNSOTU #AMJoy #ThisWeek
p88
aVLWV adhere to the FEC rules that require both sides to be represented in any debate/forum.  Roskam has long used th\u2026 https://t.co/PPUlHTXnob
p89
aVRT @VoteCasten: Illinois 6th District deserves a Congressman that will be on our side, and who is a real independent check on Donald Trump.\u2026
p90
aVRT @AdyBarkan: Kavanaugh must be removed from the Federal Judiciary. \u000a\u000aPlease RT if you want a member of the House to file Articles of Impe\u2026
p91
aV@dbmain @roybiker123 @JLtweats @TeamRoskam @SeanCasten It seems that someone who thinks that "CBO estimates are alw\u2026 https://t.co/eHYxbAmHuO
p92
aVRT @SenatorLeahy: BREAKING: Kavanaugh testified he never received any docs that even \u201cappeared to \u2026 have been drafted or prepared by Democr\u2026
p93
aVRT @cameron_kasky: I\u2019ll bet 20 bucks the NYT piece was written by Bannon. \u000a\u000aJust kidding, obviously. \u000a\u000aBUT I\u2019ll bet 100 bucks that while we\u2026
p94
aVRoskam doesn't have a conscience &amp; that's how he sleeps. I've seen him sit next to a wife/mother as she showed him\u2026 https://t.co/zV9SzQ5Fwd
p95
aVRT @CBIL6th: GOP incumbent criticized over slow response to toxic emissions at plant in Chicago suburbs https://t.co/8DGllKXmEW \u000a@CitizenAc\u2026
p96
aVRT @SeanCasten: The President of the United States does not believe that the rule of law exists independent of politics.  @PeterRoskam and\u2026
p97
aVRT @SeanCasten: They still are.  I'm running to represent everyone, not just Democrats. https://t.co/vts2DYmtjw
p98
aVRT @CitizenActionIL: Wishing all of our brothers and sisters in the labor movement a very Happy Labor Day!  Your fierce struggle and commit\u2026
p99
aVRT @MccollumReid: This Labor Day, let's remember who voted to make it harder for women in labor to avoid medical bankruptcy for bringing li\u2026
p100
aVWe've defeated Koch Brothers money before in DuPage by organizing, educating and keeping the electorate constantly\u2026 https://t.co/05cgrtaphv
p101
aVRT @CBIL6th: Midterm Elections: A House-Flipper's Guide to the 2018 Congressional Races, Part 1 | GQ https://t.co/KQsuBjPl1X
p102
aVRT @CitizenActionIL: https://t.co/7Ze4oebvNi
p103
aVRT @SeanCasten: Is there anything that scares @PeterRoskam more than meeting with his constituents in an open forum in the district? https:\u2026
p104
aVRT @MccollumReid: \u2066@hadiyafordupage\u2069 &amp; \u2066@Maggington52\u2069 have an amazing podcast. I was humbled to be a guest on their latest episode. Listen\u2026
p105
aVRT @CitizenActionIL: Roskam declines invitation to participate in League of Women Voters candidate forum https://t.co/KgK2lCe85M via @mysub\u2026
p106
aVRT @CBIL6th: @PeterRoskam saw a lot of his constituents yesterday. He didn't meet or talk to any of them. Apparently it was a "private" mee\u2026
p107
aVRT @MccollumReid: Last week @PeterRoskam called seniors "entitled individuals" &amp; implied benefits cuts to Medicare (https://t.co/of0SQ3fQlm\u2026
p108
aVRT @CitizenActionIL: Let\u2019s be clear this is a bi-partisan bill negotiated with the insurance industry.  A key feature was simple disclosure\u2026
p109
aVRT @SeanCasten: Making sure students have access to affordable education is how you invest in the future.  Not a good sign when the head of\u2026
p110
aVRT @CBIL6th: Dozens here to tell @PeterRoskam "We Are Not Entitled Individuals" #NotEntitledIL06 at College of DuPage! #TWILL \u000a@ShiaKapos @\u2026
p111
aVRT @CBIL6th: Dozens came out to tell @PeterRoskam that seniors aren't "entitled individuals" ahead of his roundtable at College of DuPage.\u2026
p112
aVRT @CBIL6th: Meanwhile inside @PeterRoskam roundtable he refused important questions yet again! \u000a@daveweigel @CitizenActionIL @dailyherald\u2026
p113
aVRT @CitizenActionIL: We tell it like it is. @GovRauner vetoed HB2624. A bi-partisan negotiated bill to protect patients from the worst abus\u2026
p114
aVRT @SeanCasten: Thanks so much!  The silver lining of the Trump era is how many good people are standing up.  To knock doors, to phonebank,\u2026
p115
aVRT @PPIAction: Springfield, Illinois is fighting back to #UniteForJustice &amp; #STOPKavanaugh https://t.co/OMYD1VysP7
p116
aVRT @SeanCasten: "A majority of people surveyed want a check and balance on the President."  Hear, hear.  https://t.co/WkEQecAUds
p117
aVRT @CBIL6th: Peter Roskam called seniors "entitled individuals." Join them to tell Roskam their benefits were EARNED! \u000aHE WILL BE HERE: \u000aMo\u2026
p118
aVRT @MccollumReid: Join us to protest Peter Roskam's plan to cut Medicare &amp; Social Security as a solution to the debt problem created by his\u2026
p119
aVRT @SeanCasten: The permanent headline of the Trump era: House Republicans who wish to remain anonymous are furrowing their brow. https://t\u2026
p120
aVRT @SeanCasten: Voters are smart. https://t.co/nlKvYp4Rm6
p121
aVRT @MccollumReid: #VoteRoskam if you think it's OK @CLFSuperPAC runs lying attack ads on a Putin-backed Russian propaganda network. \u000a\u000aSheld\u2026
p122
aVRT @SeanCasten: Math is good. https://t.co/S2VwKveH6d
p123
aVRT @CitizenActionIL: And this will only get worse as the GOP and Trump allow junk health insurance plans back into the market. https://t.co\u2026
p124
aVRT @MccollumReid: @SeanCasten fights back against @PeterRoskam lies! Help him get his message out by chipping in:\u000ahttps://t.co/G4J402TPfE @\u2026
p125
aVRT @TimJoeC: On Tuesday August 21st, both candidates for the US House from #IL06 held "town halls" with constituents. Which one do you thin\u2026
p126
aVRT @ronen_schatsky: Overwhelming turnout for @SeanCasten at McGonigals Pub in Barrington! Sean\u2019s right\u2014this is an \u201coptimistic time.\u201d @VoteC\u2026
p127
aVRT @CBIL6th: Roskam is coming for Medicare! Just like his tax cuts, it's a false flag operation designed to benefit large corporations and\u2026
p128
aVRT @SeanCasten: And they've moved us to a toss-up.  Keep the pressure up, all.  And remember the goal isn't only to win #IL06 but to send a\u2026
p129
aVRT @CBIL6th: GOP Playbook:\u000a1) Cut taxes for billionaires 2) Get donations from billionaires 3) Lie about opponents &amp; issues 4) Pay for an a\u2026
p130
aVRT @cameron_kasky: Early voting has begun for the Broward County school board elections. Election Day is on August 28th. \u000a\u000aRemember how cru\u2026
p131
aVRT @CBIL6th: "Roskam shows true colors by avoiding constituents" #IL06 @FlipThe6thIL @Action6thDistIL @CitizenActionIL \u000ahttps://t.co/djlbTc\u2026
p132
aVRT @SeanCasten: Hey @PeterRoskam: Man-made climate change is real.   We knew that in 1912.  It isn't junk science.  You'd know that if you\u2026
p133
aVRT @CitizenActionIL: https://t.co/ZbV7evjChB
p134
aVRT @davidhogg111: Abolish the NRA\u000aAbolish the NRA\u000aAbolish the NRA\u000aAbolish the NRA\u000aAbolish the NRA\u000aAbolish the NRA\u000aAbolish the NRA\u000aAbolish t\u2026
p135
aVRT @MccollumReid: https://t.co/Bl34jBcXo2\u000a\u000a.@PeterRoskam thinks "assault weapon" is a pejorative term. AR-15s leave an exit would the size\u2026
p136
aVRT @cameron_kasky: Step 1: Register to vote \u000a\u000aStep 2: Learn about who you\u2019re voting for \u000a\u000aStep 3: ACTUALLY DO IT\u000a\u000aStep 4: Realize that step\u2026
p137
aVRT @lizjaff: Packed room for @Ocasio2018 and @AdyBarkan tonight in the Bronx. I havent seen a reception like this for a member of Congress\u2026
p138
aVRT @CitizenActionIL: \u2066@dailyherald\u2069 We missed you at College of DuPage Healthcare forum last night.  Full house of voters who are deeply co\u2026
p139
aVRT @CitizenActionIL: Concerned 6th district voters gather tonight to hear about healthcare concerns.  #IL06healthvoter https://t.co/Zztp4Ui\u2026
p140
aVRT @CitizenActionIL: @dailyherald 800 people reserved tickets for healthcare forum tonight at College of DuPage yet you can\u2019t cover because\u2026
p141
aVRT @hamiltonnolan: \u201cThe swing voter is not red to blue. The swing voter is non voter to voter. That\u2019s our swing voter.\u201d - @Ocasio2018 https\u2026
p142
aVRT @RoadToChange: \u201cIf you\u2019re not outraged, you\u2019re not paying attention\u201d - Heather Heyer\u000a\u000aWe\u2019ll see you tomorrow.\u000a\u000a#RoadToChange https://t.c\u2026
p143
aV@allenskillicorn @PeterRoskam @CLChamber Sir, this is what a packed house in the 6th District looks like.  We are n\u2026 https://t.co/caachGAd7K
p144
aVRT @MccollumReid: He's back! And great call endorsing Sean Casten for IL06!!! https://t.co/PZBOkEWaBu
p145
aVRT @SeanCasten: Thank you, @BarackObama!  Proud to be listed among such great people who've all been inspired by your example. https://t.co\u2026
p146
aVRT @CitizenActionIL: #Medicare53 Senior team leader @jerryf642 delivered this cake to Peter Roskam as a reminder to protect Medicare. https\u2026
p147
aVRT @IndivisibleChi: Now that #IL06Debate has started.. \u000aA tale of 2 candidates: @SeanCasten greets supporters and detractors outside. #Runa\u2026
p148
aVRT @CitizenActionIL: Crowd is getting bigger and as always the signs are right on message!  #IL06Debate \u2066@CBIL6th\u2069 \u2066@Action6thDistIL\u2069 https\u2026
p149
aVRT @CitizenActionIL: \u2066@PeterRoskam\u2069 Sean Casten came out to the street before tonight\u2019s debate!  Where were you?!!! Going in the back door\u2026
p150
aVRT @CBIL6th: Over 200 protest @PeterRoskam outside #IL06 debate! @GregHinz @nbcchicago @ShiaKapos @kristenicoleast @MaryAnnAhernNBC @erin_h\u2026
p151
aVRT @JulieSampson12: #IL06Debate @NARAL @PPIAction https://t.co/KFLbvbCViX
p152
aVRT @CitizenActionIL: made for twitter #IL06debate https://t.co/3jz38QKG6V
p153
aVRT @MaxTemkin: \U0001f449 Tonight at 7pm me, @AlexCox, @santheo, and @tommygents will stream INIS (my current favorite tabletop game) to benefit @Se\u2026
p154
aVRT @CBIL6th: Remember Palatine (2/4/17). Let's do it again but bigger tonight downtown. Our democracy depends on it. --&gt;&gt;&gt; https://t.co/OD4\u2026
p155
aVRT @CBIL6th: FOX 32 IS TAKING QUESTIONS FOR THE DEBATE IN COMMENTS HERE: \u000ahttps://t.co/phiRsPED6b\u000a@FlipThe6thIL @Action6thDistIL @CitizenAc\u2026
p156
aVRT @brucejapsen: Kentucky\u2019s Medicaid administration costs jumped more than 40% after implementing work requirements @FitchRatings https://t\u2026
p157
aVRT @neiltyson: Today, the greatest threat of extinction we face is not asteroids or climate change or disease or  famine. It\u2019s society\u2019s re\u2026
p158
aVRT @traceyecorder: .@AdyBarkan addressing a full room in Warren, MI in support of @AbdulElSayed for Governor and Resisting the Trump agenda\u2026
p159
aVRT @MccollumReid: I got an LTE in the Herald print edition today! It's not online yet but while looking I realized they published another o\u2026
p160
aVRT @NaperGals: @HHootman @Action6thDistIL @CBIL6th @IndivisibleNap @IndivisDuPage @IndivisibleDPGE @IndivisibleIL @IndivisibleIL6 @FlipThe6\u2026
p161
aV@FlipThe6thIL I was too busy laughing at the thought of Pete Roskam dirtying his hands with a lowly task like talki\u2026 https://t.co/QC4zEdn2Cw
p162
aVWe need to elect this man!  Make America Smart Again! https://t.co/qwPd0Zx0ff
p163
aV@FlipThe6thIL We need to elect this man!
p164
aVRT @AppropsDems: JUST IN: @HouseGOP sided with @POTUS and voted down @RepMikeQuigley's effort to restore election security grants that prev\u2026
p165
aVRT @CBIL6th: Join us to protest @PeterRoskam's votes against access to affordable Healthcare outside the debate at @ulcchicago Chicago on T\u2026
p166
aVRT @SeanCasten: "sometimes one doesn't know the influence a discussion can have (on) someone," Roskam said.  \u000a\u000aYour constituents, who haven\u2026
p167
aVRT @DanielBiss: Serious question: is there a single human on this planet who is not a Republican member of Congress and who "accepts the pr\u2026
p168
aV@FlipThe6thIL @PeterRoskam Because we've all seen how well Trump responds to reason and subtlety.  Smooth move, Pete!
p169
aVRT @cameron_kasky: Wait, hold on, this is getting lost in the fire:\u000a\u000aThe NRA was LITERALLY colluding with a Russian spy and within 24 HOURS\u2026
p170
aVRT @AdyBarkan: While #GOPTaxScam author @PeterRoskam was meeting with @realDonaldTrump, his staff turned away 75 constituents and 2 TV stat\u2026
p171
aVRT @GottaBeZen: @CBIL6th @PeterRoskam @AdyBarkan @GregHinz @kristenicoleast @erin_hegarty @dailyherald @NapervilleSun What a patriot and a\u2026
p172
aVRT @HHootman: @CBIL6th @PeterRoskam @AdyBarkan @GregHinz @kristenicoleast @erin_hegarty @dailyherald @NapervilleSun @AdyBarkan is amazing.\u2026
p173
aVRT @CBIL6th: @AdyBarkan (a hero dying of ALS) and 75 constituents were rebuffed by @PeterRoskam's #IL06 staff for having questions about hi\u2026
p174
aVRT @TomthunkitsMind: 'I may be weak. I may be dying, but I am going to fight back with every last breath. And you can too.' \u2014 @adybarkan ht\u2026
p175
aVRT @CitizenActionIL: Big thanks to all the activists in CD6 who came out to greet healthcare activist @AdyBarkan.  Ady inspired us to keep\u2026
p176
aVRT @lizjaff: Allison with her son Elliot were turned away when we tried to meet with @PeterRoskam. This is not the representation IL 06 nee\u2026
p177
aV@LocklearAndy @AdyBarkan @joshfoxfilm @PeterRoskam @realDonaldTrump This isn't 24/7 access we are looking for and P\u2026 https://t.co/3Shlx1uKN7
p178
aV@SadieLeMoyne @gracekmendoza @AdyBarkan @PeterRoskam @realDonaldTrump Yep - Roskam is very proud of his tax bill an\u2026 https://t.co/oeGC89dJ0o
p179
aV@gracekmendoza @AdyBarkan @PeterRoskam @realDonaldTrump I'm a 30+ year resident of the district. I've been followin\u2026 https://t.co/L7grOR5eZa
p180
aV@gracekmendoza @Winbacksenate18 @AdyBarkan @PeterRoskam @realDonaldTrump @SeanCasten Perhaps their representatives\u2026 https://t.co/MYQB9mD0PF
p181
aVRT @Maggington52: It\u2019s time for @PeterRoskam to be held accountable for his actions on healthcare. Thank you to @AdyBarkan and the #BeAHero\u2026
p182
aVRT @CBIL6th: @PeterRoskam refused to meet with @AdyBarkan &amp; 75 constituents. His staff wouldn't let a man dying ALS and a young mother &amp; ch\u2026
p183
aVRT @CitizenActionIL: Requesting a meeting with \u2066@PeterRoskam\u2069. They won\u2019t let us up to the office and won\u2019t allow press and media in.  \u2066@Ad\u2026
p184
aVRT @CitizenActionIL: And we are ready to march with \u2066@AdyBarkan\u2069 to visit \u2066@PeterRoskam\u2069. Ady is our Hero!  #BeAHero https://t.co/E09Z0rVy6Y
p185
aVRT @CitizenActionIL: Crowd breaks out in chants of Shame! Shame! Led by \u2066@AdyBarkan\u2069 and his strong and passionate voice!  #BeAHero \u2066@CBIL6\u2026
p186
aVRT @CitizenActionIL: Co-director Lynda DeLaforgue with @AdyBarkan today. Thank you so much for coming and energizing our groups!#BeAHero ht\u2026
p187
aVRT @CBIL6th: .@PeterRoskam refused to meet with @AdyBarkan &amp; 75 constituents today at his office. Staff refused to even let constituents in\u2026
p188
aVRT @CitizenActionIL: Our CD6 intern Maggie tells us to vote!  \u2066@AdyBarkan\u2069 #BeAHero \u2066@CBIL6th\u2069 \u2066@Action6thDistIL\u2069 https://t.co/SKmp4lZ8HN
p189
aVRT @AdyBarkan: All across America, regular folks are rising up to be heroes for our country. \u000a\u000a75 residents just marched on @PeterRoskam\u2019s\u2026
p190
aVRT @CitizenActionIL: Staff stopped us from entering the building. Taking questions outside from @AdyBarkan and #IL06 constituents. #BeAHero\u2026
p191
aVRT @CitizenActionIL: Getting ready for \u2066@AdyBarkan\u2069 visit to \u2066@PeterRoskam\u2069.  Meet us by the RV to right side of building and we will march\u2026
p192
aVRT @kerrymansour: Empty words until you call for a action, @PeterRoskam. Your constituents want ACTION, not words. This entire presidency h\u2026
p193
aVRT @michaelianblack: Do you remember when people got mad at the Dixie Chicks for criticizing the United States when they were in London? lol
p194
aVRT @FlipThe6thIL: In case you're wondering if the press has noticed us: "Demonstrators are a regular part of Roskam\u2019s days in his district.\u2026
p195
aVRT @FlipThe6thIL: Looks like @politico @natashakorecki saw right through @PeterRoskam's excuse that he missed the @vp fundraiser for "votes\u2026
p196
aV@DanielBiss @PeterRoskam @SeanCasten Thank you! We're still here in the 6th working to rid ourselves of Roskam and\u2026 https://t.co/JH2X0UmhNA
p197
aVRT @DanielBiss: The awesome thing about being @PeterRoskam is that he thinks his only authority derives from twitter so after @SeanCasten c\u2026
p198
aVRT @natashakorecki: Has anybody seen Peter Roskam? This man stands up and shouts, and we have our 5th disruption. Roskam was originally sup\u2026
p199
aVRT @RBReich: Nearly 300 billboards like this one have gone up around Helsinki ahead of the Trump-Putin summit. https://t.co/tT47PMcwBI
p200
aVRT @FlipThe6thIL: "[The Farm Bill] is a vote to steal food out of the hands of working families, children, and older Americans to pay for t\u2026
p201
aVRT @FlipThe6thIL: \u201cWhen Pence began to praise U.S. Rep. @PeterRoskam, of Wheaton, a man said, \u2018Has anyone seen Peter Roskam? I haven't seen\u2026
p202
aVRT @CBIL6th: \U0001f525ADY IS COMING TO #IL06 ON TUESDAY 7/17 TO CALL OUT @PeterRoskam on HEALTHCARE!! SEE THIS VIDEO AND SHARE!! \U0001f525JOIN ADY: https:/\u2026
p203
aVRT @CBIL6th: .@PeterRoskam certainly got a lot of attention for someone trying to be invisible &amp; under the radar. Oops. #IL06\u000ahttps://t.co/\u2026
p204
aVRT @CitizenActionIL: Heading to the Pence/Rauner protest we ran into this piece of propaganda.  #GOPTaxScam https://t.co/Ypn4IDFtQt
p205
aVRT @CBIL6th: @PeterRoskam has some explaining to do: "Manufacturing workers saw the sharpest decline in pay from the first to second quarte\u2026
p206
aVRT @CBIL6th: .@PeterRoskam's not coming to his own $25K/couple fundraiser w/ @mike_pence hosted by @realDonaldTrump's super PAC, but you ca\u2026
p207
aVRT @CBIL6th: .@PeterRoskam will skip his own $25,000 per couple fundraiser with @mike_pence. Distancing himself from @realDonaldTrump won't\u2026
p208
aVRT @FlipThe6thIL: In 2016, the largest block of Americans eligible to vote were neither Democrats nor Republicans. \u000a\u000aThey were people who d\u2026
p209
aVRT @CBIL6th: Chip in $25 to bring @AdyBarkan to #IL06 to ask @PeterRoskam about his healthcare votes &amp; tax cuts that put Medicare funding i\u2026
p210
aVRT @eugenegu: Roe vs. Wade is not about abortion. It's about women's fundamental human right to control their own bodies. There's no way to\u2026
p211
aVRT @CitizenActionIL: Illinois farmers hit hard by Trump/GOP tariffs.  https://t.co/vnkwf1uD86
p212
aVRT @Emma4Change: please take 1.5 minutes to read this thread, im crying https://t.co/b3UtEWWlpz
p213
aVRT @CBIL6th: American Chemistry Council spent $7MM to lobby the EPA to bury a study about the link between formaldehyde &amp; cancer and to cut\u2026
p214
aVRT @CBIL6th: Bring @AdyBarkan to #IL06 to ask @PeterRoskam why he voted against Healthcare! \u000a\U0001f525CHIP IN: https://t.co/RFGth3TEt2\u000a\u2744\ufe0fTake the I\u2026
p215
aVRT @MccollumReid: Peter Roskam has nothing to run on but lies, fear, and dark money. Did I mention lies? https://t.co/ud4Z176mV1
p216
aVRT @MJMcKean: Trump saying Pruitt did "an outstanding job" is like a dad praising the birthday party clown who showed up drunk, cursed at t\u2026
p217
aVRT @kerrymansour: What is this nonsense, @PeterRoskam? Your #4thofJulyloot is a whistle? Is this a literal #dogwhistle to your supporters?\u2026
p218
aVRT @CitizenActionIL: https://t.co/ClQzgdjs3h
p219
aVRT @FlipThe6thIL: Please let this man be our representative come November.\u000a\u000a@SeanCasten https://t.co/2p52Qy5MWd
p220
aVRT @TimJoeC: A large, enthusiastic crowd showed up to march with @SeanCasten today @ the Barrington 4th of July Parade. \u000a@CBIL6th @Action6t\u2026
p221
aVRT @MccollumReid: I'm so proud to march with @VoteCasten at the Hinsdale 4th of July Parade today!! We got tons of support and cheers along\u2026
p222
aVRT @davidhogg111: Contrary to what @DLoesch wants you to believe it\u2019s possible to be pro second amendment and pro-gun sense.
p223
aVRT @cameron_kasky: Fascism happens in baby steps. Look at the signs- we are well on the way.
p224
aVRT @CBIL6th: A free press is one of our most important democratic institutions, and it will not be silenced. It's a good day to remember th\u2026
p225
aVRT @cameron_kasky: In the coming election, there is no room for apathy. There is far too much on the line for anybody to question whether o\u2026
p226
aVRT @CBIL6th: "Weaker unions mean less money for union members. That's what [Rauner] wanted to do all along." \u000aJanus-AFSCME decision was abo\u2026
p227
aVRT @SeanCasten: I'm so disappointed in the Janus decision.   My statement here. https://t.co/3EdLRxh9ju
p228
aV#CBIL6 \U0001f30a\U0001f30a\U0001f30a https://t.co/eIrzflFLSE
p229
aVRT @FlipThe6thIL: .@PeterRoskam, the sitting Congressman of #IL06 - a district flanked by @Fermilab and @argonne - literally does not know\u2026
p230
aVRT @jerryf642: Thanks to The Daily Herald for publishing my LTE (last Thursday, 6/21) about how @PeterRoskam pretends to support seniors wh\u2026
p231
aVRT @TimJoeC: It will be so nice to have a Congressperson who supports our LGBTQ brothers and sisters. Good seeing @SeanCasten at Aurora &amp; C\u2026
p232
aVRT @FlipThe6thIL: The bad news for @PeterRoskam is that his tax bill has reached a new low of 34% approval nationwide.\u000a\u000aThe worse news for\u2026
p233
aVRT @CitizenActionIL: We want to thank all the determined members of the press who have been peeling apart and exposing the layers of inepti\u2026
p234
aVRT @jerryf642: @PeterRoskam voted "yes" this week to cut help for seniors trying to put food on their table. He's just plain lying when he\u2026
p235
aVRT @MccollumReid: @PeterRoskam You have 0 tweets on immigration so I'll put this here. The Leadership Bill you support ends family separati\u2026
p236
aVRT @CBIL6th: Letter: Roskam failed to stand up for DACA recipients https://t.co/y8oPrdDI3U via @nwherald @Maggington52 @indivisibleGE @Acti\u2026
p237
aVRT @RepAdamSchiff: Secretary Nielsen privately told lawmakers the Administration may go back to separating children from their parents. Con\u2026
p238
aV@markos @FlipThe6thIL Hahahaha hahahaha! Oh my, I needed a good laugh - who knew Roskam was a comedian? @PeterRoskam
p239
aVRT @FlipThe6thIL: Dear @PeterRoskam:\u000a\u000aYes, we did notice your proposal today to cut $537,000,000,000 from Medicare and $1,500,000,000,000 f\u2026
p240
aV@biggestpetes @SeanCasten Perhaps you can explain this "rule" to Roskam because he seems to have no problem getting\u2026 https://t.co/oPb1Ea0EUh
p241
aVRT @CitizenActionIL: Deep in the heart of the suburbs of Chicago the people are rising up!  Lombard tonight. @cbil6. \u2066@JoeNBC\u2069 \u2066@MaryAnnAhe\u2026
p242
aVRT @hadiyafordupage: I spoke (as an activist, not candidate) at today\u2019s immigration protest with @CBIL6th, but my words and values hold tru\u2026
p243
aVRT @SenJohnMcCain: The administration\u2019s current family separation policy is an affront to the decency of the American people, and contrary\u2026
p244
aVRT @ACLU: BREAKING: The court rules that Kansas' documentary proof-of-citizenship law, which disenfranchised thousands of eligible voters,\u2026
p245
aVRT @timkaine: The real Trump Hotel. https://t.co/PP6nIbzNQR
p246
aVRT @CBIL6th: Protest @PeterRoskam's refusual to stand up for a clean Dream Act is this Tuesday 6/19 at 7pm at Shell station North Ave &amp; Roh\u2026
p247
aVRT @RepAdamSchiff: Thank you Laura Bush for speaking out. I know there\u2019s great reluctance among former Presidents and First Ladies to comme\u2026
p248
aVRT @davidhogg111: Human beings are not illegal \u000aHuman beings are not illegal  \u000aHuman beings are not illegal \u000aHuman beings are not illegal\u2026
p249
aVRT @michaelianblack: Once when I was about three, my family accidentally boarded an skyscraper elevator without me. We were separated for n\u2026
p250
aVRT @pattonoswalt: The fuck kind of country are we living in? Good God. https://t.co/3sFbnxtzYn
p251
aVRT @CBIL6th: These students from #IL06 are showing the rest of us what democracy looks like as we prepare to leave for the #RoadToChange Ma\u2026
p252
aVRT @CBIL6th: \u2066@PeterRoskam\u2069 could have helped unDACAmented constituents in #IL06 but he hid in the shadows on this key issue at the critica\u2026
p253
aVRT @FlipThe6thIL: Today, @SeanCasten released a 7-point policy plan to prevent voter suppression. Here are the points. /THREAD\u000a\u000ahttps://t.c\u2026
p254
aV@PeterRoskam Interesting timing. I seem to recall hearing something recently about a certain Democratic challenger\u2026 https://t.co/vj9Jxg16p9
p255
aVRT @AppropsDems: JUST IN: On a party-line vote, @HouseGOP passed the Trump-GOP rescissions package that eliminates Children's Health Insura\u2026
p256
aVRT @MccollumReid: This is insane. #IL06 has had enough. Children deserve Healthcare! It's time to #FlipThe6th \u000a@FlipThe6thIL @CitizenAction\u2026
p257
aVRT @davidhogg111: Women\u2019s rights are human rights  \u000aWomen\u2019s rights are human rights \u000aWomen\u2019s rights are human rights \u000aWomen\u2019s rights are hu\u2026
p258
aVRT @jerryf642: Thanks to the Sun Times for publishing my LTE about @PeterRoskam 's latest mailer telling seniors to thank him while he vote\u2026
p259
aVRT @CBIL6th: Wow how things have changed in 10 years. Funny how he doesn\u2019t refer to his #townhall as a circus here https://t.co/dt665jqIY8
p260
aV@SeanCasten @PeterRoskam It looks like you've been miraculously cured of the zombie affliction from previous ads. P\u2026 https://t.co/qQlL0QqURW
p261
aV@Caramel_Jeromel @CBIL6th @FlipThe6thIL Where have we heard this?  \U0001f30a\U0001f30a\U0001f30a\U0001f30a https://t.co/Q1fWs0xRyS
p262
aVRT @FlipThe6thIL: Just in: @PeterRoskam scores 0% on advocacy for #retiree issues. https://t.co/0QVcbrX2bX
p263
aVRT @MccollumReid: "So that\u2019s why I have only one thought for this election: Get power. Get a lever of power that can curb Trump. Run for th\u2026
p264
aVRT @iamwandasykes: I will not be returning to @RoseanneOnABC.
p265
aVRT @JohnRossBowie: Yankee fans: right once in a great while. https://t.co/ZAcQBbvgjb
p266
aVRT @GregHinz: A Memorial Day tribute: to the brave members of the Armed Forces who gave their lives for us. And to the school children and\u2026
p267
aVRT @Emma4Change: Met some of the cutest and most Inspirational young women the other day, advocating for a Healthier and Cleaner earth and\u2026
p268
aVRT @peterstaley: Basically, just 48 hours of effective activism, and they won! The youth will win!  \u000a\u000aPublix halts donations to self-descri\u2026
p269
aVRT @davidhogg111: Got a hold of the NRA president\u2019s resume. #OnTheContra https://t.co/TmbnZ7vj3F
p270
aVRT @SeanCasten: So in our recent poll of #IL06, the district that formerly belonged to Henry Hyde is 2:1 pro-choice.  Apparently, so is Ire\u2026
p271
aVRT @davidhogg111: The young people will win. https://t.co/lBjWSbP9Y4
p272
aVRT @SeanCasten: Well, it's official.  The Kochs are not endorsing me this cycle.   Oh well.  https://t.co/NPxgf2Dqju
p273
aVRT @CBIL6th: We\u2019re at a 30-year low for unintended pregnancy, and a historic low for pregnancy among teenagers. Now is not the time to walk\u2026
p274
aV@_GreatBike_ @CBIL6th @PeterRoskam @MaryAnnAhernNBC @natashakorecki @lynnsweet @SpeakerRyan The only sure way to ge\u2026 https://t.co/PUbFBFUAeW
p275
aVRT @CBIL6th: So many people, including @susanamendoza10 at the protest for #NoGagRule #CBIL6th @MaryAnnAhernNBC @natashakorecki @lynnsweet\u2026
p276
aVRT @CBIL6th: \u201cA man who does not know the difference between HIV and HPV is making decisions impacting HIV and HPV.\u201d @PPact @realDonaldTrum\u2026
p277
aVRT @FlipThe6thIL: .@PeterRoskam continues to make weak excuses about how laws requiring owners to keep their guns locked up are simply \u201cnot\u2026
p278
aVRT @FlipThe6thIL: Federal judge rules that @realDonaldTrump cannot block users on Twitter.\u000a\u000aNot sure how nuanced his understanding of the c\u2026
p279
aVRT @ryanhuffman23: Two months ago, I lost the #IL06 Democratic Primary to scientist/clean energy entrepreneur @SeanCasten. This week, I joi\u2026
p280
aVRT @MccollumReid: @PeterRoskam @IllinoisAFP @aafp Try to make Healthcare unaffordable for millions? \u27a1\ufe0f Join Primary Care Caucus\U0001f917\u000a\u000aDeny clim\u2026
p281
aVRT @seniorsofthe6th: In FY 2013 budget, @PeterRoskam voted in favor of raising the Medicare eligibility age to 67. \u000a@CBIL6th \u000a@jerryf642 \u000a@\u2026
p282
aVRT @AndyRichter: Any parent of a difficult child will tell you that you have to pick your battles; to stave off a tantrum sometimes appease\u2026
p283
aVRT @SeanCasten: Peter Roskam, "Climate Peacock" https://t.co/5NVLsfSyJB
p284
aVRT @CBIL6th: .@PeterRoskam proudly accepted an award from an anti-Muslum hate group in 2014:\u000ahttps://t.co/Zkl044FhNT\u000a#IL06 #enoughIL06 @Fli\u2026
p285
aVRT @davidhogg111: It\u2019s not gonna look great for House Republican leadership @SpeakerRyan if we have to get a discharge petition on universa\u2026
p286
aVRT @shannonrwatts: My prayer is that you will lose to @BetoORourke in November, Senator Cruz. And that you end up in the ash heap of histor\u2026
p287
aVRT @FlipThe6thIL: Eight more children are dead today. \u000a\u000aThis November, choose a rep who chooses children's lives over NRA donations.
p288
aVRT @bluebirdofunhap: @FlipThe6thIL It is if you're a psychopath.
p289
aVRT @CitizenActionIL: Although it went down @PeterRoskam voted for this.  #JustTheFacts.  @CBIL6th @Action6thDistIL @IndivisDuPage @Indivisi\u2026
p290
aVRT @CBIL6th: 1) Read this \u000a2) Get your kids involved\u000a3) Donate as much time, talent, or treasure as you can\u000aGOP builds massive shadow army\u2026
p291
aVRT @RepAdamSchiff: The Senate Judiciary Committee just released the transcripts of interviews about the Trump Tower meeting.\u000a \u000aWe tried to\u2026
p292
aVRT @FlipThe6thIL: You're busy. You're thinking you're going to start volunteering 1-2 months before the election.\u000a\u000aThere is no blue wave wi\u2026
p293
aVRT @FlipThe6thIL: .@PeterRoskam's campaign manager: "Maybe if you wish Muslims a happy Ramadan they'll forget you tried to ban them from en\u2026
p294
aVRT @FlipThe6thIL: LTE in the @dailyherald: \u201cCongressman @PeterRoskam\u2019s actions don\u2019t value women.\u201d\u000a\u000aGreat outline of all the major votes Ro\u2026
p295
aVRT @SeanCasten: FT6 is doing some research... https://t.co/cpRIvxxASz
p296
aVRT @FlipThe6thIL: We win when Dems who didn\u2019t win their primaries continue to use their voices to galvanize the party. Thanks you @Marie4Co\u2026
p297
aVRT @ellysaysopa: BREAKING: Congressman with 3% @LCVoters score who is running against environmentalist @SeanCasten suddenly cares about our\u2026
p298
aV@LacticAddict @FlipThe6thIL @PeterRoskam I have the pleasure of living down the street from his high school science\u2026 https://t.co/JMRKcgm6JM
p299
aVRT @FlipThe6thIL: #TBT to that time @PeterRoskam proudly announced his #TeaParty endorsement.\u000a\u000aNothing about this man is \u201cmoderate\u201d - excep\u2026
p300
aVRT @FlipThe6thIL: "Roskam obviously cares only for the CEO class, and that\u2019s why I can\u2019t vote for him."\u000a\u000aLTE by Sherrie Marchi in the @nwhe\u2026
p301
aVRT @FlipThe6thIL: Spotted: @KellyMazeski protesting at Roskam\u2019s office and supporting @SeanCasten\u2019s effort to #flipthe6th. \u000a\u000a@PeterRoskam w\u2026
p302
aVRT @CBIL6th: Rising college sophomore, @Maggington52: "Thanks to @PeterRoskam, my generation will bear the burden of how to pay for our par\u2026
p303
aVRT @CitizenActionIL: Favorite sign from tonight\u2019s @PeterRoskam Hands OFF Medicare-Medicaid-CHIP Protest in Barrington. #IL06.  @CBIL6th @Ac\u2026
p304
aVRT @davidhogg111: Crisis actor sounds like a great name for these politicians that act like they care after an atrocity but do nothing afte\u2026
p305
aVRT @cameron_kasky: Go ahead, North. \u000a\u000aIt speaks so beautifully for the NRA\u2019s true colors that they put this crook in charge. https://t.co/J\u2026
p306
aVRT @SeanCasten: Reasonable people can disagree about how to deal with climate change.  But there is no reasonable case for choosing not eve\u2026
p307
aVRT @CBIL6th: SEE YOU AT 6PM TONIGHT IN BARRINGTON!!! @PeterRoskam's corporate welfare hurts moms, grandmothers &amp; their grandkids! https://t\u2026
p308
aVRT @jerryf642: Here's the link to the event:     https://t.co/NJqsZJ0XRQ
p309
aVRT @FlipThe6thIL: Wow. Bloomberg reports that @PeterRoskam was ordered to return illegal campaign contributions from \u201cstraw donors" - eg, p\u2026
p310
aVRT @BarackObama: There are few issues more important to the security of the US than the potential spread of nuclear weapons or the potentia\u2026
p311
aVRT @jerryf642: So glad to see this! @PeterRoskam  sold out the 6th to pay off his donors. Casten will work to restore the full deductibilit\u2026
p312
aVRT @RepAdamSchiff: What Kellyanne Conway and Sarah Huckabee Sanders are doing \u2014 taking the President\u2019s abundant falsehoods and trying to we\u2026
p313
aVRT @FlipThe6thIL: Cliff\u2019s notes on @peterroskam\u2019s gun control meeting with students:\u000a\u000a- closed doors, no press\u000a- zero commitment on any iss\u2026
p314
aVRT @CitizenActionIL: Yep Trump and his supporters like @PeterRoskam @RepHultgren are taking us back to the dark ages for patients by destro\u2026
p315
aV@PeterRoskam Is UPS considered a small business? I'm so confused. I thought this #TaxScam was supposed to help the\u2026 https://t.co/0Lm1xgzH7w
p316
aVRT @CBIL6th: One year ago .@PeterRoskam was deciding vote to repeal the #ACA, which would help resulted in 23 million fewer people with aff\u2026
p317
aVRT @SeanCasten: Marco Rubio says there is \u201cno evidence whatsoever\u201d that the Roskam tax bill is growing the economy.  #IL06 https://t.co/xLb\u2026
p318
aV@CBIL6th @PeterRoskam @natashakorecki @mariewilson9 @MaryAnnAhernNBC As usual, Roskam will go to any lengths to avo\u2026 https://t.co/cVzngiUmEh
p319
aVRT @CBIL6th: Why "phantom" voters unhappy with #Democrats or #Republicans could decide the race between @PeterRoskam &amp; @SeanCasten in #IL06\u2026
p320
aV@MccollumReid @PeterRoskam @GregHinz @MaryAnnAhernNBC @mariewilson9 @natashakorecki There don't seem to be any "unf\u2026 https://t.co/O6vsCvzCdL
p321
aVRT @MccollumReid: Oops. Look what we did.... Don't mess with #IL06!!  \U0001f4aa\U0001f3fc\U0001f30a\U0001f4aa\U0001f3fc\U0001f30a https://t.co/fcG4WHMlZQ
p322
aVRT @Kaepernick7: \u201cIt was James Baldwin who said, to be Black in America, \u201cand to be relatively conscious is to be in a rage almost all the\u2026
p323
aVRT @blainecapatch: it's spelled "Michelle McNamara" not "Patton Oswalt's wife"
p324
aVRT @CBIL6th: Hey #IL06 Path to Dem majority lies in well-educated districts - https://t.co/VxyR2snLMU @CitizenActionIL @FlipThe6thIL @Actio\u2026
p325
aVRT @jerryf642: Hey, @PeterRoskam...TELL THE TRUTH! The day after the Roskam tax law passed, your GOP pals began talking about cutting Soc.S\u2026
p326
aVRT @davidhogg111: Fun fact: there\u2019s thousands of elected positions that people 18+ can run for including school boards! If you\u2019re sick and\u2026
p327
aVRT @Stonekettle: Here's the thing about that "Relax, it's just a couple of Nazis" argument: \u000a\u000aYou're right, it WAS just a handful of Nazis.\u2026
p328
aVRT @davidhogg111: We should pay our politicians the same amount as our teachers both jobs are just as important. If you say that\u2019s not enou\u2026
p329
aVRT @CBIL6th: https://t.co/Ug2vhVGpXN
p330
aVRT @BarackObama: These talented young people will create a better future not just in Africa, but around the world. I can\u2019t wait to spend so\u2026
p331
aVRT @AMarch4OurLives: Taurean C. Sanderlin, 29 \u000a\u000aJoe R. Perez, 20\u000a\u000aAkilah Dasilva, 23\u000a\u000aDeebony Groves, 21\u000a\u000aThese four young people had their\u2026
p332
aVRT @natashakorecki: Lobbyist whose wife rented to Pruitt lobbied EPA despite denials https://t.co/Wc83eRapes
p333
aVRT @CitizenActionIL: We are proud of you too Senator! https://t.co/DU74izHkHJ
p334
aVRT @davidhogg111: Can\u2019t wait to see these future voters walkout and into the polls come November and Beyond. #nationalschoolwalkout
p335
aV@ladybuggs87 @vague_reality @cameron_kasky You people all need to put some more tinfoil on your windows.
p336
aVRT @BetoORourke: We must end the federal prohibition on marijuana in this country.
p337
aVRT @MelliBitch: She's alone, but she doesn't care. Please retweet and show my daughter someone is listening.\u000a#NationalSchoolWalkout https:/\u2026
p338
aV@vague_reality @cameron_kasky It's the anniversary of the Columbine shootings.  Seriously, you should probably know\u2026 https://t.co/1iCowWiHEQ
p339
aVRT @cameron_kasky: So proud of the #NationalSchoolWalkout and all of the students around the country who are standing up for positive chang\u2026
p340
aVRT @RepAdamSchiff: When the dark chapter of the Trump presidency is written in the history books, the harshest criticism will be reserved f\u2026
p341
aVRT @AMarch4OurLives: Price tags for every state are up. \u000a\u000aPrint them out and wear them at the #NationalSchoolWalkout this Friday. \u000a\u000aShow po\u2026
p342
aVRT @StephenAtHome: Can't wait! https://t.co/mHxKlndExG
p343
aVRT @softreeds: So the Addams Family reboot is problematic. https://t.co/lfG6T6HNBw
p344
aVRT @jerryf642: @CBIL6th @VoteCasten @Action6thDistIL @CitizenActionIL #Flipthe6th #GOPTaxScam #2018Midterms @PeterRoskam Great Op-Ed in tod\u2026
p345
aVRT @TheRickWilson: Trumpian Gothic https://t.co/scDzjF0tQ9
p346
aVRT @SeanCasten: Tell me what democracy looks like? https://t.co/uz4rsG6dry
p347
aVRT @davidhogg111: Call either of these and press 6 to leave a message the other lines are busy with other americans wanting to make their v\u2026
p348
aVRT @jerryf642: @CitizenActionIL @Action6thDistIL @CBIL6th  https://t.co/Eu6gdJ0Mwz
p349
aVRT @CitizenActionIL: Roskam tax scam protest in Downers Grove in front of IRS office @jerryf642 @Action6thDistIL @CBIL6th https://t.co/Ly1v\u2026
p350
aVRT @davidhogg111: .@SpeakerRyan now you can put country over party and allow a vote on universal background checks \U0001f642 over 90% of Americans\u2026
p351
aVRT @SeanCasten: I'm old enough to remember when the FBI raided Manafort's house.    https://t.co/cL2VMTGqxI
p352
aVRT @hadiyafordupage: Incredible turnout at the Glen Ellyn #TownHallForOurLives! So proud of our students here! \U0001f499\U0001f499 https://t.co/e8twquCvnZ
p353
aVRT @MccollumReid: #IL06 #TownHallForOurLives had 600 with all seats taken. @PeterRoskam was "busy" but @SeanCasten was great! @townhallproj\u2026
p354
aVRT @MccollumReid: Hey .@PeterRoskam how was your...  what was it that you were at again today that meant you were too busy to come to the #\u2026
p355
aVRT @SeanCasten: The record will show that the attendees did not \u201ccome angry and leave angrier\u201d in spite of @PeterRoskam prediction to the c\u2026
p356
aVRT @EMQsack: Standing room only #TownHallForOurLives today in the very red 6th Congressional district in Glen Ellyn, Illinois.  @PeterRoska\u2026
p357
aV@slowpaddler @michael_mantis @IL6thVoters @PeterRoskam @SeanCasten These folks were incredibly welcoming to us - it\u2026 https://t.co/ID9cTmK5T7
p358
aV@slowpaddler @michael_mantis @IL6thVoters @PeterRoskam @SeanCasten First Methodist Church of Glen Ellyn
p359
aVRT @SeanCasten: Before anyone accuses @PeterRoskam of independent thought or putting his constituents over his party note that "no Republic\u2026
p360
aV@michael_mantis @IL6thVoters @PeterRoskam @SeanCasten Actually, after you surrendered your duties there were a good\u2026 https://t.co/11TGWGdVw1
p361
aVRT @IL6thVoters: #IL06 students held packed townhall for gun violence prevention! Rep. @PeterRoskam declined to attend, but challenger @Sea\u2026
p362
aVRT @Action6thDistIL: Thank you @SeanCasten for understanding the importance of #GunControl &amp; attending the town hall led by the fearless HS\u2026
p363
aVRT @davidhogg111: Heres the announcement! Form a local action club here! We will have weekly and monthly goals. Join us in the fight for ou\u2026
p364
aVRT @CBIL6th: The #IL06 #TownHallForOurLives with @SeanCasten had a full house of 600. The students were incredible! Here's the video: https\u2026
p365
aVRT @Kevin4Cook: Incredible to see a jam packed room with overflow for IL 6th\u2019s #TownHallForOurLives event today! Thank you to @AMarch4OurLi\u2026
p366
aVRT @MccollumReid: WGN's lead story at 5pm!! #IL06 #TownHallForOurLives @townhallproject @CBIL6th @AMarch4OurLives @Action6thDistIL @FlipThe\u2026
p367
aVRT @hadiyafordupage: My sister and I were interviewed outside of today\u2019s #TownHallForOurLives about why we were attending and why we think\u2026
p368
aVRT @CBIL6th: ABC\u2019s coverage of #IL06 #TownHallForOurLives @townhallproject @AMarch4OurLives @FlipThe6thIL @Action6thDistIL @IndivisibleIL @\u2026
p369
aVRT @MccollumReid: https://t.co/M9SJpmN5jE
p370
aV@Action6thDistIL @PeterRoskam If you consider this a response. Is it still considered polite to actually respond di\u2026 https://t.co/3Coszipuf7
p371
aV@rdublife @VoteCasten @PeterRoskam That's if he bothers to reply at all.  #thekidsarestillwaiting
p372
aVRT @FlipThe6thIL: \u201cNews of Roskam\u2019s appearance on Chicago Tonight prompted a hefty number of comments &amp; questions via our website contact f\u2026
p373
aVRT @IL_Voter: &gt;@PeterRoskam\u000aBy now you must have seen the billboards, they're all over. \u000aThink about this.\u000aThe billboards are being funded\u2026
p374
aVRT @Caramel_Jeromel: As a Glenbard North student, I am so touched by what my fellow students from Glenbard West had done! They used art to\u2026
p375
aVRT @Action6thDistIL: A member of our group has informed us that Roskam will be a guest tomorrow night on WTTW 11. Defending his seat was th\u2026
p376
aVRT @msbrayparker: But will he meet with high school students about common sense gun control?  #GBNCivics @PeterRoskam @IndivisDuPage https:\u2026
p377
aVRT @funder: BREAKING: Mueller confirms Trump is under investigation\u000a\u000aREPEAT\u000a\u000aBREAKING: Mueller confirms Trump is under investigation\u000a\u000aONE M\u2026
p378
aV@Sarahchadwickk Our Congressman @PeterRoskam refuses to meet with the students in IL06. He's taken $32,216 from the\u2026 https://t.co/fAI1QdWQfi
p379
aVRT @cameron_kasky: #MSDStrong https://t.co/kKn1saUDTC
p380
aVRT @DanRather: News anchors looking into camera and reading a script handed down by a corporate overlord, words meant to obscure the truth\u2026
p381
aVRT @lucashima: Cc: @PeterRoskam. Your opponent @SeanCasten has confirmed he will be at the April 7th #TownHallForOurLives in #IL06.  Still\u2026
p382
aVRT @tonyposnanski: If Ted Nugent and Laura Ingraham had a child it would be Tomi Lahren.
p383
aVRT @SeanCasten: GOP boasts that their tax bill lowers taxes for "low and middle income" families making $450K/year.   That is not a typo.\u2026
p384
aVRT @HHootman: .@TrueFactsStated from @maddogpac in #IL06. We have a Billboard THANK YOU SO MUCH for putting a huge fabulous anti-Roskum bil\u2026
p385
aVRT @pattonoswalt: Good news! He just amended his statement, to say that the Hell For Kids Who Kill Dogs is real. Whew! https://t.co/rbAgiB7\u2026
p386
aVRT @SeanCasten: This is the cost of fact-free legislating as championed by @PeterRoskam.  We will pay $33B more in healthcare per year and\u2026
p387
aVRT @SeanCasten: Worth re-reading this @KatherineSkiba interview with @PeterRoskam from last year when he refused to meet with more than 25\u2026
p388
aV@davidhogg111 @sleepnumber @ATT @Allstate @esurance @Bayer @RocketMortgage @LibertyMutual @Arbys @TripAdvisor\u2026 https://t.co/R2KUiC6neT
p389
aVRT @davidhogg111: Pick a number 1-12 contact the company next to that # \u000a\u000aTop Laura Ingraham Advertisers\u000a1. @sleepnumber \u000a2. @ATT \u000a3. Nutri\u2026
p390
aV@MissaVeggie @apat_c @ChaoslilKat @davidhogg111 Chicago is surrounded by states that have lax gun control laws that\u2026 https://t.co/FI5Pjf2bQm
p391
aVRT @davidhogg111: She's a beautiful woman of Cuban descent and we love her. You would too if you ever got the chance to meet her. We need t\u2026
p392
aVRT @MccollumReid: @PeterRoskam was MIA all weekend. Assuming he was raising \U0001f4b0\U0001f4b0\U0001f4b0 from corporate donors since he wasn\u2019t in #IL06 listening to\u2026
p393
aVRT @davidhogg111: Got it! Everyone should call for a town hall with their representative on April 7th. Your town hall should be 2hrs and st\u2026
p394
aVRT @IL_Voter: A LOT of people out marching today @PeterRoskam. You could almost imagine them as being angry about something.\u000aLucky for you\u2026
p395
aVRT @IL_Voter: Wow did you SEE that march today @PeterRoskam? That was really something.\u000aYour opponent even spoke in your home town. I guess\u2026
p396
aVRT @MccollumReid: Thanks to @dwdupage for hosting such an inspirational unity breakfast for #IL06 candidates &amp; DuPage! Let\u2019s all support @S\u2026
p397
aVRT @SeanCasten: A hat tip towards Dickey amendment repeal in the Omnibus.  CDC can now research gun violence, but still no $.  A small step\u2026
p398
aVRT @davidhogg111: I'm ready to change America and save lives are you?
p399
aVRT @SeanCasten: Apparently Peter Roskam believes that opposing violence against women and supporting win/win economic and environmental sol\u2026
p400
aVRT @CitizenActionIL: Congratulations to @SeanCasten for winning the Democratic Primary in CD6! Thank you for standing for the values that g\u2026
p401
aVRT @MccollumReid: Congratulations to @SeanCasten, the Democratic nominee for #IL06!!!! Now let\u2019s go #FlipThe6th  https://t.co/fGlLXojRwM @C\u2026
p402
aVRT @Action6thDistIL: Thank you to @KellyMazeski , @ryanhuffman23, @Carole4IL06 , @BeckyforIL, @SeanCasten, @JenniferZordani, @AmandaHowland\u2026
p403
aVI've been "consulted" by several friends on their ballot choices today - every one of them has chosen Biss. Feeling\u2026 https://t.co/qoSjVSzJkB
p404
aVRT @cameron_kasky: Seeing people all over the world prepare their signs for the marches, setting up their transportation (checkout what @ly\u2026
p405
aVRT @davidhogg111: #WhatIf we could go to school without fearing for our lives? Join us on March 24th and visit https://t.co/SrCltJsrBH #Nev\u2026
p406
aVRT @davidhogg111: We NEED more of this https://t.co/X0Yx2mL2rf
p407
aVRT @MccollumReid: Anyone else have @PeterRoskam in their Final Four of out of touch politicians? #IL06 @CBIL6th @Action6thDistIL @FlipThe6t\u2026
p408
aV@ueharatomoe These kids make our 6th District a better place and we could not be more proud!@FlipThe6thIL\u2026 https://t.co/sppEYxeqLL
p409
aVMaking the 6th District proud today! This is what Democracy looks like! @FlipThe6thIL @Action6thDistIL @CBIL6th\u2026 https://t.co/sncD1SEr1U
p410
aVRT @newsnance: Glenbard North students protest moves off campus. #NationalSchoolWalkout @WBBMNewsradio https://t.co/4oWsIBi0BB
p411
aV@FlipThe6thIL @PeterRoskam @realDonaldTrump We have some lovely golf courses here, I'm sure we could get him interested.  #peteneedstrump
p412
aVRT @John_Barnitt: #IWillMarch to push legislation that should\u2019ve happened years ago, will you join us on March 24th??
p413
aVRT @axios: Sec. of Education Betsy DeVos struggles to answer fairly basic questions on school performance on 60 Minutes https://t.co/lFVq3U\u2026
p414
aVRT @cameron_kasky: The @AMarch4OurLives is going to be a beautiful, inspiring gathering of people from all walks of life coming together an\u2026
p415
aVRT @BarstoolNate: Never forget how funny the transcripts from Martin Shkreli's jury selection were https://t.co/G6whQfG2Jw
p416
aVRT @cameron_kasky: Goodnight. \u000a\u000aSpread love. Even if you or I haven\u2019t been perfect at it so far, let\u2019s make it a goal starting tomorrow mor\u2026
p417
aV@FlipThe6thIL @PeterRoskam He's also betting that Republicans dislike Pelosi more than Democrats dislike Ryan and T\u2026 https://t.co/BRJQ4B8Oi7
p418
aVRT @AriBerman: Big news for voting rights: Washington state has now passed automatic voter registration, Election Day registration, pre-reg\u2026
p419
aVRT @BySteveReilly: Worth noting, in light of @ProPublica's reporting this week on use of the presidential seal for commercial purposes, tha\u2026
p420
aVRT @ABFalecbaldwin: Agony though it may be, I\u2019d like to hang in there for the impeachment hearings, the resignation speech, the farewell he\u2026
p421
aVRT @nytimes: Breaking News: One company lent the Kushners' business $184 million. Another put up $325 million. Both had held White House me\u2026
p422
aVRT @StephenAtHome: I\u2019m surprised the NRA was affiliated with car rental companies at all, considering Hertz and Avis enforce tyrannical rul\u2026
p423
aVRT @WCIA3Mark: You know those @JBPritzker ads hitting @DanielBiss for supporting charter schools? In 2013, JB called a D.C. charter school\u2026
p424
aVRT @Emma4Change: Good Morning! It's a beautiful day to remember that teachers shouldn't have to worry about anything except their Home Life\u2026
p425
aVRT @TrueFactsStated: Goes up in a week. https://t.co/kMHCOZpp3I
p426
aVRT @AdamSchiffCA: The President just went on Fox to complain about the facts we set out in the Democratic memo. He called me \u201ca bad guy.\u201d A\u2026
p427
aVRT @SamuelLJackson: Can someone that\u2019s been in a Gunfight tell that Muthafukka that\u2019s Never been in a Gunfight, the flaws of his Arm The Te\u2026
p428
aVRT @natashakorecki: Rauner still ranked most vulnerable incumbent governor: "The top 10 governor's races of 2018" https://t.co/cp0yqdsud7 v\u2026
p429
aVRT @pattonoswalt: The NRA hijacking Leslie Knope. Ted Cruz trying to co-opt The Simpsons. These are symptoms of the GOP panicking \u2018cuz smar\u2026
p430
aVRT @BarackObama: Young people have helped lead all our great movements. How inspiring to see it again in so many smart, fearless students s\u2026
p431
aVRT @PreetBharara: These kids could teach a class called Follow Up Questions
p432
aVRT @HoarseWisperer: People defending the 2nd amendment seem awfully scared of teenagers armed only with the 1st amendment.
p433
aVRT @boothheather: I have a thing to say about growing up after tragedy. When I was a senior in high school, 7 of my classmates were killed\u2026
p434
aVRT @tonyposnanski: Betsy DeVos is trending which means one of three things...\u000a\u000a1. She is taking rights away from students.\u000a\u000a2. She is monet\u2026
p435
aVRT @ava: \u201cYou should have spoke like that back in 1989. You called for the death penalty. We were 14 &amp; 15 years old kids.\u201d @santanaraymond,\u2026
p436
aVRT @MaryAnnAhernNBC: NEW #ILGov Dem Poll:\u000a\u000aUndecided  27.5%\u000aPritzker  27%\u000aBiss 23.5%     \u000aKennedy 17.3%\u000a\u000aSource: Victory Research
p437
aVRT @brianschatz: We just picked up a legislative district in Missouri with a 31 point swing. THERE ARE NO SAFE SEATS. Fight everywhere. Run\u2026
p438
aVRT @SenDuckworth: We don't live in a dictatorship or a monarchy. I swore an oath\u2014in the military and in the Senate\u2014to preserve, protect and\u2026
p439
aVRT @IronStache: Moments ago, @PRyan deleted this tweet after we told him just how out of touch he was. Show Paul Ryan what you think of his\u2026
p440
aVRT @RepAdamSchiff: The FBI confirms that the memo contains \u201cmaterial omissions of fact\u201d that \u201cfundamentally impact\u201d its accuracy. Nunes use\u2026
p441
aVRT @clairecmc: Congress voted 517-5 to impose sanctions on Russia. The President decides to ignore that law. Folks that is a constitutional\u2026
p442
aVRT @petridishes: Why Didn\u2019t Judge Use A Nicer Tone When Sentencing That Man Who Was Just Convicted Of Molesting More Than 140 Children, Con\u2026
p443
aVRT @CBIL6th: We\u2019re already 300 postcards towards our goal of 15,000 after day 1 thanks to Oak Park Area Indivisible!!! https://t.co/BS9F5p4\u2026
p444
aVRT @BerniceKing: As you honor my father today, please remember and honor my mother, as well. She was the architect of the King Legacy and f\u2026
p445
aVRT @whoisgarylee: 1. I\u2019ve never tweeted before but today felt like a good day to start.
p446
aVRT @pattonoswalt: In a week Trump will do/say something that'll make today's "shithole" comment seem quant. Does anyone remember "Mexicans\u2026
p447
aVRT @RepAdamSchiff: Dear Secretary Zinke, California like Florida, has hundreds of miles of beautiful coastline and a governor who wants to\u2026
p448
aVRT @FlipThe6thIL: Ohhh... this looks familiar. Apparently they have palm trees in Nebraska, too. \u000a\u000aHow\U0001f44f\U0001f3fddumb\U0001f44f\U0001f3fddo\U0001f44f\U0001f3fdyou\U0001f44f\U0001f3fdthink\U0001f44f\U0001f3fdwe\U0001f44f\U0001f3fdare https\u2026
p449
aVRT @huntthesnark: I am the very model of a Very Stable Genius.\u000aI have a mighty button and no problems with my penius.\u000aI have no time for te\u2026
p450
aVRT @RepSwalwell: This year, I believe in you. Your values. Your energy. And your ability to inspire others. If we can move our footsteps fr\u2026
p451
aVRT @BarackObama: As we count down to the new year, we get to reflect and prepare for what\u2019s ahead. For all the bad news that seemed to domi\u2026
p452
aVRT @CBIL6th: This morning, Politico names it's 10 most important House races of 2018, calling #IL06 "Revenge of the Suburbs" https://t.co/C\u2026
p453
aV@PeterRoskam You just sold us all out and gave a massive tax cut to big corporations and the ultra-wealthy and made\u2026 https://t.co/aeHX99PKh8
p454
aVRT @pattonoswalt: "Nobody talks more of free enterprise and competition and of the best man winning than the man who inherited his father's\u2026
p455
aVRT @ACLU: FACT CHECK: The FCC is not just reversing an Obama-era order.  It is reversing policies that have been in place since the dial-up\u2026
p456
aVRT @shitlondon: London in the snow as glimpsed from a train. Magical. https://t.co/wbG2QwYASo
p457
aVRT @TheresaLMueller: '@PeterRoskam Wondering if you have time to compare notes? Do you know how many in your district are college educated\u2026
p458
aVRT @ananavarro: Franken rightly resigned for where he put his hands during photos. A man who fondled a 14 yr-old is running for Senate. Ano\u2026
p459
aVRT @Evan_Rosenfeld: BREAKING: Washington Examiner: Divorce records obtained by @dcexaminer show that Roy Moore first started dating his cur\u2026
p460
aVRT @AishaThinker: My grandfather is a 96 year old Charlotte native. He wasnt  the allowed to vote until he was 44 years old when the Voting\u2026
p461
aVRT @clairecmc: We politely asked to adjourn till Monday morning. So we could read and study the bill we were just given. Answer was no. So\u2026
p462
aVRT @RVAwonk: Roy Moore co-wrote an academic course outlining why women aren\u2019t morally suited to vote or run for public office. \u000a\u000aHe did thi\u2026
p463
aVRT @FlipThe6thIL: 100+ protesters gathered in Wheaton this evening to reject Peter Roskam's tax plan. Roskam may have caught wind of the pr\u2026
p464
aVRT @danielbiss: .@LitesaWallace and I are at the State Board of Elections about to turn in our petitions to get on the ballot! #PetitionBIS\u2026
p465
aVRT @RepAdamSchiff: Your campaign manger indicted, foreign policy advisor (\u201cexcellent guy\u201d) pled guilty, and national security advisor fired\u2026
p466
aVRT @NormEisen: I negotiated a cooperation deal for a target with Mueller's office when he was US Atty and lemme tell ya, he's not gonna giv\u2026
p467
aVRT @RepAdamSchiff: Despite huge public opposition, Trump\u2019s FCC chair is pushing forward to repeal #NetNeutrality rules. We need to keep a f\u2026
p468
aVRT @HillaryClinton: It\u2019s been almost 2 months since Congress let the program that provides health care for 9 million children expire. Call\u2026
p469
aVRT @ShaunKing: Shame on our nation. Shame. https://t.co/TCF4mXCUU1
p470
aVRT @RepAdamSchiff: Call your Senators. Tell them to vote NO on the Senate GOP tax plan. \u000a\u000aHere's why: It's a massive tax cut for the wealth\u2026
p471
aVRT @SaraKurganov: #IL06 fired up about #trumptaxscam &amp; @PeterRoskam role in writing it! @IndivisibleTeam @normangoldman @wcpt820 https://t.\u2026
p472
aV@benwikler Thank you!  There were more than 300 from 5 counties who showed up to stand in the cold to let Roskam kn\u2026 https://t.co/K3ygvDffS1
p473
aV@HarryJoebanks34 @Burgwinkle @SusanCarver19 @nwherald This is seriously underreported - there were more than 300 fr\u2026 https://t.co/brNmGgpBgj
p474
aVRT @RepAdamSchiff: Why are we fighting massive tax cuts for millionaires, paid for by tax increases on students, teachers, and homeowners,\u2026
p475
aVRT @PattyArquette: Guys Virginia got rid of electronic voting- please read this and amplify- paper ballots only with hand counts! https://t\u2026
p476
aVRT @repjohnlewis: I was beaten, left bloody and unconscious so that every American has the right to vote. Friends of mine gave their lives.\u2026
p477
aVRT @funder: .@realDonaldTrump-While in Hawaii you should visit the hospital where @BarackObama was born in Honolulu, then you should apolog\u2026
p478
aVRT @funder: If you\u2019re an American &amp; u aren\u2019t outraged at the fact @SpeakerRyan is trying to fire Mueller-then you\u2019re also a traitor. #Firep\u2026
p479
aVRT @ZacharyQuinto: https://t.co/pg2PLnHpXt
p480
aVRT @BillKristol: Imploring your followers to "DO SOMETHING!" doesn't seem to suggest the calm or confidence that goes with knowledge of one\u2026
p481
aVRT @RepAdamSchiff: Mr. President, the Special Counsel and the Congress have come to no conclusions yet. We will let you know when we do. ht\u2026
p482
aVRT @FlipThe6thIL: Read full article here. Roskam is on thin ice with this, and knows it. https://t.co/RSC0jkyVPB
p483
aVRT @Jenny_Trout: I feel like if people wanted Clinton to come out and address every major event in the country, they probably should have e\u2026
p484
aVRT @MichaelSkolnik: Dear @realDonaldTrump,\u000a\u000aWhile you tweet from your golf club, the Mayor of San Juan is saving lives. You've done NOTHING\u2026
p485
aV@Robert23003286 @BerniceKing @anonycraig Are you for real? I'm pretty sure his daughter can speak for his intent an\u2026 https://t.co/Qez3m3b6Fl
p486
aVRT @policywonk1: Ha!  I completely agree with @jimmykimmel and I'm the NY Medicaid Director. https://t.co/AxmVEZs7vK
p487
aVRT @jimmykimmel: If you too are disappointed in Sen @BillCassidy #GrahamCassidy let them know it - call (202) 224-3121 https://t.co/eswlh6B\u2026
p488
aVRT @pattymo: "MANY SAID IT WAS THE BIGGEST CROWD ANYONE HAD EVER SEEN, BUT THE MEDIA IS VERY UNFAIR TO ME" https://t.co/oy1cYgvPq3
p489
aVRT @chrislhayes: Something rather revealing in Trump calling "antifa" the "other side"
p490
aVRT @womensmarch: Dear @realDonaldTrump,\u000a\u000aIf you end DACA, we will make your life impossible.\u000a\u000aSigned,\u000aThe 5 million who marched on January\u2026
p491
aVRT @funder: RT so Trump gets this message.\u000a\u000a@realDonaldTrump-\u000a\u000aYour Texas trip was pathetic. You talked to zero victims. You need to resign\u2026
p492
aVRT @SallyQYates: With his pardon pen, POTUS reveals his own contempt for our Constitution, our courts, and our founding principles of equal\u2026
p493
aVRT @RepAdamSchiff: Glad to see Bannon gone; he never belonged in the WH. But the problem persists, since the most profound source of divisi\u2026
p494
aVRT @SenSanders: The problem was never just Steve Bannon. It was and always will be Donald Trump. https://t.co/cTBqwdwZUW
p495
aVRT @LeahDaughtry: Dear White Politicians, do not go to black churches today &amp; tell us how much you hate racism. Go to white churches and te\u2026
p496
aVRT @JoeBiden: There is only one side. #charlottesville
p497
aVRT @RepKathleenRice: I'm just going to say it. #NRA &amp; @DLoesch are quickly becoming domestic security threats under President Trump. We can\u2026
p498
aVRT @josh_weinberg: SOMEONE MAKE SURE WE LEAVE A NOTE TO LET THE APES KNOW THE POEM WASN'T PART OF THE ORIGINAL STATUE!!
p499
aVRT @danielbiss: Hey @GovRauner, your comments on school funding don't make the grade. Please revise based on my comments. #twill https://t.\u2026
p500
aVRT @RepAdamSchiff: Just introduced Constitutional Amendment to overturn Citizens United. We must stop vast sums of anonymous money that thr\u2026
p501
aVRT @PreetBharara: When pursuing a corrupt politician, mobster or murderer on strong FBI evidence, if he "vehemently denied it," we just dro\u2026
p502
aVRT @RepAdamSchiff: No art to this deal: What kind of "tough negotiator" goes into talks undermining his country's own position, as you did\u2026
p503
aVRT @Olivianuzzi: 59 minutes apart, two different moods about serving the public. https://t.co/7juhE6o0tI
p504
aVRT @MaryNumair: I hope CNN's kid didn't see that and think it was real \u000a:(
p505
aVTaking a #socialmedia class from @GivingDuPage with @Susys @PublicNarrative #CivicLeadershipAcademy Learning by doing
p506
aVRT @Susys: OK \u2014 #engage! Heading to @DuPageCounty tomorrow to teach #socialmedia @WheatonChamber @villageoflisle @crystallakeil @wheatonpar\u2026
p507
aVRT @RepAdamSchiff: His most damaging decision yet. @POTUS could abandon global leadership, infuriate our allies &amp; jeopardize planet all in\u2026
p508
aV@AnnDabromowitz I know a lot of people in IL06 who would gladly contribute.
p509
aVRT @JasonKander: POTUS learned this morning that 2 soldiers had died in combat. Then he whined about having to work a lot, said he misses h\u2026
p510
aVRT @tonyposnanski: I am glad the "so-called" judges keep blocking the "so-called" executive orders from the "so-called" president.
p511
aVRT @PFTompkins: Is there anything even 3/5 as bad? https://t.co/ldP4WoACzi
p512
aVRT @MarkAgee: Trump's so unpopular he got a bunch of nerds to go outside during allergy season
p513
aVRT @RepAdamSchiff: Back on track: sent letters with @ConawayTX11 inviting Comey, Rogers, Brennan, Clapper and Yates to testify before House\u2026
p514
aVRT @NYTSports: Patriots' turnout for President Obama in 2015 vs. Patriots' turnout for President Trump today: https://t.co/OxMEOqZonI https\u2026
p515
aVRT @pattonoswalt: Just like Trump supporters, Alex Jones' audience are suckers getting fleeced by a self-proclaimed fake. I love it. https:\u2026
p516
aVRT @MaxineWaters: On this tax day, remember that instead of releasing his tax returns, Trump is wasting taxpayers' money &amp; enriching himsel\u2026
p517
aVRT @paulkrugman: Fun fact: Retail trade lost more jobs in the past 2 months than coal mining lost in the past 20 years https://t.co/wOQxBQm\u2026
p518
aVRT @HillaryClinton: Let's celebrate New York State getting something important done that we wanted to do nationally. A great step for progr\u2026
p519
aVRT @RVAwonk: -Jeff Sessions: Met w/Russian spy; lied\u000a-Carter Page: Met w/Russian spy; lied\u000a-Mike Flynn: Met w/Russian spy; lied\u000a-Susan Rice\u2026
p520
aVRT @RVAwonk: News-dump!\u000a-Erik Prince brokered a backchannel btw Trump &amp; Putin\u000a-Carter Page met w/a Russian spy\u000a-Kushner met w/ the same Rus\u2026
p521
aVRT @RepAdamSchiff: When McConnell  deprived President Obama of a vote on Garland, it was a nuclear option. The rest is fallout.
p522
aVRT @daveweigel: In the universe where Clinton won, and is now at 38%, are people writing dispatches from Minneapolis about the voters who s\u2026
p523
aVRT @thehill: Protesters unfurl giant "Impeach Trump" sign at Washington Nationals game https://t.co/GPz6JpXn0Q https://t.co/xn5Hw5C4yJ
p524
aVRT @MaxineWaters: Trump's campaign is under an FBI counterintelligence investigation. His former NS advisor is asking for immunity. Your mo\u2026
p525
aVRT @MaxineWaters: Trump continues pushing fake news abt the Clintons &amp; President Obama to distract from #Trumprussia investigations. He kno\u2026
p526
aVRT @danpfeiffer: The Trump White House: The plot of House of Cards with the characters from Veep
p527
aVRT @NYCMayor: The White House refuses to call the murder of Timothy Caughman a hate crime. Just like when Trump refused to disavow David Du\u2026
p528
aVRT @HillaryClinton: Today was a victory for all Americans. https://t.co/LX6lzQXtBR
p529
aVRT @bladtheimpaler: Arizona spent $3,600,000 drug testing 87,000 welfare recipients. 1 tested positive for a fine of $560. https://t.co/5Kl\u2026
p530
aVRT @pattonoswalt: But you took down that Russian spy ring in 2015. Why would Trump &amp; his team want you fi-- \u000a\u000aoh. OH. https://t.co/StyLV61j\u2026
p531
aVRT @pattonoswalt: Trump's spent more in a MONTH to play golf than Obama spent in a YEAR but yeah poor people need to decide between iPhones\u2026
p532
aV@PeterRoskam What about the thousands of people who will be seriously impacted by the cutbacks to Medicaid expansion?
p533
aV@MaryAnnAhernNBC @PeterRoskam Were given 6 hrs notice if you happen to follow campaign FB page - not exactly helpful or considerate to Dist6
p534
aV@TheresaLMueller @Action6thDistIL @PeterRoskam Why weren't we given the courtesy of some notice about this "town hall"?
p535
aVRT @thehill: Dem chairman on Chaffetz's healthcare remarks: He is "a shameless hypocrite" https://t.co/0T8djXULJm https://t.co/2uucRvUQsW
p536
aVRT @Stonekettle: We're NOT supposed to listen to the press because "fake news," we ARE supposed to listen to Trump\u000a\u000aBut not take him litera\u2026
p537
aV@ellysaysopa @MaryAnnAhernNBC Unless you're watching his page almost non-stop or belong to a watchdog group this would be very easy to miss.
p538
aV@PeterRoskam @MaryAnnAhernNBC "Notice" sent through Facebook page so only available to followers - this is not effective communication.
p539
aV@PeterRoskam @MaryAnnAhernNBC   decides to hold a telephone town hall gives 6 hrs notice to participants - how is this helpful?
p540
aV@PeterRoskam This plan is a disaster - if you are so "pleased" with it why are you unwilling to face your district and explain &amp; defend it ?
p541
aV@MaryAnnAhernNBC @PeterRoskam This is what telephone town halls are like - mostly what Roskam wants to talk about - like tax code - zzzzzz
p542
aVRT @MaryAnnAhernNBC: @PeterRoskam will NOT take any reporters questions, he's chased out of @CityClubChicago speech https://t.co/5KMEheZIkE
p543
aVRT @AoDespair: Lynch recused herself for an awkward meeting with an ex-US president that was 1) known 2) openly acknowledged and 3) not lie\u2026
p544
aVRT @mattmfm: How many times must something happen before it's more than mere coincidence? https://t.co/OA5Ua3NoBl
p545
aVRT @thehill: JUST IN: Senior officials say Yemen raid yielded no significant intel: report https://t.co/OMCqr2piP7 https://t.co/JsJ8wGe5iG
p546
aVRT @thehill: Armed Services Committee Dem: Our members don't meet with Russian ambassadors https://t.co/d9nzavGjY0 https://t.co/Eryu3s5tns
p547
aVRT @SenSanders: Those of you who have been attending rallies, keep up the fight. Your efforts are working and the Republicans are now on th\u2026
p548
aVRT @mattmfm: So Trump lied to the American people last night. Oh, and also lied to the grieving wife of the SEAL who died in the raid Trump\u2026
p549
aVRT @CAPAction: Here's the video of Sessions denying **under oath** that he had communications with the Russians. https://t.co/YFxCgqjQo6
p550
aVRT @lhfang: Jeff Sessions in 1999 speaking on the importance of prosecuting Bill Clinton over perjury allegations https://t.co/LCV6AqZB17
p551
aVRT @Stonekettle: We're gonna return America to a government of the people! \u000a\u000aNot you people. But people. You know. Rich people. Like that.\u2026
p552
aVRT @kurteichenwald: GOP hypocrisy about what merits major congressional hearings is astonishing. Why did our taxes pay for NINE political B\u2026
p553
aVRT @MaxineWaters: One scripted speech changes nothing.
p554
aVRT @paulkrugman: Tax-raising liberal Jerry Brown and tax-slashing true believer Sam Brownback took office at the same time. How's it going?\u2026
p555
aVRT @SenSanders: Yesterday, President Trump said, 'Nobody ever knew health care could be so complicated.' Well, some of us had an idea. http\u2026
p556
aVRT @ALT_DOJ: George W. Bush on the early days of Trump admin.: "I don\u2019t like the racism and I don't like the name-calling." https://t.co/LM\u2026
p557
aVRT @RoguePOTUSStaff: When PressSec stress eats in anticipation of press briefings because POTUS insanity is too much you're running like a\u2026
p558
aVRT @katz: "When I was young, in high school, in college, everybody used to say 'we never lost a war,'" says POTUS, who got 5 deferments dur\u2026
p559
aVRT @HillaryClinton: With threats &amp; hate crimes on rise, we shouldn't have to tell @POTUS to do his part. He must step up &amp; speak out.\u000ahttps\u2026
p560
aVRT @EducationIQ: 3 hours after discovering Philadelphia  Jewish cemetery was vandalized. Muslims arrived to show solidarity &amp; repair the da\u2026
p561
aVRT @michaelianblack: This isn't about Jews. It isn't about Muslims. It isn't about trans kids. It isn't about the undocumented. It's about\u2026
p562
aVRT @tedlieu: Note to @realDonaldTrump: Perhaps if you focused less on @nytimes and more on intelligence reports, SEAL Owens wouldn't be dea\u2026
p563
aVRT @paulkrugman: It's awesome watching Republicans discover what we've been saying all along: they have no alternative to Obamacare, and ne\u2026
p564
aVRT @Rschooley: I won't put up pictures of the Women's March because that would just be cruel. https://t.co/r0P9lGQHJC
p565
aVRT @mattmfm: The White House iced press pool so that only person who'd "happen" to provide dinner coverage was conservative outlet they tol\u2026
p566
aVRT @MelindaThinker: Senior citizens from Calgary shocked at being fingerprinted &amp; mug shotted by US border officials https://t.co/YLdYK8XfGu
p567
aVRT @thehill: Father of Navy SEAL killed in Yemen raid demands investigation into son's death https://t.co/f4pld8Qwbm https://t.co/jocqb96KbY
p568
aVRT @michaelianblack: Wow. Do Jews need notes from rabbis to wear yarmulkes? Do drama students need a note to wear fedoras? https://t.co/JjR\u2026
p569
aVRT @TomPerez: Call me Tom. And don't get too happy. @keithellison and I, and Democrats united across the country, will be your worst nightm\u2026
p570
aVRT @Green_Footballs: Today Bannon openly admitted Trump\u2019s appointees intend to destroy the agencies they\u2019re heading. https://t.co/MvaSyfsK8s
p571
aVRT @washingtonpost: "Demonic activity was palpable" at Trump\u2019s rally, pastor says https://t.co/5zLXCVTM8q
p572
aVRT @ReaganBattalion: Oops. #CPAC2017 https://t.co/kaaKP6JHQI
p573
aVRT @paulkrugman: When I was a teenager watching Mission Impossible, sinister foreigners were always saying "hand over your papers" https://\u2026
p574
aVRT @Resist_Chicago: Mitch McConnell silencing more women. He had women protesters arrested. https://t.co/tuYJUxjNCq #ShePersisted #TheResis\u2026
p575
aVRT @PaulBlu: Spicer one minute: "We are a states rights party."\u000aSpicer next minute: Federal marijuana laws override state recreational mari\u2026
p576
aVRT @HeerJeet: This Mellisa McCarthy parody of Spicer is too over the top, having him talk about press like they are children. https://t.co/\u2026
p577
aVRT @HeerJeet: If brown people were allowed into the alt-right,they'd quickly outshine the likes of Spencer, who would be out of a job. http\u2026
p578
aVRT @MerriamWebster: \U0001f4c8'Feminism' is defined as "the belief that men and women should have equal rights and opportunities." https://t.co/Zjf7\u2026
p579
aVOMG did you just invent that?  You are, like, totally the smartest Sox fan ever. https://t.co/aqz8167IFC
p580
aVRT @RepAdamSchiff: Trump White House asks for DHS intel to back its claims about refugee program. Real risk of politicizing analysis, will\u2026
p581
aVRT @kylegriffin1: Wow. Gabby Giffords responds to Louie Gohmert: "Have some courage. Face your constituents. Hold town halls." https://t.co\u2026
p582
aVRT @GabbyGiffords: To the politicians who have abandoned their civic obligations, I say this: Have some courage. Face your constituents. Ho\u2026
p583
aVRT @CNN: Bernie Sanders: "If you don\u2019t have the guts to face your constituents, then you shouldn\u2019t be" in Congress https://t.co/TySrkSyNcT
p584
aVRT @funder: If u are too scared to go to a town hall-&amp; u are a Member of Congress-you need to resign immediately-u forgot who you f*cking w\u2026
p585
aVRT @tonyposnanski: Marco Rubio is proof that protestors aren't "paid"...\u000a\u000aBut Senators who skip town halls are "paid".
p586
aV@RobertFeder @ABC7Chicago @MarkGiangreco7 You've always been a favorite but now you've got a fan for life.
p587
aVRT @TheIJR: Hello town halls, my old friend. https://t.co/KvekI2cWZL
p588
aVRT @aaronxrose: Thinking of Sophie Scholl, who was executed on this day in 1943 for leading student resistance against Hitler. She was 21.\u2026
p589
aVRT @KatzOnEarth: In case it's unclear, what this says is that the Trump campaign created Fake News SPECIFICALLY TO FOOL TRUMP HIMSELF https\u2026
p590
aVRT @ChrisMurphyCT: Breaking real news: Immigrants commit less - not more - crime than native born Americans. They add - not subtract - to o\u2026
p591
aV@sweden Again, sincere apologies for some of my less polite countrymen.
p592
aVRT @Stonekettle: The same congress who just approved all of Trump's cabinet picks (less the one guy who quit)? THAT Congress? Good luck. ht\u2026
p593
aVRT @tonyposnanski: So if it is true that the people opposing town halls are "paid liberals"\u000a\u000aThat would mean Clinton is bringing more jobs\u2026
p594
aVRT @mattmfm: Remarkable: thousands held town halls in GOP districts across America tonight. Only problem: in many districts they refused to\u2026
p595
aVRT @votevets: If you don\u2019t think @realDonaldTrump\u2019s #hiringfreeze hurts our military, and military families, think again. This just leaked\u2026
p596
aVRT @RoguePOTUSStaff: A conversation was had yesterday to explain to POTUS he cannot simply decree 4% GDP growth, then bark demands at other\u2026
p597
aVRT @Rschooley: Vilifying everything liberals stand for gets tricky when you end up against healthcare, clean water, safe drugs and for an u\u2026
p598
aVRT @tonyposnanski: Steven Goldstein absolutely schooled Kayleigh McEnany about using Ivanka as a "talking point" on Anti-Semitism. https://\u2026
p599
aVRT @ALT_DOJ: BREAKING: US judge says Texas CANNOT oust Planned Parenthood from Medicaid. #txlege -@chucklindell
p600
aVRT @SenSanders: Instead of frightening 11 million undocumented people with deportation, we need comprehensive immigration reform and a path\u2026
p601
aV@sweden Please accept our apologies for the irresponsible &amp; untrue comments made by our so-called President.He's an embarrassment to us all.
p602
aVRT @Rossalincoln: This Milo thing has taught conservatives a valuable lesson: properly vet nazis to ensure they only heterosexually sexuali\u2026
p603
aVRT @AnneFrankCenter: @WhiteHouse says our org should "praise" @POTUS @realDonaldTrump on #Antisemitism - THEN FIRE STEVE BANNON.  https://t\u2026
p604
aVRT @thehill: Official Sweden Twitter account fact-checks Trump in day-long tweetstorm: https://t.co/TatK8Q7ceD https://t.co/bipHs0byE4
p605
aVRT @Stonekettle: &lt;looks for reports of raids on gang territory and mass arrests of drug lords. Seems only women and kids arrested. Weird&gt; h\u2026
p606
aVRT @ACLU: President Trump does not have the last word on deportations. The courts &amp; the public will not allow this un-American dream to bec\u2026
p607
aVRT @indivisible9IL: Where is Peter Roskam? #PERSIST #RESIST # #Indivisible9IL #WhereisRoskam\u000a\u000ahttps://t.co/3JcNB1l4nl https://t.co/JWXXhrZD\u2026
p608
aV@weeklystandard @PeterRoskam Perhaps you could come back to your District and reassure your constituents that you still work for them.
p609
aVRT @mattdpearce: I mean what did conservatives think that Milo protesters were protesting
p610
aVBut do you think they'll have him back to the White House as a consolation prize this time? https://t.co/Eb4Aa5cgCe
p611
aVRT @birbigs: American Dream Instructions: \u000a1. Inherit $50m\u000a2. Run for prez as publicity stunt. \u000a3. Oops, you won. \u000a4. Make yourself richer.\u2026
p612
aVRT @carlbildt: Last year there were app 50% more murders only in Orlando/Orange in Florida, where Trump spoke the other day, than in all of\u2026
p613
aVRT @JordanUhl: Trump is on this third straight vacation where he will have a fundraiser rally.\u000a\u000aHe hasn't even been in office one full mont\u2026
p614
aVRT @Nick_Offerman: .@realDonaldTrump NACHO the main thing working against you here is math.\u000aThe more u flap your gums the more u appear a d\u2026
p615
aVRT @RepMcGovern: VIDEO: Watch how differently @BarackObama and Donald Trump treat the Press. RT to say a #FreePress is #NotTheEnemy. https:\u2026
p616
aVRT @funder: NEW:Trump biz partner/Putin ally said Trump stated:\u000a\u000a"If Im President I will remember I have friends in Russia"\u000a\u000a#trumprussia #\u2026
p617
aVRT @kurteichenwald: Would u think, if u werent a neo-Nazi, &amp; if you looked around &amp; saw neo-Nazis whooping it up for the guy u support, u'd\u2026
p618
aVRT @HeerJeet: Bill Maher finds common ground with a guy who uses bad jokes as a cover for bigotry? How is that possible? https://t.co/KNkKU\u2026
p619
aVRT @JohnCleese: Seriously,what we all need is an app that tells us which words our President meant to say if he'd had a clear idea of what\u2026
p620
aVRT @KatzOnEarth: If you feel more loyal to a politician who lies to you than people who risk their lives to tell the truth, it may be time\u2026
p621
aVRT @ALT_DOJ: \U0001f914\U0001f914\U0001f914\u201cYou know in the old days when I made this speech, I got paid a lot of money\u2014now I have to do it for nothing.\u201d https://t.co\u2026
p622
aVRT @pattonoswalt: Oh it'll DEFINITELY be taught in history books. Also improv scene study &amp; concussion identification training. https://t.c\u2026
p623
aVRT @NickKristof: I haven't heard an administration denounce reporters so harshly since China castigated us for covering its Tiananmen massa\u2026
p624
aVRT @daveweigel: Old enough to remember when @GovHowardDean saying \u201cYEAAAAH!\u201d meant he was too unstable to be president
p625
aVRT @JohnCleese: People often ask me what makes me laugh these days.\u000a\u000aOne example : 'Running like a fine-tuned machine',when describing a he\u2026
p626
aVRT @RoguePOTUSStaff: When filling jobs by trading favors, and 6 staffers have to be fired in one day because they fail their background che\u2026
p627
aVRT @JessicaHuseman: Donald Trump would like you to simultaneously believe that the leaks were of illegal classified info, AND that reporter\u2026
p628
aVRT @JordanUhl: ACTUAL QUOTE! \u000a\u000a@RandPaul is more concerned with repeal of the Affordable Care Act than investigating possibly treasonous ac\u2026
p629
aVRT @Rschooley: When Trump complains about "low-life" intel, remember he sat on their Flynn revelation for weeks and did nothing until the l\u2026
p630
aVRT @funder: #BREAKING Docs:Sean Spicer co-owned company that ran media campaigns in Russia\u000a\u000a#trumprussia #resist #spicey #trumpleaks #there\u2026
p631
aVRT @funder: Trump aide Conway's husband repped company accused of bribing Russian Officials\u000a\u000a#trumprussia #resist #theresistance https://t.\u2026
p632
aVRT @ksheely: oh my god somebody modeled the trump handshake https://t.co/2L1Sst5lFm
p633
aVRT @SenSanders: Trump picked the worst group of cabinet nominees in the modern history of America. But EPA nominee Scott Pruitt is the wors\u2026
p634
aVRT @thehill: Intel officials won't share sensitive info with Trump for fear he'll leak it: report https://t.co/tdIlL3dx4K https://t.co/Yd7q\u2026
p635
aVRT @Stonekettle: Damn. Where are we gonna find another corporate-billionaire anti-labor illegal-alien hiring misogynist at this point? http\u2026
p636
aVRT @JordanUhl: evergreen tweet https://t.co/bijKADUw5K
p637
aVRT @tonyposnanski: I wonder if there is an Oprah episode of a grizzly bear saying how horrible Betsy DeVos was so we can get her out also.
p638
aV@MaryAnnAhernNBC Wasn't allowed to ask "Since the 6th went to Hillary, shouldn't you listen to your people instead of following Trump 100%?"
p639
aVRT @MikeDrucker: "General Flynn went to live on a farm upstate. Period." https://t.co/HNS8SDWeti
p640
aVRT @France4Hillary: QUIZ: Who said 'If you repeat a lie often enough it becomes accepted as truth,' Stephen Miller or Joseph Goebbels? http\u2026
p641
aVRT @paulkrugman: Staff members are now being told to keep papers to a single page, \u201cThe president likes maps,\u201d one official said.  https://\u2026
p642
aVRT @funder: We the people want to see Trump\u2019s returns\u000a\u000aRT IF U AGREE!\u000a\u000a#trumptaxes #trumpleaks #dworkinreport #resist #grammys https://t.co\u2026
p643
aVRT @mattmfm: No need to parse words anymore: the Republican Party is the party of fascism in America. https://t.co/YLMM1cDGL8
p644
aVRT @ALT_DOJ: First you left a key in the classified documents bag.  Now you are talking about things in public? https://t.co/lQOyk8r7pZ
p645
aVRT @ALT_DOJ: Here is more from the Observer Article! Some Intel is being withheld from the president because kremlin has ears inside Whiteh\u2026
p646
aVRT @SenSanders: We are in a pivotal moment in American history. We have a president who is delusional. He is a pathological liar.
p647
aVRT @jimsciutto: What is clear is that both the WH and Flynn have changed their accounts of the phone calls more than once. https://t.co/xOq\u2026
p648
aVRT @RepJackKimble: It's really disrespectful when talking about President Trump to leave out the T and U in POTUS.
p649
aVRT @Stonekettle: Too bad there wasn't another candidate with extensive government experience who had a realistic understanding of the job..\u2026
p650
aVRT @Mediaite: In Meeting With Senators, Trump Referred to Elizabeth Warren as 'Pocahontas' Several Times https://t.co/iKvIEYHXd3 https://t.\u2026
p651
aVRT @mattdpearce: sure are a lot of coastal elites in Kentucky, Tennessee and Utah these days
p652
aVRT @BeauWillimon: ICE raids have begun. Not a drill. Please spread this info far and wide so targeted people get the info they need. https:\u2026
p653
aVRT @CecileRichards: Try to take away health care from millions of people and you're going to hear from a few of them. https://t.co/KGjziqSe\u2026
p654
aVRT @tonyposnanski: Video of Betsy DeVos leaving the school she was briefly blocked at. https://t.co/BGCjUejQS9
p655
aVRT @brennawilliams: Abe's facial expression is \U0001f525 https://t.co/etYaiNH6vp
p656
aVRT @tonyposnanski: If you are missing a Dalmatian...it could be at Betsy DeVos house.
p657
aVRT @FSCDems: #ICYMI: GOP preparing plan to gut @CFPB, roll back #WallStreet regulations. #DefendCFPB\u000a\u000aREAD: https://t.co/QQDE3HIU55 via @wa\u2026
p658
aV@NBCNightlyNews @AltUSFWS @realDonaldTrump disingenuous af
p659
aV@PeterRoskam 100 Pinocchios on this one we've been asking for an in-person town hall what could the problem be?
p660
aVRT @TheAvgBlackMan: And then he tweeted.....\u000a   "SEE YOU IN COURT"\u000aAfter just LOSING IN COURT\u203c\ufe0f https://t.co/o759gp7hjB
p661
aVRT @KatzOnEarth: There is some sketchy-ass shit going on in this administration. https://t.co/lh4xyJnvhn
p662
aVRT @mattmfm: Incredibly powerful: massive crowds are flooding GOP town halls. Even under Trump, power in our democracy lies with the voice\u2026
p663
aVRT @KeithOlbermann: Democracy is not saved by the intelligence of those who would preserve it, as much as by the asshattery of those who wo\u2026
p664
aVRT @StephenAtHome: Please please please represent yourself in front of the Supreme Court. I'll never ask for anything else ever again. http\u2026
p665
aVRT @jennaruddock: Price opposes the ACA, abortion, &amp; funding for Planned Parenthood &amp; now has significant influence over US healthcare http\u2026
p666
aVRT @RepAdamSchiff: If General Flynn secretly discussed with Russia undermining US sanctions, and misled American people, he can no longer s\u2026
p667
aVRT @funder: Fact:Trump has put 0 Americans back to work since taking office\u000a\u000aWe've lost jobs due to the #MuslimBan\u000a\u000a#DworkinReport #TrumpLe\u2026
p668
aVRT @michaelianblack: Today:\u000a1. Trump lost appeal.\u000a2. NYT broke China won't take our call.\u000a3. Wash P broke Flynn lied about Russia.\u000a4. Conwa\u2026
p669
aVRT @zionpolitics: This is my favorite. #chaffetztownhall https://t.co/9ko2I2VKQq
p670
aVRT @RoguePOTUSStaff: POTUS irritated that sev. members of Patriots team will not attend WH visit. Saying he will lobby owner to cut them fr\u2026
p671
aVRT @SenSanders: We won\u2019t allow Trump and his Republican allies to destroy Obamacare. Americans are waking up. Republicans beware!\u000ahttps://t\u2026
p672
aVRT @borzou: Note: "Fake news" means stories willfully made up by people to go viral. Not stories you disagree with, &amp; not stories that have\u2026
p673
aVRT @DavidYankovich: Look, video of America being great! https://t.co/u1vx2VwXsF
p674
aVRT @paulkrugman: It's a form of protectionism -- protecting the Tweeter-in-chief from inconvenient facts and analysis https://t.co/N50jQ24a\u2026
p675
aVRT @ACLU: We have been saying this for a while. https://t.co/JFpVlTYUZm
p676
aV@tonyposnanski Close, but 150% more caplock!
p677
aVRT @Rschooley: Ninth circuit: Easy D
p678
aVRT @KeithOlbermann: NEW VIDEO: Trump has imperiled your pet; Made abusing dogs, cats, lab animals easy; Made keeping it secret simple https\u2026
p679
aVRT @thehill: Trump\u2019s immigration ban cost business travel industry $185M: report https://t.co/MK4c9cVCX1 https://t.co/ZMEqFVkJf5
p680
aVRT @womensmarch: Thread. Read. https://t.co/yflykon0z8
p681
aVRT @edithfrost: When he says bad hombres &amp; rapists, he really means moms https://t.co/WJLkipCF0X
p682
aVRT @BlueHeronFarmTX: Oh, nothing - just making Valentines. https://t.co/z07u9eDzx3
p683
aVRT @funder: Neil Gorsuch lied about Volunteer Work While at Harvard via @WSJ\u000a\u000a#trumpleaks #resist #theresistance #dworkinreport https://t.c\u2026
p684
aVRT @tonyposnanski: I really want to go buy Ivanka's stuff but after paying for a wall and when my health care is taken away...I won't have\u2026
p685
aV@jaketapper @KellyannePolls This is one of the myriad reasons you and the rest of the MSM need to stop having her on your shows.
p686
aV@JohnRossBowie @SenJohnMcCain One would think so. But one would be very, very wrong.
p687
aVRT @BraddJaffy: Kellyanne on Fox\u2014\u201cGo buy Ivanka\u2019s stuff\u2026I\u2019m gonna just going to give a free commercial here\u201d\u000a\u000aHere's federal ethics law man\u2026
p688
aVRT @missmayn: Fox News going to incredible lengths to make Steve Bannon look good. https://t.co/JNMEw8x68m
p689
aVRT @funder: #DworkinReport on #TrumpRussia Ties below\u000a\u000aRT if u are part of #TheResistance\u000a\u000a#trumpleaks #resist #impeachtrump #rt https://t.\u2026
p690
aVRT @robdelaney: Did you tell him to imagine a diabetic black woman being denied insulin to get that smile? https://t.co/g0H0kUH19i
p691
aVRT @michaelianblack: I have never been so proud. \u000a\u000a"Trump Book Causes Concern" https://t.co/y5dxCMzF49
p692
aVRT @washingtonpost: A word of advice from Martin Luther King Jr.\u2019s daughter: "Resist!" https://t.co/KRuAdaoyap
p693
aVRT @MJMcKean: ...and still went bankrupt? https://t.co/Hx6GeWCyCB
p694
aVRT @ChrisEvans: If David Duke....DAVID!...DUKE!... thinks you're right, then you are unequivocally wrong. The confirmation of @jeffsessions\u2026
p695
aVRT @mattmfm: Let's cut with the niceties:\u000athis is insanely fucking unethical. https://t.co/n6XQIxVvpq
p696
aVRT @AoDespair: Behold, it's the Anti-Truman: "The buck doesn't stop here. That buck goes to someone else. Don't blame me."  https://t.co/l1\u2026
p697
aVRT @KatzOnEarth: Sure, yeah, all the Kings secretly supported segregationists who opposed voting rights even though they said the exact opp\u2026
p698
aVRT @franklinleonard: A man too racist to be a federal judge in the 80s is now Attorney General. Do you realize how racist "too racist" was\u2026
p699
aVRT @SenBobCasey: CC: @OfficeGovEthics https://t.co/9hy6OgfA9m
p700
aVRT @robdelaney: Learn about your new Attorney General https://t.co/OxJYnNWfv3
p701
aVRT @AoDespair: When you see it all together in one place, you realize the United States is now a kleptocracy without boundary. Pigs at a lo\u2026
p702
aVRT @jonfavs: I'm not sure you should've supported a presidential candidate who makes racist comments. https://t.co/7xCO0FpeYZ
p703
aVRT @tonyposnanski: Major account stole her tweet 40 minutes after she posted. Very funny tweet. Throw her a RT please. https://t.co/9D4jAd9\u2026
p704
aVRT @ALT_DOJ: Deputy who shot and paralyzed unarmed black man now heading Trump\u2019s security during Florida visits https://t.co/KbT3JhpYjm htt\u2026
p705
aVRT @IfHillaryHad: DAY 19: Still not enriching myself via the presidency. Exiled Sessions to the island on Lost. Sent Bill to Room &amp; Board f\u2026
p706
aVRT @MrTommyCampbell: What message is it to children that championing the Klu Klux Klan leads to the President handing out top jobs with ben\u2026
p707
aVRT @Nick_Offerman: (Unless you're not white and you would like to vote) https://t.co/bxvxlNXqR5
p708
aVRT @MrGeorgeWallace: That's the thing about folks like Coretta. Their power remains, long after they're gone. Persist, @SenWarren.
p709
aVRT @mrbenwexler: republicans are the true snowflakes (they're all white, they're cold, and if you put enough of em together they'll shut do\u2026
p710
aVRT @kurteichenwald: "Hypocrisy runs like a hair in a hot dog through the otherwise beautiful fabric of American life." Mencken. Perfect quo\u2026
p711
aV@BenHooperWrites I checked Scopes and she is definitely right.
p712
aVRT @kurteichenwald: Yemen forbids US military missions because of disastrous last one, harming our campaign against terrorists. Trump tweet\u2026
p713
aVRT @HillaryClinton: "She was warned. She was given an explanation. Nevertheless, she persisted."\u000a\u000aSo must we all.\u000a\u000ahttps://t.co/JXROGHPNkH
p714
aVRT @paulkrugman: No, it's making drinking Budweiser somehow a good thing https://t.co/LaHv0mdi06
p715
aVRT @christinawilkie: The official @POTUS account just retweeted Trump\u2019s attack on @Nordstrom. That\u2019s a taxpayer funded account being used t\u2026
p716
aVRT @StephenAtHome: Over 135k people listened to the audio-only livestream of #9thCircuit hearing. Because Justice is blind but She's not f*\u2026
p717
aVRT @washingtonpost: Department of Defense looks to rent space in Trump Tower https://t.co/BsZgtQ1M3j
p718
aVRT @NekoCase: A-FUCKING-men! https://t.co/9hh7B9VoTN
p719
aVRT @gregorybehrendt: I'm sure it's naiv but unifying around the absurd stupidity of this president has given me a faith in people I haven'\u2026
p720
aVRT @womensmarch: "Sessions has used the awesome powers of his office in a shabby attempt to intimidate and frighten elderly black voters."\u2026
p721
aVRT @womensmarch: RT if you agree with @CecileRichards: "Together, we are a movement. And we are unstoppable." #WomensMarch https://t.co/fdx\u2026
p722
aVRT @mattmfm: Senate GOP argument: if a Senator is up for cabinet nomination, any flaws in his/her record can't be discussed on the senate f\u2026
p723
aVRT @pattymo: If you ever see Mitch McConnell go into a port-a-potty you have a moral obligation to tip it over, door side down
p724
aVRT @MrTommyCampbell: TED JUST ADMITTED TO BEING BORN IN CANADA. Something he avoided saying in all the debates. #CNNDebate #DebateWithBernie
p725
aVRT @tonyposnanski: Bernie Sanders going against Ted Cruz on Obamacare is like Muhammad Ali going in the ring against a George Foreman Grill.
p726
aVRT @SarcasticRover: HOLLYWOOD: I will pay real money to watch a TV show about a divorced grizzly bear who gets hired as a science teacher i\u2026
p727
aVRT @kurteichenwald: Why do they lie?! @WhiteHouse issues list of "underreported" terror attacks. Even some of most obscure ones were writte\u2026
p728
aVRT @Mom101: This is probably like the most effective "don't smoke pot, it messes with your brain" advertisement ever. https://t.co/d4x2PVhR\u2026
p729
aVRT @SenSchumer: Today @VP Mike Pence did something no one else has ever done: cast the tie breaking vote on his own cabinet nominee. #Rigge\u2026
p730
aVRT @fanniesroom: Literally no woman familiar with watching incompetent men consistently rise to the top is stunned by this. https://t.co/AR\u2026
p731
aVRT @lancegould: Betsy DeVos confirmed Ed Sec. as VP Pence casts vote, breaking tie. Unlike most other ties affiliated w Trump, this one NOT\u2026
p732
aVRT @BlackMarvelGirl: RETWEET if you approve of Martellus Bennett who will not attend the celebration at the White House b/c he doesn't like\u2026
p733
aVRT @AJ: I guess this was "fake news" because he doesn't agree with what u say \U0001f914 wait what, isn't this you? or the other you? https://t.co/F\u2026
p734
aVRT @AJ: Trump talks about his relationship with Putin back in 2013 \U0001f914 #Confused #1in https://t.co/nDdzldE1gf
p735
aVRT @RobertFaturechi: The LA Times won a Pulitzer for its coverage of the San Bernardino attack. Then donated the prize money to the communi\u2026
p736
aVRT @Pliny_theElder: the so called "tolerant left" have painted a white stripe on my back, leading to unwanted romantic attention from a ver\u2026
p737
aVRT @NickKristof: It's true that the Bowling Green Massacre was woefully under covered. https://t.co/VlOLIAMayl
p738
aVRT @altusda: Only upside of Trump choosing a puppy mill advocate for the USDA transition team is that those guys aren't the sharpest tools\u2026
p739
aVRT @BraddJaffy: Trump just named 9/11, Boston, Orlando and San Bernardino to justify his travel ban. None of those attackers were from coun\u2026
p740
aVRT @Earthjustice: Trump\u2019s EPA pick made false statements under oath in Senate confirmation hearing https://t.co/gl2qHZlgmi #pollutingPruitt\u2026
p741
aVRT @washingtonpost: Kellyanne Conway\u2019s "Bowling Green massacre" wasn\u2019t a slip of the tongue. She\u2019s said it before.\u000ahttps://t.co/gsTjaBsu6u
p742
aVRT @SenSanders: It is extraordinary how little Donald Trump knows about immigration, or cares about the Constitution, rule of law or separa\u2026
p743
aVRT @MaxineWaters: Today, I told @cheddar that my greatest desire was to lead @realDonaldTrump right into impeachment.
p744
aVRT @michaelianblack: It's 11:30 in the morning. Why aren't you at work? https://t.co/ph09VG0QMj
p745
aVRT @NRDC: Call your senators\u2014and tell them to vote NO on Scott Pruitt\u2019s EPA nomination! Here\u2019s how: https://t.co/pO4WZK4Xsu https://t.co/wE\u2026
p746
aVRT @ChrisMurphyCT: That's a lie. Despite your unrelenting efforts to undermine it - most recently pulling the advertising - 9.2m people sig\u2026
p747
aVRT @SarahKSilverman: If you haven't done so yet, please, watch this and wake (the fuck) up https://t.co/xJSOiBwb8e
p748
aVRT @michaelianblack: Week 3 of the Trump Presidency starts tomorrow. We will probably be at war with the Bahamas or the moon by Friday.
p749
aVRT @AltGlacierNPS: @BadHombreNPS @EPA 2015 Poplar Pipeline, ruptured and spilled 40,000 gal. crude oil into the Yellowstone River. https://\u2026
p750
aVRT @GeorgeTakei: When the press said Putin's a killer, it was adorable to see how Trump stood by his man and criticized America instead. Th\u2026
p751
aVRT @NYCMayor: New Yorkers don't care how you love, worship, or identify. If they come after you, they'll need to get through every one of u\u2026
p752
aVRT @JohnRossBowie: THAT joke took a week? https://t.co/b5QB0VO9bD
p753
aVRT @aparnapkin: Calling liberals hysterical is a tactic that has been used against women for years. Having emotions does not make you a lia\u2026
p754
aVRT @robreiner: Is it me or does it get more insane than making it ok for mentally ill people to have guns? That's the exec order mentally i\u2026
p755
aVRT @nytopinion: Trump wants to rollback Dodd-Frank to bring back reckless and predatory practices at banks https://t.co/VwVjfBdaWN https://\u2026
p756
aVRT @EricWolfson: Called Out By Biden.\u000a#PaulRyanIn4Words https://t.co/Qm8vaNzcmq
p757
aVRT @tonyposnanski: There should be a Women's March every single day. This is disgusting. https://t.co/8hbxIooCKG
p758
aVRT @SenSanders: Congratulations to President Trump on his deep, spiritual awakening at the National Prayer Breakfast.\u000ahttps://t.co/S740tIWV\u2026
p759
aVRT @SenSanders: We cannot sanction racism, sexism, homophobia and other forms of discrimination under the guise of "religious freedom."
p760
aVRT @SenWarren: The same day the Senate confirmed Rex Tillerson, the @HouseGOP passed a resolution to help @exxonmobil secretly funnel money\u2026
p761
aVRT @ByRosenberg: White supremacists who carried out bombings &amp; mass shootings will no longer be targeted in counter-terrorism program https\u2026
p762
aVRT @LauraJSilverman: Please let us not forget that he said this, not for one second- until he is removed: https://t.co/0RvH6fkZH4
p763
aVRT @ericgeller: I'm still astonished that a U.S. special forces raid in Yemen killed an 8-year-old American girl and virtually no one is ta\u2026
p764
aVRT @ConanOBrien: The most underappreciated job in the White House is the assistant who reminds Mike Pence to blink.
p765
aVRT @brianpjcronin: 1. Yes\u000a2. How do we get Cornell West to introduce himself to Trump as Frederick Douglass and can we all watch what happe\u2026
p766
aVRT @zachheltzel: You literally told Howard Stern you wanted Marla Maples to abort Tiffany. https://t.co/RAR2WF8RKm
p767
aVRT @softreeds: Friendly reminder that, thanks to Obama's policies, abortion rates are at their lowest levels since Roe v Wade.\u000a#MarchForLife
p768
aVRT @tonyposnanski: Trump and Co. tweeting about the #MarchForLife &amp; ignoring the #WomensMarch just shows they only like women that they can\u2026
p769
aVRT @alplicable: It's gone now but someone had edited the Wikipedia page for invertebrates to include Paul Ryan \U0001f602\U0001f602\U0001f602 https://t.co/Oe7qOSp027
p770
aVRT @TIME: TIME's new cover: How the Women's March is becoming a movement https://t.co/EH4jmCwPKi https://t.co/v6EtMGAn1p
p771
aV@heystephhh I like it alot.  I like that it is sort of streamlined and very clean feeling.  Good job girl!
p772
aV@CityWendy it is raining this afternoon in Chicago
p773
aVPotato Leek soup and Tomatoes and Fresh Mozzarella with Balsamic Vinaigrette dressing.  So yummy!  So full!
p774
aVhither comes the newest wave of pr0n bots.  and all I can say is, "why?"
p775
aVwicked headache.  so bad i think i might hurl.  could this day get any better?
p776
aVThought of something worse than Nickelback: Creed.  Apparently someone thought it was a good idea for those assholes to tour again.  WTF!
p777
aV@Sarcomical I want hippies.  when you find this commune, i wanna come too.
p778
aVI can think of a couple of things worse than Nickelback but not that many.
p779
aVBanjo solos.  That is what my life is missing.  And perhaps a little cowbell.
p780
aV@Sarcomical i did indeed.  my gift to you.
p781
aV@Sarcomical he's not that young.  and you can totally twitter stalk him @hitRECordJoe
p782
aVtoo full
p783
aVmy famous chicken enchiladas with pain in the ass but totally worth it red chili sauce.  sometimes i want to marry me.
p784
aV@Courtneylover79 http://twitpic.com/ckhop - Boston Opera House 1984.  I am officially old!
p785
aV@citywendy http://twitpic.com/cl5d1 - What a gorgeous couple!  Congrats!
p786
aVpeanut butter chocolate chip cookies and fried chicken
p787
aVwhen in doubt, take a long walk
p788
aV@heystephhh yay for you! this looks fun.  i took nick to warped several times when he was younger.  lots of fun!
p789
aVit is way too cold in my house.  i am wearing thermal, flannel and polar fleece socks and visiting the backyard to warm up.   grrrr.
p790
aV@bhockeyjesus  I just got 9 years in June.  One day at a time. Good for you!
p791
aV@jenandtonica I entered the twitter handle from the auto-response into the "ind people" search and it comes back as "does not exist"
p792
aV@Sundry ahhhhhhhh!!!
p793
aV@mihow   That is 17 kinds of sweet!
p794
aV@courtneylover79 the pictures are lovely and so is the home.  i hope all is settled for you soonest!
p795
aV@jenandtonica Paul Blart was just horrible....Taken was much better!
p796
aV@heystephhh Awwwwwww! I wanna go to the ballpark.  First pick Fenway, secong pick Wrigley!  (sorry, BoSox are always first in  my heart)
p797
aV@pastaqueen congratuations on the new book!
p798
aVMovie it shall be.
p799
aVSo much for that plan.  It is pouring rain and I am way past my days of rainy outdoor concerts.
p800
aVBraving downtown Chicago on this holiday weekend to see Buddy Guy.
p801
aVThe Internet is failing to entertain me today.  To whom do I complain?
p802
aV@midwestgrrl yes, but even the RNC seems to want nothing to do with her.  Fingers crossed!
p803
aVEntering this long weekend with zero definite plans and I could not be happier!
p804
aV@midwestgrrl i think she is delusional enough to believe that she has some future in national politics but is anyone buying that?
p805
aV@thatsmybix I very much mis your blog.  Any ETA on when it will be live again?
p806
aV@midwestgrrl hurrah! Hurrah! less Palin is a good thing!
p807
aV@wilw you are one of my very favorite things about the internet!
p808
aVwent yesterday to see public enemies and I would recommend it.  johnny depp is lovely to look at.
p809
aVwatching the grey gardens movie with d barrymore and j lange  cannot think of a bad thing to say about it.very well done...highly recommend!
p810
aV@Sarcomical Ohhhh! I so want to see that movie!
p811
aV@mrskutcher the movie goldblum is filmimg is in NY they say he died in New Zealand while filming...makes no sense
p812
aV@Sarcomical the movie goldblum is filmimg is in NY they say he died in New Zealand while filming...makes no sense
p813
aV@missbanshee the movie goldblum is filmimg is in NY they say he died in New Zealand while filming...makes no sense
p814
aVtoday has been the least productive day of my life but now I am going to make potato salad from scratch and call that an accomplishment
p815
aV@mihow hmmm...sounds a bit wacky
p816
aVi gave up perez a couple of months ago and so far i have seen a significant improvement in my general state of mind.
p817
aV@midwestgrrl grrrrrr...worse yet.
p818
aV@midwestgrrl every time she says "sammy" i feel a little stabby
p819
aV@TranceJen there is something very apealing about v. d'onofrio.  cannot put my finger on it.
p820
aV@bhockeyjesus Michigan is a special kind of different
p821
aVfinal word on "the hangover": it had its moments but it was just okay.
p822
aVcould use a raygun, a unicorn and a years supply of lime lolly pops.
p823
aV@jenfoo I miss EW so very much and all of your daily updates and Weetabix's.  It was a damned shame it got shut down. We are lost now.
p824
aV@jenandtonica  it's a vegetable seller in the olden days
p825
aVBon iver is the perfect soundtrack for this drive. With a heaping helping of andrew bird.
p826
aVIn car on the way to mi.  Playing with husband's iphone. Is pretty sweet.  I want!
p827
aV@CityWendy Happy Birthday to your grandma!
p828
aVfinally have my voice back - yay antibiotics! - but strangely have nothing to say.  ironic.
p829
aVi have lost my voice so i will twitter now
p830
aVpent up aggression much?
p831
aVjust went om unexplained tear and cleaned up all of the dead leaves and weeds in our back yard.  now i am tired and a bit achy.  go me.
p832
aVtwitter will not let me share my deepest darkest secrets here.   what is up with that?
p833
aVi could just cry
p834
aV@midwestgrrl on the flip side i would watch ina garten make kraft macaroni and cheese.
p835
aVsay what you will, but sandra lee from the food network is the most annoying human on earth
p836
aVtoday is not the day i find a job much to my dismay.
p837
aVtoday is the day that i finally chop off all of my hair.  i am giddy with the anticipation!
p838
aVspent the afternoon in chinatown.  all errands successfully completed.
p839
aV@stephaniederosa they are all totally your friends
p840
aVcleaning out the fridge makes me feel so sexy.
p841
aVWait, wait, wait.  I had a point.  I know I did.
p842
aVi am wiped.   painting the ceiling is hard work.  muscles ouchy!
p843
aVtoday i have garth hair. that is all.
p844
aVBig dinner cooked and consumed. Now painting. Yet. Still. Again.
p845
aVT minus 30 minutes before dinner hits the table
p846
aVMy life just got a little sweeter because I found @Steve_Buscemi here on Twitter.  Let's me pretend he is talking to me.  Sweet!
p847
aVhello saturday night
p848
aVdinner and then wii with the boys
p849
aVBought a new lens for my camera and feeling very fancy.
p850
aVi tried but i've just got nothing
p851
aVI had an A+ photo shoot tonight which has boosted my spirits immensely
p852
aVtaking a miss on the oscars live.  i figure i can keep informed through the internet.  bless you for live twittering.
p853
aVpyjamas and tivo.  it does not get any better in my book.
p854
aVhave truly craptacular REO Speedwagon song stuck in my head.  why, oh why?
p855
aVsewing black thread on black felt and I feel like I am going blind
p856
aVum....there is a weird stalkr vibe here in twitterville today.
p857
aVi have gotten sucked into Sober House and I am rooting for Andy Dick.  Man needs to get his shit together!
p858
aVwe need xanax.  stat!
p859
aVman i took some truly pathetic pictures
p860
aVsewing and procrastinating...nothing new
p861
aVand better yet a new President
p862
aVwe have a new vice president
p863
aV'Retha's hat is kicking sweet
p864
aVkeep getting the goosebumps
p865
aVjust shoved a needle under my fingernail.  confessed to crimes against humanity and mumbled a curse.
p866
aVsteadfastly battling the demons
p867
aVerrands run and now i settle in for much sewing
p868
aVFrances McDormand is my girl crush.
p869
aVYou know how you all feel about Clive Owen? That's how I feel about Daniel Craig.  There, I said it.
p870
aVanother friday night with Tivo.  I am lame.;
p871
aV@Sarcomical almost midnight and I just put in a roast.   crazy, huh?
p872
aVimmma bout to lose my mind with all this waiting
p873
aVcookies are all a part of the larger conspiracy.   halp!
p874
aVMust also place maximum distance between myself and delicious chocolate chip cookies.   Why do I bake?  Oh right, for everyone else.
p875
aVI just want to go shopping for cute skirts to wear with my awesome boots.  Cruel fate thwarts my efforts at fashion.  Again.
p876
aVcurrently waiting for spare key.  took the opportunity to take all of husband's crap off the mantel.  He will never know what hit him.
p877
aVwhy is it that the stupid keys get locked in the stupid car when I have reached the end of my patience?
p878
aVcookies baked and consumed.  must bake more.
p879
aVthe cookies won't bake themselves
p880
aVchinese food for dinner = the easy way out
p881
aVstill want a cigarette and still have no idea why
p882
aVsewing, sewing, sewing but there is an end in sight.
p883
aVcan i just say how glad i am that ice-t cut off the damned ponytail.
p884
aVlooking for some organization.  if i accomplish nothing else, there will be order!
p885
aVi would just about kill for a cigarette.  where did that come from?
p886
aVall is well.
p887
aVand the bliss continues.  not bad, sunday, not bad.
p888
aVam currently crushing on Jason Lee in "Almost Famous"
p889
aVmusic from this movie is just what i needed this morning
p890
aVand marvelous cooking plans for later.
p891
aVum...very full of bliss and good cheer.  house is quiet.  i am sewing. "smart people" on the tv.
p892
aVyeehaw.   where have i been?
p893
aV@TheBloggess definitely some sort of abomination
p894
aVdefinitely recommending the books that "trueblood" is based on for a light interesting read.  if you like the show, you will like the books
p895
aV@missbanshee very very cute
p896
aVbeen  lost in an avalanche of books
p897
aV@amyderby kidding and on my way to hell :)
p898
aV@amyderby there is a Jesus of Tiajuana as well I believe.
p899
aValfie's bleu cheeseburger for dinner.  is there anything finer? i think not.
p900
aVi did not buy you and yet you mock me with your sweet sugary nut goodness.
p901
aVarchway wedding cakes, you are my kryptonite.
p902
aVis it going to be this kind of week?
p903
aVfound that I had a listing - and of course a sale - for an item that did not exist.  scrambling to sew it to get it in the mail today
p904
aVpoked myself in the eye.  day is off to an auspicious start.
p905
aVhaircolor day is a happy day
p906
aVcraving a cigarette. ?? don't know where that is coming from.  anyone bum me a smoke, man?
p907
aVyou folks need to get on the tweeting.  i need the mental stimulus. :0
p908
aVworking on valentine's and easter stuff.  watching "it's a wonderful life".  feeling a bit of christmas disconnect.
p909
aVfinally got tape measure design fully realized and executed.  very cute, if i do say so
p910
aVdream realized
p911
aVhave officially become full-time, stay-at-home puppy mom.  at least for the next month.
p912
aV@missbanshee ooooh. me too.
p913
aVwhy, yes, it is a "gentlemen prefer blondes" kinda afternoon, thank you
p914
aVright?
p915
aVmail man is parked across the street.i am restraining myself from accosting him about the status of my label order. he probably has no idea.
p916
aVhaunting my mailbox like a maniac.  oh labels wherefore art thou?
p917
aVi woke up officially older today.  i don't feel older.  ask me to tell you a fart joke.
p918
aVSuper cute boots taken for another outing. Still v cute and still make me happy.  Sometimes it's the small things. I want to be an optimist.
p919
aVThat's just how I roll.
p920
aVclasses almost over.  hallelujiah!  One month off then back to the same old.
p921
aVachy back, stuffy nose and general malaise ....hate
p922
aVme and 4 puppies in a pile on the couch under a blankie....love.
p923
aVam i the only one who thinks lottery tickets are a crappy gift?
p924
aVtook super cute boots for official first outing and they rocked
p925
aValbuquerque is officially on the table
p926
aVvernicious knids, i tell you
p927
aV@jenfoo i recently got a cast off and it was pure joy to shave and exfoliate.
p928
aVi love roald dahl.
p929
aVtrying to sew but my hands are too restless for the embroidery fiddly bits..i persevere in the face of my fidgets
p930
aVwatching willy wonka - the original - a day late through the magic of tivo.
p931
aVhot new boots and i need to come up with an appropriately hot outfit to wear with them...first world problem
p932
aVsometimes when the weird pup loses his ball and cannot find it anywhere he looks under my shirt.  he has never found it there but he hopes.
p933
aVmy b-day present http://tinyurl.com/5v639y
p934
aV"bell book and candle" is best of all
p935
aVi would rather "rear window" but "vertigo" will do in a pinch
p936
aVgot a plan in the works and it is coming along nicely thank you very much
p937
aVjimmy stewart and kim novak....rowrrrrrr
p938
aVi wanna go live in earthy crnchy hippie ville
p939
aVfixed running toilet.  10 points for not leaving it for my husband.  being a grown up is fraught with responsibilities.
p940
aV@Sundry I don't have  a specific complaint about the Canon but when you are more familiar with Nikon it takes a little figuring out
p941
aV@mihow really liked this girl in a class i was taking. we walked out to the parking lot one day and she had a hummer.  hard to get past that
p942
aVlots of new designs sewn - yay!  waiting for labels to finish them with - boo.
p943
aVmy house is a disaster.   what i really want for christmas is a cleaning lady and a handy man.  i am not holding my breath.
p944
aV@mihow i got that it was meant as a joke.  people just sometimes have to find something to get their panties in a twist about.
p945
aVwant to move somewhere that i never end up complaining about the cold.  illinois is definitely not it.
p946
aVi know what i am getting for my bday next week and i don't care that it ruined the surprise http://tinyurl.com/5hcvyl
p947
aVaren't we done with the bachelor and the bachelorette yet.  jesus jumping christ.
p948
aVwell, hello there google reader.   where have you been all my life?
p949
aVtwitter is where i share my secret dreams
p950
aVfailing that i want to be as funny as carrie fisher
p951
aVi want to be as fabulous as ina
p952
aVsinging "helter skelter" to the pups today.  thinking about becoming the new manson family.  but cuter and with more face licking.
p953
aVoh.  no christmas spirits have visited me.   must be busy with some other scrooge.
p954
aVi spend way too much time in the company of my pups.  it makes talking to people harder than it should be.
p955
aVi am having a hell of a time getting into the holiday spirit.  perhaps 3 ghosts will visit me tonight and do the trick.
p956
aV@gwenbell love the princess bride.  could watch it anytime. but i cannot seem to locate the dvd in the mess of dvds.   boo. :(
p957
aVnothing good on the tivo.   nothing good on tv.  how did the pioneers do this?
p958
aVdo not wish to hear about daniel radcliffe's willy
p959
aVjeffrey dahmer interview is not positive holiday viewing
p960
aVcharlie brown won the spelling bee
p961
aVwant http://tinyurl.com/5owotl
p962
aVseriously in love with a bigger better digital slr (2700.00 for body only) but having a hard time justifying the expense
p963
aVsnuggly puppy on my lap and charlie brown on the tv.  this is a wild saturday night.
p964
aVback to the whole family and a menu planned down to the most insignificant detail next year.
p965
aVusually there is a bit of stress and even more self doubt.  not so much this time out.  i like it.
p966
aVvery different kind of holiday this year.usually there is planning and plotting of menu for weeks in advance and lots of cooking in advance
p967
aVwe are doing low key t-day due to the creeping plague that has afflicted our house for lo these many weeks.
p968
aValice's restaurant copied to cd for post supper listening.  that is what i call thanksgiving.
p969
aVno alice's restaurant yet.  i think that is why i am not yet in the thanksgiving frame of mind.
p970
aVjust now cooking turkey.  sucks to be sick for t-day and far from family.
p971
aVup and at 'em today.  tasks accomplished and names taken.  clearly i am headed for a fall.
p972
aVRIP Liebschen.
p973
aVapple crisp in the oven. chili on the stove.  what has gotten into me?
p974
aVa little bit ocd today
p975
aVkultcher.  we has it.
p976
aVmad max marathon begins
p977
aV@amyderby i am okay. getting over a bug.  how about you?
p978
aV@amyderby so could i
p979
aVwondring where the week went
p980
aVsick sick sickety sick.  who didn't see that one coming?
p981
aVtoo much caffeine? not enough caffeine? hmmm.
p982
aVted nugent song stuck in my head.  i am concerned.
p983
aVdealing with a sick husband.  please send valium.
p984
aVspending my days with 5 psychotic daschunds leaves me ill-prepared to interact with real people
p985
aVcurrently have an unhealthy obsession with "laverne and shirley".  may or may not have set the tivo to record it.
p986
aVwaiting kinda patiently for "rescue me" to come back.  it is gonna be a long couple of months.
p987
aVhello tuesday, you look marvelous.
p988
aVfound my compact flash card reader that i recently replaced.  right on top of my dresser in plain sight.  duh.
p989
aVtasks accomplished.  today goes in the "win" column.
p990
aVstalling by reading Perez.  i don't want to be behind on my celeb gossip if something should happen to me out there.
p991
aVgetting dressed and leaving the house.  pray for me.
p992
aVwatching "the usual suspects".  benicio del toro is such a fine handsome young man.  rowrrrrr.
p993
aVwatched obama and got all verklempt.  it still hasn't gotten old or commonplace for me yet.
p994
aVwatching ina do yet another thanksgiving dinner...why do i torture myself this way?
p995
aV@FADKOG sometimes you need to create an aura of mystery.  not speaking works. :)
p996
aVfinally got the chack I have been waiting impatiently for.  let the spending commence.
p997
aVup too late and to no good
p998
aV@TheBloggess i have been editing photos all night 'cause i am cool like that
p999
aVcrappy neighbours.  sometimes it sounds like they are hosting a tractor pull or a monster truck rally.  grr.
p1000
aVoh mel gibson, if only you were not a racist moron
p1001
aVwatching ina do thanksgiving and getting a little sad that i am not cooking this year....wah
p1002
aV@mihow fingers crossed for murray
p1003
aVmy tivo ate the latest true blood.  time to reset.   grrrrr!
p1004
aVthis blinking cursor is giving me epileptic fits
p1005
aVconsidering running away to a desert isle
p1006
aVblocked and bitching about it
p1007
aVcraving a grilled cheese sandwich
p1008
aVgood golly it is colder than heck in here
p1009
aVYou have to make sure that you dispense the crazy in small doses.
p1010
aVThis is the thing I can count on: the words will come. Welcome or not, ready or not.
p1011
aVback home after a brief excursion out into the gloom...november why you gotta be like that?
p1012
aVsmart enough to know better
p1013
aVis it not bad enough to have to worry about becoming your mother without having to worry about becoming your step mother?
p1014
aVdoctor did not actually say "batshit crazy" but it was definitely in the subtext of his prognosis
p1015
aV@amyderby what is a fun group and is it edible?
p1016
aVhave i told you the story of how i had an impromptu DIY cast removal party last saturday?
p1017
aVit was a dark and dreary day
p1018
aVwatching 50's b-movie from under a pile of puppies
p1019
aV@amyderby  there is also a lot of free time to polish my plot to take over the world...mostly by surfing the net and reading PerezHIlton
p1020
aV@amyderby oops that was an @amyderby
p1021
aVi have school but only tues,wed and fri...the rest of the time is mine...i waste a lot of it on the ol' innernets and watching bad tv shows
p1022
aV@brittneyg now you have crossed a line :)
p1023
aV@amyderby and how be you?
p1024
aV@amyderby good and happy...WTF?  or perhaps FTW?  I am Friday long weekend happy.
p1025
aV@brittneyg the cheese porn must cease immediately : )
p1026
aV@amyderby what did you do to deserve that?  : )
p1027
aVi am all about the crushing and the loving today...guess the meds are working :)
p1028
aVlove this man more every day http://tinyurl.com/68n8e8
p1029
aVjoaquin has far more spare time to woo me
p1030
aVbut he is probably busy these days
p1031
aVi will settle for daniel craig
p1032
aVc'mon innernets you know you want to
p1033
aVi have a serious crush on joaquin phoenix..just so you know who to fix me up with
p1034
aV@TheBloggess omg those blythe dolls totally freak me out!
p1035
aVseriously lacking direction and initiative
p1036
aV@edithfrost bawled like a baby!
p1037
aVi think i o'd on tootsie rolls...ergggghhhhh
p1038
aV@midwestgrrl amen sister, amen!
p1039
aVi am all weepy and hopeful, it feels good.
p1040
aVmccain is making me tear up
p1041
aVi have goosebumps all over and tears in my eyes!
p1042
aV@thatsmybix me too, illinois kicks ass!
p1043
aV@fakejohnmccain "thank god you guys aren't gonna be stuck with me" ??
p1044
aVi am wiped out
p1045
aVokay, time to dial it back on the exclamation points
p1046
aVyesssss!!!! nm for obama!!!
p1047
aVi love ohio!!!!
p1048
aVdelay is the biggest nutjob ever!
p1049
aV@peskymac jinx :)
p1050
aVyuck tom delay
p1051
aVmy bff from high school is an organizer for the Native American vote in NM...she said it looks good for Obama
p1052
aV@peskymac sununu officially lost
p1053
aV@fakejohnmccain olbermann is pretty smug about her getting the boot
p1054
aVjoe biden already won the race in Del
p1055
aV@fakejohnmccain I repeat "i love new hampshire!"
p1056
aVlots of good interviews on MSNBC they have Howard Dean right now
p1057
aV@fakejohnmccain  umm they said you need all of those plus PA honey
p1058
aVwoo hoo they officially call illinois for obama!
p1059
aV@peskymac msnbc is calling PA for Obama
p1060
aVgrew up in NH
p1061
aVi love new hampshire...they are conservative in a lot of ways but cut right through all the bullshit
p1062
aV@jenandtonic_  karl rove who was bush's campaign guru calls for an Obama sweep
p1063
aV@fakejohnmccain you think more so than ohio?
p1064
aV@MelissaSummers maybe just in one state race
p1065
aV@Sarcomical i would so be there but i am on crutches still
p1066
aVthey are interviewing mccain on msnbc he is creepy
p1067
aVmccain and palin are the smirkiest politicians ever...really bothers me
p1068
aVi think of it as the state between me and ohio...never gave it mu ch more thought than that
p1069
aVi guess i never thought of indiana as being so conservative..huh?
p1070
aVhow is that for peripheral to the point? : )
p1071
aVi love rachel maddows hair...i think i might just cut all of my hair off again
p1072
aVof course i live in the reddest part of that blue state :)
p1073
aVglad to live in a blue state, less anxiety
p1074
aVerrrrrr...husband
p1075
aVmy hisband is making me re-watch the SNL program from last night instead of the MSNBC coverage of the election
p1076
aV@schmutzie just think what he can do for the whole US  : )
p1077
aVi am binging on tootsie rolls
p1078
aV@Sarcomical ours were the atm type
p1079
aVwant to go down to Grant Park for the Obama rally but broken heel bone is putting a damper on that idea.
p1080
aVthe obsessing begins
p1081
aVwhoever is responsible for that elmo's restaurant commercial is at the very top of my list today.
p1082
aVDisappointment about this election is that there are still so many local offices in which Rep's are running uncontested - we need to move
p1083
aVHopper stopped drinking the Republican koolaid, there is hope for us all!
p1084
aVHe says it was Palin that tipped the balance for him.
p1085
aVDennis Hopper says he voted for Obama!
p1086
aVi love joy behar!  she could so totally smash hasselbeck in an ultimate fighting match and I would pay to see it.
p1087
aV@Sundry obama is going to bring things better than toys : )
p1088
aVarghhhh! why do i turn on the view?  it just makes me sad that that elizabeth hasselbeck is so damned creepy and clueless.  grinding teeth
p1089
aVtoday is a xanax kinda day
p1090
aV@midwestgrrl i voted early and they had those ATM style units. I was feeling kind of old and suspicious of this newfangled technology :)
p1091
aVgood god save me from all the mickey fricking local political ads Only positive is that Reps seem worried about the Dems in our region
p1092
aVwoke up early.  am hoping that the feeling I have is impending change versus impending doom.  update to follow.
p1093
aVmaybe a bit of election day jitters?
p1094
aVinsomnia and another idea rattling around in my head.
p1095
aV@TheBloggess i take at least .5mg per but sometimes it is much more than that
p1096
aVjimmyh carter talking down a guy on an acid trip
p1097
aVomg they are playing my favorite sketch ever on this snl thing
p1098
aVprofile photo is un-retouched clearly I have no mustache : )
p1099
aV@amyderby p.s i don't have a mustache
p1100
aV@amyderby eyebrow waxing lady always asks if I want upper lip,  when i decline she looks skeptical.  last time i told her i like my mustache
p1101
aVthinking about chucking it all in and following Widespread Panic where I will support myself by selling patchouli deodorant.
p1102
aVhttp://twitpic.com/jthm - work output from today
p1103
aV@sh very cute!
p1104
aVlately i have been having these restless irritable bouts which finally culminate in some cool new design idea.  i just hate the crabbiness
p1105
aVi have already voted so this whole waiting to find out the results of the election is a little tiresome.
p1106
aV@papernapkin i wouldn't vote for anyone who was not pro-choice
p1107
aV@Sarcomical Snapped is my guilty little pleasure.  It keeps my husband on his toes too.He knows I know 1000 ways to not get caught  :)
p1108
aVno, i will  not buy a big honking suv but i would pay for a full length mp3 of cat power singing "space oddity"  give it up already
p1109
aVhttp://twitpic.com/jn8x - VP in charge of napping
p1110
aV"dress you up in my love" by madonna stuck in my head since i woke up.  worried by this move away from classic rock.
p1111
aVgiving serious consideration to setting up facebook accts for my dogs.  funny but it seems like a lot of work for a laugh. laziness prevails
p1112
aVherbert hoover "the only thing wrong with capitalism is capitalists, they're too damned greedy"   i love this quote!
p1113
aV@Sarcomical  amen.  i feel your pain.
p1114
aVi am disproportionately excited about the History channel's president series.  i am a geek like that.
p1115
aVi finally did it, i removed my cast because of a claustrophobic panic It took a hacksaw  and pair of tinsnips. husband says i am crazy
p1116
aVhaving employee reviews with all the pups, i am not especially impressed with their productivity
p1117
aV@amyderby all the meds are a pain in the ass but at least they keep me from being crazy...mostly :)
p1118
aV@amyderby mine is to control manic episodes which it seems to do but no sleep and it costs an arm and a leg even with insurance
p1119
aV@amyderby i take an anti-psychotic at night that is supposed to be strong enough to knock out a horse but i am still awake all night
p1120
aV@amyderby plus the insomnia can kiss my ass
p1121
aV@amyderby way cheaper by a long shot!  I am popping the xanax like tic tacs
p1122
aV@amyderby and she seems so calm and peaceful afterwards....that would be a big plus
p1123
aV@amyderby in the movie "frances" the lobotomy tool looked like a crochet hook.  i could probably find one of those.
p1124
aV@amyderby good suggestion. or you could jam them in your leg so that you have some other thing to think about
p1125
aVor for jamming in your ear to relieve the pain?
p1126
aV@amyderby i am going to sharpen up a box of #2 pencils.  do you use them as weapons?
p1127
aVor maybe a lot creepy?
p1128
aVis it just me or are those e-harmony commercials just a little bit creepy?
p1129
aV@amyderby thank you.  i need all the help i can get. :)
p1130
aVdear universe, a little less suck would be greatly appreciated today.  Thank you!
p1131
aVmoving "beat dog with crutch" to the top of my to-do list
p1132
aVi have also given consideration to making them all business cards
p1133
aVevidence i have too little human interaction:i have given all 5 dogs official titles in my"business organization"company meetings are a hoot
p1134
aVdaniel craig.  may i just say "oh baby"!
p1135
aVI just voted for Obama in #TwitVote -- http://twitvote.twitmarks.com/
p1136
aVthe bright side is i am having a really creative spell so much of what i am making these days is exciting me.just waiting for labels again
p1137
aVthere is shit for tv right now, the tivo is almost empty and I cannot get to sleep...happy halloween
p1138
aVhave "our house" by CSNY stuck in my head...could be worse...it is kind of cheery!
p1139
aV@wendy_mc   so sad :(
p1140
aVhusband  is handing out the candy he is more stingy with it than I am.i throw in a handful for every kid get the temptation out of the house
p1141
aV@april_anita  things like that make me bite my tongue so hard it bleeds...that's what the IPod is for
p1142
aVhave run out of sewing labels and am bummed that it will take 3-5 weeks to get more.   next time I order 1000.
p1143
aVi am going to borrow a child so i can watch sesame street without having to explain myself when caught doing so
p1144
aVpants schmants...getting dressed is highly over-rated
p1145
aVmy son's friends are all "friending" me on facebook.  i look like i am very popular with young boys.
p1146
aVi think i am a grammar snob.  i may need help but it might be too late for me.
p1147
aVi once stopped reading a book that had been recommended to me because it had a grammatical error on pg 32, just could not get past that
p1148
aVdamned insomnia!
p1149
aV@Sarcomical  I am ready to move to a cabin in the woods about every other week.  must have DSL and cable but i could do quite nicely i think
p1150
aV@jenfoo i read you on elastic waist (big fan) and I miss your wardrobe remix pics.  i know you don't already have enough to do but i miss it
p1151
aV@missbanshee  gary busey is delusionally batshit crazy.  it is hard to watch him.
p1152
aVhave not bought halloween candy yet, am considering being the house that hands out boxes of raisins
p1153
aVi think i have discovered that the thing that is making me crazy is my own brain.  lobotomy time!
p1154
aVi can look at any photo i take and point out some miniscule flaw in composition that no one else would notice.  then teacher gives me an "a"
p1155
aVi am wayyyyyyyy too critical of myself and my work and my talent.  this needs to end now!
p1156
aVthe negative just takes up too damned much energy,
p1157
aVi have such hope for a change and i want things to be good.  i am focusing all of my energy on this and redirecting the blue meanies!
p1158
aVplus chinese for dinner...potstickers are yummy!
p1159
aValso lots of Obama signs in town and this makes me inordinately happy.
p1160
aVblack dog barking loud and persistently
p1161
aVi'll take what i can get today
p1162
aVlarge order of new felt in the mail.   i love the mail.  new fabric makes me happy.  i'll ta
p1163
aVrepublicans have dropped off the obligatory "vote to keep them commie democrats out of dupage county" literature
p1164
aVundertook the complex gymnastics involved in bathing with a cast on and trimmed my bangs in the afterglow of accomplishment
p1165
aVhello seasonal affective disorder, right on schedule as usual
p1166
aVlong talk with son about girls and love and education. has inherited my love of poetry and i am so happy to have interests to share with him
p1167
aVquestioning my relationship with tivo
p1168
aVtoday may be the day I fibally lose it and remove the damned cast all by myself! suggestions?
p1169
aV@schmutzie stabby is the least disastrous outcome you could hope for.   run and get that book fast!
p1170
aV@schmutzie  two awful things: Dr. Phil and Focus on the Family.   Good LOrd!
p1171
aVwanting a pony to snuggle up with. would take up less blanket room than 4 puppies.
p1172
aVtoday, most of all, i miss taking a bath without one leg hanging over the edge of the tub. although it does count as yoga if you do it right
p1173
aVi wish i had an extra $500 laying around because with these I could rule the world http://tinyurl.com/5oncaj
p1174
aVdear bangs, it's not you, it's me
p1175
aVslumping slowly into prone position with laptop perched on stomach...i am pathetic
p1176
aVcaught up in awkward triangle with son's ex girlfriend who i love and the new girlfriend i have not met but am sure is lovely
p1177
aVevil thoughts about killing puppies
p1178
aVpuppies will not let me have any room on the couch
p1179
aVfoot throbbing but there was success on the photo project....good thing i paid $30 for the measuring spoons..they were a hit
p1180
aV@gwenbell check out local photo programs at colleges...you will still have to pay but it will be less
p1181
aVensconced on couch pretending i am wasting away with some 18th century style disease  do people still get consumption? bring on the laudanum
p1182
aVdo not want to leave the house today.  fighting internal battle with my conscience over obligation to do so.
p1183
aVthermometer outside says 32 degrees.  i am skeptical.  feels more like 20.   brrrrrrrrrrr.
p1184
aVwaiting for the kids to come out and tell me to get off the lawn
p1185
aVi just got lost in facebook and i don't think i belong there
p1186
aVunder a blanket, covered in puppies and i am still mickey fricking cold as hell
p1187
aVhuddling under work lamp for the heat.  i am part lizard.
p1188
aVi have chain of fools by aretha franklin stuck in my head...if you have to have something stuck this is not too bad
p1189
aVwatching the corpse bride and loving it.  how did i miss this in the theater?
p1190
aVtoday is a perfect inside movies and hot tea kind of day
p1191
aVwindy and windier...glad i am inside and not out
p1192
aVit will be followed with hellboy 'cause i am getting my geek on
p1193
aVwatching v is for vendetta for the eleventy billionth time...nothing on live tv and nothing on tivo...boo!
p1194
aVok the call out for Obama gives him a pass on the punch in the face
p1195
aVwant to punch tv
p1196
aVf;ing coldplay 3 times and they play that damned yellow song...i am feeling violent
p1197
aV@missbanshee  he is awful and the music sucks
p1198
aVcoldplay on SNL...could this get any worse?
p1199
aVthat cat power cover of space oddity in the car commercial keeps fooling me into thinking it is for something cool
p1200
aVmunching on cinnamon toast (thanks @sarcomical) and watching mega disasters
p1201
aVfrench toast and bacon for dinner. yum!
p1202
aVam confused and directionless.  cannot decide what to work on first.  strong urge to watch tv and do nothing.
p1203
aVphotoshop is my friend.  no, really, i love it
p1204
aV@jenandtonic_that was my exact reaction :)
p1205
aVi do not often have celebrity crushes but Daniel Craig just makes me think naughty thoughts - new Bond commercial makes me swoon
p1206
aV@april_anita awww... so sweet!
p1207
aVwent for it...it would drive me crazy knowing the perfect ones were out there and not in my picture...ocd much?
p1208
aVis it wrong to spend $30 on a set of measuring spoons simply because they are the perfect ones for a school photo project?
p1209
aVwent and did the early voting today...go me!
p1210
aVi have "sheena is a punkrocker" stuck in my head and i cannot get rid of it
p1211
aV@sweetney i have it on the tivo and have watched it at least 5 times  still the best thing ever
p1212
aVgoing to vote today...love the early voting option
p1213
aVit is wayyyyyy too cold for mid October...commence the whining
p1214
aVClinton on Letterman makes me nostalgic for intelligent leadership
p1215
aVmust needs have a cupcake please?
p1216
aVfunny today at court.  judge asks if any witnesses are present and clerk informs him that the injured party was a tree.  he couldn't make it
p1217
aVis Palin qualified to critique Obama's foreign policy proposals?
p1218
aVwould it be wrong to give the dog a little xanax? :)
p1219
aVoh very crazy dog please stop barking at nothing...my head hurts
p1220
aV@april_anita how very accomodating of them
p1221
aVnote to self: eyebrows beginning to look like centipedes are loose on forehead, make appointment with eyebrow lady stat
p1222
aVdogs are far too quiet, I am beginning to worry they are plotting a coup
p1223
aVeven more new stuff - I have been a busy girl http://tinyurl.com/5vhj58
p1224
aVIf I am ever fatally ill I want Antonio Banderas to take care of me
p1225
aVwatching Philadelphia and editing photos...not a happy times movie but it is lessening the pain of editing
p1226
aVphotoshop and tivo...my life revolves around machines,,,thinking about running away to live with the Amish if they would have me
p1227
aV@Sarcomical I live in DuPage County by Wheaton in a hotbed of political and religious intolerance - lots of Obama signs - gives me hope
p1228
aVassembling tools for do it yourself cast removal.  so far I have a spork, a bottle opener and a steak knife.  google is not a helpful source
p1229
aVwould be very happy if I never had to see a political ad again.  especially local ones.  grrrrr.
p1230
aVSunday watching TCM.  If I start to fill my house with silk floral arrangements, I am officially my mother.
p1231
aV@Sarcomical my dad was a die hard republican.   we finally had to agree not to discuss politics.
p1232
aVi miss driving (broken right foot of course) today would an ideal day for a couple of laps around the Arboretum to check out the Fall color
p1233
aVugh....150 pictures to edit.  photoshopping my fingers to the bone =)
p1234
aVdogs have shredded 497th pair of underpants.   when will I learn?
p1235
aVtivo, sweet tivo, we have a date
p1236
aVsewing and sulking
p1237
aV3 more weeks in a cast... i may have to kill someone...doctor is at the top of my list
p1238
aVcurled up on the couch, covered in puppies and watching an old movie on TCM.   trying to ignore the gloomy cast of this afternoon.
p1239
aVvery long intense afternoon in the photo studio.  I am wiped!
p1240
aVthe beginning of Fall always makes me blue. I am already missing the hot Summer days.
p1241
aVi want to wear 2 shoes again.  my hopes and dreams are small these days.
p1242
aVspam twitters...does anyone fall for this?
p1243
aVfoot up, drugs taken....time for bad tv (and maybe some sewing)
p1244
aVtime to put on pants and leave the house.
p1245
aVand today will be doggy armistice day.  thank jeebus!
p1246
aVpatrick swayze's brother does not get enough credit
p1247
aVup and at 'em?
p1248
aVbroken foot is getting old fast
p1249
aVout of diet pepsi...state of emergency declared!
p1250
aVdamn
p1251
a.