(lp0
VRT @Lawrence: Do you remember where you were on this night 10yrs ago? I was somewhere in that crowd. https://t.co/ONkqKhH8aG
p1
aVRT @ChrisCuomo: Both sides can improve but POTUS is a stand-out as a divider and a truth abuser. This is a fact. And he has never been more\u2026
p2
aVRT @Scholten4Iowa: .@SteveKingIA, you've had a lot to say about me lately, and seem to have some misconceptions about my campaign. How abou\u2026
p3
aVRT @TroyKinsey: .@AndrewGillum tells a West Palm Beach crowd one victim of yesterday\u2019s #tallahasseeshooting sustained six gunshot wounds. \u201c\u2026
p4
aVWell this should end well. \u000aWords matter, \u201c@POTUS\u201d\u000a#NovemberIsHere\u000a#VoteBlueToSaveAmerica \u000a#ChecksAndBalances\u000a#GOTV\u2026 https://t.co/mTvnKtmxvL
p5
aV@tedcruz your latest attempt to smear Beto is shameful. Shining example of why you have no place in the US Senate.\u2026 https://t.co/zhuYM5zPGO
p6
aVRT @waltshaub: Just saw a shocking Corey Stewart campaign ad. It was like a 1930s nazi propaganda reel, and he\u2019s with a major party. The co\u2026
p7
aVRT @EdKrassen: Georgia's GOP Gubernatorial Candidate Brian Kemp just opened an investigation into his opposition for "attempting to hack th\u2026
p8
aVRT @JoeBiden: You don\u2019t need to be a Vice President or a podcast star to to make a difference in this election. \u000a\u000aVolunteer now, knock on s\u2026
p9
aVRT @PodSaveAmerica: We went to go knock some doors with @JoeBiden. He taught us a lot. \u000a\u000aThis weekend is your last chance to get out the vo\u2026
p10
aVRT @krassenstein: Ted Cruz is attacking @BetoORourke for donating a small portion of contributions he received to a charity to help mothers\u2026
p11
aVRT @fred_guttenberg: For anyone needing a reminder on what is at stake.  Vote for @AndrewGillum.\u000a#BringItHome\u000a\u000ahttps://t.co/ASA34oEctR
p12
aVRT @DanRather: The only poll that matters is the vote total. So please vote and get others to vote. It\u2019s your way of telling the world, \u201cI\u2026
p13
aVRT @PreetBharara: Three days. Checks and balances.
p14
aVRT @EdKrassen: Please support these Democrats Running for Senate!\u000a\u000a@SenBillNelson - FL\u000a@RosenforNevada - NV\u000a@SenatorBaldwin - WI\u000a@clairecmc\u2026
p15
aVRT @PreetBharara: I can\u2019t remember the last time I laughed as hard as tonight at @birbigs new show on Broadway. Do yourself a favor and see\u2026
p16
aVRT @maggieNYT: His line during the campaign was, \u201cBelieve me, folks.\u201d And he has spent four years conditioning them to only believe him and\u2026
p17
aVRT @fred_guttenberg: Trump, at Florida rally, says Democrats would ruin the state - his second home.  My daughter died in what the Republic\u2026
p18
aVRT @AndrewGillum: Let me be perfectly clear: if we vote, we win.
p19
aVRT @dvanhowe: @SteveKingIA Was it for Iowa reasons that you saw fit to endorse a white supremacist candidate for mayor in Toronto, Canada?\u2026
p20
aVRT @EdKrassen: I want to take a moment to thank the U.S. Court System for overturning Brian Kemp's attempt at voter suppression.  \u000a\u000aThanks\u2026
p21
aVRT @JoeNBC: Thank you, President Obama.  \u000aI didn\u2019t know the Obama recovery was so strong until Trump talked up his 21 month jobs record. \u000aA\u2026
p22
aVRT @KamalaHarris: Today marks 100 days since this Administration missed the court-ordered deadline to reunify separated families. There are\u2026
p23
aVRT @JohnWDean: Trump wants everyone to forget about the Khashoggi murder because of his business/financial ties with Saudi Arabia. It is a\u2026
p24
aVRT @brhodes: How many front page stories on climate change? What matters more to the future of our country - climate change or some caravan\u2026
p25
aVRT @JoshuaWelle: Best team ever. #VoteNov6 #Win https://t.co/5aSLL7Ua4m
p26
aVRT @peterbakernyt: Jobs created during the first 21 months of Trump\u2019s presidency and the final 21 months of Obama\u2019s presidency:\u000a\u000aTrump: 4,0\u2026
p27
aVRT @PreetBharara: Four days
p28
aVRT @BernieSanders: I urge you all to never underestimate the value of your voice, the power of your vote, and the potential that comes from\u2026
p29
aVRT @ACLU: BREAKING: The 11th Circuit just denied Brian Kemp\u2019s request to block our court order requiring him to give voters due process bef\u2026
p30
aVRT @KamalaHarris: Only 4 days to go until Election Day. Have you checked these off your to-do list yet?\u000a\u000a\u2192 Looked up your polling place\u000a\u2192 C\u2026
p31
aVRT @RepAdamSchiff: This is what happens when you abdicate leadership of the free world. Not to mention basic decency. https://t.co/r4fKI9Gi\u2026
p32
aVRT @karentravers: Reminder that earlier this week, Sarah Sanders said "The president is not placing blame."\u000a\u000aToday he points a finger at me\u2026
p33
aVRT @jimsciutto: New: Supreme Court rejected government\u2019s request to stop a lawsuit brought by youths who are seeking to hold the government\u2026
p34
aVRT @jimsciutto: New: Pentagon rejected a Homeland Security request that active duty US military troops perform emergency law enforcement fu\u2026
p35
aVRT @joanwalsh: Wow, I know it's not much but on @CNN @SenJeffFlake essentially just endorsed @Scholten4Iowa, saying Steve King is bad for c\u2026
p36
aVRT @SenGillibrand: To elect the candidates who will stand up for us in office, we must stand with them at the ballot box. #TodayWeAct by ma\u2026
p37
aVRT @jdawsey1: Trump supporters, aides dismiss Michael Cohen &amp; Omarosa as dishonorable characters. So why did they hold senior positions in\u2026
p38
aVRT @ChrisCuomo: Here is the real challenge: do trumpers care that it isn\u2019t true? https://t.co/vdPNI9k4EC
p39
aVRT @keithboykin: President Obama:\u000a\u000aIn 2010, Republicans said death panels would get you.\u000a\u000aIn 2014, they said it was Ebola.\u000a\u000aIn 2016, they s\u2026
p40
aVRT @politico: Nigerian army uses Trump rhetoric to justify shooting at rock-throwing activists https://t.co/zzRAGF9cmS
p41
aVRT @rebeccaballhaus: The Nigerian Army used Trump's speech\u2014in which he said rocks would be considered firearms if thrown toward the U.S. mi\u2026
p42
aVRT @AndrewGillum: Still fired up! We\u2019re ready to #BringItHome. https://t.co/LXdpq1Twze
p43
aVRT @ABC: Barack Obama: "They're telling you the existential threat to America is a bunch of poor refugees 1,000 miles away."\u000a\u000a"They're even\u2026
p44
aVRT @RepAdamSchiff: Sending troops to the border as a political stunt. Promising to amend the constitution by executive order. Stoking bigot\u2026
p45
aVRT @ClydeHaberman: Speaks for itself. https://t.co/RaRxFTh9jE
p46
aVRT @tedlieu: Why does it take the court to force Republicans to do the right thing? America would be better if the #GOP did the right thing\u2026
p47
aVRT @GlennThrush: With all due... Is it "both sides" over-hyping it when the president says he is using it to stop an invasion and gave the\u2026
p48
aVRT @alanhe: Bob Corker defending the fleeing migrants: "They're being tortured....I have a feeling that if you were living in one of these\u2026
p49
aVRT @EdKrassen: I can\u2019t believe @tedcruz would stoop so low to imply that @BetoORourke is funding the migrant caravan.\u000a\u000aIf anyone in their r\u2026
p50
aVRT @jonlovett: Always a pundit. Always an observer. Never a leader. https://t.co/9IjtDlSoEO
p51
aVRT @SenSchumer: Latest jobs numbers may look good but don't forget they coexist with a huge deficit-ballooning GOP tax break mainly for cor\u2026
p52
aVThat\u2019s the POTUS right there. 83 in one day. This administration is living in an alternate reality. https://t.co/zFTM0Egkiq
p53
aVRT @JTiloveTX: .@BetoORourke in Lewisville. \u201cLet\u2019s not be scared of one another.\u201d https://t.co/eVrZTa9XaM
p54
aVRT @PreetBharara: Five days. Vote.
p55
aVRT @BarackObama: While we're talking about preexisting conditions, the ACA is the law that finally protected your coverage for preexisting\u2026
p56
aVJust check out the votes cast by GOP Congressman who insist they will protect people with #PreExistingConditions \u000aH\u2026 https://t.co/PPcCMxIgTt
p57
aVIt\u2019s pretty crazy that this dude got, and still has a job in the people\u2019s house. https://t.co/AvcLEWfxvl
p58
aVRT @JohnBrennan: As a former resident of Texas and a proud UT-Austin alumnus, I believe Beto O\u2019Rourke is the type of individual Texans need\u2026
p59
aV@Scholten4Iowa Forget the curveball JD, throw em the heater. \u000a\u000aWhat Steve King needs, is a rain delay. \u000aBut there a\u2026 https://t.co/sONIYe0XbJ
p60
aVRT @Comey: VOTE in 4 days: \u201cBad officials are elected by good citizens who do not vote.\u201d George Jean Nathan
p61
aVRT @jaketapper: Stephen Miller's uncle: Central American asylum seekers are 'just like our family' @CNN https://t.co/cHBhsVMu0h
p62
aVRT @CillizzaCNN: There's a key distinction to be made when talking about Trump's immigration strategy:\u000a\u000aPolitically speaking, it might work\u2026
p63
aVRT @EdKrassen: A Kansas Judge just ruled against opening a polling place for the largely Hispanic town, Dodge City.\u000a\u000aIf you live in the vic\u2026
p64
aVRT @davidaxelrod: .@realDonaldTrump has become so overheated and frantic in these closing days that he may begin hurting the candidates he\u2019\u2026
p65
aVDonald Trump. Keeping fact checkers employed at a blinding rate of speed.
p66
aVIn one week this dude has said he can change the constitution and throw out the rules of engagement. Oh and next we\u2026 https://t.co/Pp6KhCB94k
p67
aVYou don\u2019t have to listen to anything @SenateGOP &amp; @HouseGOP have to say about healthcare. Just look at their voting\u2026 https://t.co/VzCuHD9bnV
p68
aV#ImQuestioningThat https://t.co/VOTNhhsWZp
p69
aVRT @SenSchumer: We're in an addiction and mental health crisis.\u000a \u000aSo why is @APAPsychiatric saying:\u000a \u000aPresident Trump's health care agenda\u2026
p70
aVRT @EdKrassen: So Trump now implies that the Military might fire at asylum seekers if they throw rocks at them.\u000a\u000aAre Republicans really OK\u2026
p71
aVThe \u201cpresident\u201d is holding a press conference from the peoples house and is bold faced lying to the American people\u2026 https://t.co/GAbIHzwVzm
p72
aVRT @NancyPelosi: For too long, Republicans have fought to stifle the marketplace of ideas. Democrats are ready to put an end to that and ge\u2026
p73
aVRT @davidaxelrod: Wonder how much it will cost taxpayers to stage 5K or more troops at the border, to face down a made-for-tv \u201ccrisis.\u201d\u000aWe\u2026
p74
aV\u201cThe Federalist..Breitbart if it went to Dartmouth.\u201dDude, @jonlovett I almost died laughing omw to work. That one g\u2026 https://t.co/wJd7k5xli9
p75
aVTed Cruz is the worst. We all knew it already. This just reaffirms it all. #VoteBeto #Vote2018 #LetsGoBeto https://t.co/mUiAIL1y85
p76
aV@Acosta It should be FLABBERGASTING to hear fellow Americans believe and repeat this nonsense, but after two years\u2026 https://t.co/yhL3aUcyJZ
p77
aVRT @AprilDRyan: So in January 2018 everyone was in an uproar on my question to @realDonaldTrump, \u201cMr. President are you are racist?\u201d  So mo\u2026
p78
aV@CNNPolitics \U0001f923\U0001f923\U0001f923\U0001f923\U0001f923\U0001f923\U0001f44d\U0001f44c
p79
aVWell, there goes the \u2018Mattis is an adult in the room\u201d argument. What a joke.  This country deserves a Congress that\u2026 https://t.co/cXDy5p1t40
p80
aVRT @TVietor08: Trump made a campaign video out of a crime scene. There is no bottom for these people. https://t.co/d7c92aX92t
p81
aVRT @BetoORourke: CBS-19: "Beto O'Rourke is now within striking distance of Senator Ted Cruz." https://t.co/k3swtCZtME
p82
aVRT @TVietor08: Guys @BetoORourke can win this fucking thing. The race is tightening. Tell every human being you've ever met in Texas to VOT\u2026
p83
aVRT @SenSchumer: Reminder: Here\u2019s what Republicans told us they want to cut to pay for their tax cuts for corporations and the wealthiest fe\u2026
p84
aV#Vote #VoteSaveAmerica https://t.co/0o2j4FOTeP
p85
aVRT @brhodes: Trying to imagine what Fox / GOP / paranoid right wing would be saying if Obama deployed 15K armed troops within the US...
p86
aVRT @SenBlumenthal: On #Halloween, Trump &amp; Republicans continue to try &amp; trick Americans w/false claims\u2014but no costume can disguise their re\u2026
p87
aVRT @splcenter: The birthright citizenship clause expresses a fundamental principle of our democracy \u2013 that there are no second-class citize\u2026
p88
aVRT @BernieSanders: In campaigns and in life in general you're going to have to do things that make you uncomfortable. But that's okay becau\u2026
p89
aVRT @oliverdarcy: "Nothing that Smith says during his Fox News program \u2014 no matter how sick his burns on Trump might be \u2014 neutralizes the im\u2026
p90
aVRT @KamalaHarris: When a candidate for governor \u2014 who also happens to be responsible for overseeing Georgia\u2019s elections \u2014 is trying to purg\u2026
p91
aVToday the \u201cpresident\u201d said he can just straight up change the constitution. By himself. w the stroke of a pen(and w\u2026 https://t.co/pdE1ULo3SD
p92
aVRT @RepAdamSchiff: Literally nobody believes this. You held a rally at the White House to celebrate the passage of a bill taking away prote\u2026
p93
aVRT @jdawsey1: \u201cPushing every button\u201d: Trump mobilizes the government to boost Republicans in campaign\u2019s final days, by @AshleyRParker @Phil\u2026
p94
aVRT @jdawsey1: "In the past couple of weeks alone, the president has spoken of riots that have not happened, claimed deals that have not bee\u2026
p95
aVRT @jimsciutto: Keep in mind: If President Trump orders 15,000 US troops to the border, there will be three times as many forces responding\u2026
p96
aVRight now,the trump admin is declining to defend the ACA\u2019s mandate to protect pre-existing conditions in a court ca\u2026 https://t.co/wM5pTg3MaU
p97
aV2/2 Everyone in this room is now dumber for having listened to it. I award you no points, and may God have mercy on\u2026 https://t.co/MennbeChh0
p98
aV1/2 Mr. \u201cPresident,\u201d what you've just said is one of the most insanely idiotic things I have ever heard. At no poin\u2026 https://t.co/ELrCZpmgdA
p99
aVRT @SenFeinstein: New science shows the oceans are warming more than we thought. We may have to cut emissions 25% faster to avoid a disastr\u2026
p100
aVRT @SenSchumer: 2 out of 3 seniors in nursing homes are paid for by Medicaid, but President Trump\u2019s agenda would gut Medicaid by $1 trillio\u2026
p101
aVRT @Comey: VOTE in 6 days: \u201cToo many people fought too hard to make sure all citizens of all colors, races, ethnicities, genders, and abili\u2026
p102
aVRT @GovMurphy: The scary truth about working full-time on the current minimum wage in New Jersey:\u000a\u000a$8.60/hour = $344/week = $17,888/year\u000a\u000aI\u2026
p103
aVRT @SenSchumer: Republican junk plans won\u2019t cover maternity care. That\u2019s why groups that protect women and people with pre-existing conditi\u2026
p104
aVThanks, Mr. President! #VoteSaveAmerica https://t.co/ru2Kw0cnPq
p105
aVLiterally. No. One. #VoteBlue #VoteEarly #VoteSaveAmerica https://t.co/hIKwlU3KFU
p106
aVRT @CillizzaCNN: Donald Trump, victim\u000a\u000ahttps://t.co/RmaClLErdv
p107
aVRT @SenSchumer: President Trump\u2019s health care agenda would gut Medicaid by $1 trillion. \u000a\u000aMillions of Americans would lose coverage\u000a\u000aMillio\u2026
p108
aVRT @EdKrassen: BREAKING: I can confirm that the FBI has begun interviewing potential witnesses in the apparent Robert Mueller sexual assaul\u2026
p109
aVRT @Acosta: Senior GOP aide on Trump tweet attacking Ryan: "This is a great way to screw up the message a week before the election. First t\u2026
p110
aVRT @EdKrassen: We must stop attacking each other for political affiliation.\u000a\u000aPolitics are like religion and while we don't need to agree, w\u2026
p111
aVRT @MadelinePBerg: We tried to talk to the 21st Century Fox boardmembers about what they think of the recent conspiracy theories appearing\u2026
p112
aVRT @smrtgrls: \u201cIt\u2019s [Medicaid expansion] the number one investment we can make. Health care for your body, your mind, and your wallet.\u201d - #\u2026
p113
aVAppalling. Disgraceful. Always playing victim. There are no limits to this guys ego. https://t.co/c2d0tMuI1Z
p114
aV#VoteEmOut #VoteBlue #Vote2018 #Elections2018 #VoteSaveAmerica https://t.co/r4cB9lfl3p
p115
aVRT @jaketapper: Reid issues statement following POTUS noting his past support for ending birthright citizenship: https://t.co/FOujLneHak
p116
aVRT @jimsciutto: Breaking: Judge Denies Kemp's Request on Absentee ballots, ruling \u201cabsentee voters who are unable to vote in person and who\u2026
p117
aV@MaxBoot said it best: the only thing we can do is #Vote2018 #VoteForOurLives #VoteSaveAmerica #ChecksAndBalances https://t.co/sV7PdqFJ5d
p118
aVInteresting. Great reporting. https://t.co/SsXMXtYH4J
p119
aVRT @browardpolitics: #StonemanDouglas dad @fred_guttenberg has praised Republican Congressman @BrianMastFL for breaking with his party and\u2026
p120
aV#GoBlue #AnnArbor #CFBPlayoff https://t.co/UhBaVAS9RX
p121
aV@EdKrassen @JacobAWohl @Jack_Burkman Get em, Ed!
p122
aVRT @ananavarro: Dear @ScottforFlorida, please provide an answer so voters can make an informed decision.\u000a\u000aSigned,\u000a\u000aA Florida Voter https://\u2026
p123
aVRT @KevinMKruse: Second, here's a thread by @skantrow, an actual historian who's expert on this era, who *did* look into the full debate --\u2026
p124
aVYour administration is the living embodiment of disgraceful. https://t.co/n2lDllZh7e
p125
aVThis man has no shame. https://t.co/iiHzzASymB
p126
aVDude, come on man. Do everything you can to win. Not ANYTHING you can to win. Winning at the cost of decency is not\u2026 https://t.co/PkIUrfTaq4
p127
aV@TeamPelosi You were awesome on @colbertlateshow last night. Thoroughly enjoyed.looking forward to seeing  u as spe\u2026 https://t.co/5wnGEMhXBG
p128
aVRT @TeamPelosi: I was Speaker when we passed the Affordable Care Act. I have watched as Republicans railed against it and voted over 65 tim\u2026
p129
aVRT @letamericavote: BREAKING: A federal judge refused Brian Kemp\u2019s request to stay an injunction, meaning Georgia cannot reject absentee ba\u2026
p130
aVRT @SenSchumer: President Trump &amp; GOP pushed a health care agenda that would let insurance companies charge older Americans 5X MORE than yo\u2026
p131
aVRT @TVietor08: In just five days, @PodSaveAmerica listeners have raised $971,407 for 20 House candidates chosen by the team at @CivisAnalyt\u2026
p132
aVRT @MrFilmkritik: Ivana Trump wasn't a US citizen until 1988. She gave birth to Don Jr in 1977, Ivanka in 1981, and Eric in 1984.\u000a\u000aLet's ca\u2026
p133
aVRT @PreetBharara: Is @DanaRohrabacher going to be defeated? Please.
p134
aVRT @vingopal: As a supporter of NJ\u2019s #SmallBusinesses I introduced a bill amending current law governing breweries. From the @APBrewery to\u2026
p135
aVWhy!? why?! These are not invaders.We all kno it.He\u2019s even found a way to politicize our military. Now peaceful asy\u2026 https://t.co/ID3U2pol02
p136
aVRT @DWStweets: The epidemic of gun violence is a public health crisis. It's time to start listening to public health experts about how to s\u2026
p137
aVRT @EdKrassen: Yes, it\u2019s true:  It was me who reported Jacob Wohl and Jack Burkman to Robert Mueller\u2019s office 10 days ago, and today they c\u2026
p138
aVRT @Lawrence: Why aren't Democrats running on what Trump &amp; Republicans have done to the debt? Why? https://t.co/N0IiAsrOZY
p139
aVRT @CillizzaCNN: "You cannot end birthright citizenship with an executive order." -- Paul Ryan, today
p140
aVParty of law and order? #crookedGOP #VoteBlue #VoteSaveAmerica https://t.co/QS7lsh9opE
p141
aVWell said. #VoteSaveAmerica #VoteBlue #truthwillprevail #NovemberIsComing #November6th https://t.co/tQn2ZYC0hz
p142
aVRT @DaveLapanDC: Over 30+ years as a U.S. Marine, I defended our country against its true enemies. In 20+ years as a USMC, Pentagon and DHS\u2026
p143
aVRT @CoryBooker: We have exactly one week until the most important midterm election of our lifetime. Please make your plan to vote right now\u2026
p144
aVRT @Acosta: The founders set up the constitution so the president can\u2019t do what he\u2019s proposing to do with birthright citizenship. It\u2019s a st\u2026
p145
aVRT @AndrewGillum: I heard @realDonaldTrump ran home to @FoxNews to lie about me. But as my grandmother told me \u2014 never wrestle with a pig.\u2026
p146
aVRT @TVietor08: Trump wants a debate about ending birthright citizenship more than actually doing it. Democrats should say, ok see you in co\u2026
p147
aVRT @BernieSanders: It\u2019s an international embarrassment that the United States of America is the only -- only -- major country on earth that\u2026
p148
aVRT @JuddLegum: BREAKING: A civil RICO suit has been brought against The Trump Organization, Donald Trump, Donald Trump Jr., Eric Trump and\u2026
p149
aVRT @BernieSanders: It should be repeated every hour of every day until Election Day that Donald Trump and the Republican leadership in Cong\u2026
p150
aVRT @ProudResister: Sarah Sanders just said Trump was elected by an \u201coverwhelming majority.\u201d She\u2019s lying:\u000a\u000a46.9% Didn\u2019t Vote\u000a25.6% Voted Hil\u2026
p151
aVRT @GovMurphy: We cannot let @realDonaldTrump and the NRA tell us that more guns are the answer.\u000a \u000aWe cannot wait for Congress to finally p\u2026
p152
aVRT @CoryBooker: In under a week, we saw the murders of two African Americans in Kentucky, the anti-Semitic mass shooting in a Pittsburgh sy\u2026
p153
aVRT @MikeGrunwald: The Dow went up about 50% over Obama's first two years. It's up about 25% so far under Trump. I wonder how many Americans\u2026
p154
aVRT @TheDLCC: Republicans might try to stop you from voting. Don\u2019t let them. Hear from Democratic election lawyer @marceelias on the latest\u2026
p155
aVRT @danpfeiffer: It\u2019s because they are lying https://t.co/KWOT3yRL5S
p156
aVRT @AndrewGillum: On Twitter there is a choice between having the courage to @ the person you are trash talking, or not. @realDonaldTrump i\u2026
p157
aV@realDonaldTrump For Shame \u201cMr. President\u201d #VoteBlueToSaveAmerica
p158
aV@realDonaldTrump This is not an invasion. You are a joke. We all see right through your nonsense and I cannot wait\u2026 https://t.co/LCPzuZOOJQ
p159
aVThis is not OK either. Hopefully no one hurt. More guns in the news. Common sense gun legislation should not be a p\u2026 https://t.co/txc566mv1j
p160
aVRT @BillKristol: The United States of America has a Fox News problem. https://t.co/BkQoZRi7cc
p161
aVThanks Fox n Friends. You guys STAY CLASSY over there.  #ActualFakeNewsRightHere #VoteSaveAmerica https://t.co/BT5fcM2PFV
p162
aVRT @EdKrassen: BREAKING:  The U.S. Supreme Court just voted down a Republican attempt to reinstate their old congressional district map tha\u2026
p163
aVRT @CillizzaCNN: Past presidents and presidential candidates have seen the polarization of the country as a problem they had to address.\u000a\u000aT\u2026
p164
aVRT @jonfavs: The President attacks an American who was the target of a mail bombing last week as a \u201ccrazed lunatic.\u201d\u000a\u000aDoes any Republican w\u2026
p165
aV#truthfact https://t.co/vqc959ItFA
p166
aVWhat she said. https://t.co/zSqTwIHJDs
p167
aVRT @davidaxelrod: Timeless lessons painfully relearned this past week:\u000aWhen you incite, exploit and sanction hate, hate flourishes.\u000aWhen yo\u2026
p168
aVRT @fred_guttenberg: YES!! Thank you Mayor Peduto.  The question is how do we keep guns from ending up in the hands of people who intend to\u2026
p169
aVRT @jonfavs: Republican leaders could reach out to Democrats and say \u201clet\u2019s all come together and turn the temperature down.\u201d But their goa\u2026
p170
aVRT @MoveOn: #ShowMeTheVote FACT: @RepRohrabacher voted to take away health care from people with pre-existing conditions, like M.S. #CA48 #\u2026
p171
aVTexas turnout for BETO! Future leader of the Democratic Party. We need guys like him in the Senate. And seeing Tes\u2026 https://t.co/QCJ9f7byIJ
p172
aVJust a reminder about our \u201cpresident\u2019s\u201d top priority.             And also if you\u2019re looking to get educated on ALL\u2026 https://t.co/bSbHffhVeh
p173
aVRT @EdKrassen: DHS Secretary Nielsen literally said, "We do not have any intention right now to shoot at people" at the Southern Border.\u000a\u000aW\u2026
p174
aVRT @JenAshleyWright: Being in the U.S. right now is like watching a train go off a cliff, except half the people on the train are screaming\u2026
p175
aVEvery. Single. One. #NovemberIsComing #VoteBlueToSaveAmerica #VoteSaveAmerica https://t.co/pnlpq4RPPP
p176
aVI wonder how folks at the NRA sleep at night? @SenateGOP, maybe you can shed some light, you\u2019ve been in bed with th\u2026 https://t.co/r1WZolNrlk
p177
aVRT @BillClinton: I mourn those murdered at the Tree of Life Synagogue and pray for the wounded. We must all send an unequivocal message tha\u2026
p178
aV@AndrewGillum Let\u2019s Go Mayor Gillum. Home stretch. Bury this guy. He represents everything that is wrong with our p\u2026 https://t.co/5NkZFqVtJM
p179
aVRT @BernieSanders: If we can afford to give $1 trillion tax breaks to the richest and most powerful people in this country, you damn well b\u2026
p180
aVRT @SenGillibrand: Mitch McConnell\u2019s plan if Republicans maintain their majority in Congress:\u000a\u000aCut access to health care\u000aCut Medicare\u000aCut M\u2026
p181
aVRT @BarackObama: We grieve for the Americans murdered in Pittsburgh. All of us have to fight the rise of anti-Semitism and hateful rhetoric\u2026
p182
aVRT @ChrisMurphyCT: Trump wants gunmen armed w semi-automatic rifles in every single public place - every school, church, synagogue, shoppin\u2026
p183
aVRT @TVietor08: The President thinks that the solution to preventing gun violence is to have armed guards at a bris. A fucking bris.
p184
aVThoughts and prayers failed us yet again. Common sense gun legislation is not too much to ask for. It is long overd\u2026 https://t.co/uW15JpZvzg
p185
aVRT @fred_guttenberg: Schools, Temples, Churches, hotels, night clubs, parks, streets. The NRA and politicians who take their money are resp\u2026
p186
aVRT @fred_guttenberg: To every politician who I have supported since Jaime's murder, I am asking you to SPEAK now.  We cannot wait and I wil\u2026
p187
aVRT @fred_guttenberg: With the latest mass shooting happening as I type this, I am emotional and angry.  This is preventable.  To every cand\u2026
p188
aVRT @jdawsey1: Spot on https://t.co/L11TDiPGXG
p189
aVReporting the words that come out of his mouth, as POUTS, isn\u2019t unfair, it\u2019s journalism. It\u2019s democracy. https://t.co/0ToRPwBpaF
p190
aVRT @JoeNBC: My Latest\u2014&gt; \u201cTrump\u2019s party is betting its majority on the cynical belief that voters will throw away their families\u2019 health-car\u2026
p191
aVRT @BernieSanders: We have the most important midterm election in the modern history of the United States coming up in 11 days. We must do\u2026
p192
aVRT @Bakari_Sellers: Multiple acts of domestic terror in the last 48 hrs and the Secretary of Homeland Security is on Fox News, focusing on\u2026
p193
aVWhat he said...#VoteBlueToEndThisNightmare #VoteSaveAmerica #NovemberIsComing #LetsGo #VoteBlue2018 #VoteThemOut https://t.co/BX2nwEcBCO
p194
aV@jimsciutto Wish we could say we\u2019re shocked by this garbage. There are only a few guarantees in life. Death. Taxes.\u2026 https://t.co/z3BD2Yf3Xu
p195
aVMiss this guy... https://t.co/8AbWdi1ELB
p196
aV43% of American households can not afford a monthly budget that includes all of the following: rent, food, healthca\u2026 https://t.co/L4H1uJouK2
p197
aVHe said all the right things here. Hopefully there isn\u2019t a tweet forthcoming that wholly contradicts everything he\u2026 https://t.co/oYpJPomKZn
p198
aVRT @TheDemocrats: There's too much at stake for us to sit this one out. Early voting has already begun in some states, so we need to start\u2026
p199
aVRT @TheDemocrats: Raise your hand if you're ready to #VoteThemOut.\U0001f64b https://t.co/nAsoi3Vsq3
p200
aVRT @KateBolduan: FBI Dir: "These are not hoax devices."
p201
aV#GoBlue https://t.co/rRtanWP5GO
p202
aVRT @JonLemire: Putting "bomb" in quotes seems like a nod to the false flag conspiracy theories embraced by some on the right https://t.co/q\u2026
p203
aVRT @politico: Trump officials admitted they miscounted the number of migrant children who were separated from their parents, stranding some\u2026
p204
aVRT @brhodes: If people want to talk about civility in our politics they could start with the glaring contrast between the last Democratic P\u2026
p205
aVRT @TheDemocrats: Gun violence has no place in our schools or our communities. It's time that we elect leaders who will advocate for common\u2026
p206
aVRT @EdKrassen: Yesterday there were assassination attempts on two U.S. Presidents for the first time in American history, and the 45th Pres\u2026
p207
aVRT @CNN: What do recipients of suspicious packages have in common? "They've all been targeted by President Donald Trump and made into bogey\u2026
p208
aVRT @SStirling: Fun fact, using @workbenchdata you can easily scrape the President's tweets, where you can quickly learn that only 8 of his\u2026
p209
aVRT @fred_guttenberg: Senator Grassley, investigate Kavanaugh for the easiest to prove case of perjury? He lied in written response about hi\u2026
p210
aVRT @KamalaHarris: Elections matter. In 12 days we have the power to elect officials who will work for the people, not special interests. ht\u2026
p211
aVRT @BernieSanders: Nearly 70% of young Americans agree we need to make public colleges and university tuition free. If other countries can\u2026
p212
aVThis is our leadership...Another missed opportunity to put partisanship aside and promote unity. #Notsurprised\u2026 https://t.co/DQnkyx3cNZ
p213
aV@politico @PressSec that is an abhorrently ignorant statement. It is an insult to anyone with a conscience. This is our leadership.....
p214
aVRT @KateBolduan: This from the head of the US government today. The same morning an 8th suspected bomb was found in NYC. SERIOUSLY! https:/\u2026
p215
aVRT @CillizzaCNN: Honest question for Trump supporters: Do you believe that he bears no responsibility for the current political environment?
p216
aVRT @davidaxelrod: This is kind of basic:\u000aIf you have the biggest platform on the planet and you use it to rail against political opponents\u2026
p217
aVRT @ChrisCuomo: She keeps on using that word. \u201cPresidential\u201d. I do not think it means what she thinks it means https://t.co/Z6X0Oa74Ow
p218
aVRT @TheDemocrats: In just 12 days, we have the opportunity to make history. Let's do everything we can to get these Democratic candidates a\u2026
p219
aVRT @BernieSanders: I know this will shock all of you, but Donald Trump is lying when he says that Medicare for All will hurt seniors. It wi\u2026
p220
aVRT @ahauslohner: "But let's get real... The list of targets read like Sean Hannity\u2019s pre-broadcast crib notes: Hillary Clinton, President B\u2026
p221
aVThis is just repugnant. Time to vote out all of those beholden to the NRA and their nonsense. #NovemberIsComing\u2026 https://t.co/ZYuAZ6iTvN
p222
aVRT @washingtonpost: "I\u2019m not calling Mr. DeSantis a racist, I\u2019m simply saying the racists believe he\u2019s a racist."\u000a\u000aGillum on white supremac\u2026
p223
aVRT @morningmika: Do you condem your father\u2019s violent rhetoric? Can you? Step up. Only a coward would stand by silently now. What a weak dis\u2026
p224
aVRT @KateBolduan: "Stop and think about what we're dealing with. The attempted assassination of two former president of the united states an\u2026
p225
aVRT @ddale8: Here is the updated chart of Trump's false claims by week. Look at that right side. https://t.co/fkFd3ELUVf
p226
aVRT @ddale8: The frequency of Trump's lying keeps increasing. He is now over 3,000 false claims for his presidency. \u000a\u000aHe took 342 days to ut\u2026
p227
aVRT @crookedmedia: OK, Pennsylvania. Let's #ProveLovettWrong. https://t.co/F0cqNQYejg https://t.co/0d0KQhL6bT
p228
aVRT @jonfavs: Come on, let\u2019s get #ProveLovettWrong trending! https://t.co/MNsTWN6Fbc
p229
aVRT @SenatorCardin: Now, states will only have to ensure residents have *access* to insurance. Big difference. Having access to coverage is\u2026
p230
aVRT @juliettekayyem: An ongoing bombing and assassination campaign in homeland targeting 2 former pres, their families, former First Lady an\u2026
p231
aV#IWillVote #VoteForThem #VoteSaveAmerica https://t.co/YUrvPEyr0t
p232
aVHe is completely innocent in \u2018fostering hostility,\u201d and I\u2019ve got ocean front property in Arizona I can sell you.\u2026 https://t.co/BrZYSC6Xb5
p233
aVRT @SenatorDurbin: The Trump Administration\u2019s proposal to strictly define gender in our civil rights laws is intolerant to the LGBTQ commun\u2026
p234
aVRT @AndrewGillum: Raise your voice. \u000a\u000aSpeak out for a better future. \u000a\u000aVote.\u000a\u000aThis is how we\u2019ll win.
p235
aV#VoteBlue #VoteSaveAmerica https://t.co/pgIaBxushL
p236
aVRT @PoppyHarlowCNN: Sen. @BenSasse just now on @CNNnewsroom to me &amp; @jimsciutto: "We need the president and all other public officials to b\u2026
p237
aVRT @BernieSanders: Young people are the most progressive generation in American history. If you vote, you will transform this country. http\u2026
p238
aVRT @davidaxelrod: What I saw in WI tonight was a cynical political arsonist blaming his targets for the fire.
p239
aVWOW https://t.co/DCZDcrLnpY
p240
aV@AftabPureval @SteveChabot Heard you on The Pod! Great stuff, sending support from NJ.   OH01, turnout for Aftab and  #VoteSaveAmerica
p241
aVRT @RockTheVote: "Voting is one of the strongest ways to change these conditions." - @Common \u000a\u000aMidterm elections help our communities on a\u2026
p242
aV@peterasalinas Fact: none of those people are POTUS Hillary lost the election, move on Holder was clearly not calli\u2026 https://t.co/1NSYndOML3
p243
aV#NovemberIsComing #VoteSaveAmerica #VoteThemOut #FactsAreFacts https://t.co/IqfFoTCOCx
p244
aVRT @CNN: A federal judge proposes a halt on absentee ballot rejections in Georgia https://t.co/FOQOc2Y9QH https://t.co/Qzp8EUtf6J
p245
aV#VoteSaveAmerica #earlyvoting #BetterIsReallyGood https://t.co/CGewv1GYR3
p246
aV@peterasalinas I\u2019m neither foolish nor obtuse, but way to attack my character/intelligence based on a few sentences\u2026 https://t.co/VNJ09Q4ewr
p247
aV@BOOMshockaLOKKA They don\u2019t show this kind of stuff on Fox News, but here are just a few examples of the president\u2026 https://t.co/KzXwnDN9yw
p248
aVRT @SenDuckworth: Climate change is one of the greatest environmental,economic&amp;national security threats in generations. Our most vulnerabl\u2026
p249
aVRT @RockTheVote: \U0001f6a8 Early voting &amp; in-person absentee has started in:\u000a\u000a#AK\u000a#AZ\u000a#AR\u000a#CA\u000a#GA\u000a#HI\u000a#ID\u000a#IL\u000a#IN\u000a#IA\u000a#KS\u000a#LA\u000a#MA\u000a#MN\u000a#MT\u000a#NE\u000a#NV\u000a#\u2026
p250
aVGOP has been sharing a list of of items they anticipate a Democrat Controlled House would begin investigating. In o\u2026 https://t.co/Nr7zb7FjnT
p251
aVSays the guy who is on record countless times advocating for violence, spewing hate, and attacking the very people\u2026 https://t.co/6FLYPSDzWv
p252
aVRT @brianstelter: New statement from CNN president Jeff Zucker: There is a total and complete lack of understanding at the White House abou\u2026
p253
aVRT @JoeNBC: Remember Trump\u2019s Second Amendment solution to Hillary Clinton appointing judges? https://t.co/OCWgagE5lH
p254
aVRT @jonswaine: Trump backers who have suggested the bombs are a liberal hoax:\u000a\u000aAnn Coulter\u000aRush Limbaugh\u000aMichael Savage\u000aJames Woods\u000aMike Fl\u2026
p255
aVRT @PodSaveAmerica: New pod! Tommy and Lovett discuss Trump's closing argument of lies and why the media needs to stop repeating them, they\u2026
p256
aV@SenateGOP @realDonaldTrump you know as well as the rest of us; the only voter fraud taking place in this country i\u2026 https://t.co/gkeWXcI62B
p257
aVYour social security is on the ballot; Your Medicare is in the ballot! The same folks that handed out a trillion do\u2026 https://t.co/TQBWV6e3Xx
p258
aVThe president\u2019s lies are piling up w/ great haste as Election Day approaches. Moreover, the unflinching boldness of\u2026 https://t.co/DKIKln6wEO
p259
aVRT @AshleyRParker: After everyone from the White House press secretary to the vice president has vouched for his claim that "Middle Eastern\u2026
p260
aVRT @SenateDems: The facts are clear: Republicans are trying to dismantle critical protections for Americans with pre-existing conditions. h\u2026
p261
aVRT @KamalaHarris: 14 days. With early voting happening in states across the country, there\u2019s no time like the present to cast your ballot.\u2026
p262
aVRT @danpfeiffer: The President of the United States has no idea how a bill becomes a law https://t.co/CaTIPc1pJg
p263
aVRT @brhodes: Either he knows and doesn't care, or he doesn't know. Those are both disastrous and unprecedented in post-WWII America. https:\u2026
p264
aVRT @BernieSanders: This election is simple. \u000a\u000aIf Republicans win they will cut Social Security, Medicare and Medicaid. \u000a\u000aIf Democrats win w\u2026
p265
aVRT @SenSchumer: Make no mistake: Despicable acts of violence and harassment are being carried out by radicals across the political spectrum\u2026
p266
aVRT @brhodes: Exactly. A lot of Barack Obama\u2019s tweets didn\u2019t make news. A lot of his foreign travel or policy focused public events barely m\u2026
p267
aVRT @brhodes: We used to be a country with leaders who faced down fascism and communism. Now our president wants us to be afraid of a carava\u2026
p268
aVRT @CoryBooker: We can\u2019t surrender to cynicism or give into inaction. \u000a\u000aWe must act, we must vote, we must never give up. \u000a\u000aThe opposite of\u2026
p269
aVRT @brhodes: The President of the United States is a self described nationalist who pushes racist conspiracy theories, separates immigrant\u2026
p270
aVRT @brianstelter: On the front page of Tuesday's @NYTimes... https://t.co/aBkKD0sHIX https://t.co/1INKsCkKol
p271
aVRT @MichaelAvenatti: More incredible work from my friends at @Eleven_Films. #Basta https://t.co/N7ZUKLAumO
p272
aVRT @brhodes: It only works because Senators like Jeff Flake repeatedly refuse to use their votes and constitutional authority to hold Trump\u2026
p273
aVRT @SenGillibrand: Let\u2019s be clear about what\u2019s happening in GA: attempted voter suppression. Thousands of voter registrations have been sus\u2026
p274
aVRT @SenateDems: How do Republicans plan to fix the deficit they created with their tax giveaway to the wealthiest few?\u000a\u000a\u274c Cut Medicare.\u000a\u274c C\u2026
p275
aVRT @SenGillibrand: When this administration spews hate, we will speak out louder. When they commit injustice against one of us, we will com\u2026
p276
aVRT @SenSchumer: The American people should look at what Republicans are doing, rather than what they\u2019re saying, when it comes to health car\u2026
p277
aVRT @brhodes: To get a sense of what a desperate opportunist Ted Cruz is, let's not forget that Trump insulted Cruz's wife, suggested his fa\u2026
p278
aVRT @BernieSanders: Health care is a right, not a privilege.
p279
aVRT @UNFCCC: "As of last week, 181 countries have ratified the #ParisAgreement. No other multilateral, global agreement enjoys that kind of\u2026
p280
aVRT @BernieSanders: Real change won't come from me or any politician. It is going to come from you \u2013 the American people! https://t.co/cKShY\u2026
p281
aVRT @Olivianuzzi: If you work for the American people, part of your job is to respond to critics, just FYI: https://t.co/pnSU0Gb63S
p282
aVRT @brhodes: In Beto and Andrew Gillum Democrats have candidates who know how to lead in an age of Trump. Both are entirely unabashed, auth\u2026
p283
aVRT @brhodes: Medicaid expansion is a move that will save small-town hospitals and create jobs, it\u2019s not just a framing device. https://t.co\u2026
p284
aVRT @brhodes: Here\u2019s how Dems can deal with the gun issue: by saying what we believe without apology. https://t.co/RJfB7qq0JK
p285
aVRT @jonfavs: Gillum just nailed this https://t.co/BJrXtPTJxT
p286
aVRT @maggieNYT: Van Jones interview Kushner at "Citizen by CNN" event starting now. Jones asks, "How did you get this job? You have like the\u2026
p287
aVRT @KamalaHarris: In 16 days, we\u2019re going to have one of the most significant elections of our lifetime. Who holds political office matters\u2026
p288
aVRT @EnergyCommerce: MUST WATCH: A Pennsylvania town is slowly dying under the toxic emissions of a coal power plant, and residents are conc\u2026
p289
aVRT @brhodes: It says something about the Republican Party that their electoral strategy depends on intimidating and preventing as many peop\u2026
p290
aVRT @brhodes: Another example of someone stealing an election in plain view https://t.co/p3KTEi4hQp
p291
aVRT @jonfavs: The President is pushing a laughably false conspiracy theory about immigration in order to incite racial panic among his base\u2026
p292
aVRT @espn: Aaron Judge gets it. (via @CPFilms87) https://t.co/fIbNjIMdGL
p293
aVRT @terry_alequin: #letsgooooooo #renewtimeless https://t.co/1tuitXp7Xp
p294
aVRT @terry_alequin: Timeless is AMAZING!!! #needmoreepisodesplease #renewtimeless #ilovetimeless https://t.co/VQQOa4prLK
p295
aV@NBCTimeless  #RenewTimeless
p296
aV@RORO1671 stand up for team. Stand up for yourself. Handled like a true professional. And Nice takedown too!!
p297
aV@RORO1671 met u few weeks back@the stadium.asked if u wanted to manage. Just watched your postgm intrvw. U r the man dude.U r a leader.
p298
aV@tedcruz your performance tonight is embarrassing You should be ashamed of yourself We all know you won't be But you should #CNNDebateNight
p299
aV@tedcruz Answer a ? One time. Just onceDon't dance.Don't dodge the question. Answer this poor woman's question.Yes or no #CNNDebateNight
p300
aV@tedcruz recite the Bill of Rights to your "president," not the American People it was written to protect. #CNNDebateNight #
p301
aV@donlemon he spent $70million and still needed Putin to win.
p302
aV@CNN @donlemon can u guys ask Andy Dean about the emoluments clause please
p303
aV@donlemon I'm in the hospital after some invasive spine surgery and my ears are worse off than Anything else listening to this idiot
p304
aV@donlemon who is this absolute clown with the brillopad hair on your show right now.
p305
aV@NFL #PlayerSafetyMyAss
p306
aV@NFL @NoF*ckingLogic #heyRogereveryonehatesyoulikealot
p307
aV@RealMichaelKay this is your greatest segment ever.
p308
aV@CNN @CNNPolitics trump delegates making case against him with this segment alone. He HAS CONTRIBUTED NOTHING TO THIS COUNTRY $or otherwise
p309
aV@CNN @CNNPolitics Trump delegates saying stick to issues trump just vomits words with absolutely no substance. He doesn't care about issues
p310
aV@RealMichaelKay Dolan has never been great for the Knicks.But this mess is on Phil.not Dolan. Phil will be in LA next yr.he should go now
p311
aV@Rosenbergradio every1 risks injury every time on field. Cam refused-biggest game of his life. Hope u never make it there again.
p312
aV@Rosenbergradio when he has Lombardis resume he can run his mouth. Noone likes losing. But losing with grace and class says u see the bigpic
p313
aV@Rosenbergradio Vince Lombardi comparison. Please. Cam can't hold Lombardis jock strap. Talent and greatness are different.very far apart.
p314
aV@Rosenbergradio Camshowed this whole year was just an ACT. U wanna talk when u win. Then stand the hell up like a man when u get knocked out
p315
aVRT @MLBGIFs: Heroes get remembered, but legends never die. https://t.co/Viqivkqe1M
p316
aV@RealMichaelKay @SeanyRiverr Didi trade-vintage cashman May-Sept Didi was a +.280 hitter&amp;played a goldglove SS. Greene was in AAA by ASbreak
p317
aV@AROD @MLB Attaboy Al. Chasing down The babe and Barry. Let's goooooooooo. #Yankees #SpringTraining #MLB #runningdowntherecordbook
p318
aVPete don't listen to these guys Bald is beautiful dude Grass doesn't grow on a busy street. I'm right there with you!@Rosenbergradio
p319
aV@RealMichaelKay @NYG_MUT the way tex and Arod fell off-tex hurt&amp;Alex exhausted can't you see Tex getting more abs at DH v RHP w/ bird 1B
p320
aV@RealMichaelKay all year we have the best broadcasters in baseball. And then when the games are the biggest, we get Kruk. #oneilconeyandkay
p321
a.