(lp0
VRT @FoodMattersFilm: Transcend your limiting beliefs systems, grow your business or career so you can play a bigger and bolder game and exc\u2026
p1
aVRT @HillaryClinton: High school and college students of voting age are making a plan to march to the polls together next Tuesday. Make sure\u2026
p2
aVRT @StevenBeschloss: Remember how he behaved in Helsinki, quick to abandon America &amp; slavishly serve Putin.\u000a\u000aRemember how his Congressional\u2026
p3
aVRT @washingtonpost: Analysis: Here\u2019s the "small protest" Trump says he didn\u2019t see in Pittsburgh https://t.co/EAVgMPQOHZ
p4
aVRT @krassenstein: BREAKING: Singer Pharrell Williams has just sent a cease and desist to President Trump for playing his song, 'Happy' righ\u2026
p5
aVRT @politico: If Democrats retake the House, they want to aggressively open probes into issues the special counsel is also investigating ht\u2026
p6
aVRT @KenRoth: The @NYTimes was right to publish this photograph, despite the controversy. We shouldn't be closing our eyes to the horrible s\u2026
p7
aVRT @johncusack: Every faith  race community should do the same- until  congress tells him he\u2019s not welcome in Washington ! https://t.co/WDT\u2026
p8
aVRT @AynRandPaulRyan: Trump is holding a campaign rally in IL tonight.\u000a\u000aHe went to great lengths to explain how the NYSE was opened the day\u2026
p9
aVRT @VoteCasten: Peter Roskam does not believe we should ban assault weapons.\u000a\u000a@SeanCasten does.\u000a\u000aThis is what's at stake in this election.\u2026
p10
aVRT @jbillinson: LeBron James wearing a Beto for Senate hat before the Lakers game in San Antonio tonight https://t.co/dNsVmETohV
p11
a.