(lp0
VRT @BleacherReport: D-Rose in tears as he leaves the floor \U0001f64f\u000a\u000a50 points. https://t.co/cEDUQB50yi
p1
aVRT @souljaboy: In this world you either crank that soulja boy or it cranks you
p2
aV@ShivPatel730 @riyapat_ The biggest vibe
p3
aVRT @ammazing_: i texted my dad saying \u201chappy monday let\u2019s get this bread\u201d. his response was \u201ci can go to Costco after work\u201d. amazing
p4
aVRT @ChefTrillie: Jimmy passing to KAT in practice https://t.co/FlDiIRW2EW
p5
aVRT @mrsrt392: Best gender reveal I've seen. Lmaooo https://t.co/VnLAvvZfB4
p6
aVRT @_zynvyx: me after crying for six hours: https://t.co/JxNb98VUfU
p7
aVRT @TheOnion: Nation Urged To Be Extra Sensitive To Men Reliving Trauma Of Not Getting Something https://t.co/AXNztKn0NO https://t.co/kCL6v\u2026
p8
aVRT @espn: A Bears QB hasn't had 5 TDs in a game since 1949.\u000a\u000aMitch Trubisky has 5 in the FIRST HALF. https://t.co/aOia4i4F8R
p9
a.