(lp0
VReal POLAR EXPRESS Train Ride!  Union Station St. Louis! Full ride &amp; exp... https://t.co/Y5Sf6zNhq5 via @YouTube# Okay thanks Cool
p1
aVOkay thanks goodnight sleep well https://t.co/RMrsKycyz2
p2
aVhttps://t.co/S6VIU6YZRX
p3
aVThank you for helping me reach 100 followers! I literally couldn\u2019t have done it without you. Okay thanks
p4
aVOkay thanks goodnight sleep well https://t.co/TKz9ot7yTw
p5
aVI'm riding #MoreRollerCoasters with my 2 extra days at Universal Orlando Resort. What about you?
p6
aVCool picture Melissa a s https://t.co/e0LtsEOGyF
p7
aVI voted #ILoveSoccer on @TheTylt. No game is more beautiful. https://t.co/mY4RQjEOay
p8
aVOkay thanks cool. https://t.co/mKfgMWTFlF
p9
aV@314_4431 hey or hi
p10
aVClaudia cool pretty white nails https://t.co/EI7V4Nwand
p11
aVNice bracelet https://t.co/mHELVXRu8x
p12
aVCool Mary grace do you also play a church organ yes or no nice pretty nails https://t.co/mHELVY95x7
p13
aV@sottmg @Harry_Styles Nice key board or church organ
p14
aVYes I am also very ready Cool https://t.co/ln4miIuVGm
p15
aVCute nice to meet you lyss https://t.co/upkAtFB4mW
p16
aVNice picture goodmorning https://t.co/Gl70taxFom
p17
aVGoodnight sleep well good job to the blues win https://t.co/HoCuhWaoRX
p18
aVGood job https://t.co/IhTHvG8qqs
p19
aVGo chi blackh https://t.co/ozJNxjCJrq
p20
aVOkay oh cool https://t.co/nNWVzv8yfh
p21
aVHey or hi guy my name is Stephen Bircher https://t.co/F1fTnRlek2
p22
aVYes cool and also invited to love Stephen https://t.co/ZQ7mhRDf0U
p23
aVBlues won tonight 7 to 3 over the blackhawks https://t.co/7EEaVlPNsw
p24
aVYes game 4 cleavage crumbs https://t.co/vfqmp3flSR
p25
aVMy name is Stephen Bircher https://t.co/I2ICe6LIwo
p26
aVHoward Jones - No One Is To Blame https://t.co/jSAeeHYb9F via @YouTube okay thanks cool song
p27
aVJohn Travolta - Olivia Newton John - Summer Nights.mpg https://t.co/aEDMCm2NAj via @YouTube okay thanks cool song
p28
aVWilson Phillips - Hold On https://t.co/heNU4FPn9J via @YouTube okay thanks cool I also really like that song
p29
aVHelp Me, Rhonda [Single Version] - The Beach Boys (with lyrics) https://t.co/zrbK1chBxc via @YouTube okay thanks co\u2026 https://t.co/IjovZwpsKI
p30
aVChris de Burgh - Lady in Red (with lyrics) https://t.co/XsK8dMskFq via @YouTube okay thanks cool song
p31
aVThe Rascals -  It's A Beautiful Morning https://t.co/1nuSigP41w via @YouTube okay thanks cool song
p32
aVLyrics~Under The Boardwalk-Drifters https://t.co/XK3Vvl6z9j via @YouTube okay thanks Cool
p33
aVFrank Sinatra-New York,New York-Lyrics https://t.co/nDTZWrNxtc via @YouTube okay thanks cool
p34
aVBonnie and Sherry at the Prevent Ceserean Conference https://t.co/9vpOGVzv8f via @YouTube okay thanks cool
p35
aVSherry Amen https://t.co/Brbo4RSVGu via @YouTube okay thanks cool
p36
aVOkay thanks call you for what and also thanks sure I also want some https://t.co/Vg0FDJZpAj
p37
aVWhat Okay thanks sure sherry amen want what https://t.co/Vg0FDJZpAj
p38
aVHome Alone Christmas Reunion - (2019 Movie Trailer) Parody https://t.co/QJiNT0lqji via @YouTubeokay thanks cool
p39
aVKen Patterson's HO scale model train layout https://t.co/Xu7iGyEtQe via @YouTube Okay thanks cool
p40
aVGood for you https://t.co/xx19g55fW8
p41
aVOkay thanks https://t.co/caRw1LhDMk
p42
aVGirl with the red pretty nails https://t.co/5MrvXTE4fW
p43
aVChristina Ricci interview.Age 13. 1993. https://t.co/dwDdof39KP via @YouTube okay thanks cool
p44
aVmiracle on 34th street (1994)- mara wilson's FIRST scene! https://t.co/P41TKm5dZF via @YouTube okay thanks cool
p45
aVAnna Chlumsky  Remember my girl https://t.co/0CiTfaUYWF via @YouTubeokay thanks cool
p46
aVCasper (10/10) Movie CLIP - Boo? (1995) HD https://t.co/1Hn70HgZxO via @YouTube okay thanks oh cool
p47
aVJett &amp; Nina II 5864 Hug Scene 1 https://t.co/VYgXGW6LIf via @YouTubeokay thanks cool
p48
aV"FIrst Kiss" https://t.co/AWHyyVdjV6 via @YouTubeokay thanks cool
p49
aVMy daughter's friend came to visit https://t.co/n3gKZ7Jrme via @YouTubeokay thanks cool
p50
aVColleen ballinger https://t.co/61O8btFFHj
p51
aVElisa AgriPassion https://t.co/tRBKl0Bw1X via @YouTube okay thanks cool
p52
aVHarvest - Caddo County (6/29/13) https://t.co/B4gyFDvEtQ via @YouTubeol okay thanks cool
p53
aVSarah my 15 year old daughter chopping with John Deere 8700 https://t.co/7LEK5k19RA via @YouTube okay thanks oh cool
p54
aVJen hartry https://t.co/07GTZDQ4sX
p55
aVhttps://t.co/Xpl8enTK6V
p56
aVhttps://t.co/tnF38SxHC6
p57
aVhttps://t.co/inTzvThbzp
p58
aVhttps://t.co/e3VNc4RWkv
p59
aVhttps://t.co/Yzc5mEX4RZ
p60
aVhttps://t.co/6XOFAdKXhg
p61
aVhttps://t.co/egekhrC6tH
p62
aVhttps://t.co/bYSKSo6Xlg
p63
aVhttps://t.co/4jCDEKsYZ9
p64
aVhttps://t.co/CfSPWlpVLU
p65
aVhttps://t.co/71wAnb9GVJ
p66
aVhttps://t.co/VR1IoRlWFv
p67
aVhttps://t.co/SeXpgAiWxn
p68
aVhttps://t.co/2QMjKtH9oy
p69
aVhttps://t.co/aaCfdwwyi4
p70
aVhttps://t.co/3loXfIBjHi
p71
aVhttps://t.co/hpeFsPHd8w
p72
aVhttps://t.co/U6oTXLptt4
p73
aVGoodmorning to Derek v https://t.co/mgKnTCcqHV
p74
aVhttps://t.co/R4vV7hnRIM
p75
aVhttps://t.co/qqPMNdZkjW
p76
aVhttps://t.co/s6C0bUJZG4
p77
aVhttps://t.co/eySVCD4Kwb
p78
aVhttps://t.co/PThdN3K2qC
p79
aVhttps://t.co/YiP60StEcg
p80
aVhttps://t.co/wuYjKU8wD6
p81
aVhttps://t.co/GbTEbmuR58
p82
aVhttps://t.co/b9JesjLQqH
p83
aVhttps://t.co/Xr1Fh1Blni
p84
aVhttps://t.co/A89vq1AvwR
p85
aVOkay thanks Cool good afternoon https://t.co/DKQ05amvH5
p86
a.