(lp0
VRT @zoellamarie14: Braving the rain in Elgin, IL to #GOTV for @SeanCasten &amp; @KwameRaoul as a proud @NARAL member! \u000a\U0001f49c\U0001f4cb\u2614\ufe0f\U0001f49c https://t.co/HYR4v\u2026
p1
aVOur members packed @SeanCasten\u2019s Elgin office for a GOTV canvass kickoff this afternoon. As our organizer Nick said\u2026 https://t.co/fzxQUDeyF1
p2
aVRT @mararkelly: Beautiful day to go knock on doors for @VoteCasten !!! With only 3(!) days left before the election, canvassing is THE way\u2026
p3
aVWe\u2019re heading to #IL06, about to knock on doors for our pro-choice champion, @SeanCasten! NARAL members are fired u\u2026 https://t.co/vBQ4j0mOGx
p4
aVRT @those2lenas: @NARALIllinois Volunteering on the phone banks with my girl Coco. #DogsForDemocracy https://t.co/uzJrlkUgVV
p5
aVWe\u2019re proud to support @LUnderwood630 in #IL14. Have you signed up for a GOTV shift yet? https://t.co/5YD8X8JBx5
p6
aVRT @nickuniejewski: Tonight we were joined by our four-legged friends for a Dogs for Democracy phone bank in Chicago! @NARAL members made h\u2026
p7
aVRT @nickuniejewski: Gunther is so excited at this phone bank, he\u2019s hopping into the laps of our volunteers! There are seven days until Elec\u2026
p8
aVRT @nickuniejewski: .@NARAL member Kathy and her dog Gunther have been at our phone banks for @SeanCasten every week! She\u2019s excited to vote\u2026
p9
aVIt's time to get out the vote! NARAL President @ilyseh and @SeanCasten will be kicking off a GOTV canvass in Elgin\u2026 https://t.co/BaW0BnjhCq
p10
aVRT @NARAL: Hateful rhetoric has fueled heinous, horrifying acts of violence across our nation. We are devastated, but refuse to be immobili\u2026
p11
aVThat\u2019s why we are proud to support @KwameRaoul for AG. He\u2019s unequivocal in his belief in a woman\u2019s ability to decid\u2026 https://t.co/w7ckU7SW09
p12
aVWe\u2019re with @CBIL6th protesting @PeterRoskam in Oak Brook. He\u2019s portraying himself as a moderate, but he votes with\u2026 https://t.co/UL6GGNFFsX
p13
aVRT @nickuniejewski: .@NARAL members standing with @CBIL6th and voters across #IL06. Peter Roskam votes consistently to restrict a woman\u2019s r\u2026
p14
aVRT @CitizenActionIL: 6th district Protesters gathered while @marcorubio and @PeterRoskam raise $$$ inside Oakbrook hotel. 11 years and coun\u2026
p15
aVRT @zoellamarie14: Wind &amp; rain can\u2019t stop @NARAL volunteers from canvassing for @LUnderwood630 in Woodstock, IL #IL14 \U0001f4cb\u2614\ufe0f\U0001f49c https://t.co/GZ5\u2026
p16
aVRT @nickuniejewski: .@NARAL members are canvassing again for @LUnderwood630! We need her in Congress to protect the middle class, expand ac\u2026
p17
aVJoin us November 4th for a Canvass Kickoff with NARAL President Ilyse Hogue for @SeanCasten \u2013 sign up now to join u\u2026 https://t.co/WzuQjIUTUT
p18
aVRT @PersistList: Join us tonight for a candlelight \U0001f56f\ufe0fvigil as we #StandTogether &amp; speak out against ending of the racism, xenophobia &amp; anti\u2026
p19
aVLaura is a proud @NARAL member from Naperville, ready to cast her vote for @SeanCasten! #IL06 https://t.co/2eLQfUrLVJ
p20
aVRT @nickuniejewski: Don't let @PeterRoskam fool you, he voted to take away health care coverage from people with pre-existing conditions. J\u2026
p21
aVRT @zoellamarie14: Our awesome @NARAL members are out in force tonight making calls for @LUnderwood630 running to represent #IL14 \U0001f49c\U0001f4bb\U0001f49c\U0001f4de\U0001f49c htt\u2026
p22
aVRT @NARAL: We still believe Julie Swetnick. #BelieveSurvivors https://t.co/i8nlQzzJwx
p23
aV.@NARAL members joined our coalition partners to protest the anti-choice and anti-LGBTQ views of Attorney General c\u2026 https://t.co/yqYASfC1MC
p24
aVRT @NARAL: It\u2019s time for our representatives to actually represent us. The anti-choice Republican party is out-of-touch and out of time. ht\u2026
p25
aVRT @PPIAction: Human rainbow telling @ErikaHarold that hate is not an Illinois value! #ILAG #twill \u000a@HRC \u000a@MomsDemand \u000a@SEIULocal1 \u000a@Equali\u2026
p26
aVRT @NickDesideri: .@SEIULocal1, @MomsDemand, @SierraClubIL, @EqualityILL, @NARALIllinois and @PPIAction are united against Erika Harold and\u2026
p27
aVRT @alexhanns: A human rainbow is protesting @ErikaHarold at @CityClubChicago\u000a\u000a\u2764\ufe0f  Handmaidens \u000a\U0001f9e1 @MomsDemand \u000a\U0001f49b @SEIULocal1 / @SEIUhciimk\u2026
p28
aVRT @NickDesideri: \U0001f308 protest of @NARALIllinois, @PPIAction, @EqualityILL, @SEIULocal1, @SierraClubIL and @MomsDemand outside of Erika Herald\u2026
p29
aVRT @nickuniejewski: .@NARAL members are making calls tonight in Lincoln Park for @KwameRaoul! Kwame will continue fighting for women and fa\u2026
p30
aV.@NARAL members and allies across #IL14 filled the room to capacity tonight. We endorsed @LUnderwood630 because she\u2026 https://t.co/8HJDElzm09
p31
aVRT @BrennaDemands: Join @PPIAction @NARALIllinois @EqualityILL and other organizations in Chicago on Thursday 10/25 at 11am to form a RAINB\u2026
p32
aVRT @ilyseh: Denying people civil rights because they don't conform to your cruel and regressive worldview has become a trademark of this Ad\u2026
p33
aVSuburban early voting begins today. Our members rallied in Downers Grove with @SeanCasten and great local candidate\u2026 https://t.co/aIZyOYwShJ
p34
aVToday we had two events for @LUnderwood630. From Winnetka to Woodstock, @NARAL members are working hard to elect a\u2026 https://t.co/Skax3UyKUF
p35
aVRT @mararkelly: @NARAL members drove over an hour today to canvass for @laurenunderwood in Woodstock! We are excited to go knock on doors f\u2026
p36
aVRT @KwameRaoul: While my opponent says fighting back against the Trump administration is "purely political," I think protecting the human r\u2026
p37
aVRT @HRC: "My commitment to you is to advocate for the principles we were founded on, which is equal justice for all." - @HRC-backed @SeanCa\u2026
p38
aVRT @nickuniejewski: Our fantastic Chicago @NARAL team is heading to the suburbs, canvassing for pro-choice congressional candidates @SeanCa\u2026
p39
aVTonight we proudly joined @reprodjustice at Loyola University Chicago for a discussion on the Reality of Roe. Abort\u2026 https://t.co/yuSjizmBo3
p40
aVRT @DrLeanaWen: There is a real probability that Roe v. Wade could be overturned or eroded in the next year. And the cost of all of these p\u2026
p41
aVRT @ChloeAngyal: Don't date men who aren't pro-choice, and don't vote for them, either.
p42
aVRT @PPIAction: \u201cWhen they're called a whore, when they're called a slut, they think, \u2018That's what I want to be.\u2019\u201d - Erika Harold\u000a@ErikaHaro\u2026
p43
aVThis is Gunther, our four-legged friend from #IL06. He\u2019s always in the @SeanCasten office but needs a break after a\u2026 https://t.co/061TsIY1Nc
p44
aVRT @nickuniejewski: Barbara is a @NARAL member from Chicago. Tonight she made the drive to #IL06 to canvass for @SeanCasten! https://t.co/P\u2026
p45
aVTonight our members in the Orland Park area are making calls for pro-choice champion @KwameRaoul! We need to elect\u2026 https://t.co/olXkRHj24L
p46
aVRT @VoteCasten: It is a beautiful day in #IL06 to talk to voters about @SeanCasten!\u000a\u000aThank you @NARAL for joining us in Downers Grove this\u2026
p47
aVRT @PPIAction: \u201cAssuming that you don\u2019t have to actively participate in your society is really disrespectful to the people whose lives are\u2026
p48
aVRT @nickuniejewski: .@NARAL members are out in full force at @SeanCasten\u2019s office in Downers Grove! We\u2019re canvassing for Sean because he wi\u2026
p49
aVRT @mararkelly: So great to meet @SeanCasten before heading out to canvass! @NARAL members are pumped to knock on doors for this pro-choice\u2026
p50
aVWe are happy to endorse @LUnderwood630! \u000a\u000a\u201cNow more than ever, Illinoisans deserve a pro-choice champion like Laure\u2026 https://t.co/mdCc5Iu47w
p51
a.