(lp0
VRT @ZaringGroup: Off to #Vegas for a meeting on the next @ClassicRockFest!
p1
aVRT @robanthonymusic: Great show in beautiful Puerto Vallarta playing with the @BoDeans for the @ClassicRockFest at the @HRHVallarta http://\u2026
p2
aVRT @MissX85: @ClassicRockFest poster signed by all the participating Rock Stars  #VNCRF #VallartaNayarit #PuertoVallarta http://t.co/q72TCZ\u2026
p3
aVRT @MissX85: Steve Augeri lead signer of @JourneyOfficial gets the crowd up and dancing @ClassicRockFest #VNCRF @PVvisit http://t.co/I5CmQz\u2026
p4
aVRT @indierocks: El @ClassicRockFest recibe a los legendarios Jefferson Starship #XperiaZ3Compact #GoodvsGreat http://t.co/aHEIz39Off
p5
aVRT @photolivemusic: THE MONKEES/MICKEY DOLENZ EN @ClassicRockFest  @AlexCarranco @JRSoto5 @MissX85 @eri_deni @HRHVallarta @PVvisit http://t\u2026
p6
aVRT @HRHVallarta: @ElliotEastonEE (The Cars) and @TedZigZag sharing a drink at the #VNCRF14 @ClassicRockFest @PVvisit @RivieraNayarit http:/\u2026
p7
aVRT @FOGHAT: @ClassicRockFest whos ready to take a #slowride today!?
p8
aVThe legendary Skunk Baxter leads the House Band #vncrf #vncrf14 #classicrock #vallarta #nayarit\u2026 http://t.co/dgsRabQqYY
p9
aVDave Mason plays his hits on the @classicrockfest #vncrf #vncrf14 @ Vallarta-Nayarit Classic Rock\u2026 http://t.co/U3rH1m8KhS
p10
aVFirefall on the @classicrockfest stage! @ Vallarta-Nayarit Classic Rock Festival http://t.co/x67eAocJgO
p11
aVSam Moore! #VNCRF #VNCRF14 #ClassicRock @ Vallarta-Nayarit Classic Rock Festival http://t.co/WkV2kGcSdC
p12
aVThe bodeans are rocking the Festival stage! #VNCRF #classicrock #VNCRF14 @\u2026 http://t.co/lfZl4hCnYp
p13
aVRT @photolivemusic: @AlexCarranco @RollingStoneMX LEE ROCKER,SLIM JIM PHANTOM AND BILLY BURNETTE  @ClassicRockFest @HRHVallarta @PVvisit ht\u2026
p14
aVRT @VallartaOpina: El @ClassicRockFest dio inicio en la #RivieraNayarit http://t.co/sJiHMShkFx
p15
aVRT @PVvisit: This weekend\u2019s forecast: 100% chances of rock with the Vallarta-Nayarit @ClassicRockFest! http://t.co/O9kQPdvtYP
p16
aVRT @HRHVallarta: @TedZigZag @AronoffOFFICIAL &amp; @officialslimjim united at the #VNCRF14 ! @ClassicRockFest  #ThisIsHardRock @HardRock http:/\u2026
p17
aV@ElimoGT Awesome!
p18
aVRT @funkboynyc: Getting ready to hit at the Vallarta-Nayarit Classic Rock Fest. in Mexico with R&amp;R Hall of Famer, Sam Moore. http://t.co/Mh\u2026
p19
aVRT @HRHVallarta: @TheLeeRocker bringing world class rockabilly to #VNCRF14! @HardRock @ClassicRockFest @RollingStoneMX #ThisIsHardRock http\u2026
p20
aVThe Spencer Davis Group performs earlier in the day at the @ClassicRockFest https://t.co/m5A13cbFrE #VNCRF
p21
aVRT @TacoRock1: Salta al escenario de @ClassicRockFest Mark Farner para poner a bailar a todos @PVvisit http://t.co/VY1Jdnt0m8
p22
aV@PvTransp @RivieraNayarit Great picture!
p23
aVRT @PvTransp: Bienvenido Foghat Manager!! @RivieraNayarit @ClassicRockFest Esperando a las Bandas!! http://t.co/YQfL3ST9Nk
p24
aVRT @HRHVallarta: The stage burns with @farnerconcert at the #VNCRF14 @ClassicRockFest http://t.co/VWEgg9gWr0
p25
aVRT @photolivemusic: DA INICO HOY @ClassicRockFest EN @PVvisit @HRHVallarta con @FreeMickiFree @MissX85 @eri_deni @RivieraNayarit http://t.c\u2026
p26
aV@TacoRock1 @PVvisit Amazing photos! Thanks for sharing!
p27
aVRT @photolivemusic: @AlexCarranco @RollingStoneMX @LaPaos060 SPENCER DAVIS GROUP CONTINUA EN @ClassicRockFest EN @HRHVallarta @MissX85 http\u2026
p28
aV@photolivemusic @PVvisit @HRHVallarta @FreeMickiFree @MissX85 @eri_deni @RivieraNayarit Amazing photo!
p29
aV@RichardZarkin @FreeMickiFree @riv_nayarit Awesome! #VNCRF
p30
aVMicki Free opens the Vallarta-Nayarit Classic Rock Festival in style! (Regram from @hrhvallarta)\u2026 http://t.co/3ZOpVBov4O
p31
aVRT @MalenaAlcaro: Puerto Vallarta | Golf de Caridad en el marco del Classic Rock Fest @VNClassicRockFest @ClassicRockFest\u000ahttp://t.co/i1TbD\u2026
p32
aVRT @talentnetworktv: December 11-15: @comicMARKEDDIE &amp; Guitarist Carlo Volhl rocking out at the @ClassicRockFest - Details: http://t.co/PmV\u2026
p33
aVLee Rocker and Slim Jim Phantom are reuniting on our stage to play Stray Cats songs on Friday,\u2026 http://t.co/cWjvBjw1l0
p34
aVRT @SecretsVallarta: Rock out in paradise with @ClassicRockFest! Dec 11-14  http://t.co/BkZdL3gbG8 http://t.co/znj4L4JnQp
p35
aVSo excited to have Curly Smith join the house band at the @ClassicRockFest! Tickets here: http://t.co/uGi7iZTDVo http://t.co/DjS09DNsnI
p36
aVRT @LAWeeklyStreet: Win a Trip for Two to Puerto Vallarta for @ClassicRockFest!  Details on how to #win here: http://t.co/vb5ZlNyurm http:/\u2026
p37
aVFirefall plays the @ClassicRockFest on Sat, Dec 13! Buy tix here: http://t.co/uGi7iZTDVo #classicrock #YouAreTheWoman http://t.co/y0zKRBGV4R
p38
aVRT @RichardZarkin: Do yo like @cheaptrick ? #VallartaNayaritClassicRockFest\u000ahttp://t.co/lPxLGBlT3Z -\u000a@ClassicRockFest #RivieraNayarit @WeVi\u2026
p39
aVRT @RivieraNayarit: @aesquinca #TonoHoyMiercolesde invitarlos al @ClassicRockFest en #RivieraNayarit 12-14Dic #RivieraNayarit http://t.co/e\u2026
p40
aVRT @PVvisit: .@KansasBand will be playing at the Vallarta \u2013 Nayarit Classic Rock Festival on December 13th! Don\u2019t miss them! http://t.co/Fy\u2026
p41
aVRT @VamarVallarta: RT @classicrockfest: @cheaptrick will perform on the Vallarta-Nayarit @ClassicRockFest! Tix: http://t.co/7ZYMmsfjv9 http\u2026
p42
aVRT @amstardmc: This one's for you #Rockers! A superb lineup awaits you at the @ClassicRockFest in #PuertoVallarta #Mexico #RockOn http://t.\u2026
p43
aVLead guitarist from the Cars @ElliotEastonEE joins our House Band at the @ClassicRockFest Tix: http://t.co/uGi7iZTDVo http://t.co/i3RCjNGXlZ
p44
aVCraig Fuller, of Pure Prairie League &amp; Little Feat, will perform on our stage on 12/14. Tix: http://t.co/uGi7iZTDVo http://t.co/dzFHZZjPo7
p45
aVCome see Poco at the @ClassicRockFest in Nuevo Vallarta on Sat, Dec 13th! Tix here: http://t.co/uGi7iZTDVo http://t.co/i5PAJyGAyx
p46
aVSteve Miller Band bassist @kennyleelewis joins the @ClassicRockFest House Band! Buy tix here: http://t.co/cSqSkQuhcx http://t.co/DPljFuctN2
p47
aVRT @bugsburnett: The Vallarta-Nayarit @ClassicRockFest in Puerto Vallarta looks awesome! Dec 12-14 @PVvisit http://t.co/EYtK42uHUA http://t\u2026
p48
aVJoining our House Band is iconic drummer @AronoffOFFICIAL! He'll also be playing w/ @BoDeans http://t.co/uGi7iZTDVo http://t.co/aIrJ1omTUl
p49
aVRT @RichardZarkin: #VallartaNayarit @ClassicRockFest Charity Golf Event http://t.co/AVnPJGeCbz -\u000a@riv_nayarit #RivieraNayarit @WeVisitMexic\u2026
p50
aVFormer @JourneyOfficial singer @SteveAugeri performs at @ClassicRockFest on Sun Dec 14. Tix: http://t.co/uGi7iZTDVo http://t.co/EzrL3ZLtbi
p51
aVRT @riv_nayarit: @ClassicRockFest Charity #Golf Event An opportunity to play golf and hobnob with the legends of #rock http://t.co/mhcgFKtD\u2026
p52
aVPure Prairie League is playing the @ClassicRockFest Sun. Dec. 14th! Book travel &amp; buy tix: http://t.co/uGi7iZTDVo http://t.co/ffiyzHDyYw
p53
aVRT @ZaringGroup: Hey @ClassicRockMag, are u covering our #Vallarta #Nayarit @ClassicRockFest Dec 12-14? @KansasBand @cheaptrick @FOGHAT @Th\u2026
p54
aVHey @ROCKiKON, are you coming to our #Vallarta #Nayarit @ClassicRockFest Dec 12-14? @KansasBand @cheaptrick @GrammLou @TheMickyDolenz1
p55
aVRT @RivieraNayarit: Chicos, siganos en Facebook y ganen boletos dobles para los conciertos del @ClassicRockFest https://t.co/8afJ6b8vnp htt\u2026
p56
aVRT @riv_nayarit: Few days to time travel w/the @ClassicRockFest let's rock in #RivieraNayarit &amp; #PuertoVallarta http://t.co/kkmTnTgiif http\u2026
p57
aVRT @VallartaOpina: Tenemos pases dobles para asistir al @ClassicRockFest entra a nuestro https://t.co/wrJyaQvImt y participa. http://t.co/c\u2026
p58
aVRT @MissX85: The first batch of promo is in for the @ClassicRockFest | Who's ready to rock their huaraches off!? http://t.co/6H92FPOT6v
p59
aVDave Mason will perform on the @ClassicRockFest stage on Sat. Dec. 13th! Get tix now: http://t.co/uGi7iZTDVo http://t.co/CEVTV6Jv7v
p60
aVRT @VallartaGV: @HotelCasaVelas #CasaVelasRocks The #VallartaNayarit @ClassicRockFest Rockin\u2019 Down Mexico Way! http://t.co/0icqzqcEG7 http:\u2026
p61
aV@KansasBand @cheaptrick @GrammLou @SoulManSamMoore @davemasonband @TheMickyDolenz1 &amp; more perform on our stage! Tix: http://t.co/uGi7iZTDVo
p62
aV@GrammLou, the voice of Foreigner, will rock the @ClassicRockFest on Sat. Dec. 13th! Tix: http://t.co/uGi7iZTDVo http://t.co/XhDdJSd7qC
p63
aVThe bodeans rock the @classicrockfest stage on Friday December 12th! \u000a\u000aBuy tix here:\u2026 http://t.co/jULLrkUR7A
p64
aVThe Spencer Davis Group will grace the Vallarta-Nayarit Classic Rock Festival stage on Saturday,\u2026 http://t.co/xmuam5l4pL
p65
aVMicky Dolenz plays the Vallarta-Nayarit Classic Rock Festival on Sunday, December 14th!  #Monkees\u2026 http://t.co/AdwTwrSwbE
p66
aVCongrats to @ClassicRockFest performer @TheMickyDolenz1 on his Lifetime Achievement Award from @RockersOnBrdwy! http://t.co/9JhaCr7nKJ
p67
aV90s rockers @BoDeans will hit the @ClassicRockFest stage on Fri, Dec. 12th! Purchase tix here: http://t.co/uGi7iZTDVo http://t.co/uLd1rUPGkN
p68
aVRT @PVvisit: We\u2019re less than a month away from the Vallarta \u2013 Nayarit Classic Rock Festival! Have you got your tickets yet? http://t.co/ndD\u2026
p69
aV@TheLeeRocker &amp; @officialslimjim reunite on the @ClassicRockFest stage on Dec 12th! Tix here: http://t.co/uGi7iZTDVo http://t.co/zkrKf3T7vf
p70
aV@CheapTrick will perform on the Vallarta-Nayarit @ClassicRockFest stage on December 14th! Tix: http://t.co/uGi7iZTDVo http://t.co/Kd8M4YTUaU
p71
aVOur house band is amazing! Aside from the amazing @TedZigZag, check out the rest of the gang: http://t.co/rXdaqmWW7l http://t.co/noQL0qxYo2
p72
aV@TheMickyDolenz1, of the Monkees fame, will perform on the @ClassicRockFest on Dec 14th! Tix: http://t.co/cSqSkQuhcx http://t.co/qOOydrjrhH
p73
aVSuperstars of Classic Rock, Kansas, will perform on Saturday, December 13th. Buy tix here: http://t.co/cSqSkQuhcx http://t.co/dLz5XUwDQC
p74
aVThe spectacular Jefferson Airplane will rock the festival on Sunday December 14th! \u000a\u000aBuy tickets here:\u2026 http://t.co/2NjQEWqorz
p75
aVRT @riv_nayarit: Do you remember these @KansasBand musical notes? Soon in #RivieraNayarit @ClassicRockFest http://t.co/N2MVJEC6Fv http://t.\u2026
p76
aVPrepare to rock with @FOGHAT on Sunday, December 14th. Buy tix here: http://t.co/cSqSkQuhcx http://t.co/eOzAVkSVXF
p77
aV@DCRock @PVvisit you got that right!
p78
aV@TheMickyDolenz1 We can't wait to see you!
p79
aVRT @TheMickyDolenz1: I will be appearing @ClassicRockFest Dec.14th-Vallarta-Nayarit~ Mexico!    http://t.co/yMIpyjARJD
p80
aVRT @SunsetVallarta: The greatest House Band EVER!!! SKUNK-- Doobie Brothers &amp; Steely Dan, KENNY GRADNEY -- Little Feat, BILLY - Fleet... ht\u2026
p81
aVBooked your trip to @Riv_Nayarit 4 the Classic Rock Fest? This will help: @ElliotEastonEE is in the House band! Tix: http://t.co/UaH9c2tvsR
p82
aVRT @PVvisit: Check out the awesome lineup for the Vallarta\u2013Nayarit Classic Rock Festival! Get your tickets: http://t.co/3gHLryNozw http://t\u2026
p83
aVRT @RichardZarkin: Top Bands Confirmed For The #VallartaNayarit @ClassicRockFest  \u000ahttp://t.co/eqqJszNtLm\u000a@riv_nayarit #RivieraNayarit @WeV\u2026
p84
aV@CheapTrick will grace the VN Classic Rock Festival stage on Sun, Dec. 14th! Get tix here: http://t.co/uGi7iZTDVo http://t.co/gfhDWdC4NL
p85
aVRT @ZaringGroup: BIG news! Just added @GrammLou, original voice of @ForeignerMusic, to our Vallarta-Nayarit @ClassicRockFest at @HRHVallart\u2026
p86
aVBIG NEWS! The voice of @ForeignerMusic - @GrammLou - has just been added to our lineup! True legend!  #BOOM #RivieraNayarit #Vallarta
p87
aVRT @ZaringGroup: Lineup is up and tickets are on sale for our @ClassicRockFest Dec 12-14 in #Vallarta-Nayarit! Be the 1st to get tix!http:/\u2026
p88
aV@KansasBand @FOGHAT @cheaptrick @FabThunderbirds Just a few of acts coming Dec 12-14! Buy tickets at http://t.co/1BNG8e4zk8
p89
aVCheck out the lineup for this year's festival and get your tickets while they still last!!! http://t.co/Ce5FSxe7cL
p90
aV@ZaringGroup has tech issues w the fest website preventing us from putting tickets on sale today! We will announce lineup ASAP! #WorthWait
p91
aVThe lineup is coming together and we're just a few days away from announcing the acts! You're going to love it!
p92
aVWhich classic rock artist or band (that's still performing) would YOU like to see at the @ZaringGroup's Vallarta-Nayarit @ClassicRockFest?
p93
aVOur house band features legendary musicians like Jeff "Skunk" Baxter of Doobie Brothers &amp; Steely Dan fame! http://t.co/thuJXrQJJi
p94
aVExcited to announce that the @ZaringGroup's first-ever Vallarta-Nayarit Classic Rock Festival will be held December 12-14 at @HRHVallarta
p95
a.