(lp0
VYou can say you support the troops, or you can actually support them.  Supporting them doesn\u2019t just mean giving the\u2026 https://t.co/LOs6jpWnlT
p1
aV@tribelaw So if one of these \u201cillegals\u201d were to commit a crime in the US, would they be immune from prosecution if\u2026 https://t.co/rdUtgKwp9n
p2
aV@ssamcham @NBCNews If Trump could eliminate birthright citizenship by declaring migrants in the country illegally \u201c\u2026 https://t.co/OyepqyvR8U
p3
aV@ssamcham @NBCNews Seriously. The \u201csubject to the jurisdiction thereof\u201d clause is for foreign diplomats here on off\u2026 https://t.co/2lpXuojqRV
p4
aVSeriously. The \u201csubject to the jurisdiction thereof\u201d clause is for foreign diplomats here on official business. The\u2026 https://t.co/URpYLhcl6N
p5
aV@AoDespair Yeah. Totally true mind fuck.
p6
aV@tribelaw He just wants public debate on this b/c it whips up his (unAmerican) base and motivates them to vote. He\u2026 https://t.co/JrrFca2Ngu
p7
aV@AoDespair Exactly. It\u2019s time to stop calling politically inspired acts of violence senseless.  They make sense to\u2026 https://t.co/k1A6BkqzH3
p8
aV@Sneaky_Disease @leahcatlady @ardalby71 @4th_WaveNow Yes, but you do in fact share the name with both
p9
aV@MavenOfMayhem Ditto what @KQasey @whoskelsey and @stephanietrower said.  Your patience and tolerance for the most\u2026 https://t.co/aYu4NeOcXd
p10
aV@cristianafarias @adamliptak And just making it clear he\u2019s going to do his job as a federal trial judge.
p11
aV@mjzalewski Jon Gruden is in trade talks
p12
aV@SmartAssJen @TransEquality Thank u. In addition to all the kids u inspire and adults u educate, u help parents of\u2026 https://t.co/ILplDF2kJi
p13
aV@TransEquality We are lucky to live in a community and school that supports us. But we are also greatful for organi\u2026 https://t.co/E2vmHlQJWk
p14
aV@TransEquality We focus on reassuring our child we know who they are because we know only they know who they are on\u2026 https://t.co/byBdI2m4Gy
p15
aV@TransEquality Our beautiful baby lives openly authentic, is old enough to have told us we were wrong, the doctors\u2026 https://t.co/zIDB4JWnfp
p16
aV@TransEquality My wife and I spend nearly every minute of every day worrying about our young transgender child\u2019s fu\u2026 https://t.co/4eiv9KRKgj
p17
aV@isamuel That reaction is exactly why Dems find it so difficult to win a red state.  Dems claim moral victories whi\u2026 https://t.co/oSfbYrv6en
p18
aV@ParkerMolloy @Alyssa_Milano Agree it\u2019s a good piece, but shouldn\u2019t the answer just be \u201cBecause it\u2019s the right thin\u2026 https://t.co/m53LKZ61bZ
p19
aV@NicoleAMaines ...or strikes out against injustice, he sends forth a tiny ripple of hope, and crossing each other f\u2026 https://t.co/BcMC3dMJTD
p20
aV@NicoleAMaines \u201cFew will have the greatness to bend history itself, but each of us can work to change a small porti\u2026 https://t.co/qzif1gokGZ
p21
aV@NicoleAMaines Been thinking a lot about two quotes. The first is often attributed to Edmund Burke: \u201cThe only thing\u2026 https://t.co/OswkmnqzDe
p22
aVRT @funder: Gillum slams DeSantis HARD: \u201cI\u2019m not calling Mr DeSantis a racist. I\u2019m saying the racists believe he\u2019s a racist\u201d #BringItHome h\u2026
p23
aV@DianaTourjee @Alyssa_Milano @broadly You shouldn\u2019t have to explain why u care about that or why you have the right\u2026 https://t.co/SdbZNs9qAM
p24
aV@DianaTourjee @Alyssa_Milano @broadly A fight for human dignity, equal protection, the right to live authentically\u2026 https://t.co/EOHIUDawcr
p25
aV@DianaTourjee @Alyssa_Milano @broadly Of course this is right, but it\u2019s also sort of a silly question. Dems seem to\u2026 https://t.co/ILfz61nrPN
p26
aV@RRod33 @DianaTourjee @Alyssa_Milano @broadly It\u2019s a Latin preposition meaning \u201con this side of\u201d used to modify the\u2026 https://t.co/XxtTCb8iGF
p27
aVRT @repjohnlewis: I have been beaten, my skull fractured, and arrested more than forty times so that each and every person has the right to\u2026
p28
aV@KimberleyC @kaitlancollins @kylegriffin1 Sycophant
p29
aVTake heart friends, the tide of history is on our side. No one can define you away. You are here. You are valid. Yo\u2026 https://t.co/npaMMFuj1h
p30
aV@LindseyGrahamSC Of course it is. You\u2019re a lawyer. Liars have shifting explanations.  In this case, the explanation\u2026 https://t.co/ISHPtFluOT
p31
aV@MRMARZ1980 @JacobyFord12 I remember that game. It was special. Ford can fly.  As a life-long raiders fan I loved w\u2026 https://t.co/DhPCP83M90
p32
aVFinally watched @RBGmovie. WOW! It did not disappoint. Asked my wife to show it to her middle schoolers. So timely\u2026 https://t.co/Kvfv3pknCQ
p33
aV@FilmmakerJulie Yes! Just a beautiful piece of writing.
p34
aV@mitchellreports @aseitzwald I\u2019m not sure he does have to win to run in 2020, but I hope he wins.
p35
aVRT @AthleteAlly: LGBTQ youth deserve to be safe and supported in hallways, locker rooms, sports fields, and all spaces. Join @GLAAD and Ath\u2026
p36
aVRT @neal_katyal: At some point, we are going to have to wake up to the fact that there is a war being waged on the impartiality of our fede\u2026
p37
aV\u201cI have some love and acceptance to spare.\u201d  How much better off would we all be if we just embraced this simple bu\u2026 https://t.co/pEZWJDZU40
p38
aV@TheTweetOfGod How can Twitter verify you\u2019re you when you don\u2019t believe in you?
p39
aVI don\u2019t know about you, but I find @thejeffreymarsh to be one of the most inspiring persons on this platform. Invar\u2026 https://t.co/NgMKiLXjqD
p40
aVRT @TheTweetOfGod: You should meet My son. https://t.co/2sgF75ycj0
p41
aV@TheTweetOfGod Bazinga!
p42
aV@Alyssa_Milano Add: Pack the courts with conservative judges to weaponize the First Amendment so claims of \u201creligio\u2026 https://t.co/QYiivi21CV
p43
aV@Alyssa_Milano My respect for you as an actress is surpassed only by my admiration for you as an activist.  You\u2019re on point.
p44
aV.@Alyssa_Milano my respect for you as an actress is surpassed only by my admiration you as an activist.  You\u2019re on point.
p45
aV@thejeffreymarsh I generally think LGBTQ+ parts should go to LGBTQ+ actors. But what about when cis/het superstars\u2026 https://t.co/WEmVFnKnrr
p46
aV@glaad You deserve unconditional love for being you, especially from your family. If you have that, you\u2019re not luck\u2026 https://t.co/rxLUmozBfe
p47
aVThis is really one of the most fascinating yet bizarre political stories I\u2019ve been following. A real constitutional\u2026 https://t.co/RIpfrY9Au7
p48
aV@katiecouric The illegal rendition and subsequent murder of Khashoggi, and the financial links between Saudi Arabia\u2026 https://t.co/xzsY3790hG
p49
aVAgreed. @NicoleAMaines is an inspiration to millions, and a role model for a young person very dear to me. The gene\u2026 https://t.co/r8KDcpLkac
p50
aV@KarenAttiah @ssamcham @JKhashoggi I am so sorry and disgusted by this. Every American, every human for that matter\u2026 https://t.co/tieNIntFAp
p51
aVYeah, talk about transparent fear of what real investigations would uncover. Mitch would never warn Dems against pu\u2026 https://t.co/tDJFh1jE9A
p52
aV@HolliesWalker @Vermeullarmine @tedfrank What I mean is conservatives complain of \u201cactivist\u201d judges when they strik\u2026 https://t.co/7YTBzjbPNY
p53
aV@SeanAstin Illinois 7th
p54
aV@Vermeullarmine @tedfrank Legal conservatives tend to be conservative when they are in the minority. They are all t\u2026 https://t.co/KcKH9ZmLv6
p55
aVRT @SeanAstin: Me: \u000aShould I just start tweeting a ton about the climate emergency?\u000a\u000aYou: \u000aPeople will start dismiss you.\u000a\u000aMe: \u000aWhy?\u000a\u000aYou:\u2026
p56
aV@Nicole_Cliffe And I mean this as a compliment to John Thompson Jr., he was a revolutionary in college basketball.
p57
aV@Nicole_Cliffe You just made me spit wine out my nose! Thank you.  (Clearly you also haven\u2019t followed Georgetown ba\u2026 https://t.co/ivt6LTyG9p
p58
aV@tribelaw ...judicial appointments of nominees who had broad support b/c they wanted a republican to make them inst\u2026 https://t.co/1jRofpHuhD
p59
aV@tribelaw ...the chance at another power grab emerges they take it without hesitating over means. Dems have fallen\u2026 https://t.co/DsvQ6yY7vd
p60
aV@tribelaw ...of securing a conservative Supreme Court for a generation by the most illegitimate means imaginable, n\u2026 https://t.co/hJ1591eBBQ
p61
aV@tribelaw The invocation of David Marcus also urging fellow conservatives to stop \u201cgloating\u201d and adopt a \u201cmuted and\u2026 https://t.co/c3ElVd6XSt
p62
aV@AmoneyResists So on point
p63
aV@pandacorns01 @boburnham I know it\u2019s frustrating. I wanted to vote way back in the \u201894 midterms but couldn\u2019t. But u\u2026 https://t.co/3bF2j4Pu3q
p64
aVRT @TheTweetOfGod: Most people who doubt women's claims of assault do NOT doubt a 2,000-year-old book's claims that I had a son who rose fr\u2026
p65
aV@PressSec @realDonaldTrump Thanks for at least telling the truth (for once) that the court isn\u2019t an apolitical body\u2026 https://t.co/9zDi12V9BO
p66
aVRT @pbump: Whatever your view of Kavanaugh, remarkable that a nominee who is underwater on support, put forward by a historically unpopular\u2026
p67
aV@akartchner @danepps @FirstMondaysFM @GaneshSitaraman @voxdotcom A 2008 study found Thomas, Scalia, Roberts and Ali\u2026 https://t.co/OcAvDNJn3R
p68
aV@akartchner @danepps @FirstMondaysFM @GaneshSitaraman @voxdotcom For every big *liberal* decision deciding an issue\u2026 https://t.co/gcggaXHTC6
p69
aV@akartchner @danepps @FirstMondaysFM @GaneshSitaraman @voxdotcom But since we\u2019re talking cases: Bush v Gore, Shelby\u2026 https://t.co/e43NWEUNAp
p70
aV@akartchner @danepps @FirstMondaysFM @GaneshSitaraman @voxdotcom No. But cases that keep the rich and powerful rich\u2026 https://t.co/E7S1k1RXBo
p71
aV@linda_dynel Make the next generation better. Getting consent is not a cowards way.  Knowing that you and your part\u2026 https://t.co/O9rkod2NjL
p72
aV@linda_dynel Yes. How many men can relate to pressuring a woman to go one step further after she said stop, or no,\u2026 https://t.co/fRk0bgAIiD
p73
aV@akartchner @danepps @FirstMondaysFM @GaneshSitaraman @voxdotcom Criminal law too.  The resurgence in 4th Amendment\u2026 https://t.co/d0qyLZ9uV4
p74
aV@akartchner @danepps @FirstMondaysFM @GaneshSitaraman @voxdotcom Those are still the few hot button cases.  Read th\u2026 https://t.co/hz7k4UXG83
p75
aV@akartchner @danepps @FirstMondaysFM @GaneshSitaraman @voxdotcom You gotta read more than the hot button cases of R\u2026 https://t.co/hJPFaQT1U3
p76
aV@akartchner @danepps @FirstMondaysFM @GaneshSitaraman @voxdotcom What? The Court has had a minimum 5-4 R v D majori\u2026 https://t.co/PIziDtrjy2
p77
aV@ssamcham No one will remember her speech, just her vote. This will probably be viewed as her most consequential vo\u2026 https://t.co/ugZhMHO7xG
p78
aV@LAProgressive @theintercept It\u2019s called participatory democracy @SenatorCollins.  You represent other people. They\u2026 https://t.co/5hsVpkIUFR
p79
aV@imillhiser Made this point in an op/ed in my local paper, highlighting that progressives don\u2019t understand how lase\u2026 https://t.co/aHGwqHynqI
p80
aVRT @neiltyson: #IKnewIWasOld when I started caring more about what is objectively true than about hurting people\u2019s feelings.
p81
aV@neiltyson You just summed up my core belief in a short tweet!  You really are good man!
p82
aV@danepps In his defense, we seem to live in a time where if you just say something loud enough and often enough it\u2019\u2026 https://t.co/qQ6mFlLox6
p83
aVThis point cannot be overlooked.  Much of his testimony was troubling, but his \u201cwhat goes around, comes around\u201d thr\u2026 https://t.co/OlXOFNGB9g
p84
aV@tedfrank @benjaminwittes The Constitution requires Courts to deal with cases and controversies and not give adviso\u2026 https://t.co/opcIcKO0yl
p85
aV@tedfrank @benjaminwittes Seriously? Scalia wrote multiple books and gave hundreds of speeches, some of which could\u2026 https://t.co/fJYPsFSUtv
p86
aVHe probably has the votes, but I agree, his realizes his credibility is shot. Confirmation is a political process f\u2026 https://t.co/k4I5TwJFb9
p87
aV@gallerychapel @tedstern @JRubinBlogger @TheChildrenHour He cannot.  The Code of Conduct for United States Judges a\u2026 https://t.co/IViLMt0aAJ
p88
aV@gallerychapel @tedstern @JRubinBlogger @TheChildrenHour But it\u2019s important to go into to something so momentous as\u2026 https://t.co/NyVUYXl8LJ
p89
aV@gallerychapel @tedstern @JRubinBlogger @TheChildrenHour And delegitimization might be the right goal, difficult as\u2026 https://t.co/1XjPkBK5XW
p90
aV@gallerychapel @tedstern @JRubinBlogger @TheChildrenHour Public exposure yes, but he won\u2019t *have* to recuse on anyt\u2026 https://t.co/wThLnyYUPI
p91
aV@tedstern @JRubinBlogger @TheChildrenHour I keep saying this. It\u2019s shocking the people who say R\u2019s aren\u2019t seeing th\u2026 https://t.co/iAV9Ppie7Q
p92
aV@JRubinBlogger @EricBoehlert Sure, if Dems take the House they can impeach by simple majority. But 2/3 of the Senat\u2026 https://t.co/qwbwPYc2jL
p93
aV@SherylNYT @senatemajldr By \u201cthese people\u201d you mean constituents, voters, Americans, right?
p94
aV@ssamcham Hard not to be cynical and assume the silence is the product of self-interest. Thursday\u2019s partisan perfor\u2026 https://t.co/eQlsaCKccM
p95
aVRT @ssamcham: We need more appellate lawyers to say this right now, whether publicly or privately to vascillating Senators. I was genuinely\u2026
p96
aV@NateSilver538 Yep
p97
aV.@JeffFlake  is indeed writing his legacy in real time.  I don\u2019t believe that\u2019s his motivation.  Just a decent guy\u2026 https://t.co/tVZ1rhqHBN
p98
aVSenator @JeffFlake is sealing his fate in history, right here, right now, with this vote. So watch closely everyone\u2026 https://t.co/TiKOLJMmKz
p99
aVRT @NateSilver538: This and Graham's speech were the key moments -- when they kind of gave up on the pretense on trying to litigate the fac\u2026
p100
aV@Susan_Hennessey @LeahLitman So heartbreaking true. The truth should always matter. Her testimony was difficult to\u2026 https://t.co/KYWvId7iLH
p101
aVBut on a personal note, I listened to Dr. Ford\u2019s testimony.  I cannot see how anyone thinks she is anything but 100\u2026 https://t.co/QuKnpwYQWZ
p102
aVAgree this was horrible behavior.  Still, I ask that @JoeManchinWV, @JoeforIndiana, @lisamurkowski, @SenatorCollins\u2026 https://t.co/TnhcjzBfsu
p103
aV@JeffFlake I won\u2019t ask you to vote yes or no.  I will say that I believe you are a good man with a sound moral comp\u2026 https://t.co/QI1JAng2Jv
p104
aVWonder if the June 29, 2018 email exchange between Ms. Blasey and Koegler available?  That\u2019d be something. Not defi\u2026 https://t.co/vCHYqCGD4l
p105
aVAgree Prez could name a back-up. Agree Senate could confirm in a lame-duck session. Agree the Court\u2019s integrity and\u2026 https://t.co/0VyJPLbsgo
p106
aV@jonfavs @tedcruz His real intent in posting it is obvious, but I think he inadvertently endorsed @BetoORourke
p107
aVDitto. https://t.co/M3vqxIdlXh
p108
aVRT @neiltyson: Since the Universe has no center, you can\u2019t be it.
p109
aVAs I\u2019ve said, wish @BetoORourke was in my state, but we need him in Texas, need his voice in the Senate, need his l\u2026 https://t.co/x5d6oqM9m6
p110
aVRT @ThomasARoberts: I waited over 20 years to report my sexual abuser.\u000aBecause I was 14.\u000aBecause it was my hero.\u000aBecause it was my priest.\u2026
p111
aV@ThomasARoberts Your bravery is inspiring.
p112
aV@ssamcham Exactly
p113
aVGreat analysis.  For non-lawyers...fights over what does and doesn\u2019t get disclosed in litigation is hashed out betw\u2026 https://t.co/RuoYgKWaaX
p114
aVRight.  Preferably men would not do the wrong thing for the right reason...because it\u2019s wrong and morally repugnant\u2026 https://t.co/1UvQPEUm9F
p115
aV@mrbenwexler Right.  Preferably men would not do the wrong thing for the right reason...because it\u2019s wrong and mora\u2026 https://t.co/Fd4cWkoLrS
p116
aV@Gemma728 @politico Shouldn\u2019t need to be said
p117
aV@jonfavs Can\u2019t say he doesn\u2019t have chutzpah
p118
aV@chrislhayes Really? You can understand that directional impulse? I cannot.  The number of \u201cfalse\u201d sexual assault r\u2026 https://t.co/FI5FPsFuBF
p119
aVTerribly sad commentary on society when \u201cThe President didn\u2019t attack a sexual assault victim\u201d is newsworthy. https://t.co/sLRSEqKLcZ
p120
aV@politico Terribly sad commentary on society when \u201cThe President didn\u2019t attack a sexual assault victim\u201d is newsworthy.
p121
aV@isamuel Hey!  As a Raider\u2019s fan...you make a good point.
p122
aV@RepVeasey @HRC We all have a responsibility to lead meaningful, ethical lives that add to the good of humanity. Wi\u2026 https://t.co/T7fsnx8gyQ
p123
aV@RepVeasey @HRC Exactly.  They are not #LGBTQ+ rights.  They are basic human rights.  They reside in all persons...\u2026 https://t.co/G9zsgElK0j
p124
aVHow can a parent not love their child for living their truth?  How do we not understand that the extraordinarily hi\u2026 https://t.co/bGgRp9gkAf
p125
aV@HRC @JoeBiden How can a parent not love their child for living their truth?  How do we not understand that the ext\u2026 https://t.co/9pMfEMzfOU
p126
aV@HRC @JoeBiden The existence of a \u201ctrans panic\u201d defense to murder is absolutely sickening. The LGBTQ Bar Associatio\u2026 https://t.co/Qq30ywC4eY
p127
aVThis is absolutely sickening. The LGBTQ Bar Association has a resolution calling on all state legislatures to end t\u2026 https://t.co/CL6BJ1d3hU
p128
aVCourts absolutely must be there to protect basic liberties and equality under law. But defaulting to the courts is\u2026 https://t.co/QsR79D3Xy9
p129
aV@MotherJones Courts absolutely must be there to protect basic liberties and equality under law. But defaulting to t\u2026 https://t.co/ZE88y1hv5l
p130
aV@BetoORourke Wish @BetoORourke was running for senate in my state, but we need him in Texas, we need his voice in t\u2026 https://t.co/fIx2wJn7ls
p131
aVMake that https://t.co/2b8BfqB2EZ, but check out @thewildernessb5 too...interesting.
p132
aVWish @BetoORourke was running for senate in my state, but we need him in Texas, we need his voice in the Senate, an\u2026 https://t.co/A2h87ai8Ge
p133
aVRT @TheTweetOfGod: When you kill in My name I feel like you don\u2019t think I can kill for Myself, and that makes Me sad.
p134
aV@WSJ @AlanDersh This is the wrong takeaway. Lesson 1: Treating men\u2019s and women\u2019s unsportsmanlike conduct differentl\u2026 https://t.co/Lb4AVcbt5Q
p135
aVRT @NateSilver538: If you're a voter in North Dakota, your vote is 26x more important in determining the fate of the Senate than the averag\u2026
p136
aV@Slate @washingtonpost @nytimes @maddow @NPR this is what you are doing...showing us our elephants.  Please keep it\u2026 https://t.co/qUNH8SYZns
p137
aV@tribelaw But considering his partisanship, why would he do that? Life tenure makes apologize later look a lot bett\u2026 https://t.co/bqWaAkhJKJ
p138
aV@thehill While I disagree, I respect the City\u2019s right to declare it\u2019s view that kneeling during the national anthem\u2026 https://t.co/RQoZyTRcAS
p139
aVWhile I disagree, I respect the City\u2019s right to declare it\u2019s view that kneeling during the national anthem is disre\u2026 https://t.co/jbzfkDpVi8
p140
aV@tribelaw @lisamurkowski @SenatorCollins It\u2019s curious that anyone ever feels satisfied with the \u201csettled law\u201d answe\u2026 https://t.co/MnTTIX0nS5
p141
aVIt\u2019s curious that anyone ever feels satisfied with the \u201csettled law\u201d answer from a Supreme Court nominee.  Appellat\u2026 https://t.co/fjpvEmlEJS
p142
aV@ssamcham This article does a good job explaining one reason Congress defers so heavily to executive agencies.  Iss\u2026 https://t.co/evUtKnky0Y
p143
aVThis really is an excellent article explaining why Congress defers so much to executive agencies.  Gov faces much m\u2026 https://t.co/u6EOVW5BGE
p144
aV@TOCPolice @mjzalewski Please recover...
p145
aVOfficer shot in the line of dutyZ. Keep him and his family in your thoughts. https://t.co/0rfdFiKwT8
p146
aVJust wow... https://t.co/dfUYopvskI
p147
aVToo many progressives ignore the Supreme Court until it\u2019s too late. The future direction of the Court should have b\u2026 https://t.co/K1GJ6lqpXF
p148
aVRT @Slate: Susan Collins complains of \u201cbribery\u201d after nonbillionaires try to influence her Kavanaugh vote: https://t.co/qgsjQJ2Vvf https://\u2026
p149
aV@Chef_BigT you're the reason my wife I and watched this season.  Great talent and a heart of gold. Good luck and go chase your dreams!
p150
aVRT @pourmecoffee: How does Jon Snow not mention, "I literally came back from the dead and we have a giant." This guy is the worst salesman\u2026
p151
aV@Conn_Iggulden thank you for the title.  Just purchased.  Look forward to another gripping read.
p152
aVRT @neiltyson: If the Pledge of Allegiance told the truth: http://t.co/Iy5zoyMOls
p153
aVRT @neiltyson: Ever notice how Vampires &amp; dead people, who sit up in their caskets, do so with a straight back? They must have good abs.
p154
aV@Conn_Iggulden Finished Stormbird in a week. Is Trinity not sold in the US yet? Can't seem to locate it.
p155
aV@Conn_Iggulden Just started Stormbird. Five chapters in...masterful story telling. Thank you. Love this bit of history.
p156
aV@J_Klinsmann #OneNationOneTeam Really proud of your team and the never say die attitude. 4 more years!
p157
aVRT @AlexiLalas: Under Klinsmann, the #USMNT has become a better version of itself. But the same weaknesses persist: Possession, finishing &amp;\u2026
p158
aV@Veldheer68 gonna miss u in #RaiderNation. Go show'em why in AZ. Best wishes.
p159
aV@aksarge Saw beautiful Mia today. Sorry we missed you. We'll be there again. London entertained as usual.
p160
aV@aksarge You are?! That's great! We're good. Phoenix is ready for the day to get here. I'm ok if he wants to wait a little bit.
p161
aV@aksarge This is so great! Gonna try to get up there and meet her soon.
p162
a.