(lp0
V@SeanCasten Happiness is crushing 2 packets in Palatine today. The office was jumping. https://t.co/otYGGw6nLs
p1
aVRT @peterbakernyt: Jobs created during the first 21 months of Trump\u2019s presidency and the final 21 months of Obama\u2019s presidency:\u000a\u000aTrump: 4,0\u2026
p2
aVRT @JohnBrennan: As a former resident of Texas and a proud UT-Austin alumnus, I believe Beto O\u2019Rourke is the type of individual Texans need\u2026
p3
aV@Shermichael_ Knowing what's on your ballot is a huge help when voting. @BallotReady and @ballotpedia are my favori\u2026 https://t.co/eQPoc8tJxp
p4
aVRT @GroundSwellSPC: Fundraising doesn't have to be a hire-wire act. GroundSwell can help you build a program that inspires engagement with\u2026
p5
aVHugely excited for the future of giving via @GroundSwellSPC - check out this young, provocative company on a missio\u2026 https://t.co/QlJJixLxHg
p6
aV@MarySchmich When I read your wonderful piece, I thought to myself, "well that sounds like something Allan would sa\u2026 https://t.co/ADjUh91uGR
p7
aVRT @DisavowTrump20: BREAKING: Native American Democratic candidate Sharice Davids holds a stunning 12-point lead over Trump-endorsed GOP in\u2026
p8
aVLeft or right, worth thinking this through: Electoral College confusions https://t.co/9Yma8ckWAz
p9
aV@citybythelake @SeanCasten Great @citybythelake - I'm signed up for 12-3 both Sat. and Sun. out of the Palatine off\u2026 https://t.co/w1PnsVAZ0w
p10
aVWho wants to canvass with me this Saturday and Sunday for @SeanCasten? https://t.co/rGs1Ea0ppI
p11
aVRT @robreiner: My father is 96 and a half years old. In his long life he has never seen anything like what\u2019s happening to our country. I lo\u2026
p12
aVAll set to #earlyvote tomorrow morning, thanks to @BallotReady @ballotpedia &amp; https://t.co/mB71k7QNAL
p13
aVRT @davidaxelrod: Congrats to my friends at @BallotReady for this well-deserved honor.  What began as a student initiative at @UChiPolitics\u2026
p14
aVRT @lessig: Our Electoral College and Super PAC lawsuits are picking up steam (we are waiting for a few court decisions as I type). There w\u2026
p15
aVFriends - sign up and keep your eye on @lessig  https://t.co/EmnX802PdA
p16
aVRT @TVietor08: Trump wants a debate about ending birthright citizenship more than actually doing it. Democrats should say, ok see you in co\u2026
p17
aVBecause I believe in @SeanCasten, also in science and facts, and because it's time for #IL06 to turn blue blue via\u2026 https://t.co/cBR1p4hyx2
p18
aVFact: In its annual Audit of Anti-Semitic incidents in the U.S., the ADL chronicled a 57% rise of incidents in 2017 over the previous year.
p19
aVRT @AmyFrancetic: \u201cNow we need our elected officials and community leaders and business leaders to push back against this hate more than ev\u2026
p20
aVRT @MarySchmich: "This is a time of purpose," he said. "We are in a mighty crusade." How to reframe this age of rage and fear. Today's colu\u2026
p21
aVRT @GovHowardDean: This berating style that King has served him well for his long tenure but his time is up. Trying to push women around is\u2026
p22
aVRT @SeanCasten: I'm proud of my choices over the last 20 years.  From denying climate change to taking away people's health insurance to ra\u2026
p23
aVRT @GroundSwellSPC: Inaction is no longer an option. Pick a cause you care about and get to work! We'll be right there with you. https://t.\u2026
p24
aVRT @GroundSwellSPC: How one women is remaking a 140-year old Chicago #nonprofit institution.\u000ahttps://t.co/bYgQBDkMlf
p25
aVYou know it\u2019s real when computer scientists at big brain schools say paper ballots are needed https://t.co/rl8FynQGzv
p26
aVI just gave $ to support @SeanCasten in #IL06 where our grassroots support can have the biggest impact! #DumpRoskam https://t.co/fj7HHQRLBO
p27
aVRT @ChrisEvans: PLEASE THIS. It\u2019s not a partisan issue. Everyone should vote. https://t.co/dmU8WEIetI
p28
aVI think we all need to take a crash course in genuine civility. Try it, you might just like it.
p29
aVI don\u2019t think it\u2019s a Blue Wave coming, but a lot of angry diverse people hungry for CHANGE.
p30
aVRT @eatonbrook: Nominate your 4 Horsemen of the Apocalypse? The Originals: @newtgingrich @KarlRove @SenateMajLdr &amp; Roger Ailes
p31
aVLove canvassing for @SeanCasten for #IL06 with pros @mazR53 &amp; Marty https://t.co/T9Em9eq5o9
p32
aVRT @waltshaub: @renato_mariotti Inherited his fortune, got his job by nepotism, companies mistreat low income tenants, rides on our roads,\u2026
p33
aV\u201cWe can\u2019t fact check our way to victory\u201d pod-worthy title @jonfavs
p34
aVNominate your 4 Horsemen of the Apocalypse? The Originals: @newtgingrich @KarlRove @SenateMajLdr &amp; Roger Ailes
p35
aVRT @fred_guttenberg: My favorite sign.  McConnell is more responsible than anyone else for what is happening.  Flip every Senate seat to De\u2026
p36
aVRT @danpfeiffer: The lesson for Democrats from @BetoORourke's massive fundraising number is that you don't need to compromise for corporate\u2026
p37
aVLove this so much. https://t.co/vm52RQDpkK
p38
aVRT @GroundSwellSPC: Add GroundSwell to this list of companies leveraging technology to enhance social giving. https://t.co/6Cpn1giV8d\u000a#soci\u2026
p39
aVRT @KnocktheVote: Tired of sexist, racist, out-of-touch politicians who don\u2019t represent your values making all of the decisions? Then vote\u2026
p40
aV@Shermichael_ Yes you do know that words carry tone. But I am happy to recast what I said to, \u201cYour words convey the sound of...\u201d
p41
aV@rickdesai Hey @rickdesai I will be right there with you #TheLastWeekend thanks for urging others to do the same.
p42
aV@Shermichael_ @Shermichael_ you sound like a man whining that women just need to keep quiet. Sorry, this moment goes way past politics.
p43
aVRT @MarySchmich: TrumPoem: Incredible \u000aI went to Mississippi \u000aWhere I know that I\u2019m adored\u000aAnd did the brave and stately thing\u2014\u000aI mocked th\u2026
p44
aVRT @davidfrum: Kavanaugh's message - "the Left"; "Borking"; "revenge on behalf of the Clintons"; "goes around comes around" - is that of a\u2026
p45
aVRT @TVietor08: Chuck Grassley is a living, breathing argument for term limits.
p46
aVI liked this visual so much. For my IL friends, here's how to get yourself registered to vote:\u2026 https://t.co/3jQ7kHKAUW
p47
aVRT @GroundSwellSPC: And that's when we realized we could use credit card fees to help fund nonprofits... What's your lightbulb moment? #Mon\u2026
p48
aVRT @GroundSwellSPC: We're excited to attend #SOCAP18 and hear these amazing people speak about how capital markets can drive positive socia\u2026
p49
aVhttps://t.co/PGl5hWk5vu
p50
aVRT @tomalexander19: \u201cDiversity is being invited to the party. Inclusion is being asked to dance.\u201d Understanding the difference between #div\u2026
p51
aVRT @GroundSwellSPC: The world's richest man has decided how he'll allocate the first 2 billion dollars of his philanthropic fund. #SocialGo\u2026
p52
aVRT @GroundSwellSPC: Our co-founders Dan Rubano and Joe Graves were recently interviewed by our hometown newspaper The Camas Washougal Post\u2026
p53
aVGood reminder we need to protect the real meaning of "impact investing," from the good folks @GroundSwellSPC https://t.co/OB4qJlciZB
p54
aVGonna kick off fall canvassing this Sunday for @SeanCasten #IL06 with my friends from @SwingLeft up in ummm, Barrin\u2026 https://t.co/wW2Cyb2EFJ
p55
aVWell done! Epicly rich insights and quick advice: \u201cHow to Engage Millennials, the first NewFounders Action Paper!\u201d\u2026 https://t.co/xtmhyPxLYW
p56
aV@clairejlew Good read. The study is based on corporate partnerships for co-innovation. The \u2018Goldilocks balance\u2019 lik\u2026 https://t.co/ABQxN2PrXp
p57
aVRT @JoeBiden: Before we vote this fall in the most consequential election of any of our lifetimes, I want us to have a real discussion abou\u2026
p58
aVThis was by far the best show of the season. Come back soon @MuccaPazza https://t.co/TnMnkPHvYu
p59
aVMayor Emanuel not running for re-election https://t.co/c4MaTunTEZ via @crainschicago
p60
aVhttps://t.co/qyrqin9WYW #startuplife
p61
aVI love how @jonfavs is teaching a whole generation history, as only he can do. Chapter 11 of #TheWilderness on media is a must-listen.
p62
aVRT @SenatorDurbin: It would be an abdication of the Senate\u2019s constitutional responsibility of \u201cadvice and consent\u201d to consider Judge Kavana\u2026
p63
aVListen to this and decide how to build up your citizen muscle. @ericpliu rocks.  https://t.co/7oAWjOBVUd
p64
aVRT @DavidPriess: I have learned that wombat poop is cubic. No joke. https://t.co/8ZPU7q9nih
p65
aVRT @SenatorDurbin: The biggest black hole in Judge Kavanaugh's record is his 35-month tenure as White House Staff Secretary from July 2003\u2026
p66
aVAnother sharp, funny and inspiring cohort of entrepreneurial leaders! https://t.co/lr9HnoOkLh
p67
aVCongrats to tonight\u2019s well-deserved fan favorite @lineshift at Wildfire Demo Day @TheGarageNU https://t.co/hzSmBhXNCY
p68
aV@lineshift kills it at Wildfire tonight - worker-first positioning and customer traction @TheGarageNU https://t.co/PJNxtB44mW
p69
aVHaving fun learning about being an AND person vs an OR person with Jora Wildfire Demo Day pitch @TheGarageNU - Excellent
p70
aVHeading up to @TheGarageNU in a few hours! Good luck to all. https://t.co/Qpn8euNbv8
p71
aVRT @SenWarren: There was a time in America when workers &amp; investors each got a big chunk of the wealth they produced. But these days, worke\u2026
p72
aVRT @ChicagosMayor: ICYMI: I spoke with Benny Lee, former Vice Lord, to hear about his journey from gang life and death row, the challenges\u2026
p73
aVRT @MeghanMcCain: Please read my father's farewell letter to the country he loved so much - \u201cDo not despair of our present difficulties but\u2026
p74
aVPretty cool that Life After Hate, and @GroundSwellSPC 's very first partner, is based right here in #Chicago https://t.co/bPsl0jAcaA
p75
aVGood advice in this article. I would add that NPOs should allow for creative discovery of their mission by millenni\u2026 https://t.co/lzanh53icn
p76
aVJoin me this Thursday night at @TheGarageNU to see the 2018 Wildfire cohort pitch their hearts out incl. my fav, @lineshift
p77
aVRT @derekcnel: I'm seeing this all over my feed, and now that I've watched, I see it's for good reason. This is something special. https://\u2026
p78
aVRT @ddale8: Here's the transcript of Trump's remarks at a New York fundraiser last week about coal and windmills. https://t.co/ADckyr4IET
p79
aV@AriannaSimpson Undaunted Courage, by Stephen Ambrose about Lewis &amp; Clark expedition.\u000ahttps://t.co/FqpfJv8Kf2  Than\u2026 https://t.co/BZuize7ehG
p80
aVRT @Frank_Schaeffer: Thirty-seven years after leaving office, Jimmy Carter, 93, still  bypasses the wealth and perks that flow so freely to\u2026
p81
aVA true American hero https://t.co/57sfiOYKJc
p82
aVThis. Stephen Miller Is an Immigration Hypocrite. I Know Because I\u2019m His Uncle. https://t.co/62d3nX0ZZB via @politico
p83
aV@FredHoch Some call me the gangster of love
p84
aVRT @DianeHessan: My newest Op-Ed  https://t.co/nNVF6xuXSz
p85
aVRT @SenatorDurbin: The people of this nation deserve honesty and transparency in filling this historic vacancy to the Supreme Court, and th\u2026
p86
aVRT @TheGarageNU: Demo Day is coming! Grab your spot now to see our 10 teams pitch head to head for a prize pool of $10K, including YOUR pic\u2026
p87
aVI just need someone to give me objective evidence of any hoax that persisted on a worldwide basis?
p88
aV@charleschuman Also - the urban data really begs our citizens to reassess the math, not the principles, that shapes our Electoral College.
p89
aVGoooooo John! https://t.co/IBFn0sVoWu
p90
aVI agree - please RT if you agree. How we treat Kavanaugh should be no different than how other recent SCOTUS appoin\u2026 https://t.co/AYfpxrIUlS
p91
aVRT @charleschuman: Fascinating look at #American land use. 41% of land used for feeding livestock\u000ahttps://t.co/NLOPjP8lLk
p92
aVUS on track to borrow most money since 2008 financial crisis: report https://t.co/sPM5Oo3jXk
p93
aVDems can unite under one principle, instead of policies that cause party infighting. Let\u2019s fight like hell for Justice For All.
p94
aV@JoeSofranko @PopTV Got it on DVR \U0001f44f
p95
aVRT @JoeSofranko: I haven\u2019t used Twitter in eons, but I wanted to share with the 4 people who might see this\u2014 My first ever guest star will\u2026
p96
aVHelp me get out the vote with @SwingLeft and flip the House blue this November! Sign up now to talk to voters in a\u2026 https://t.co/rPDW0mVhGO
p97
aVRT @lessig: Super smart piece about the idea the left leave on the table. (aka, really now, the ONLY way we could imagine fixing our consti\u2026
p98
aVRT @JuddLegum: Trump fully understands that his egregiously dishonest tweets will be dutifully reported by large wire services without cont\u2026
p99
aVI'm volunteering on #TheLastWeekend before the midterm elections. Where will you be? Sign up at https://t.co/286wwPbFol
p100
aVThe problem isn\u2019t how we feel about Trump \u2014 it\u2019s how we feel about each other https://t.co/Eludjn2OYa via @BostonGlobe
p101
aVThis begs to be illustrated - love it. A new TrumPoem, based on the president's words https://t.co/QykeqCAQlV
p102
aVRT @DavidJollyFL: Next up, Melania holds a presser to say she thought her jacket said "I really do care" not "I really don't care".
p103
aVSo on point - and, it seems @SenJohnMcCain brain is the one functioning brain among his fellow GOP senators. https://t.co/PR84gj20j4
p104
aVRT @SenFranken: When Judge Brett Kavanaugh appears before the Senate Judiciary Committee, I wish I could be there. Because I have some ques\u2026
p105
aVWhile it\u2019s important to seriously note departures from our democratic norms, I think it does liberals no good  to cry \u201cthis is not normal!\u201d
p106
aVRT @lessig: This is a SUPER SMART game to show the SUPER STUPID "logic" in gerrymandering, developed by students who mean to end this silli\u2026
p107
aVWorth the long read. If I know you, and you don't vote in November, we're going to have a problem. Who Should Vote\u2026 https://t.co/AroZGkLJny
p108
aVI appreciate the practical forecasting techniques and resources are found in this article, esp. the marbles. https://t.co/WtPrBKjgPU
p109
aVRT @moscow_project: THREAD: Another Trump Supreme Court Pick Could Imperil the Russia Investigation. Here\u2019s How. (1/13) https://t.co/OG4wLC\u2026
p110
aVRT @DanRather: Justice Kennedy retiring... If you are deeply disturbed, absorb the shock. But respond with even more determination. If you\u2026
p111
aVSuch a whimsical conglomeration of human enterprise. \u26a1\ufe0f \u201cThese are the 25 richest families in the world\u201d by @tictoc\u000a\u000ahttps://t.co/lao9ts5Qap
p112
aVNo, Democrats Don\u2019t Want \u2018Open Borders\u2019 https://t.co/b8v5TOJ4vR
p113
aV@rrrrrrod @DanielZarick Examine how inertia is working into your thoughts and habits. I also call it \u201clife plaque\u201d\u2026 https://t.co/hL1QnSJMGR
p114
aVhttps://t.co/tRBkfZUD8W
p115
aVJob training + fed govt role in fueling incentives...folks, imagine where we could be with that.
p116
aVPeople - you need to watch @MITJAmazon - pure escape series and start at the beginning, maestro.
p117
aVRT @davidaxelrod: I hope Americans are as insistent on the return of the 2300 kids separated from their parents as they have been against t\u2026
p118
aVRT @SenDuckworth: Talk is cheap. If @StateDept Secretary Pompeo &amp; the rest of the Trump administration actually cared about helping refugee\u2026
p119
aVWe'll take even the thinnest of silver linings, @lessig and thank you for the positivity. https://t.co/S20DOKY7RH
p120
aVWhat makes America great? Ironically, for some, it\u2019s our diversity. Reminded of that tonight watching a doc on @JakeShimabukuro
p121
aVhttps://t.co/7Hcas5yioL
p122
aV@BorisEP @realDonaldTrump Hardly advancing political goals - it\u2019s simply a moral requirement to oppose this monstrous action.
p123
aVRT @tburages: @AshaRangappa_ @PreetBharara I think what he said is that he has no choice but to enforce a horrendous law that his AG had to\u2026
p124
aVWorthy interview of Sally Yates by @davidaxelrod on The Axe Files - great example of interviewer preparation, and she is amazing.
p125
aV@buckleym117 Game on!
p126
aV@buckleym117 LOL your giphy game is still strong- next time I come north to you in your hood\u2019s \u201cvery special\u201d traff\u2026 https://t.co/n5fNQpYggo
p127
aVRT @martinmcgovern: This Post Doesn't Matter https://t.co/dE4mRec6Z2
p128
aVRT @peterbrack: Kim Jong Un has already accomplished everything he set out to accomplish, regardless of the meeting outcome. He has been no\u2026
p129
aVConservative Republican @benbernanke says we now have The Wile E Coyote Economy. Stimulus and deregulation potholes ahead - beep beep!
p130
aVRT @ASlavitt: 300,000 people in each Congressional district have a pre-existing condition. Thursday Trump filed papers to end their guarant\u2026
p131
aV"Perfection, it turns out, isn't perfect, and pretty good is good enough."  Wish I had taught this at a morning sta\u2026 https://t.co/5sl58XMuLP
p132
aVOpinion | John Brennan: I will speak out until integrity returns to the White House https://t.co/u20v9TJ5u7
p133
aVWithout Bullshit - When to break my writing rules -   https://t.co/zFGzBePuN4 via @jbernoff
p134
aVRT @ASlavitt: BREAKING: Illinois just became the 37th state to ratify the Equal Rights Amendment.\u000a\u000aOne more state to go. A perfect answer t\u2026
p135
aV@AlyssaMastro44 Retro cupcake-intensity binge, but with heart? Easy. @RedOaksTV series from @PaulReiser on Amazon Prime. Hello 1980s Jersey.
p136
aVGenevieve Thiers' political startup, version 2.0 - John Pletz Technology Blog - Crain's Chicago Business\u2026 https://t.co/9xcsH06WXn
p137
aVJudiciary to the rescue for students who were first scammed by Corinthian College, and then by the vultures working\u2026 https://t.co/qFqbs8fbn7
p138
aVRT @Stu_V2: I was just watchin\u2019 @Drake \u2018s God\u2019s plan for the hundredth time and felt inspired. We\u2019ve had a good year. If this gets 1k retwe\u2026
p139
aVMemorial Day is not only to honor sacrifice to country made by others, but should remind us to do our part as citizens in a republic.
p140
aVWooo - very excited to witness the #VentureCat2018 pitches - heading over shortly! Strong competitors! https://t.co/7SIstRYTOL
p141
aVRT @SenDuckworth: .@EPA headquarters is not Scott Pruitt\u2019s personal first class cabin \u2013 EPA belongs to the public &amp; he should personally ap\u2026
p142
aVWorth a long read. Baby Boomers broke America. Here's how we can fix it https://t.co/IJLBYUVvrI via @
p143
aVWord. https://t.co/WRsiXNMcP8
p144
aVAgree! And lifelong learning applies to everyone, not just today's grads. https://t.co/MpNECDNiTJ
p145
aVRT @dabeard: Stunning: More American kids have been killed in shootings at their schools this year than U.S. military personnel while on du\u2026
p146
aVFrom your community's lips to the ears of the DNC and RNC. Great post @DianeHessan https://t.co/3NigKKyolI
p147
aV@RandPaul you are entirely on the wrong side of the #NetNeutrality fight. Read some history - I suggest The Master\u2026 https://t.co/GsveCutmcb
p148
aVGoing to try my first "Escape Room" this weekend @Lock_Chicago in Evanston. Our room will be "Sunburn."
p149
aVStrike-zone advice from @SallyBlount for launching your career, and especially for women. Get comfortable being unc\u2026 https://t.co/HFIofPbgib
p150
aV@BrigitteAnder17 Good Q! Maybe I\u2019m boring. I keep a Daily Capture in Evernote. I limit myself to one line per day.\u2026 https://t.co/1PT2U05G0d
p151
aVHey @StartupInst alums we should have covered this: How To Figure Out If You\u2019re In The Wrong Job https://t.co/QBLk2IOuCP
p152
aVStill good advice: The 3 biggest sales mistakes enterprise software companies make https://t.co/l26giViOo7 via @techcrunch
p153
aVRT @SenatorDurbin: Keeping the internet a place where content is shared freely and accessed equally by everyone is important to businesses,\u2026
p154
aVRT @tomalexander19: What I Learned From Howard Tullman https://t.co/EZPSZPzhv9 @tullman https://t.co/tPit3dDHbh
p155
aVToday's @dealbook headline re new study showing no pay gap between male and female CEO's could have mentioned via H\u2026 https://t.co/GhhuGUfUrS
p156
aVToday's NYT Daily Briefing Fact: The Librarian of Congress is a title that has been held by 14 people since 1800. C\u2026 https://t.co/7crXpOY6k7
p157
aVCivic engagement, media literacy and debate get my vote for curriculum priorities https://t.co/u7Ht9K7k6i
p158
aVGreat advice for leaders and entrepreneurs from my best boss ever @dianehessan Five Questions with Diane Hessan https://t.co/JgDhmNUlsC
p159
aVRT @techreview: Political science tells us how to change minds on climate change, and these groups are trying to put the lessons into pract\u2026
p160
aVLucky for @illinoistech and so happy the @tullman magic rolls on! https://t.co/jPiBTBbo0S
p161
aVIf @FCC approves this merger, we are in the shit. Shout @AjitPaiFCC  after reading @Will_Bunch https://t.co/NMZOCmWftw via @philly.com
p162
aV@Cruiter @carsdotcom You contributed a ton to the community and I wish you well, friend
p163
aVExcellent analysis - voters need to tackle their guv and state reps on this - Why Chicago home prices lag: poor job\u2026 https://t.co/o3KD8jzaeJ
p164
aVLove this https://t.co/SqKzkPuljK
p165
aVChicago loves @ethanaustin Read this now and share. Very practical and so right now. https://t.co/lDqwWv20WC
p166
aVRT @anneapplebaum: "There are so many ways that a group like the NRA could be used to channel Russian money into a race, it's shocking" htt\u2026
p167
aV@galenthethird Thanks - terrific evolution on MVP and JTBD - learn faster
p168
aVRT @PeteButtigieg: Four years ago today, I boarded a plane, after intense training on how to use this thing in a war zone. \u000a\u000aArms like this\u2026
p169
aVRT @tomalexander19: Unbelievable. This is not okay. ~~ Congress quietly preserves ability to pay sexual harassment settlements with taxpaye\u2026
p170
aVRT @ProPublicaIL: Here\u2019s the $$$ count at the end of #IllinoisPrimary. @GovRauner has contributed nearly $60 million to his own campaign, a\u2026
p171
aVRT @jayrosen_nyu: My model of the engaged academic says you don't just study things, you do things that help you study things and simultane\u2026
p172
aVRT @HereIsRebecca: This race is a fight for the soul of the Democratic party. That's why I'm on #TeamBiss. No one else even compares. https\u2026
p173
aVRT @TeamBiss2018: Looking for a reason to vote for @DanielBiss? Here are 50. https://t.co/ndHcI7DXS2 \u000a\u000aHT Tom Hobein
p174
aVRT @DanielBiss: Chances are good that you have friends who are undecided in this election. Help them out with our handy voter guide, and te\u2026
p175
aVCome on, how can you not vote for governor who can juggle real fire?!? Go #TeamBiss #ILGov https://t.co/7IatlNdHY6
p176
aVBiss has the momentum of Illinois people behind him! https://t.co/L6BWVPmwun
p177
aVRT @DanielBiss: In February, I proudly introduced a bill in the Senate to bring #NetNeutrality to Illinois. As governor I'll fight to ensur\u2026
p178
aVRT @AmyFrancetic: Can he put the genie back in the bottle? https://t.co/wrk9Mpwetv
p179
aVRT @WestWingReport: If every government official who had an "unauthorized disclosure" to the media (Sessions's reason for axing McCabe) was\u2026
p180
aV@CarrieSweet2017 @relucasz And @SecretaryZinke has assiduously staffed Advisory board for hides &amp; tusks when crucia\u2026 https://t.co/AcRLBFtRS8
p181
aVRT @derekcnel: One of my closest friends is pledging $1 in support of @MarchofDimes for every RT. Let\u2019s see how many we can get for his lit\u2026
p182
aVRT @shevotesil: .@AlexNiemczewski Co-founder of .@BallotReady, a non-partisan website that gives real time, researched information on EVERY\u2026
p183
aV@townhallcom Wow @mVespa1 great job diminishing any credibility for @townhallcom with shallow and vindictive harpin\u2026 https://t.co/tKelSrlyhn
p184
aVRT @slpng_giants: The difference between Fox\u2019s coverage of these two Presidents is literally black and white. https://t.co/uRfCtyhozI
p185
aVExcellent analysis! \u201c4 Takeaways from Flipping Our First House Seat\u201d by @etwhitehill https://t.co/aNFQYHYS8j
p186
aVLove it. Also make your voting homework easier w/@ballotready - for all the other primary races besides voting for\u2026 https://t.co/wtUeMPQyPl
p187
aVRT @mstark61: @DanielBiss is running for governor of IL. I believe he has the guts to make the tough decisions towards fixing our state\u2019s p\u2026
p188
aVRT @DanielBiss: Proud to be endorsed by @SierraClubIL. As governor, I\u2019ll work toward 100% renewable energy in Illinois. Our children deserv\u2026
p189
aVRT @MaryAnnAhernNBC: Hearing big story on #ILGov race in @chicagotribune Wednesday that may have @JBPritzker concerned, final debate tomorr\u2026
p190
aV@danpfeiffer Announcing Rex firing today is just a convenient way to distract the media from covering #PA18 electio\u2026 https://t.co/3f0Z1Ft3ls
p191
aVRT @derekcnel: Here are the GOP members of the House Intel Committee who are putting themselves in the history books for all the wrong reas\u2026
p192
aVDecent rich guys, but @JBPritzker and @KennedyforIL should not lead IL because they genuinely will preserve status\u2026 https://t.co/KvebhHDALg
p193
aVRT @UNITEDWEDREAM: These are the top 5 things you need to know about the Supreme Court #DACA announcement on February 26, 2018.\u000a\u000a#SCOTUS #D\u2026
p194
aVThink you\u2019re not old enough to register to vote? If you\u2019re 17 and will be 18 by Election Day, chances are you can.\u2026 https://t.co/7n1gbEDCjH
p195
aVRT @DanielBiss: Don't miss out on early voting\u2014use our lookup tool and make a plan to vote: https://t.co/aSIq2ZXgwA\u000a#TeamBissVotes
p196
aV@TeamBiss2018 Hah! Nicely played, and it WAS water Go #TeamBissVotes #ElectionsNotAuctions
p197
aVAnother happy @DanielBiss voter, drinking in the satisfaction that comes with early voting \U0001f60a #TeamBissVotes\u2026 https://t.co/24NCIZw8xk
p198
aVThrilled to cast my ballot for @DanielBiss &amp; @LitesaWallace this morning #ElectionsNotAuctions #TeamBissVotes https://t.co/AdMbY1th6x
p199
aV5:30 on Saturday and I making my ballot choices to vote early on Sunday. One pick is obvious @DanielBiss for a gove\u2026 https://t.co/fofjW3oBGW
p200
aVI'm a neophyte to Madigan war tactics within his own party - who even wants to work with this guy? https://t.co/uHyXtUlOug
p201
aVRT @ASlavitt: BREAKING: White House kills any potential for any ACA bipartisan deal by putting in place more details to hurt people w pre-e\u2026
p202
aVWorthwhile info in the Sun Times https://t.co/YrbhoLIOHU
p203
aVSpending today with teen entrepreneurs judging their business pitches - exciting and hopeful @mHUBChicago #launchxdemoday
p204
aVWell written opinion - \u201cWhat's happening here? Illinois Democrats may be realizing that they don't need a rich guy\u2026 https://t.co/bZANhalWJv
p205
aVYes - win with the support of the people #BissPlease #ILGov well said @BrownBatHeart https://t.co/GJC0llXbvO
p206
aVI want my state of Illinois to shine with fiscal and moral integrity, job-creating ambition, and opportunity for al\u2026 https://t.co/wEdmffGz9q
p207
aV@JBPritzker you saying you don't report to anyone is PRECISELY why I don't think you will be the most successful of\u2026 https://t.co/Yb3zRjArYF
p208
aVFor my union friends, wonderful hard-working teachers, please know that @DanielBiss will work the hardest for you,\u2026 https://t.co/WTnrvqIXoc
p209
aV.@JBPritzker wants you to forget that he donated $20,000 to a PAC that pushed for major changes to our pension syst\u2026 https://t.co/fYXvrGUXZL
p210
aVOur world is made better for the rest of us, because of people like Martese and Daniel. Go Go Go #TeamBiss https://t.co/Mwhp0Rso39
p211
aV@townhallcom I decided to follow @townhallcom because it was rated as fact-based conservative view, but the feed is\u2026 https://t.co/s2DSPerezm
p212
aVRT @1871Chicago: We're honored to be ranked #1 Top University-Affiliated Business Incubator in the World by @UBIGlobal at #UBIAwards18. Thi\u2026
p213
aVWonderful endorsement! https://t.co/28uPxX2XZ0
p214
aVRT @ASlavitt: To summarize this week\u2019s events, the GOP believes if someone with a mental illness loses their job, the right step is to cut\u2026
p215
aVAs a middle-class Illinoisan, @DanielBiss wasn\u2019t supposed to have a chance in this race. I am excited by my fellow voters! #ILGovDebate
p216
aV.@DanielBiss is the only #ILGov candidate with kids in public school. Only Biss will work to fix them #ilgovdebate  https://t.co/2UUJgo7TbC
p217
aV.@DanielBiss joined #FightFor15 because workers deserve the dignity that comes from a hard day\u2019s work #ilgovdebate  https://t.co/21yfDVI7zb
p218
aVRT @mic: After the Parkland school shooting, politicians and adults have failed these kids \u2014 so they\u2019re taking on the NRA themselves. https\u2026
p219
aVRT @johngreen: New video: When Your Friend Runs for Governor, the story of my 15-year friendship with @DanielBiss. https://t.co/GkYT67T8ie
p220
aVRT @DanielBiss: Excited to announce the endorsement of @sierraclubIL. @LitesaWallace and I will work tirelessly to move Illinois towards 10\u2026
p221
aVRT @lessig: My speech at the UNRIG Summit: Fix Democracy, First\u000ahttps://t.co/1KfAcgfY4P
p222
aVRT @davidsirota: The fact that progressive @DanielBiss is running so close in this race is stunning \u2014 he\u2019s close in the polls despite runni\u2026
p223
aVRT @NPR: Shulkin issued a memo to VA managers directing them to decrease employee travel "and generate savings," for the department. Two we\u2026
p224
aVI'll take Biss over $50M in campaign ads, any day of the week. https://t.co/hJpIUPBkq4
p225
aVRT @DanielBiss: .@JBPritzker is refusing to participate in the only televised downstate debate, and now it may be canceled. Sign on if you\u2026
p226
aVHow Do Chicago Tech Salaries Stack Up? https://t.co/K73RqAGFcP via @ChicagoInno
p227
aVComing atcha. Polls show Biss-Pritzker 'dead heat' \u2013 and either Dem beating Rauner https://t.co/TMaGzDTpvf via @suntimes
p228
aVRT @RichardHaass: Our military hardware is not what impresses the world. Rather, it has been our democracy, respect for law, openness, univ\u2026
p229
aVRT @derekcnel: What keeps getting lost is that DACA, CHIP, and community health funding didn\u2019t just magically lapse. All three could've bee\u2026
p230
aVRT @danielbiss: "Reformers everywhere should be paying attention to Illinois. This is a perfect fight to finally stand up to big money poli\u2026
p231
aVRT @TimeOutChicago: ICYMI: Chicago was named the world\u2019s best city for having it all\u2014for the second year in a row! https://t.co/da6poWt1hn\u2026
p232
aVRT @MattPauline1: @eatonbrook #Citizenry Game on \U0001f525\U0001f525\U0001f525 #BissPlease
p233
aVCalling wonderful IL voters today for #DanielBiss on the Weekend of Action. Voter interest building! https://t.co/CmxielODBK
p234
aVRT @danielbiss: Update: What we're doing is working. @JBPritzker is attacking us because he knows our movement is rising. We can't let up n\u2026
p235
aVIllinois governor candidate Dan Biss on taxes, Amazon HQ2, LaSalle Street - Blogs On Politics - Crain's Chicago Bus\u2026 https://t.co/BoEBD3HMd3
p236
aVChicago talent inspires me - last night 50+ smart, diverse people show up for #GACareerCamp panel discussion on neg\u2026 https://t.co/mFMcT6kBC0
p237
aVIL Guv race poll shows Biss surging ahead with younger voters, yes! https://t.co/OdiIsedXtx via @crainschicago
p238
aVHey job seekers - come out tomorrow night! I am speaking at Negotiation Strategies with @GA_Chicago -- Free to RSVP! https://t.co/ssZxqLPlYu
p239
aVDM me if you want to learn how to help out in WI for 2018 -\u000a How the GOP Rigs Elections https://t.co/7Kj0EKj4qW via @RollingStone
p240
aVI'm speaking along fellow rockstars @GA_Chicago\u2019s Career Camp Negotiation Strategies panel on 1/31! Free with RSVP https://t.co/ssZxqLPlYu
p241
aVTransparency for how your congressional district is drawn is something IL citizens must insist on from their rep. #Gerrymandering
p242
aVRT @SethAbramson: Dammit if the last paragraph of this breaking news doesn't imply that the Trump administration deliberately burned our al\u2026
p243
aVNext Wed  1/31 join me @GA_Chicago\u2019s Negotiation Strategies event. Get hard-won insight on what works.  https://t.co/ssZxqLPlYu
p244
aVI signed up to make voter calls on Sunday! 2 hrs. of fun ahead!! https://t.co/XJLTOVUC5n
p245
aVRT @danielbiss: We don't win by out-Raunering Rauner and we aren't resisting Trump if we copy him. In this election, who do you trust to fi\u2026
p246
aVRT @matt_francolino: I'm on #TeamBiss because it's time that we dream big about the future of our state and not settle for the status quo t\u2026
p247
aVCaring, compelling and credible debate from our middle class next IL governor tonight #TeamBiss #ILDemForum Vote March 20
p248
aVDaniel is the only candidate in this race who's released his full tax returns. We know exactly where Daniel\u2019s inter\u2026 https://t.co/rvCTEfmBdy
p249
aVRT @TeamBiss2018: .@JBPritzker must have wanted Daniel to vote for a Republican for speaker. But that\u2019s not surprising coming from JB, who\u2026
p250
aV.@DanielBiss: "We have been fighting in the legislature for middle class families like ours. The question is: Who's\u2026 https://t.co/msy80X6ePF
p251
aVI\u2019m with @DanielBiss because he\u2019s a community organizer, former teacher, and middle class dad. I know he\u2019ll stand u\u2026 https://t.co/pW3882gB7V
p252
aVI couldn't agree more with Dirk Lohan on saving McDonald's Oak Brook HQ. Gorgeous architecture. Crain's Chicago Bus\u2026 https://t.co/yrGXCCukN4
p253
aVA moment of clarity, if you are wondering who should be our next Guv in IL. Please vote March 20. https://t.co/qrU3i0abzH
p254
aVRT @danielbiss: Public Service Announcement #TheMoreYouKnow\u000a#twill https://t.co/hLiY3lgxK2
p255
aVLove Evanston's community turnout for Democratic Party endorsement meeting - go @danielbiss ! https://t.co/TmhIejDjCX
p256
aVRT @robreiner: 90% of Americans are in favor of extending the CHIP program. 90% of Americans are in favor of DACA. 90% of Americans are in\u2026
p257
aVI\u2019m speaking @GA_Chicago\u2019s Negotiation Strategies event on 1/31! Sign up (free!) to get hard-won advice on negotiat\u2026 https://t.co/ktq5mEhU8w
p258
aVRT @SenatorDurbin: Dreamers are sons and daughters of America who want be part of our future. They guarantee to us that the American dream\u2026
p259
aVRT @democracynow: Supreme Court Blocks Redrawing of North Carolina Congressional Maps https://t.co/niVPDqJJZl https://t.co/6dK3Fkc6Or
p260
aV@Amy_Siskind Worth re-reading  https://t.co/zR7cbYeMpU
p261
aVRT @danielbiss: WATCH: Fixing our broken system isn't some campaign promise. For me, it's personal. https://t.co/SL3R0SnJa8
p262
aVThe Danger of Accepting the Unacceptable - The Atlantic https://t.co/7d7QPOn5qA
p263
aVAnother reason to vote on March 20  https://t.co/2LecqazlQ0
p264
aVRT @danielbiss: Few can write themselves checks for $250,000. Way fewer can write themselves checks for $7 million. I wrote a check for $25\u2026
p265
aVTime to get excited about @danielbiss https://t.co/zR9RPMm9j9
p266
aVSpectacular writing @JamesFallows @TheAtlantic https://t.co/GnEOPvuV3r
p267
aVRT @danielbiss: WATCH: Our state isn't broke, our state government is broken. We can fix our budget problems without burdening middle class\u2026
p268
aVRT @davidfrum: So much was weird in 2017, but perhaps the weirdest was that people who nearly triggered a pizzeria gun massacre to stop ima\u2026
p269
aVRT @EALindquist: @eatonbrook @danielbiss is the only #ILGov candidate with a #DrWho Tardis Festival of Lights display too. https://t.co/aEG\u2026
p270
aVC'mon, who else running for IL guv has a good sense of humor? https://t.co/JjJQLRJ19o
p271
aV"Unpredictability may on occasion make sense as a tactic, but not as a strategy." https://t.co/a5MQUmCk9I
p272
aVRT @AlexCKaufman: Scott Pruitt talks a big game on Superfund. But it seems like just another piece of EPA to be doled out for patronage. Tw\u2026
p273
aV"Losing to China is hardly the worst thing that could happen to us. Losing ourselves is." https://t.co/de0l5A9nGq
p274
aVRT @analuciaraujo_: On Christmas Day in 1854 Harriet Tubman rescued three of her brothers (Ben, Henry, and Robert) from slavery #slaveryarc\u2026
p275
aVRT @tribelaw: The greatest danger isn\u2019t that Mueller will be fired but that Rosenstein will be ousted and replaced with a \u201cminder\u201d who clip\u2026
p276
aVRT @davidsirota: America would be a better if all the resources going to pay pundits to speculate about why Corker changed his vote were in\u2026
p277
aVRT @Amy_Siskind: Serious question:  how can anyone who identifies as \u201cpro-life\u201d not be infuriated that 9 million low income children (and m\u2026
p278
aVRT @HammanShares: Unboxing the Q gift #blessed https://t.co/ilFvM4nb9h
p279
aVRT @PeteButtigieg: The FCC has acted against our freedom to use the Internet. \u000aAll that remains is deciding if our politicians will be held\u2026
p280
aVRT @danielbiss: This is disgusting. 3 people just made a decision to line the pockets of corporations on our behalf, and at our expense. Co\u2026
p281
aVRT @mcrallie: I want to hear a #BissButtonStory from everyone!! https://t.co/SVYOjaBozt
p282
aVRT @SenGillibrand: You cannot silence me or the millions of women who have gotten off the sidelines to speak out about the unfitness and sh\u2026
p283
aVA #BissButtonStory: "Mom" at Herm's Palace on Dempster saw my button, and told me that a year ago, she was loading\u2026 https://t.co/2cuyTFibGn
p284
aVYes. So great to see people light up with a smile and say positive things when they see my @danielbiss button. Peop\u2026 https://t.co/dCR0DyO4gk
p285
aVAw snap @PressSec https://t.co/Fox32O4rxv
p286
aVRT @danielbiss: Pantone gets it. https://t.co/aXTovYvYx3
p287
aVRT @jayrosen_nyu: We need to start tracking media hate the way we do other hate groups and movements. https://t.co/AwgeqiW3pl
p288
aVI can live with a giant tax break to commercial real estate investors if it was a deal struck to help Trump on his\u2026 https://t.co/FBiluu2MMR
p289
aVRT @heysarahsweeney: PLEASE call 1-202-418-1000 to reach the voicemail of the Chairman of the FCC. Say your name, city, and state and that\u2026
p290
aVReforming campaign finance opens the door to undoing what we intentionally did #BissLessigTownHall @danielbiss\u2026 https://t.co/lAp8COIPWr
p291
aVLawrence Lessig says @DanielBiss is willing to say we have to fix democracy first #BissLessigTownHall https://t.co/ZD6Op1UnZT
p292
aVLawrence Lessig argues @danielbiss is ready to fix democracy first. We citizens must make it happen, as no one else\u2026 https://t.co/Q0XAERqUO9
p293
aVRT @danielbiss: Billionaires and insiders have tilted our political system in their favor for too long. That's why I introduced Rewriting t\u2026
p294
aV@HeartlandCafe Getting our democracy back #BissLessigTownHall one citizen at a time https://t.co/0IxchpTlSx
p295
aVPacked house @HeartlandCafe to see @danielbiss and Lawrence Lessig speak https://t.co/YuuyTvQRFI
p296
aVRT @HeartlandCafe: The Biss for Illinois campaign is excited to invite you to a town-hall to discuss campaign finance reform with Senator D\u2026
p297
aVRT @ASlavitt: Important message for @SenatorCollins: in exchange for your vote, you were promised...\u000a\u000aNo Medicare cuts\u000aMurray-Alexander\u000a$10\u2026
p298
aVRT @SenWarren: This Congress doesn\u2019t work for working families. It works for corporate lobbyists &amp; campaign donors in backroom deals &amp; 1:30\u2026
p299
aVRT @Austan_Goolsbee: Day 1 critique: no one read this bill.\u000aNow that it\u2019s public, the more powerful day 2+ critique becomes: senator __  ju\u2026
p300
aVRT @robferdman: I can't believe this is real, a tax break for private jet owners: "No tax shall be imposed...on any amounts paid by an airc\u2026
p301
aVOne key reason why people should support @danielbiss https://t.co/iFaa9eaYse
p302
aVRT @jayrosen_nyu: This is war, and the Washington Post knows it. https://t.co/8BSTR8IEQl Some of our other leading news organizations aren'\u2026
p303
aV@schlaf Dude, you forgot teaching "Forms of Gov't" aka "civics"
p304
aVRT @ananavarro: Matt Lauer lost his job.\u000aCharlie Rose lost his job.\u000aMark Halperin lost his job.\u000aGlenn Thrush lost his job.\u000aBilly Bush lost\u2026
p305
aVRT @danielbiss: Retweet if you agree: votes should be earned, not bought. Add your name: https://t.co/K3fMKkukcA https://t.co/ZhZlglk4JY
p306
aVRT @SenatorDurbin: From @politico: Republican Senator \u201cKennedy said he opposed Katsas\u2019 confirmation to the appellate court in D.C. because\u2026
p307
aVBrilliant! I'm in @Siraris https://t.co/A6irZgjjnb
p308
aVRT @danielbiss: Money can buy a lot of things, but it can't buy a movement. That's why this movement is going to take our state back for th\u2026
p309
aV"Your brain is in the dark but your mind constructs light." Poetic neuroscience from Incognito by @davideagleman
p310
aVAnd I value the work of @MichaelEPorter - @HBSWK https://t.co/Kh35koI2KU
p311
aVI want to know what @MichaelEPorter thinks of the GOP Tax bill. See nothing in his Twitter feed. Is he silently goi\u2026 https://t.co/PfsQyMaJjk
p312
aVJust wrote to Mike O'Rielly. Thanks @_AlexHirsch for encouraging us all. https://t.co/NSmjx3Ex4C
p313
aVUber reveals 57M-account breach and attempted cover-up https://t.co/X7fjfXMyq4 $UBER
p314
aVTrue! @superwuster you laid out the historical precedent in 2010 w/The Master Switch to warn us all. Let's keep fig\u2026 https://t.co/bu6UQBGEb6
p315
aVSave Net Neutrality #netneutrality https://t.co/C6uR3dC4JF via @Change
p316
aVOmg 1 in 3 Americans cannot name   a branch of government\U0001f622We\u2019re With Stupid https://t.co/pzNGpQS94S
p317
aVYES YES!! https://t.co/6Y5hneqd8x
p318
aVSave Net Neutrality #netneutrality - Sign the Petition! https://t.co/uQHadoosws via @Change
p319
aVRT @Mikel_Jollett: @matthewstoller @Atrios Saved the us auto industry\u000aCreated 15 million jobs\u000aInsured 22 million people\u000aAvoided a depressio\u2026
p320
aV@carlonavarro @ChicagoInno @leasanavarro @CancerRF Hey @Carlonavarro congrats on being on fire last night for your\u2026 https://t.co/4xR3eblLy7
p321
aVRT @justcapital_: \u201cThe restoration of the American dream is entrusted to companies that value the priorities of society\u201d says #JUST CEO @Ma\u2026
p322
aVRT @ASlavitt: The impact of the corporate tax cut/health care repeal all in one place.\u000a\u000aPlease share if useful. https://t.co/BP0aw5iccY
p323
aVYes. Pick your own billionaire, so far, has been a loser's game. @danielbiss, please. https://t.co/ddN4yu2vOd
p324
aVRT @danielbiss: Proud to have @CarolAmmons4IL on #TeamBiss. Together, we can make Illinois government be by and for the people again. Join\u2026
p325
aVRT @SenBobCorker: Look, I'm sorry, but even before these reports surfaced, Roy Moore's nomination was a bridge too far.
p326
aVRT @justcapital_: Americans prioritize Workers above all else when it comes to just business behavior. @washingtonpost reports on #JUST Sur\u2026
p327
aVRT @danielbiss: Our property tax system is corruption exemplified. That's why I introduced the HOME Act\u2014reforms are long overdue: https://t\u2026
p328
aVLet's take our democracy back. @DanielBiss is running for Governor of Illinois, here's what he needs to win \u27a1 https://t.co/dvC4j8iKEV
p329
aVLove this tutorial by @DanielBiss on IL - could JB pull this off? Nope. Watch all three vids. https://t.co/EP9U86iNWT
p330
aV@pewresearch Ordinarily I value Pew's non-partisan, factual approach, but whoever approved this survey did a huge d\u2026 https://t.co/zThe27z1cY
p331
aVGotta say, this ad by @danielbiss is funny and smart - I'm feeling relief already! https://t.co/wFQhlKL1fy
p332
aVI took the quiz. Interesting questions, maybe too reflective of our current moment - but that's politics. Guess whe\u2026 https://t.co/qQA4A5dl5P
p333
aVRT @bungdan: If our legal institutions aren't up to prosecuting this sad sack (spoiler: they are) then they aren't worth spit anymore. And\u2026
p334
aVRT @SenatorDurbin: Tom Mauser is wearing the shoes his son Daniel was wearing the day he was killed in Columbine in 1999. Please retweet to\u2026
p335
aV'Our minds can be hijacked': the tech insiders who fear a smartphone dystopia https://t.co/Doq2e5h4jC
p336
aVRT @paulocoelho: Look back and be grateful\u000aLook ahead and be hopeful\u000aLook around and be helpful
p337
aVOutrage over Chicago Navy Pier TIF disclosures spark no change -  https://t.co/Q2YGsjYeYj via @crainschicago
p338
aVRT @SenatorDurbin: Under the cover of darkness and distraction, @SenateGOP just voted to rig the system against millions of American consum\u2026
p339
aVRT @SenatorDurbin: In about 1 hour, @SenateGOP will throw American consumers under the bus so big financial companies can avoid accountabil\u2026
p340
aVRT @kylegriffin1: Passionate speech from John McCain, who slams 'spurious nationalism': "We live in a land made of ideals, not blood and so\u2026
p341
aVGetting fired up! This is the sort of plain (factual) talk all Americans want. https://t.co/CDaNoGT9Fj
p342
aVCompany values done right #LearnToDo &amp; DTFO, heyo @StartUpInst alums - https://t.co/NdZWVgpsrL
p343
aVHah-larious! https://t.co/hQMSG8Uhum
p344
aVAlarming trend: Midwest public university research losing funding fast @ITAbuzz https://t.co/AxrsjjakU0
p345
aVHow Chicago gets its guns https://t.co/NxhU7Yo1fk
p346
aVWhy are IL voters funding Biss for guv? Come on, people, get with #Biss2018 https://t.co/yo8I4eVaNv
p347
aVDemand Congress Renew Funding for the CHIP Program #reactletter\u000ahttps://t.co/L9vvmmTsJ2
p348
aVRT @danielbiss: Thank you, Justice Sotomayor, for exposing partisan gerrymandering for what it is\u2014injustice: https://t.co/D12I7aKC7w
p349
aVRT @NobelPrize: BREAKING NEWS The 2017 Prize in Economic Sciences is awarded to Richard H. Thaler @R_Thaler @UChicago @ChicagoBooth #NobelP\u2026
p350
aVRT @ASlavitt: 1/ I am leaving 4 intense days in DC &amp; now have a very different theory of what's going on in HC. Will tweet soon.\u000a\u000aFollow if\u2026
p351
aV@pewresearch Please show us responses to meaningful questions, than just the tired themes stoked by right and left wing media, thanks.
p352
aVYou can count on the Bill of Rights. Except when you can\u2019t. https://t.co/9sM55P6bL6
p353
aVRT @EqualCitizensUS: Our system for electing presidents is broken. Sign up to join the fight for #EqualVotes. https://t.co/lORZkEIvmu https\u2026
p354
aVThe Republican tax \u201cplan\u201d is a deficit-busting mess, but helps Trump pay less taxes. #reactletter\u000ahttps://t.co/5R8cEAAsAr
p355
aVRT @PeteButtigieg: Responsible gun owners have been ready to have an adult conversation about common-sense gun policy for years. Congress,\u2026
p356
aVRT @FastCompany: Huge swaths of America\u2019s communities are economically stagnant: How can we make them grow?\u000ahttps://t.co/e1mqn8fzMw https:/\u2026
p357
aVRT @RichardHaass: the political &amp; geopolitical case for an independent Kurdish state is strong; my take on what the US should now do.  http\u2026
p358
aVRT @springsteen: Help us #give2veterans. Every retweet of this post by 9/30 means $1 for @Stand4Heroes, up to $500K! Let's see how much \U0001f4b0 w\u2026
p359
aVWorth watching to remember how we do American values and leadership. https://t.co/YRmVeAbfJy
p360
aVRT @JasonKander: Patriotism isn't about making everyone stand and salute the flag.\u000a\u000aPatriotism is about making this a country where everyon\u2026
p361
aVRT @SenatorDurbin: Retweet to tell @SenateGOP you stand against their latest #TrumpCare
p362
aVhttps://t.co/glCJIki5hS
p363
aVRT @jimmykimmel: If you too are disappointed in Sen @BillCassidy #GrahamCassidy let them know it - call (202) 224-3121 https://t.co/eswlh6B\u2026
p364
aV@chestnutchi you might love this - stirring photos from my friends @WanderTheWild who journeyed all 2600 miles of t\u2026 https://t.co/BP54rAoA0Z
p365
aVRT @brianschatz: They only need to flip 1 vote by end of September to ruin your healthcare. Light up the phones, please. This really is the\u2026
p366
aVI love hearing @SamHarrisOrg voice talking about the nature of consciousness floating over my range as I make gremolata.
p367
aVRT @SenatorDurbin: Good news: A federal court blocked Attorney General Sessions\u2019 ill-advised effort to hold city violence prevention funds\u2026
p368
aVFrom @Harpers Index: Percentage of American adults who say they would run for Congress if they thought they had a chance at winning? 37% wow
p369
aVRT @pewresearch: The #September11th terrorist attacks were cited as a most significant historic event across generations https://t.co/nd7da\u2026
p370
aVRT @TheEconomist: Over 93% of DACA recipients over the age of 25 are employed, compared with 78% of all Americans between 25 and 54 https:/\u2026
p371
aVRT @1871Chicago: 9/18, @TomWheelerFCC comes to 1871 to explain the case for Open Internet and why protecting it matters. RSVP: https://t.co\u2026
p372
aVHere are the 11 state officials who decided to take on the Dreamers https://t.co/jAIyzVW9XV by @MaryamSaleh_
p373
aVRT @SenKamalaHarris: We MUST pass the DREAM Act. Retweet if you agree.
p374
aVThe New Front in the Gerrymandering Wars: Democracy vs. Math https://t.co/06icL36qUw
p375
aVThanks @SenBookerOffice for speedy facts about lies from AG &amp; @SenatorDurbin for authoring #DreamAct https://t.co/sCgI2TdKE0
p376
aVRT @SenatorDurbin: .@SpeakerRyan &amp; @SenateMajLdr: Here's what you need to know about the bipartisan Dream Act. Time to get it done. https:/\u2026
p377
aVRT @LOLGOP: If you think fertilized eggs are people but people brought to this country as kids aren't, stop pretending your concerns are re\u2026
p378
aVRT @billmckibben: After 4 years of record drought and a winter of record rain, California now gets all-time record heat. Hot new world http\u2026
p379
aVJoin me in support #DACA #HereToStay by holding our state AG's accountable: https://t.co/bN6Wwo1uVE via @unitedwedream
p380
aVEver grateful to @derekcnel - 39th issue: re:act \u2192Hurricane Harvey, DACA, Arpaio: https://t.co/5jKiAEyaW1
p381
aVRT @ByRosenberg: Seattle gets 37 inches of rain in an average year so Harvey's 52 inches of rain beats that by more than a foot https://t.c\u2026
p382
aVRT @SenBookerOffice: President @realDonaldTrump needs to stand by his words "to show great heart" for DREAMers. #DefendDACA https://t.co/g5\u2026
p383
aVSpeaking of priorities - a brilliant and obvious reminder https://t.co/W1nYunemeb
p384
aVTurns out there's a right order to saving the world. The 1st priority really is surprising https://t.co/RZcicL6PET
p385
aVRT @asmith83: Trans soldiers willing to die for our country: bad\u000a\u000aRacist sheriff who broke the law: good.
p386
aVRT @TheGarageNU: Results are in! 3rd: Unruled., 2nd: @BOSSYChicago, and 1st: @_LocalTech! Audience vote: Community Currency! #SummerWildfir\u2026
p387
aVNearly every @TheGarageNU pitch has clear social impact and some are plain fun #MogoThat
p388
aVImpressive pitches and a full house tonight @TheGarageNU for Wildfire Demo Day!
p389
aVThe swamp is all stocked up.
p390
aVHello, healthcare?
p391
aVWow - calling people animals. Hello Hitler.
p392
aVBeware what stirs your heart against the "other" https://t.co/Ynf3VL23BK
p393
aVCan we all just acknowledge the root cause of our political distress is NOT among the people but the concentrated collusion of money &amp; power
p394
aVRT @jjacobs22: The op-ed's by @DianeHessan are consistently most balanced, informative, sobering reads on current political climate https:/\u2026
p395
aVIronic to share @DBtodomundo piece here, but I would love to discuss it with any of you in person :-) https://t.co/N6zUPUjmFP
p396
aVRT @attn: .@Schwarzenegger has a blunt message for Nazis. https://t.co/HAbnejahtl
p397
aVAll brands do better if deeply focused on customers; some brands have structural advantage to do what @Gatorade did https://t.co/jxAia396Ud
p398
aVTime to wake up! https://t.co/K2jgObKLI1
p399
aVIllinois Democrat making a small-dollar bid for governor against a crowd of wealthy candidates https://t.co/DPVL45j2ir by @ZaidJilani
p400
aV4 things Chicago must do to boost its economy: opinion re Boston Consulting Group via Crain's https://t.co/pXHNeaRDyn via @crainschicago
p401
aVGood pitch! https://t.co/FL1LFY7fFv
p402
aV@MOutfield clearly makes the case for enterprise sales people who genuinely see the world through their clients' ey\u2026 https://t.co/XDqXncztQk
p403
aVRT @TheAtlantic: Are index funds evil? A growing chorus of experts argue that they\u2019re strangling the economy\u2014and must be stopped. https://t\u2026
p404
aVGreat advice: "Get the inputs right." "3 things big CPG marketers need to do to win again" https://t.co/NMbLswufHw on @LinkedIn
p405
aVAgree! You know it's past time to go, when reasonable Democrats are nearly as ready as the Reps to bounce Madigan. https://t.co/rQj1eJ4Ud1
p406
aVRT @danielbiss: Math being used for the public good! This is a great initiative to make our elections fairer. https://t.co/rBzFVaFkyl
p407
aVA bot did not make me RT this https://t.co/148LWXUpDB
p408
aVLove Chicago. Let's see more analytics startups. https://t.co/s2LrfxHAc4
p409
aVRT @davidfrum: In the press room: immigration is too high. In the West Wing: subpoenas for selling green cards. https://t.co/TbQJV7wbOn
p410
aVRT @markberman: I know sometimes the news seems dreary and exhausting but remember that this wonderfulness took place just this year https:\u2026
p411
aVYes! Download #EveryElection app cuz you gotta vote. It makes voting soooo much easier! https://t.co/baUjUj7Jju
p412
aV40 Bipartisan House members do their job! ACA compromise https://t.co/4jwQU5BZeO via @crainschicago
p413
aVRT @Harpers: Percentage of U.S. adults who plan on working past retirement age : 74\u000a\u000aIndex: https://t.co/DyXOyEL94q
p414
aV#climatechange is urgent, but did you know U.S. is last among its peers investing in workers for new skills? yikes. https://t.co/g6CW29V2Z6
p415
aVMy Party Is in Denial About Donald Trump https://t.co/YYpHdc7bYF via @politicomag
p416
aVRT @friendtodawgs: now that #Scaramucci is no longer sucking #trumps c#*k, I guess he'll have to suck his own, like #bannon.
p417
aVHave you hugged your bi-partisan centrist House member today? https://t.co/1uATbgFWM8
p418
aVRT @AndrewBatesNC: So @Reince, I know you just lost your insurance, but it's OK - you can STILL find coverage here: https://t.co/fCH9uuAYhH\u2026
p419
aVRT @CyrusMMcQueen: Reince Priebus is fired and POOF! \U0001f4a8 we're no longer talking about how Repeal and Replace failed and Trump suffered yet A\u2026
p420
aV#Brand #marketers I love this definition of competition and hope you do too: https://t.co/bR8FpfvrAp
p421
aVHey @StartupInst aspiring product managers, if you didn't see this one: https://t.co/rp4hvIrcUM
p422
aVThanks @SenSasse https://t.co/XWaS4IXFW3
p423
aVRT @MrFilmkritik: It costs the US $2.4 million a year to provide all transgender-related healthcare.\u000a\u000aA trip to Mar-a-Lago costs taxpayers\u2026
p424
aVRT @MrFilmkritik: It's important to note that the Department of Defense is the largest single employer of trans people in the US. 15K are c\u2026
p425
aVRT @ASlavitt: 6- While we are asked to watch the spectacle Wed &amp; Thurs McConnell will be negotiating the real deal.
p426
aVRT @ASlavitt: 5- All the amendments you are are going to see will not be relevant. Until the last one McConnell introduces.
p427
aVRT @SteveCase: Before you can be with others, first learn to be alone https://t.co/pFwRqxePfC "If we lose capacity for solitude, we lose ab\u2026
p428
aVDems need more Mayor Pete's: https://t.co/K4yjBadfyO via @charlieroseshow
p429
aVRT @jjudge: This is repulsive. These kids have zero life context as to what they're cheering for. Dark times. https://t.co/hOKKvfUsZK
p430
aVHot new job for middle-class students: manual labor  https://t.co/QzUAM4LaKs via @csmonitor
p431
aVI would have preferred reading this last March v. now. Trump\u2019s Russian Laundromat  https://t.co/zR7cbYeMpU
p432
aVRT @FiveThirtyEight: Trust a source who says something happened; distrust a source who says something might happen. \u000ahttps://t.co/orpgQ7coJr
p433
aVThanks for making me a more careful reader and thinker: When To Trust A Story That Uses Unnamed Sources https://t.co/xeDDR0uTaE
p434
aVBipartisanship used to be just "doing your job" outside of election season. Thanks guvs! https://t.co/C8zTGxE2Hw
p435
aVHow Chicago city power players diverted TIF funds to Navy Pier - https://t.co/6wWYrKOb8P Superb reporting via @crainschicago
p436
aVMy husband @friendtodawgs just asked me when they are going to operate on Trump's brain tumor #morningchuckle but \u2764\ufe0f to McCain
p437
aVWhen To Trust A Story That Uses Unnamed Sources https://t.co/xeDDR0uTaE thanks @perrybaconjr for making me smarter
p438
aVThis is smart, non-partisan analysis https://t.co/EBojN5iayL
p439
aVThe One Word That Can Instantly Change Your Mood https://t.co/XQ04NChaVA via @Greatist
p440
aVGee @SenateMajLdr maybe including female GOP Senators on the healthcare committee in the first place would have bee\u2026 https://t.co/Bn2jYfmVqc
p441
aVRT @eatonbrook: Thanks @AEI for dissecting why repeal &amp; delay tosses a risk grenade into healthcare - happy to agree this time https://t.co\u2026
p442
aVRT @eatonbrook: Foreign exchange student program was a long-term play for peace. I say we need same program here at home between urban and\u2026
p443
aVRT @ASlavitt: 2- Do we know the impact of wiping out the ACA? Yes.\u000a\u274cdouble premiums\u000a\u274c32 mm without coverage\u000a\u274c75% can't buy coverage\u000a\u274c$1.1T\u2026
p444
aVWow - check out these companies. Bummed I won't be watching their day-by-day progress inside @1871Chicago this year https://t.co/NlTdb7I9lw
p445
aV@martinmcgovern @united Oh no! Masses of empathy to you, and imagining why it was so important for you to get to Austin.
p446
aVBrilliant Jenkins! https://t.co/PEuKqwCFY6
p447
aVYep @PeteButtigieg is right; Dems need to stand for JOBS and work training for those willing to learn https://t.co/AKj2jpVKL7
p448
aVhttps://t.co/5GbPnEGLNs
p449
aVAnd defense comes from citizens obliged to know their role as citizens in a republic https://t.co/O3XgiZkgHy
p450
aVRT @emersonhbryant: @CandaceMckee12 @ntlsheresisted @CoryBooker And from the ACLU... 11% of U.S. citizens \u2013 or more than 21 million America\u2026
p451
aVRT @CoryBooker: President Trump wants to make it harder for you to vote. That's an affront to the power of America's democracy &amp; I won't st\u2026
p452
aV\u201cBrick and Mortar Retail is Not Dying: The Future of Brands in an OmniChannel World\u201d by @BrendanFWallace https://t.co/tgiPW44kPR
p453
aV@jjudge This: https://t.co/KrffifwXtl
p454
aVNeed to find the great analysis in @Harpers last year on higher ed https://t.co/FAvlo2l3oR
p455
aVRT @DianeHessan: Wonderful to see you again, @kelleratlarge! https://t.co/cLXqAqvvSA
p456
aVRT @PeteButtigieg: We in the Democratic Party are making this harder than it has to be. Our message isn't complicated: We exist to protect\u2026
p457
aVThis deserves buzz: New House bill would kill gerrymandering https://t.co/q4q2G1MXIM by @ZaidJilani
p458
aVRT @Amy_Siskind: I assume Republicans are seeing stuff like this too: the decline of the US, handing control in the 21st C to Russia and Ch\u2026
p459
aVRT @EFF: Next week, the Internet fights back. https://t.co/KqfGwwB8KD
p460
aVGoogle joins other tech giants to protest net neutrality https://t.co/jJStTugwby
p461
aVRT @cnni: What can we learn from history's worst designs? The Museum of Failure explores some less-than-successful products https://t.co/XX\u2026
p462
aVRT @EFF: Let's give the world a preview of the Internet without net neutrality. https://t.co/KqfGwwB8KD
p463
aVCareer talk, good networking, dogaroos, @martinmcgovern - what could be better? https://t.co/WBf0PeTh6n
p464
aV4/4 Thanks @mashagessen @Harpers for this most important citizen realization for July 4th 2017
p465
aV3/4"not only the Trump presidency but the legacy of the Bush and Obama Administrations."
p466
aV2/4"It must question the very premise of the war on terror, challenge the very fact of a perpetual state of emergency, and confront..."
p467
aV1/4"To be worthy of the lofty name 'resistance' the opposition to Trump must aim to break the country's post 9/11 trajectory." @mashagessen
p468
aVRead to the last paragraph: The Reichstag Fire Next Time, by Masha Gessen | https://t.co/clfgxoVjcV via @Harpers
p469
aVDownload the new free #EveryElection app from @newfoundersHQ so you&amp; your friends never miss a local election again! https://t.co/bOLL2wVB32
p470
aVI'm so ready for a House or Senate rep to turn tax overhaul into funding job training for tech, WPA-style. Retail workers, take note.
p471
aVWell said, thanks Allan Ackerman. "I'm a veteran and a cancer survivor \u2014 please don't mess with my health care" https://t.co/U7mVGPsqNP
p472
aVDiapers, newborn and size 3 most needed https://t.co/XPGjTGcj32
p473
aVI just donated to a rider in The Pan-Mass Challenge. Click here to support your rider! https://t.co/km2ysS9NOr #PanMass2017 via @panmass
p474
aVC'mon how great is it to see @shr4dha of @OutcomeHealth crushing it with @PhilPonce? \u2764\ufe0f#chicagoness
p475
aV@Rick_Zullo Agree - and when you need large containers of Purell stationed everywhere, it smells like growth :-)
p476
aV@Justyn doh, meant @EvanstonFloat
p477
aVRT @AmyFrancetic: IL was patient zero - Russian hacks on U.S. voting system wider than previously known - Crain's Chicago Business https://\u2026
p478
aV@Justyn I did when Spacetime Tanks was around and loved it but @EnanstonFloat is new if you can swing the commute
p479
aVYour biggest asset is your mentor network - @DianeHessan in Forbes https://t.co/XuET5Imvet (4ever grateful serendipity brought me to you)
p480
aVJames Comey\u2019s statement is totally believable, but it won\u2019t matter https://t.co/UVsC0gcsH5
p481
aVRT @JenniferBrandel: If you wrote a movie script about a gov document leaker and named her Reality Winner, people would be like COME ON. ht\u2026
p482
aVBut here is progress: https://t.co/cekclSQ6Zx
p483
aVHow G.O.P. Leaders Came to View Climate Change as Fake Science https://t.co/vFqnYNxWZp
p484
aVWhy Trump Ditched the Paris Climate Agreement https://t.co/Q4mTpGEVij
p485
aVUntil voters push for good-paying jobs in clean energy, it's politically safer for GOP to question climate science &amp; take fossil $$.
p486
aVIf you want to turn climate skeptics into voters for climate change, just talk JOBS. Good news, more jobs in clean energy than fossil.
p487
aVRT @PeteButtigieg: Score one for gender equality - from the superhero mayor of Austin @MayorAdler https://t.co/cVqDHKborl
p488
aVRT @jonfavs: Good for Elon. This is the right move. Every other CEO should follow suit, and then speak out loudly against this lunacy. http\u2026
p489
aVif you read Part 1 of https://t.co/5WuaZMdbUX you would want to stay in the #ParisAgreement
p490
aVIf your news mostly comes from one source, liberal or conservative, please read https://t.co/QQkkye3QuR
p491
aVRT @NRDC: Global business leaders support the #ParisAgreement bc they know it is good for the planet and economy.  https://t.co/XaR0X8FOpF
p492
aVOutcome Health raises over $500 million from Goldman, Google, Pritzker -https://t.co/QUXKD4H23U via @crainschicago
p493
aV@Propllrhead Related - Canned meats know that name too \U0001f416
p494
aVRT @EFF: Without competition, ISPs have no incentive to take customer concerns, including about net neutrality, seriously. https://t.co/Nrf\u2026
p495
aVMemorial Day Weekend in Pictures https://t.co/XZ4AKirUgE
p496
aVOnly strong communities, not a strong man, will make America great again. Thanks @tomfriedman - next time spend more than 4 days \U0001f44d
p497
aVRT @CoryBooker: We drink deeply from wells of freedom we did not dig. We honor those who have given the greatest sacrifice for our nation #\u2026
p498
aVAnd: TN in 2014 made tuition free for h.s. grads who enroll in state community college or tech school if they keep at least a C- average,
p499
aVOpinion | A Road Trip Through Rusting and Rising America https://t.co/xBeEe3whpm
p500
aVObama tells adoring crowd in Berlin: \u2018We can\u2019t hide behind a wall\u2019 https://t.co/knY8iUsIeZ
p501
aVRT @jk_rowling: You tiny, tiny, tiny little man.\u000a https://t.co/mP3mad6cMt
p502
aVRT @mattmfm: With every special election there's DCCC talk, but no talk of PAC money. Dems getting decimated by outside money - just not ab\u2026
p503
aVRT @SenWarren: Watch @RepKClark . @usedgov Secretary Betsy DeVos\u2019s answer \u2013 or lack of one \u2013 is horrifying. https://t.co/eBcwki6aT8
p504
aVExcited also to see Bubbles Brown play June 10 at the old-timey @SkokieTheatre
p505
aVIf you believe in the blues, come see Geneva Convention play June 10 at the old-timey Skokie Theatre https://t.co/orA19hjnWX
p506
aV@BorisEP @RealTimers @HBO @billmaher @BorisEP cannot distinguish between obstruction and collusion, and he is chief analyst?
p507
aVRT @friendtodawgs: \U0001f4a9Dishonest BS msg award goes to @site5  who say \u201cIn order to provide you the best possible support, we will be discontin\u2026
p508
aVTell Congress to oppose FCC rules that allow ISP discrimination. It's time to support real #NetNeutrality. Call now: https://t.co/zSMK2wXrlZ
p509
aVRT @jacklgoldsmith: Quickie analysis by @lawfareblog Team on @washingtonpost's story on Trump classified info spill to Russians. https://t.\u2026
p510
aVRT @PeteButtigieg: Well, that's one way to put it. Some would go with: "POTUS fires top law enforcement officer investigating him." https:/\u2026
p511
aVHey gang - Chicago-led quest to help YOU assume your responsiblity as a "new founder" https://t.co/SV8beBPPJy
p512
aV@buckleym117 the jersey is going to brother Doug yeah!!
p513
aV180,000 #Chicago kids need your help #CradlestoCrayons - served10,000 kids since opening Aug 16 thanks @buckleym117
p514
aVIn ACA repeal, IL GOP congressmen made difference - Blogs On Politics - Crain's Chicago Business https://t.co/SrdosGL4tu via @crainschicago
p515
aVRT @PeteButtigieg: It's becoming clear that this bill isn't about health care at all. It's about a huge transfer of wealth away from workin\u2026
p516
aVFor inquiring minds...re the hard choices between law and national security check out @lawfarepodcast accessible convo &amp; key ppl
p517
aV@galenthethird @martinmcgovern oh true, but the teeth, the teeth
p518
aVJoy for all - thank you @martinmcgovern https://t.co/7jNg97mv3l
p519
aVThe Surge of Consultancies, and Nine Other Agency Facts https://t.co/bvt436X02g
p520
aVIf you want U.S. kids (or you?) learning civics again, see The Dreyfuss Civics Initiative, sign the Preamble: https://t.co/Z6dboF5QDA
p521
aVWatch Richard Dreyfuss talk about importance of civics; Tucker Carlson's silence is golden https://t.co/W0Vk7y3nHK
p522
aVPoem of the Day: \u2018Mockingbirds\u2019 by Mary Oliver https://t.co/yAHPQcDbjX
p523
aVSeven Tax Facts for 2017 https://t.co/NTQExogPOg via @natpriorities
p524
aVLearn who pays for the federal budget + see trends over time to put current tax reform in context https://t.co/iJ9t6NsfOH via @natpriorities
p525
aV@Taniel - on the other hand some Fox viewers may realize Clinton and Obama each turned around bad economies left by their predecessors?
p526
aVRT @JoeNBC: Richard Dreyfuss nails it:\u000a1. We must teach civics to all students\u000a2. Free Speech on campus must be protected\u000a\u000ahttps://t.co/mBx\u2026
p527
aVRT @democracynow: .@SenWhitehouse: "It's Citizens United that brought death to climate action in the Senate" https://t.co/KbgcnUumby
p528
aVPublic education was set up to impart knowledge virtue &amp; responsibility we each have to uphold democracy. We forgot that. Look what happens.
p529
aVRT @axios: 100 Days of Spicer https://t.co/6WU02xHgI8
p530
aVDid not like @billmaher sly Pocahontas baiting @SenWarren - he only perpetuated @realDonaldTrump fear-driven label of her
p531
aVRT @risealert: Hey @AlecBaldwin have you seen the #NewFoundersConference? We want you to speak there. Email us at info@risemvmt.org!
p532
aVRT @ChicagoPhotoSho: Dept of Energy freezes millions in high-tech energy grants and gags staff https://t.co/IkIJ7zKVUB
p533
aVRT @EFF: In 2014, millions spoke up to support net neutrality. We can't let the FCC eliminate those protections. https://t.co/pyTgCTWFoQ
p534
aVRT @EFF: Over 800 startups and innovators are urging @AjitPaiFCC not to undermine net neutrality. https://t.co/MdFAOmh4oz
p535
aVConfirming your confirmation bias is crack for brains, esp. on social media. Only inoculation is to employ your own critical thinking.
p536
aVThink you're rational? Check yourself. https://t.co/k7d5rRfw64 via @reason
p537
aVGetting smart on new elements today #MFSChi https://t.co/hM08ifTzWf
p538
aV#ClimateMarch Chicago speakers get underway on a beautiful spring day thank you Earth. https://t.co/SsnKsObz3Y
p539
aVHow a scientist who studies marches sees the march for science https://t.co/xON1kGSKhw
p540
aVRT @votedoug: @jheil 's interview of @RepCummings and asking @SenKaineOffice if he feels the weight of the loss. That is the @SHO_TheCircus\u2026
p541
aV@martinmcgovern Prime is sending an amusing drone along with Postman's book to me this moment.
p542
aVMeet The Women Leading The Future Of Food via @forbes https://t.co/mx0SQuiHnO
p543
aVEntertainers as presidents, shit, our own fault https://t.co/wMNG8uTwWA
p544
aVRT @TheAtlantic: The president's property in Istanbul looms over his interactions with Turkey's leader, writes @JVenook https://t.co/SW3kEt\u2026
p545
aVAgree - worth watching and excellent points made against @CNNPolitics, not that @voxdotcom is a bastion of calm, re\u2026 https://t.co/awouSdyuKW
p546
aVTo Life and the Pursuit of Happiness for @StartupInst alums, students &amp; instructors. Thx @jjudge for this. https://t.co/Wjx4khUVcf
p547
aVI just gave $ to Bernie Sanders via @actblue https://t.co/mONb3waEKL not because I agree with all his policies, but I admire his patriotism.
p548
aVParty in the Pedway! Thursday night! Fundraiser for @ELPCenter. Tix here: https://t.co/CQOLCxqaJ0
p549
aVRT @CHI_IntellEvent: 4/17\u000a\u000a@RepAdamSchiff talks Russia, Syria &amp; the relationship between Congress &amp; @POTUS\u000a\u000a5:15pm @UChiPolitics\u000a\u000aTIX:https\u2026
p550
aVDude, seriously? \u201c@BobOnderMO: My statement regarding amendment to rename the St. Louis Zoo. #moleg https://t.co/VY6uBknzYN\u201d
p551
aVRT @davepell: Every night I\u2019m going to take a real headline and put it into the Onion\u2019s template. And it will just work. https://t.co/KXqIh\u2026
p552
aVWashington Post\u2019s David Fahrenthold wins Pulitzer Prize for dogged reporting of Trump\u2019s philanthropy https://t.co/EzvoJMJGnJ
p553
aVWhy So Many Americans Are Saying Goodbye to Cities https://t.co/3ZydIiHg92 @risealert this sums it up
p554
aVRT @codeverse: We're up to big, BIG things. Our mission is to teach a billion kids to code.\U0001f44d #edtech #STEAM https://t.co/VRGb17hca8
p555
aVRT @PeteButtigieg: Internet providers selling our data is another common-sense example of how big companies, not just big government, can m\u2026
p556
aVRT @democracynow: Amy Goodman: "Unless people organize and fight back, the promises of the open internet will fade away" https://t.co/us2hZ\u2026
p557
aVRT @Mikel_Jollett: You can murder people &amp; rig elections. Trump will welcome u. \u000a\u000aBut for God's sake don't be a smart, powerful woman.\u000ahttp\u2026
p558
aV@RepSchakowsky thx for voting no on repeal of internet provider consumer privacy protection. IL House Reps who voted yes must be voted out.
p559
aVI just supported digital rights @EFF thanks also @MaxTemkin https://t.co/jJjwXCXyu0
p560
aVHere Are the Illinois Lawmakers that Voted to Sell Your Web Browsing History  https://t.co/c4JpnIGhue via @ChicagoInno
p561
aV4 Pitfalls When Capitalizing on Nostalgia Marketing - Chiefmarketer https://t.co/5v6conrpLX
p562
aVIllinois considers far-reaching internet privacy measures https://t.co/QGT7eWxWLQ
p563
aV@martinmcgovern \U0001f44d planning on it
p564
aVRT @martinmcgovern: I'm going to "March for Science Chicago".  See you there? https://t.co/eoP4slIbRR via @Eventbrite
p565
aV@rickdesai I agree; and center-rational House Reps &amp; Dems doing their job should get same media coverage
p566
aV\u201cThat\u2019s like inheriting an overseas war, and deciding you let your own soldiers get killed because you didn\u2019t elect to enter that war.\u201d
p567
aVRT @goldsteinamy: ACA remains intact, but Trump vows to explode it. Choice to undermine or stabilize the law in his hands. w @eilperin http\u2026
p568
aVRT @NewAmericanEcon: Why is immigration reform so important? Take a look at the numbers\U0001f447 https://t.co/9KWYMiQdwZ
p569
aVRT @PPact: Here's the picture of the leaders negotiating away birth control, maternity care &amp; abortion. Notice anything? #ProtectOurCare\u000a\u000a(\u2026
p570
aVRT @TroyHenikoff: Love the @AmandaLannert story. Sound byte: 'Everyone falls down, winners get up, gold medalists get up faster' #TalesfFro\u2026
p571
aVHere we go again, GOP wants to snoop on your personal life - Senate votes to block internet privacy regulations https://t.co/2kBZkEMPYD
p572
aVThis. Is. Chicago. Dave Specter and Joel Patterson playing Lonnie Mack at SPACE yes. https://t.co/Czw1DWuWnU
p573
aVHey, Coastal Elites: Don\u2019t Dis \u2018Flyover Country\u2019\u2014Fund It https://t.co/bO5A3mO89J
p574
aVLove the quiz - great idea! @KCCorp uses engaging/authentic quiz to attract Millennial talent per @TanyaGazdik https://t.co/DBuYsMFzxx
p575
aVRT @TheGeoffTodd: Carl Sagan's letter to #ChuckBerry (circa 1986). https://t.co/4QWSW7UAGJ
p576
aVRT @PBS: 9 Reasons to \u2764\ufe0f\ufe0f  PBS. How has PBS made a difference in your life? Tag+Share with #ILovePBS https://t.co/CXz3P9aAKp
p577
aVRT @FallonTonight: Turn up the volume! @katetempest is performing "Europe Is Lost" for Studio 6B \U0001f3b6#FallonTonight https://t.co/XJazhTrIul
p578
aVMind. Blown. Watch. https://t.co/N6OayWWrpw
p579
aVHey millennial @StartupInst alums, share your views on your important current &amp; future role as a citizen now on #IndivisibleRadio
p580
aV@DNC must focus on why everyday Americans should hire them; not on outrage https://t.co/ChXwUCaERC
p581
aVRT @friendtodawgs: Am I the only one who sees the resemblance? https://t.co/rgnKGHO8Lh
p582
aVHey did any of ya'll see @DianeHessan @TheLeadCNN interview re her work listening to Trump and Clinton voters, sinc\u2026 https://t.co/cbexUqkzSr
p583
aVBuilding "thick communities" as springboard for U.S. workers to thrive in the global marketplace thx @nytdavidbrooks https://t.co/d2i6nq0TwW
p584
aVBring back the #alphaperve @billmaher
p585
aVHere's a thought, fellow Americans: goods jobs that pay well are within reach if you learn how to code
p586
aVSunday Sitdown: Dr. Ari Levy, startup pairs medicine with fitness https://t.co/EUfwM2la20 via @suntimes
p587
aV#NewMR do you see digital marketers becoming the new insights leaders?
p588
aVRT @DianeHessan: My New Op-Ed:  How Trump Voters Feel Now https://t.co/uo4sD8uVmt
p589
aVRT @ChrisSabatini: More Americans are killed by toddlers with guns than by undocumented immigrants.  Why aren't those toddler victims in th\u2026
p590
aVExcited to check out SHIFT Life at 750 N. Orleans tonight #realhealth #whatsnext
p591
aVRepeat after me: it's job retraining and public education, stupid. Channeling @JamesCarville circa 1992.
p592
aVHey Chicago alums send some \u2764\ufe0f to @brentlwilliams @amarsin @John_M_Egan @Velo_MikeV &amp; @joshsimons237 \U0001f44f\U0001f64c\U0001f3fd\U0001f525
p593
aVRT @John_M_Egan: What a great first @StartupInst Chicago event of the year at @ReviewTrackers! Discussing how to negotiate your salary! #si\u2026
p594
aVCan't wait to hang with @tdegg and Chicago @StartupInst alumni @ReviewTrackers tonight to share negotiation mindset and skills!
p595
aVI urge my #conservative &amp; #liberal friends to read and discuss @davidfrum https://t.co/RfAJCISblq
p596
aVRT @ReformedBroker: JFK took a lot of shit in the press for Bay of Pigs. Here\u2019s what he said when asked if he still reads newspapers and ma\u2026
p597
aVMorning brilliance from @friendtodawgs #MAGA = Make America Get Along
p598
aVThis merger sadly makes sense for CPG brands that have lost relevance https://t.co/VV3IyjwiS8
p599
aVPut unlimited effort toward limited goals; those goals being right goals. Law to compel Treasury to release tax forms a right goal.
p600
aV@drosteyagan I agree. Calling on all #artists and #cartoonists to protest #gerrymandering https://t.co/nawus1jWTz
p601
aVHey @cvkays we are loving new tunes from @PokeyLaFarge at SPACE in Evanston thank you for the reco
p602
aVBBC News - Reality check: Is Donald Trump's cabinet facing historic obstruction? https://t.co/M8uc1kZXEU
p603
aVRT @TheAtlantic: Michael Flynn has resigned as national security adviser, reports @russellberman https://t.co/0mSqEP9SxA https://t.co/TRqKH\u2026
p604
aVRT @TheAtlantic: John Oliver is buying ads on cable news to talk to President Trump https://t.co/dup7FSElYQ https://t.co/wgXdgiqt27
p605
aVFeeling nostalgic for the Age of Reason - thanks @davidfrum https://t.co/RfAJCISblq
p606
aVRT @TheAtlantic: Syria's Assad calls mass-execution allegations 'fake news,' @YasmeenSerhan reports https://t.co/AkU7SvNqCI https://t.co/2J\u2026
p607
aVRT @GovHowardDean: Assad, in addition to committing genocide against his own people, is running an extermination camp. Why is he not being\u2026
p608
aV@TroyHenikoff we Evanstonians love our signs - almost as much as we love our community \U0001f609
p609
aVRT @SteveCase: Trump\u2019s rallying cry: fear itself https://t.co/PZMsItKCwj "The problem is: Things can get a lot worse, and quickly." https:/\u2026
p610
aVRT @davidfrum: Two solutions\u000a1) Share the proceeds of the Uruguay condo sales with the taxpayer\u000a2) Cover his own damn costs https://t.co/nI\u2026
p611
aV@BrianWalkerCHI thanks!
p612
aVForeign exchange student program was a long-term play for peace. I say we need same program here at home between urban and rural people.
p613
aVRT @ChicagosMayor: Whether you're from Poland or Pakistan, India or Ireland, Israel, Mexico or Moldova, you are welcome in Chicago \u000ahttps:/\u2026
p614
aVHey, @WBEZ Please keep @WNYC's #IndivisibleRadio alive in Chicago. This lefty loved tonight's conversation with @GeorgeWill.
p615
aVI agree - it's a way bigger threat than one election or one person - urge your Republican senators to put country b\u2026 https://t.co/Jb9oJvLzED
p616
aVMy closest Swing District is IL-10, won by only 14,900 votes. Find yours and help swing the House left in 2018: https://t.co/KcWioLB5Zl
p617
aVInsightful piece. Such a shame what should be an amusing sideshow is the main event for @realDonaldTrump https://t.co/4FH9fHwhNr
p618
aV@benrito did you know our former SC Justice @sandradayyocon created a free civics curriculum for all of us? @icivics
p619
aV@benrito @qz along w/digital media literacy, kids need to grasp WHY they have obligations as citizens in democracy v. other forms of gov't.
p620
aVYes. @benrito makes the case for overhauling one high-school subject as our best hope for democracy https://t.co/OAbR7FVN34 via @qz
p621
aVThis is your playbook for urging your MOC's to enact common-sense laws to promote "the commons" while increasing U.\u2026 https://t.co/Jz407S2aa4
p622
aVProud of the smart ambitious goals of @risealert - see interview while in DC before the march https://t.co/NrCHYK5mph
p623
aVRT @hutchkelley5: #womensmarch #sistermarch #budapest We built a human bridge! https://t.co/HPi7ZOtg65
p624
aV#WomensMarch proud of @brentlwilliams @tjbenneche @kashif456 @buckleym117 Emily Dougherty and 250K Chicago friends https://t.co/bu0EuWOxZK
p625
aVRT @mostlybree: Holy crap. I thought it was impressive and then it panned left. And kept going. And going. \u000a\u000aAnd going. \u000a\u000aAnd https://t.co/\u2026
p626
aVRT @womensmarch: Beautiful end to the #WomensMarch. This is just the beginning. #WMWArt https://t.co/B8ffACzmT4
p627
aVRT @billmckibben: Nice! #WomensMarch Antarctic style! https://t.co/sI9bGn3NJs
p628
aVA tribute to our 45th president, Donald Trump https://t.co/5CgLF2aLpz
p629
aVGreat playbook to judge the (ir)rational decisions in DC https://t.co/MBFt7NisZN
p630
aVBlues is Chicago's most famous cultural export. Why don't we do more to promote it? https://t.co/DgpvlPlnm4 via @crainschicago
p631
aVReaching across the aisle to prepare for the Trump presidency https://t.co/lG7Nuun0OV
p632
aVSo proud + excited to join a team helping big brands be better "first dates" + earn consumer love for the long haul https://t.co/qmclVM2LpV
p633
aVThe Edelman Trust Barometer shows how we\u2019ve driven into a ditch https://t.co/L5ddPoQJK4
p634
aVRT @BridgetGainer: Hey @womensmarchIL - In case you were still in doubt, yes, She's a woman and no, She is not a fan. @womensmarch @OTSChic\u2026
p635
aVFeed your artistic obsessive soul and watch @skyladdermovie
p636
aVIf you thought @HouseGOP got off to a rocky start, @jasoninthehouse sets off the avalanche. https://t.co/tHpzWOPtad
p637
aV\u201cPeople..would do well to consider his [Trump's] gang's actions through the lens of the Carbon Bubble"\u200a\u200a@AlexSteffen https://t.co/ymJrLvs2D5
p638
aVRT @rcalo: I hear the Russians have footage of Obama playing basketball and fixing the economy.
p639
aVListening to 1st podcast of #PodSaveAmerica now! Former Obama staffers launch media company https://t.co/kk38qG1eeG
p640
aVRT @SenBookerOffice: .@CoryBooker testifies against Jeff Sessions: "our country demands a more courageous empathy" https://t.co/Tnr3t9OyPM
p641
aVRT @ChicagoInno: Hermit, which worked out of @polskycenter's incubator and @FutureFounders, connects buyers and artists: https://t.co/nbfj7\u2026
p642
aVRT @buckleym117: 74% of employees say their job is more fulfilling when they make a positive impact https://t.co/1sBPGXRVRc via @engageforg\u2026
p643
aVAwwww @buckleym117 can we girls mount a professional chatfest or what?! Looking forward to helping each other on our new quests!
p644
aVHide your delight at BuzzFeed\u2019s unsubstantiated anti-Trump accusations https://t.co/o747eYgTdS
p645
aVA year ago today we lost Bowie. Check out his prescient statements about the Internet from 1999: https://t.co/g1ZH5dyDZR
p646
aVRT @LarrySabato: Who is this sweet, pro-civil rights liberal being quizzed by senators on TV? I tuned in to see Jeff Sessions.
p647
aVRT @MrDanZak: The average age of senators who've questioned Sessions so far is 81.
p648
aVCory Booker to testify against fellow Sen. Jeff Sessions at attorney general hearing https://t.co/oroUcdxvXW
p649
aVIf you want independent news and haven't yet watched/streamed @democracynow - check it out!
p650
aV@Justyn I cling to "truth matters" for all of us. More scary for me: emotion trumps facts; entertainment trumps thoughtful debate in future.
p651
aV@RepSchakowsky I'm looking to you to also protest #repealanddelay - tempting as it is to imagine Republicans going up in flames. Bad gov.
p652
aVThanks @AEI for dissecting why repeal &amp; delay tosses a risk grenade into healthcare - happy to agree this time https://t.co/Owyo4VdHmw
p653
aVGreat advice and I love #7 esp. - something everyone who goes through @StartupInst knows well. https://t.co/3h0G1fc4JO
p654
aVHey @RepGoodlatte : Can you strengthen ethics by weakening it? https://t.co/l6rN0iYYG7
p655
aVJan 10 evening can't wait! #YesWeCan https://t.co/cTKWmqrewx
p656
aVRT @SenatorDurbin: I\u2019m speaking on the Senate floor about how to #SaveDACA &amp; #DREAMers \u2013 watch LIVE here: https://t.co/UOAjr5NIGy
p657
aV@RepGoodlatte @SpeakerRyan don't bs us w/double speak re OCE oversight. District 6 Virginians: you need a new rep in 2018! 25 yrs is enough.
p658
aVI heard Howard Levy perform Woodie Guthrie's "This Land Is Your Land" this weekend. Let's Rise. https://t.co/6psAEXEZXr via @risealert
p659
aVGood advice, but esp. for pr from @jbernoff "If you have nothing to say, you should say nothing." https://t.co/UC4Z0YioH8
p660
aVRT @DianeHessan: Hey New Yorkers: You should be embarrassed to have Carl Paladino in your state. #Outrageous https://t.co/HrpQFLPLne via @u\u2026
p661
aVThe 25 Essential Evanston Restaurants, Mapped https://t.co/7bXD2Oup69 via @EaterChicago but locals know Campagnola is the goods
p662
aVTotes. @brentlwilliams @StartupInst @DianeHessan
p663
aVExamine #Just100 socially just US companies via research from Just Capital and Forbes https://t.co/5QPKqUt2YY
p664
aVGet to know @justcapital_ and Paul Tudor Jones On 'Just' Companies via @forbes https://t.co/7SHnS21dqi
p665
aVYaaaaaaas @StartupInst was excellent training. 80% @DianeHessan
p666
aVRT @alexiskold: Biggest validation of your business aren't investor $ but customer $. If investors aren't funding, but customers are buying\u2026
p667
aVRT @SenSanders: Trump's 18 cabinet-level appointments hold more wealth than 43 million households combined. So much for taking on the estab\u2026
p668
aVGreat advice and a greater proposal for our tech leaders: The Truth Foundation https://t.co/EPP8GBvPms
p669
aVProPublica expands investigative news operation to Chicago, yay!  https://t.co/3ynhasjFZj via @crainschicago
p670
aVGiant +1 - thank you @terryhowerton https://t.co/2rWpGOepUs
p671
aV#Journalists, be confident in your ability to make evidence-based reporting engaging. You can do it. #Readers, plea\u2026 https://t.co/bXJjhFEw2u
p672
aVI signed, not to change DJT outcome, but so we all know what got hacked by a foreign actor https://t.co/0rLyWqMxKt?
p673
aVAgeless Innovators: Market Disruptors Over 60 https://t.co/wnKkYc1wcU via @HuffPostTech
p674
aVI just got Call the Halls: Contacting Your Representative the Smart Way on @Gumroad: https://t.co/05cMNBZEYJ
p675
aVTWO PARTIES. ZERO RESULTS. Help us fix the equation. #BreakthroughPolitics https://t.co/51gTdyHFhA via @centproj
p676
aVWhat @dianehessan did this summer (and fall) - the work has only just begun https://t.co/G5XGCxFVzo via @BostonGlobe
p677
aVRT @KristiDula: Huge congrats to Kristi @zulk10 and the @_KnowledgeHound team on the Series A raise! #MarketResearch https://t.co/QiuzK9DlP\u2026
p678
aVRT @SenatorDurbin: Steve Bannon\u2019s bigotry makes him totally unfit to serve the WH. The job isn\u2019t Senate-confirmed, so it\u2019s up to all of us\u2026
p679
aVI've just joined Rise Party because I believe we are obliged as citizens to act https://t.co/IAyRuf0QIB via @risealert
p680
aVRT @prof_goldberg: A trenchant summary of the ACA repeal situation, from leading #phlaw scholar Lindsay Wiley. https://t.co/M7w1IZ0H3M
p681
aVRT @ChicagoInno: Hey Silicon Valley: Want to Make a Difference After the Election? Move to the Midwest\u000ahttps://t.co/FtTkaQ8VEH https://t.co\u2026
p682
aVPolls only as good as those who respond. Do sentiment analysis + polls. @JBernoff post is factual, but misses mark https://t.co/GBGKxgUHbT
p683
aVHeading over to the Evanston HRC HQ now to make a few more calls. Have your swing-state friends voted yet? https://t.co/va2V4bhsT8
p684
aVIf you need a laugh and reminder to vote - this should do it: https://t.co/jCo9YGnvpk
p685
aVToday we learn about turf packet innuendo #OHHillYes https://t.co/PpecnqFdut
p686
aV#OHHillYes HERE WE GO https://t.co/GFftsE3rEZ
p687
aVShared dashboard for sales and marketing teams avoids dumb gotcha arguments with warring data @LaurenLicata #SMASummit16
p688
aVA trend toward variable compensation for marketers to encourage greater partnership driving funnel #SMASummit16
p689
aVTonight is the inaugural #SMASummit16 to crack the code on sales and marketing alignment for growth - great turnout!
p690
aVThis makes me proud of Chicago too. Help your friends key states vote: https://t.co/5QZwKMnLGH\u201d
p691
aVRT @ToddConnor: Millions Of Drunk Cubs Fans Rioting In Heaven Following World Series Win https://t.co/pB58NBqJIy via @theonion
p692
aVRT @chiarchitecture: Cubs WON IT ALL!!! Congratulations team! https://t.co/FO9lEO4uAH #FlyTheW https://t.co/IZfjd1Esvj
p693
aVRT @m_kristensson: The last time the Cubs won the World Series, women could not vote. \u000a\u000aGuess who is a Chicago native and Cubs fan?
p694
aVRT @antiheroine: By the way, it is literally #NationalStressAwarenessDay today.
p695
aV\u201cGIPHY eats the world\u201d by @jeremysliew https://t.co/SHpk5bAFPf
p696
aVKudos to @BallotReady proud of this #Chicago #startup - I used it today for #earlyvoting https://t.co/iAEAjQP9Jj
p697
aVThis man bought a dilapidated bank for $1, turned it into a stunning culture center: https://t.co/JsjgUbBfET via @slate
p698
aVCongrats to @getOccasion on the recent raise with @hydeparkangels et al with admiration from your friends @StartupInst Chicago
p699
aV"We will never have a democracy until we have democratic families" - thanks @GloriaSteinem re @MichelleObama https://t.co/lrDhN1bocX
p700
aVForget idea of legacy - I was inspired just now hearing @bfeld share his goal to give fully of himself and his earnings while alive. Yes.
p701
aVWhat is the value of your network? @bfeld livestreaming @KauffmanFDN reminds us it's size x value exchanged across connections = power
p702
aVWooo! https://t.co/yZeIg61hNu
p703
aVScience and technology will make mental and emotional wellbeing scalable, accessible, andcheap https://t.co/hZDCQkDspw via @techcrunch
p704
aVRT @1871Chicago: NOW #HIRING ENGINEERS AT 1871: @LogicGateApp  @HaulHound @wearecatalytic @Farmlogix @TangoCode #1871jobs #1871recruiting #\u2026
p705
aVRT @usedgov: "Nobody should be priced out of a higher education." \u2014@POTUS on the progress we've made: https://t.co/q01OxIVxX7 https://t.co/\u2026
p706
aVRT @tjbenneche: what are US devs doing rn if github is down AND they can't make jokes about it on twitter
p707
aVAnd this is how I laughed to start my day today  - https://t.co/Oy8RuVZX0D
p708
aVLeadership and Consciousness: Trump, Strumpf, Stritzke and Shah https://t.co/ouVMyoYed8
p709
aVPolice reviews a la Yelp w/Excuse Me Officer https://t.co/3J4zZCGxHE Go Channing Harris @StartupInst alum &amp; founder @ExcuseMe_XMO
p710
aVYup. https://t.co/5d8N9WDt3d
p711
aVRT @DianeHessan: I think Hillary should end every sentence with "... and that was while you were doing Celebrity Apprentice".
p712
aVDonald wishes Hillary was Empress while she was in the Senate - why didn't she single-handedly change laws like he would do?
p713
aVIn other news.....Go Cubs!!  #Bigly bats
p714
aVRT @ShortFormErnie: PUPPETS PASSING THROUGH OPEN TRADE BORDERS https://t.co/DwXshm4WJw
p715
aV@HillaryClinton speak about education + technical apprenticeship - will save USA while imagining the future. I will teach the civics class.
p716
aVSo Donald starts defending Putin - incredible.
p717
aVRT @1871Chicago: So many employees secretly need help and employers are more than capable of fixing this. @HarryGottlieb1 #DisruptHRChi
p718
aVRT @1871Chicago: We just sang our way through innovation, disruption, HR, and analytics with @DorieBlesoff. Only at #DisruptHRChi!
p719
aVCount on @HarryGottlieb1 to deliver a social conscious message to HR leaders re how they can address epidemic of employee financial duress\U0001f60d
p720
aV@thomaskrstovall great guidance tonight on Thinking Like a Startup #DisruptHRchi on the way to learn from and shape your narrative
p721
aVWoot woot to @therootinc sponsoring #DisruptHRchi #rootcompass @1871Chicago
p722
aVAgree - @tomalexander19 sez no more important conversation for #Chicago than #talent at #DisruptHRchi @1871Chicago
p723
aVJust had a fun convo with @tdegg of @itabuzz as #DisruptHRchi gets underway! https://t.co/TS8JfSOyYq
p724
aVOn average this @JuntoInst IV grew 112% - impressive when you add in they did Junto while running the business
p725
aVSending my patented mojo to @schlepit @ReviewTrackers @ArrowPayments for tonight's @JuntoInst #Leatherapron celebration @1871Chicago
p726
aVRT @Enterprise_Sale: Debunking the Myth that Buyers are 67 Percent Through the Buying by @mike_weinberg via @OpenViewLabs https://t.co/ifjO\u2026
p727
aVGratitude @tomalexander19 @1871Chicago @StartupInst alum farewell party #diversity #inclusion #shysonintow https://t.co/C4QLnxl5vr
p728
aVThanks @John_M_Egan - I am going to miss standing in a circle with you all @StartupInst Chicago
p729
aVSomething special about @StartupInst #Chicago alumni - growth mindset and EQ - we gather @1871Chicago tomorrow! https://t.co/3CDI0DiHek
p730
aV@brentlwilliams awesome job increasing your pace time in the final splits - congrats! @theaccordance seems to know your pain mwahahaha
p731
aVYaaaaas to preserving Roe v Wade
p732
aVGo @MarthaRaddatz Go! Help Donald catch up on his #bigly plans for foreign intelligence
p733
aV"I know nothing about Russia" #truedat #debacle2016
p734
aVTried to spot you @zulk10 on the west side of Broadway at Cornelia\U0001f3c3Keep up the pace as you cruise to the finish line!
p735
aVGreat seeing you at mile 7.5 @brentlwilliams keep up the awesome pace #ChicagoMarathon
p736
aVRT @Enterprise_Sale: Excited to have @sanderssays for our #Chicago #sales talk this week, join us! https://t.co/tun2L4cscR #CHISales https:\u2026
p737
aVThanks to @ContextHealth @JuliusGivens @HFA and @JonCarsonOFA for motivating #Chicago young professionals to #GOTV https://t.co/xEzs2Oe0b8
p738
aV@Drtrowley states it clearly: #consciousbiz is a model of unity - sharing v surviving - incredible paradigm shift @1871Chicago
p739
aVChicago is on the rise for #ConsciousBiz as predicted by @Drtrowley w/stories from @goodcitychicago @cleanslatechcgo @ContextHealth @REI
p740
aVI love #chicagosocialimpact - here @1871Chicago for #ConsciousBiz Palooza @Drtrowley
p741
aVGetting excited for the next 5 pitches! #TSDemoDay
p742
aVGo go go @JulieRothNovack @partyslate #TSDemoDay
p743
aVAnd the first pitch is underway! #TSDemoDay  #Chicago
p744
aVRT @TroyHenikoff: Want to see what @Techstars Chicago is all about? We are having Community Demo Day next week.  Get tickets NOW! -&gt; https:\u2026
p745
aVRT @mlederer: Stop pretending you don't know why people hate Hillary Clinton @huffpostblog https://t.co/6blN1wYfVu via @HuffPostPol
p746
aV@StartupInst alum @charleschuman is a panelist so please come join us @1871Chicago Thursday evening https://t.co/nXRcsZJhFV
p747
aV#ConsciousBusinessNetwork should be fab because some of you will show up Thursday @1871Chicago RSVP https://t.co/nXRct00Sxt @Drtrowley
p748
aVRT @nassimgharib: @JuliusGivens @eatonbrook @chestnutchi @KarenLevy23 I look forward to seeing you there!
p749
aVOmg I am so glad @realDonaldTrump is going to get Japan to pay up #stamina
p750
aV@HillaryClinton please explain to @realDonaldTrump why we couldn't take the oil from Iran
p751
aVRT @kylebrussell: His response was basically "lots of people were racist in the 70s \u005c_(\u30c4)_/ " https://t.co/7rYGZMvcsC
p752
aVRT @HayesBrown: Holt: This conversation is about race, Mr. Trump if I c-\u000a\u000aTrump: [interrupts a black man]
p753
aVLet's give special rights to those on the no-fly list? #thatswhathesaid @realDonaldTrump
p754
aVLet's blame Obama for Chicago shootings? The guy who started his career in community organizing? C'mon @realDonaldTrump
p755
aVRT @HillaryClinton: "It's about time this country had somebody running it who has an idea about money." \u2014Trump #debatenight https://t.co/dp\u2026
p756
aVRT @billmaher: Trump: "I get audited every year" Yes, because you're a crook!!
p757
aV#Bigly #Debates2016
p758
aVRT @HillaryClinton: RT this if you've got Hillary's back tonight. #Debates2016 https://t.co/r66XZWiNJL
p759
aV@wmougayar says the work of #blockchain will be 90% governance - an evolution first.
p760
aV@wmougayar predicts we will have millions of block chains as websites in the future -@1871Chicago @westloopv great event
p761
aVRT @SlateGist: If you're anxious about tonight's debate, we're here to sooth your worries. It's the Trump Anxiety Hotline https://t.co/BIBQ\u2026
p762
aV#ConsciousBusinessNetwork @1871Chicago RSVP early bird now https://t.co/nXRct00Sxt @Drtrowley #network #collaborate #chicagosocialimpact
p763
aVRT @SteveCase: What it will take to create inclusive high-tech incubators https://t.co/Im6JsnPm0E "Diversity should matter because it makes\u2026
p764
aVRT @hydeparkangels: New #Chicago @GetRepIQ  startup wants to be the Google Analytics for sales https://t.co/FeV7jpbkUJ via @megancgraham  f\u2026
p765
aV5 secrets to selling to the Fortune 500 @salubriousdish https://t.co/iy6vD4ATYV via @Inc
p766
aVHurrah to @FutureFounders and @scottissen on their fabulous fifth anniversary!
p767
aVBillionaire George Soros Earmarks $500 Million For Migrants And Refugees via @forbes https://t.co/TknPZz8ucx
p768
aVHillary Clinton and Donald Trump: \u000a\u000aFix America\u2019s Presidential Debates! - Sign the Petition! https://t.co/41ZILm3bsj via @Change
p769
aV.@AlanMatthew1: even better, Uber is staking its future on Iron City Pittsburgh! @SteveCase @SylviaPerezProd @goodcityChi
p770
aVBefore you TGIF - train &amp; #gethired for a new career; app deadline Monday! Employers love @StartupInst hires &gt; https://t.co/Tl7a6qn6vA
p771
aV"If we want to fix our economy, we need that 90% of venture capital that goes to men to start going to people of color &amp; women" @SteveCase
p772
aVFriends you know I had this idea way back on 12/31/99! Mediterranean fast-casual chain poised to expand https://t.co/E8nPCU8NcQ @CavaGrill
p773
aVExcited to hear from @SteveCase shortly at the @goodcitychicago luncheon, sitting with another good man, @Fabian_Elliott @blacktechmecca
p774
aVRT @nicoleyeary: ROCKST\u2b50\ufe0fR!\u000aCongrats @AmandaLannert and @JellyvisionLab !! #itacitylights @ITAbuzz https://t.co/4O4GPfeSu7
p775
aVRT @AmandaLannert: Yessssss, @nicoleyeary, yes!! #boss #itacitylights
p776
aVNice - you ARE here @RobertCWolcott Last night's talk - whoa - strategic innovation practical wisdom for next 20 years @TechCXO @BNChicago
p777
aV@Cruiter OK pal I'm jumping in - see you there tonight #itacitylights  @ITAbuzz #TechChicago
p778
aVRT @arabamericanmus: Roadtrip Nation episode on @PBS features Chicago startup founder and Lebanese-American @DimaElissa https://t.co/nKGJMP\u2026
p779
aVRT @mlederer: Official first event @mHubChicago with @dimaelissa @vismed3D #innovation https://t.co/b4Z2gsp0Dk
p780
aVScaling requires CEO to shift focus to culture and people not just customers and tech - yep! @ITAbuzz City Lights Showcase
p781
aVOk I need to learn about #metaverse thanks to @incontext Tracey Wiedmeyer #ITACityLights Showcase
p782
aV#ITACityLights Showcase advice from Subha @ReviewTrackers "live every moment" "take a chance" @ITAbuzz https://t.co/hg8tAU7NVg
p783
aVHey friends - make your Wednesday special next week, and go to this event. https://t.co/fURCKGn0xT
p784
aVBring it on! https://t.co/Zfa83wuIkA
p785
aVRT @lauren_zaleski: Whaaaaaat! Live VR demo of @embodiedLabs. Incredible innovation for healthcare training. Game changing. https://t.co/SB\u2026
p786
aVKeep a kid in school - go be a mentor, go volunteer @ChiTechAcademy - any kid can learn skills in tech @terryhowerton #inspiration
p787
aVWe as a community tolerate the idea that we push 25,000 kids on the street every year in Chicago @terryhowerton bonus talk @Technori tonight
p788
aV@bwise_bwiseusa your awesome ladies should check out Boston &amp; NYC programs, scholarships for women, STEM, &amp; people of color @StartupInst
p789
aVRT @abigailross49: It's #WomensEqualityDay AND #NationalDogDay? Bc I aggressively support both &amp; would prefer to celebrate fully on separat\u2026
p790
aVHi @cjlew23 - @TroyHenikoff told me I should meet you because you are amazing :-) and so is @KnowYourCompany I have ideas for you!
p791
aV@John_M_Egan you are DTFO and I salute you!
p792
aVRT @John_M_Egan: Thank You to the @StartupInst for transforming my career in ways I've never imagined! It was an amazing 8 weeks, but now i\u2026
p793
aVHa ha here's the real @kaleighsimmons OWL WINNER @StartupInst https://t.co/i9JfK0BrP3
p794
aVOptimism in Chicago in August https://t.co/08vKj1iEtI
p795
aVYeah! @peggy_yu and even greater people \U0001f60d @StartupInst amiright?
p796
aVThe awesome 9th cohort &amp; program team @StartupInst Chicago - just 2 weeks ago you all were sweating your pitches! https://t.co/A62dwBEsbm
p797
aVRT @StartupInst: Amazing #SITalentExpo last night in Chicago! Thank you to @JuliusGivens  @1871Chicago @ChicagoInno for making it all possi\u2026
p798
aVRT @TangoCode: Congrats to all the @StartupInstgraduates! Great to see such a talented group entering the community #SIChicago #SITalentExp\u2026
p799
aVRT @buckleym117: Yassssss @kaleighsimmons !!!! Veggie trays for all \U0001f64c\U0001f3fc haha no one more deserving of the #SIOwlAward!! https://t.co/SRLjD9O\u2026
p800
aVThank you @AEGroupChicago for cheering on our cohort + being part of the @StartupInst + @1871Chicago community
p801
aVRT @AEGroupChicago: Congrats on another amazing cohort full of talent &amp; possibilities @StartupInst @eatonbrook @buckleym117 https://t.co/d5\u2026
p802
aVRT @ExplorerProgram: @eatonbrook @JuliusGivens We love what you do too! #SITalentExpo
p803
aVExcited for @JuliusGivens keynote tonight at #SITalentExpo we love what you do with @ExplorerProgram
p804
aVOnly 4.5 hours left until pitches begin #SITalentExpo Chicago so come find your devs, designers + salespeople at https://t.co/Rnhl4FjyOu
p805
aVThanks for the Chicago vibes Miss @peggy_yu here's to a sweet day of pitches and good mojo today at #SITalentExpo NYC @DianeHessan
p806
aVAwesome people + pitches = a great #SITalentExpo indeed! Thanks @DianeHessan goooo @peggy_yu
p807
aVTalk about pay-it-forward mindset @StartupInst TE keynoter @JuliusGivens is changing lives in #Chicago https://t.co/Fk0fFFU6uP
p808
aV#SITalentExpo is on Thurs 8/11 + for the first time, it's at NIGHT! Come have a beer and scout great talent https://t.co/Rnhl4FjyOu
p809
aVChicago Inno Approved: The Startup Events You Need to Know This Week  https://t.co/M3wVbn1B8w via @ChicagoInno
p810
aVRT @1871Chicago: Aug 11\u2014RSVP for the 2016 @StartupInst Chicago: Summer Talent Expo! https://t.co/uK25AgLL2O
p811
aVRT @1871Chicago: Considering making a career change in exchange for meaningful and impactful work? #1871Events https://t.co/WeS8KI7DIO
p812
aVLearn UX essentials w/@StartupInst alum pros, get a portfolio piece - and HAVE FUN doing it!  Sign up while you can https://t.co/pDCdBBLPF1
p813
aVYay! @Opternative landed on Good Morning America with @GioBenitez! https://t.co/wXOdyEVO5L via @GMA
p814
aVRT @HarmonyInsights: "The best businesses I know of build communities that are more about the tribe than about the business." @ToddConnor h\u2026
p815
aVRT @StartupInst: Hiring for your #ChicagoTech company? Find devs, designers + salespeople at #SITalentExpo 8/11 https://t.co/9B2anXTS8g
p816
aVRT @StartupInst: New York Director @peggy_yu speaks to @NASDAQ via Facebook LIVE at 11am: https://t.co/Up24sQAGKs #NasdaqDisruptors https:/\u2026
p817
aVRT @StartupInst: #improv has taught me to be present in the moment + not worry abt my next move - @hillarysawchuk @adrinkwith https://t.co/\u2026
p818
aVRT @StartupInst: We all compare our worst days to everyone else's highlight reels - you need to remember this, says @hillarysawchuk https:/\u2026
p819
aVRT @martinmcgovern: Great fireside with @hillarysawchuk at @startupinstitute - check out her amazing chats at \u2026 https://t.co/g49phPPYWR htt\u2026
p820
aV@HillarySawchuk advises sit next to your interview subject for real glimpses into who they are @StartupInst https://t.co/CopqDQBApQ
p821
aVBuilding her dream @adrinkwith @HillarySawchuk meant shooting for the stars - and lots of small steps https://t.co/CeSlCp4Gs4
p822
aV"Be all in" "be curious" "stay humble" wise advice from @BrigitteAnder17 @StartupInst re doing a bootcamp https://t.co/2PzkOuNjfN
p823
aVAnd here we go! First cross bootcamp meetup of alumni all women! @1871Chicago Goooooo @BrigitteAnder17 so awesome https://t.co/RhjpZfBkic
p824
aVRT @StartupInst: Over 200 Chicagoans have made transitions into jobs they love throuh our #bootcamp. Are you ready to do the same? https://\u2026
p825
aVInclusion is a central feature of #bootcamps @1871Chicago thanks @tomalexander19 https://t.co/9VkB98Seaa
p826
aVPacked house tonight @1871Chicago for 1st ever cross-bootcamp infosesh https://t.co/xSzIQPfm22
p827
aVRSVP for Chicago's premiere #talent event Thurs 8/11 @1871Chicago. Meet devs, web designers, + salespeople https://t.co/Rnhl4FjyOu   #hiring
p828
aVWe are lucky to learn from @MarkMcEachran here @StartupInst Chicago!! Great post. https://t.co/Coz6sIEdy3
p829
aVThank you Paul co-founder of @TheEvolveSec doing 1st fireside chat @StartupInst @1871Chicago today!
p830
aVPhishing web apps + ransom ware top 3 everyday security threats @TheEvolveSec today @StartupInst https://t.co/VJ2F22Bvvw
p831
aVRT @TheImpactEngine: Announcing our Seed #investment in @lunalightsinc w/ #BreakpointVentures @M25Group @Invoyent https://t.co/xSH568QyBk h\u2026
p832
aVFeeling stuck? Join @StartupInst 8/3 for breakfast &amp; #careerstories from alums working jobs they love https://t.co/519wQl9KNX
p833
aVRT @IE_Elliot: Why Is The US Not Better At Cybersecurity? | https://t.co/y30NnPOyzX | #BigData
p834
aVRT @StartupInst: Hiring for your #ChicagoTech company? Find devs, designers + salespeople at #SITalentExpo 8/11 https://t.co/9B2anXTS8g
p835
aV+1 @jasonfried: "@TroyHenikoff @bmoesta @techstars Bob is the man! So glad he stopped by.\u201d
p836
aVSo excited to welcome @Chuparkoff to @StartupInst to share #productmanagement lessons from his amazing run so far! https://t.co/DkPCTk22rI
p837
aVRT @Cruiter: Both of those words really resonate with me! #Grit #empathy https://t.co/VafTdTHJ0y
p838
aVRT @StartupInst: Proud to be ranked #4 in the 20 Best User Experience (UX) and User Interface (UI) Web Design Bootcamps: https://t.co/QmTZp\u2026
p839
aV"We hire for grit and empathy" @eastmanegg founder @hunterswartz ..... yessssss we build those people @StartupInst
p840
aV"We want to be the Shake Shack of breakfast" - where @eastmanegg is headed next - @hunterswartz here today @StartupInst
p841
aV@hunterswartz of @eastmanegg was super passionate about getting a decent egg sandwich outside of Manhattan https://t.co/Lf2ETGsVIb
p842
aVYou Quit Your Job! Now What? https://t.co/O9ewBB1lKc good advice from one who takes his own advice @martinmcgovern
p843
aVThanks to @StartupInst Alum @TdeMedici for creating #SustainTheChi Dialogue Series - last night on food in Chicago @LifeCreativeHQ Bravo
p844
aVCheck this out ! Goodbye Silicon Prairie, Hello Chicago School of Technology  https://t.co/Rq0OMXk2Io
p845
aVMore happy customers &amp; clients on the way for @ReviewTrackers with their exciting $4M round, woo! Congrats from your partners @StartupInst
p846
aV.@schlepit CEO @hunteririley points to #relationships as paramount w/depth &amp; hard work in equal measure @StartupInst https://t.co/1doy05wjD3
p847
aVYup. Makes sense. @DePaulU @ColemanCenter presence @1871Chicago will be great for student #entrepreneurs and #CareerChange
p848
aVSharp group today from @chicagoideas exploring #WhatsNext in #tech @StartupInst @1871Chicago Thank you for being great!
p849
aVRT @watermelonshirt: @BreakwaterCHI 8 pools, 3 restaurants, rainforest, private club and more! YEAR ROUND. inside scoop: @chicagoideas @Sta\u2026
p850
aVRT @watermelonshirt: Awesome innovation represented at the Member Lab with @StartupInst @1871Chicago @chicagoideas
p851
aVRT @watermelonshirt: @TakenChargeEdu @GalvanizeLabs 6200+ users, 115 locations teaching fundamental STEM skills to youth @chicagoideas @187\u2026
p852
aVRT @tomalexander19: .1871chicago companies are hiring right now. Join us!!! Please retweet! https://t.co/PYrSLqUlxo
p853
aVInstead of making America "safe" again, why not make America smart again? #education for all citizens builds liberty + creates safety.
p854
aVEffort efficiency effectiveness results - 4 metrics with bumper rails for managing your performance and helping others @CarverPetersonC
p855
aVRT @HarmonyInsights: Great conversations w/ @StartupInstCHI students at @1871Chicago about their resumes &amp; #LinkedIn profiles! #SIChicago h\u2026
p856
aVRT @StartupInst: The summer 16 cohort at #SIChicago has the brawn, the beauty, + the brains. You should hire them! https://t.co/fadpR92Pyu
p857
aVRT @1871Chicago: #ICYMI: How #Chicago grew into one of the country's most exciting tech hubs https://t.co/RUchvDxY5V #ChiTech https://t.co/\u2026
p858
aVShout out @mday55 @GrowIt @katrudey @LinkedIn @Cruiter @carsdotcom &amp; Zach Blois @narrativesci crushing it as mock interviewers @StartupInst
p859
aVWooo @Cruiter you know how to find the gold! I hear @carsdotcom is hiring, eh?! https://t.co/vQlMo0TROc
p860
aVRT @martinmcgovern: Find out what makes a great #candidate for @StartupInst &gt; Interview with @bickfordkatie https://t.co/oI8aKgHp0H
p861
aVHappy 28th to @Martin mcgovern may your wish come true mmmmmm ice cream @StartupInst @chestnutchi https://t.co/0Dv4l2gQLv
p862
aVThis is one of the best @StartupInst classes of the entire program - thank you Sam Harris @tribe_do #forcemultiplier https://t.co/XCsWIUXLWI
p863
aVThank you @dimaelissa for sharing your amazing journey + the near-horizon breakthroughs of 3D printing @StartupInst https://t.co/NDBpiCUtQh
p864
aVKeep on growing! State of Midwest Investments: Chicago Edition :  https://t.co/ctL6jGTVlh via @BuiltInChicago
p865
aVGive First. First rule in the code of conduct for @Techstars entrepreneurs @TroyHenikoff visiting @StartupInst today https://t.co/A4A6wB7d3V
p866
aVShout out to @ToddConnor @TheBunkerLabs joining our standup this morning @StartupInst urging students to live out their true selves now
p867
aVIt\u2019s easy to lose sight of what you're passionate about when you\u2019re in the wrong job \u2014@KarlLHughes https://t.co/C77q1QMuRH via @StartupInst
p868
aVRT @martinmcgovern: How do you turn a coffee into a job in sales? https://t.co/HiUSSA0B8a
p869
aVRT @martinmcgovern: Join me on the rooftop!!! @startupinst Open Doors Party is next Wednesday at 6pm at @opternative\u2026 https://t.co/RqZuGCs1\u2026
p870
aV.@wetechup re merits hiring bootcamp grads: do it if your candidate has hustle + EQ + dev skills = rockstar
p871
aVWorth the whole week - do this do this do this, my dear Summer cohort! https://t.co/XULDkaJZeY
p872
aVBig shout out to @StartupInst partners @narrativesci @syndioinc @TopstepTrader @ITAbuzz @GrowItMobile @schlepit for being so damn cool
p873
aVYep @JulieRothNovack you totally did credit @samyagan for that brilliant nugget @StartupInst today \U0001f4a1
p874
aVA/B test your pitch deck to figure out what metrics will excite investors - yessss @JulieRothNovack good insight for @StartupInst students
p875
aV@PartySlate CEO @JulieRothNovack visiting @StartupInst during her busy week 2 @techstars thank you Julie!!
p876
aVInspired events inspire people - @JulieRothNovack believes @PartySlate will save parties with lighting, sound &amp; mojo https://t.co/mGvH0l79nP
p877
aVThe rooftop party for people who want to party with Chicago's @StartupInst community! 7/13 at #SIOpenDoors @Opternative! RSVP soon!
p878
aVRT @POTUS: Americans still need and are asking Congress to pass commonsense gun laws that strengthen background checks and keep our communi\u2026
p879
aVRT @POTUS: After more than 100 days, the Supreme Court still needs its 9th judge, but the Senate GOP refuses to do its job and consider Jud\u2026
p880
aVRT @1871Chicago: #1871Alumni Member Company, @TempestaMedia is hiring for a Business Development Specialist. https://t.co/yZQTUON0gl  #NowH\u2026
p881
aVOur own @LarCavezz shares her career change from speech therapist &gt; boss UX designer. A surprisingly natural fit. https://t.co/Dfb17a5Y3s
p882
aVRT @atlasobscura: The unknown French horticulturalist who made lilacs happen https://t.co/ofM7DI8Ufa https://t.co/pbLIvjAW1h
p883
aVWant to meet Chicago's @StartupInst community? Party 7/13 at #SIOpenDoors on the rooftop @Opternative! https://t.co/jRVFQntsRA #networking
p884
aVA 5-minute play won the IdeaHack for @projectosmosis @mrcyze @ms_kallected mark penovich @StartupInst https://t.co/Cg9hS3unTb
p885
aV@colorJar @David_Gardner brand naming litmus test: people can spell it, super short, sticky, image-rich - good question @ms_kallected
p886
aVRT @1871Chicago: .@MannyOzaeta + @KristiDula putting the finishing touches on a new stairwell mural. #ChiCares https://t.co/ZDjxqUBLh6
p887
aVGolden Purpose: @David_Gardner @ColorJar shares his career journey to #Entrepreneurship &amp; #branding @StartupInst https://t.co/YIXWvVjEg2
p888
aVRT @chestnutchi: Proud of our @StartupInst student IdeaHack presentations w @projectosmosis to design an ed tech center for Chi kids https:\u2026
p889
aVLearn the secret to closing a Series A round from Lindsay Segal of @luxurygarage https://t.co/KCdkr5wcCF #HPABlog #HPAPortco #funding
p890
aVGo see @alissa this morning @TechweekCHI moderate the Design &amp; Technology session! @StartupInst Alum @CivisAnalytics
p891
aVLearning about array of things project in Chicago from @CityChicagoCIO @TechweekCHI this morning https://t.co/z3BiiaxzPH
p892
aVAwww look how sweet this moment is with @KaileyRaymond cracking a joke about career fairs @StartupInst @chestnutchi https://t.co/qS2epI40Gh
p893
aVRT @ITAbuzz: ITA CEO @FredHoch speaking on the State of #Chicago #Tech to the new cohort @StartupInst https://t.co/MmvDOMWwLP
p894
aVThere is no better community to be in than Chicago for #tech over the next 10 years @FredHoch @ITAbuzz @StartupInst https://t.co/hY7lBEzE23
p895
aVRT @1871Chicago: Yay for #NationalSelfieDay! A little afternoon fun with the Summer '16 cohort of @StartupInst-Chicago. \U0001f4f8 https://t.co/SMlw\u2026
p896
aVThanks to @yeefunk &amp; @rickdesai friendship! #careerlove
p897
aVRT @rickdesai: Just taught my 9th set of students @StartupInst. Really impressed w/ the quality of the students. Will make an impact on Chi\u2026
p898
aVRT @adriancgarcia76: @rickdesai Awesome presentation! 1st two days @StartupInst had amazing presenters and info about Chicago's tech indust\u2026
p899
aVCheck this: People are becoming more like brands and brands are becoming more like people. Whoa. Thanks @rickdesai
p900
aVKey moment @StartupInst when @rickdesai helps students own being a developer, a designer, a salesperson, a marketer https://t.co/Yp0BF5InE1
p901
aVI use the idea of 'first noise' to teach others how to connect with an audience\u2014@andyangelos https://t.co/CNNHfHM5L9 via @StartupInst
p902
aVWhat Working at NASA Taught me About Being a Better Marketer, by @jeff_davis2 https://t.co/pYrrliFvC7 via @StartupInst
p903
aV#DesignThinking requires you to resist going straight to a solution, says @AlissaAmpezzan https://t.co/IjfvWrlCXy via @StartupInst
p904
aV@Velo_MikeV freaks out new sales cohort with why math matters in sales using a job hunt sales funnel @StartupInst https://t.co/J9rir7aF14
p905
aV@AlissaAmpezzan now you know @Brentskeez will ask you to define what seminal means
p906
aVThe idea for the clap out on day 1 for new employees @JellyvisionLab came from an intern soooo awesome
p907
aVForget company speak, write human. Hot tip for our new cohort @StartupInst thanks to @AmandaLannert @JellyvisionLab https://t.co/D7XBowPE4t
p908
aVBe Helpful - two action oriented words, simpler than a mission statement, &amp; galvanizes every move @Jellyvision YES https://t.co/vsHvewhU9S
p909
aV.@Brentskeez shares the big EQ aha with @StartupInst students on Day 1 sooooo good! https://t.co/viGmKHgwAc
p910
aVRT @1871Chicago: .@KatyCERCA on personal responsibility: My job should require me to create a space for people who don't have a voice at th\u2026
p911
aVRT @1871Chicago: Excited to have Katy Erker-Lynch joining us now! https://t.co/ikkg4xFfr9 #wetechup https://t.co/hEbepUa4m8
p912
aVRT @AmandaLannert: Yes, this.  The Two Words That Mean Everything to Us https://t.co/F96E1j4akA by @JennyFukumoto  #Jellyvision
p913
aVRT @OutlookMktg: FANTASTIC panel on #diversity in #tech @StartupInst @1871Chicago #TechWeekChi. Look forward to continuing the convo!
p914
aVRT @1871Chicago: Don't treat people like tokens. Respect who they are by going to events to show your support. @dominicmliddell #TechWeekCH\u2026
p915
aVHey @TdeMedici &amp; @joshsimons237 can't wait for your podcast ha ha - your alumni standup act today @StartupInst was great!
p916
aVDay 2 @StartupInst will be epic: @AmandaLannert @JellyvisionLab teaches what startup culture is &amp; isn't, taking the torch from @ethanaustin
p917
aVSo thankful to work with @chestnutchi @buckleym117 @martinmcgovern on a massive Day 1 @StartupInst \U0001f525
p918
aVRT @Brentskeez: Excited to meet @StartupInst's new class to explore/share why #emotionalintelligence is crucial to success @cliquechicago!
p919
aVRT @hakimian45: #TechweekCHI I am here watching @ideaLemon on #Periscope: Discover your inner awesome Techweek with @coltcabana https://t.c\u2026
p920
aVCheck out @dominicmliddell @techwhileblack speaking truth about #DiversityinTech https://t.co/qpXE2mH0Pt
p921
aV@dominicmliddell is creating an inclusive Chicago @TechweekCHI I respect &amp; love you for making Chicago tech great https://t.co/WjJmtqAVcg
p922
aVRT @SenatorDurbin: Glad to visit @heartlandhelps\u2019 Town Hall Apartments today - Chicago's 1st LGBT-friendly affordable senior housing https:\u2026
p923
aVRT @1871Chicago: June 20\u2014Featured @wetechup Speaker: @KatyCERCA ,@StartupInst Alumnus &amp; now at @ThinkCERCA! https://t.co/aVAEfAlYFP https:/\u2026
p924
aVRT @BuiltInChicago: Women in Tech goes to @jellyvisionlab @AmandaLannert ! #MoxieAwards https://t.co/dWJhwv5nFX
p925
aVRT @KristiDula: Congrats to @rkarmani and @zeropercent for winning "Best Social Impact Startup" at @BuiltInChicago's @MoxieAwards! https://\u2026
p926
aVRT @1871Chicago: Join @StartupInst and moderator @domlet, VP of @wetechup, for an engaging conversation on #DiversityinTech! RSVP: https://\u2026
p927
aVRT @StartupInst: I use the idea of 'first noise' to teach others how to connect with an audience\u2014@andyangelos https://t.co/3SzzecUQNT
p928
aVRT @martinmcgovern: We need to break away from the factory model of education and encourage people to be creative and curious @JBPritzker #\u2026
p929
aVRT @martinmcgovern: Don't just know THAT you don't know. Know WHAT you don't know. #1871fortheroad
p930
aVI hope tech will get involved in this: brain development from 0-8 yrs. This is #1 thing we can do to predict success in life @JBPritzker
p931
aVPriority for Chicago tech next 5-10 years? Talent. Organic growth + $B exits will get it done &amp; it's happening #1871ForTheRoad @JBPritzker
p932
aVWhat makes 1871 great is that it is open to the community - it is yours - it isn't just a private branded space #1871ForTheRoad @JBPritzker
p933
aVVC bet on you means you need to show *at least* 3X return - bring large addressable market + competitive edge #1871ForTheRoad
p934
aVWant VC attention? Advice from @JBPritzker Warm intro; humility + confidence; morphine problem; esuite as strong as csuite  #1871ForTheRoad
p935
aVBy the end of 2016 more will be spent on digital media v mass trad channels yay at last  #1871ForTheRoad @JBPritzker
p936
aVRT @StartupInst: Don't spin the career-roulette wheel\u2014consider what brought joy in the past, says @andyangelos https://t.co/3SzzecUQNT
p937
aVNice values - Green thumb, Obvious, One Life, Level11 etc  @bobmarsh5 #chisales
p938
aVSales pipeline defined by buying cycle vs sales cycle thank god at last @bobmarsh5 #chisales
p939
aVTransparency + Buyer Knowledge = Salesperson as Enabler and Coach @bobmarsh5 #chisales
p940
aVWhy culture + leadership are key to sales performance #chisales #enterprisesales w/ @bobmarsh5 https://t.co/zCpQ7X4Ak1
p941
aV@dimaelissa gives @tomalexander19 his Mini Me made by @vismed3D @StartOut @1871Chicago tonight! https://t.co/Gi2kf9ZvbA
p942
aVGo Go Go Cory! https://t.co/cJeJISsiDz
p943
aVA Chicago-Based Smart Siren Startup Is Headed to Techstars and Detroit https://t.co/CdXhf5mLoS via @ChicagoInno
p944
aVHere come da judge to @protohackchi @StartupInst  https://t.co/TNFYS1vnBs via @youtube
p945
aVThank you @maximumbeth for inspiring everyone at @protohackchi this morning! https://t.co/foFSJApbvX
p946
aVWhich U.S. cities generate the best VC returns https://t.co/N0m1Kdbnge via @PitchBook
p947
aVJoin @protohack on 6/11/16 at @StartupInst, the only code-free hackathon for non-technical entrepreneurs! https://t.co/J4ylSl3s9c
p948
aVTrain this summer, get hired by fall. Watch this video @StartupInst. Summer cohort starts 6/20. A few seats left! https://t.co/t9z1bA6VaW
p949
aVHappiness! @StartupInst's summer cohort starts 6/20. Better hurry, only a few seats left. &gt; https://t.co/WcXF6WPAfO
p950
aVGood question @amarsin
p951
aV.@protohack is coming to Chicago on 6/11 @StartupInst @1871Chicago Have an idea? Can\u2019t code? This event is for you! https://t.co/J4ylSl3s9c
p952
aVJoin me to talk #jobs in #tech w/ @amarsin @john_preuss @kashif456 @AriEhrmann @1871Chicago https://t.co/Vgj2OFwB7w
p953
aVTuesday night I get to interview @StartupInst alums from @Uptake @Dose @Collaborata &amp; Occasion @1871Chicago RSVP https://t.co/Vgj2OFwB7w
p954
aVChicago smart - Train this summer, get hired by fall. Join @StartupInst summer cohort June 20th: https://t.co/INg8N47HBg #hiring #tech
p955
aVFun fact: 92% @StartupInst grads find new jobs within 100 days; 88% are happier than in jobs prior. How do we do it? https://t.co/Lq8xwX7Duq
p956
aVHonoring @joshsimons237 with single edition @StartupInst CAM apron as he rolls on to @ChicagoInno #smokedmeat https://t.co/Y1LRxR4wA3
p957
aVRT @StartupInst: 92% of our grads find jobs w/in 100 days, 88% are happier than in jobs prior. Here's how we do it, via @CourseReport https\u2026
p958
aVWe \U0001f49c clever #webdesign students &amp; instructors @StartupInst - one reason why #1 rated design #bootcamp on @switchorg https://t.co/Gd2ZJKiLlO
p959
aVRT @ARAmentors: .@ToniPreckwinkle: "It\u2019s really important to find what you love. Do a job you think is important &amp; meaningful &amp; you enjoy."\u2026
p960
aVRT @Chi_Innovation: "It's important to ask for help...it's amazing how people help you if you just ask them!"@ToniPreckwinkle
p961
aVRT @weareci: 5 Numbers That Explain Why STEM Diversity Matters to All of Us https://t.co/xr1Smfdyl9
p962
aVLiking your coworkers + feeling respected are key to being #happyatwork, says @RajNATION https://t.co/kMmLPuqBGR via @StartupInst
p963
aVHow to Be Happy at Work: The 70% Rule, by @RajNATION #happyatwork https://t.co/kMmLPuqBGR via @StartupInst
p964
aVRT @GinaEPA: My advice to young women: Follow your passion and seize opportunities rather than trying to craft a predicted future. @TheRive\u2026
p965
aVRT @Chicagoist: The Old Main Post Office is getting a $500M facelift and a three-acre rooftop park: https://t.co/OpdNpTZ7LC https://t.co/DX\u2026
p966
aVRT @TechCrunch: Astronomers announce largest batch of new planets ever discovered https://t.co/ytvXrbx5Uq https://t.co/M7Sptftnij
p967
aVRT @StartupInst: Kickstarting Your #SalesCareer: 4 Big Success Tips from @CarverPetersonC https://t.co/tDdRcjiSzP https://t.co/fCVrESdc7y
p968
aV4 keys to promoting diversity in tech, according to America's CTO https://t.co/AAI5DaEDmm via @BuiltInChicago
p969
aVTo @chicagoama friends with careers in need of a kickstart, contact me for discount code for this Saturday session https://t.co/8iziKutkMq
p970
aVI had been told @StartupInst was this \u201cexperience\u201d + I didn\u2019t understand it until I had taken part, says @peggy_yu https://t.co/uBiCVU61zK
p971
aVRT @iPaulLee: 4. really talented young people focused on ideas and joining an awful team and wasting 2-3 years of their professional life.\u2026
p972
aVRT @iPaulLee: 3. great founders figure out a way to win and if it's your first startup, that's the most important thing to take away. Too o\u2026
p973
aVRT @iPaulLee: 2. instead on the quality of the founder(s). Who they are, what they've done, who they know.  Ideas often go bad and are prov\u2026
p974
aVRT @iPaulLee: 1. Quick note of advice for people in their 20's who want to join (not start) a startup - don't focus on the idea of the comp\u2026
p975
aVBreak into the growing Chicago #tech community - get the skills that will get you #hired. Apply by 5/2 @StartupInst to lock in lower tuition
p976
aVThe 3-Part #Secret to Becoming the Leader You've Always Aspired to Be, by @RajNATION https://t.co/ZHpOrqLbGs via @StartupInst
p977
aVStartup Institute to Launch One-Day Career Workshops https://t.co/Fdd4yGUiGv via @TechCoHQ
p978
aVGet #inspired + get unstuck @StartupInst #careerbuilding workshop w/ @idealexit &gt; 5/14 @coalitionChi https://t.co/KQFXZRgZ3W #SIGetUnstuck
p979
aVRT @buckleym117: Join @idealexit @coalitionChi 5/14 to design a #career you\u2019ll love + an #actionplan to pursue it. https://t.co/RLM3IHS0Q4\u2026
p980
aVLet them know it is okay to be vulnerable - people crave feedback @contextmedia from the wise Kate DeVoto #DisruptHRChi
p981
aVIt's an awesome time to be in HR if you are a math geek like me - figuring out all the messy shit @zack__johnson @DisruptHRChi
p982
aVJob one to clear the hearth for sparking innovation is dealing with a mindset of risk aversion, amen @tkuczmarski #DisruptHRChi
p983
aV@tkuczmarski innovation loves a big set of ears and a yummy culture @DisruptHRChi https://t.co/25T8BmHFZl
p984
aVUntil I left corporate world did I realize how much I could've contributed if I felt like I could be truly me @MelonieMBoone #DisruptHRChi
p985
aVInclusion is good business. Not just moral rightness. Diverse thinking fuels faster, more durable results. It is that simple. #disrupthrchi
p986
aVThe actual work of inclusion is undone in the workplace because you can't explain what it means @joegerstandt yep that's true #DisruptHRChi
p987
aVNegative space creates the doorway for my brain to join in a conversation with you @jill_pollack #DisruptHRChi @1871Chicago
p988
aVRT @hydeparkangels: RT @rithmio: "Unicorns don\u2019t just live on the coasts." Great recap by @hydeparkangels on #ChicagoVentureSummit. https:/\u2026
p989
aV@theaccordance ah but these awesome suited college students must visit an accounting firm next!
p990
aVSharing the morning w/ @CalvinCollege  students &amp; @timmbloem @ColorJar &amp; @joshsimons237 @StartupInst  @1871Chicago https://t.co/Qu19wCFK9Q
p991
aVHey Chicago Spring cohort! Check out @StartupInst Boston's pitches live on #Periscope https://t.co/2pkjN9vt2n
p992
aV$100 Million Impact Investment Collaboration to Benefit Chicago \u2014 @Macfound https://t.co/Ml9EEgMzeC via @sharethis
p993
aVLearn HTML &amp; CSS w/ @theaccordance  @1871Chicago in part-time classes. Starts TOMORROW so git on it &amp; register https://t.co/cdcytNjQVR
p994
aVGet going on #Ruby w/part-time classes @StartupInst w/ @bangner, dev @builtnativ. Starts TOMORROW so register today https://t.co/cdcytNjQVR
p995
aVTonight @1871Chicago @Velo_MikeV @AlissaAmpezzan @galenisgalen + @JagiferAnn tell how they transitioned into tech: https://t.co/sZ8yHM00Wu
p996
aVMonday @1871Chicago - Hear how @StartupInst #Chicago alumni have transitioned jobs they love through our program: https://t.co/sZ8yHM00Wu
p997
aV4/25 - @Velo_MikeV @AlissaAmpezzan @galenisgalen + @JagiferAnn share how they landed their dream jobs in #Chicago: https://t.co/sZ8yHM00Wu
p998
aVRT @schlepit: Congrats to our @StartupInst apprentice team on graduation! @rocio_ameshimi @thejoshwolf @StarbuckLane @HenoticHan https://t.\u2026
p999
aVRT @StartupInst: Read how @charleschuman went from political #journalism to #ChiTech sales @contextmedia  https://t.co/XNdwbvkOEl https://t\u2026
p1000
aVRT @abigailross49: CONGRATS to the @StartupInst Chicago cohort. Awesome showcase today. If you're passionate about #edtech, reach out anyti\u2026
p1001
aVThank you @JohnRDallasJr means a lot from you &amp; genuinely honored you showed up to #sitalentexpo
p1002
aVRT @JohnRDallasJr: Congrats to @eatonbrook &amp; fellow @StartupInst leaders for transforming into high potential the #strengths of grads. http\u2026
p1003
aVRT @chestnutchi: .@HenoticHan is not afraid to tell your company's story #marketing #inspired  #SIChicago #talentexpo https://t.co/XuUF8yGR\u2026
p1004
aVRT @chestnutchi: .@StarbuckLane congratulates the @StartupInst cohort &amp; talks football past. Looking for his next team to rock #sales https\u2026
p1005
aVRT @chestnutchi: .@cvkays wants to swing into business with you as your next #product #marketer #SIChicago #TalentExpo https://t.co/z6yTMuy\u2026
p1006
aVRT @chestnutchi: .@KateFridholm loves to solve problems: puzzles, laser tag strategy and now web design. #SIChicago https://t.co/cyyppkkYJh
p1007
aVRT @chestnutchi: .@Monilogues is your next #flawless #marketer https://t.co/aJVMvNvgUI
p1008
aVRT @chestnutchi: .@AriEhrmann talks Legos, improv and solving problems CS skills &amp; frontend dev. Looking for ed/health tech jobs! https://t\u2026
p1009
aVRT @chestnutchi: .@CharlesDuong wants to keep pedaling on his journey as a product designer at...your company? #SIChicago #TalentExpo https\u2026
p1010
aVRT @chestnutchi: Ida Doutt loves psychology &amp; people and looking for a UX design opportunity w the right team #SIChicago #talentexpo https:\u2026
p1011
aVRT @chestnutchi: .@kirbycrook tells an impactful story of inspiring others by taking risks &amp; being uncomfortable. #design #SIChicago https:\u2026
p1012
aVRT @chestnutchi: .@BrigitteAnder17 wants to help build your next technology #talentexpo #SIChicago #business #marketing https://t.co/KYf34V\u2026
p1013
aVRT @buckleym117: Thank you @abigailross49 for your amazing kickoff! #SITalentExpo
p1014
aVRT @buckleym117: Thanks so much as always @brandonkeao for jumping in to help make #SITalentExpo a success! You rock!
p1015
aVIf I had a growth-stage tech company in need of hires with hustle, heart + mad skills, I'd check out #SITalentExpo https://t.co/Hy4hqOJMEd
p1016
aVRT @buckleym117: So honored to have our friend @annmarie_vue here sharing her career narrative with our @StartupInst cohort! https://t.co/l\u2026
p1017
aVChicago's #1 Morning Mood Lift for Recruiters, We Promise https://t.co/JBMlkGylYJ via @BuiltInChicago
p1018
aVIf I had a growth-stage tech company in need of hires with hustle, heart + mad skills, I'd check out #SITalentExpo https://t.co/Hy4hqOJMEd
p1019
aVHighly recommend a visit to USPS in the Merchandise Mart if you crave being ordered to comply with odd rules and odder staff #obeyorbegone
p1020
aVChicago Recruiters, come to @1871Chicago Thurs 10 am @StartupInst Talent Expo https://t.co/8TjcROBD6Q via @BuiltInChicago
p1021
aVRT @StartupInst: .@KahnTemplate is brilliant, scrappy, + cares so much about helping others, says @eatonbrook https://t.co/SQ6eSPROSs https\u2026
p1022
aVChicago-Looking for your next great #hire? Meet remarkable + talented people at #SITalentExpo THURSDAY @StartupInst https://t.co/Hy4hqP1nvL
p1023
aVRT @chestnutchi: It's a gush fest at @StartupInst where students praise one another with #awesome #awards at #SIChicago https://t.co/LFoVZy\u2026
p1024
aVChicago's #1 Morning Mood Lift for Recruiters, We Promise https://t.co/JBMlkGylYJ via @BuiltInChicago
p1025
aVChicago's #1 Morning Mood Lift for Recruiters, We Promise https://t.co/8TjcROk2fi via @BuiltInChicago @StartupInst
p1026
aVChicago's #1 morning mood lift for recruiters - only happens 3x a year @1871Chicago  https://t.co/ftcmvtGCW6
p1027
aVHiring? Come hear 23, 60-second pitches from web devs, designers, digital marketers &amp; salespeople #SITalentExpo 4/21 https://t.co/Hy4hqOJMEd
p1028
aVRT @coalitionChi: Mark your calendar - 5/14 @ CO:E "Get Unstuck" Workshop by @StartupInst - 10am-4pm, find out what's next for you. https:/\u2026
p1029
aVStrong #curiosity to learn is more attractive than technical experience, says @KarlLHughes #hiring https://t.co/MXXzsmTQDm via @StartupInst
p1030
aVLearning about BREW BIKE @TheGarageNU startup at Friends of the Garage reception https://t.co/IU9vPtWsKP
p1031
aVRT @buckleym117: Top resources when trying to land a #sales role in #Chicago? Panel says LinkedIn, @BuiltInChicago + hustling to build a ne\u2026
p1032
aVRT @buckleym117: Leaping into #sales from another career? "You need to be able to sell yourself first &amp; learn to position transferable skil\u2026
p1033
aV@BrokVanders sez "I would spend all the money in the world to have another @mgarms2" @contextmedia #sosweet
p1034
aV.@buckleym117 thanks our friends @ContextHealth @charleschuman for hosting @StartupInst Journey into Sales event https://t.co/ZUA0FOgxfM
p1035
aVAmazing sales leaders on the Journey into Sales panel tonight from @LinkedIn @ContextHealth @google Veritas Health https://t.co/Hl92NTLT7f
p1036
aVDouble trouble @noahmanion + @mereforce1 teach part-time #marketing classes this spring. Sign up now; starts 4/19 https://t.co/NTn14v4DzR
p1037
aVGet going on #Ruby w/part-time classes @StartupInst w/ @bangner, dev @builtnativ. Starts 4/19 so jump on it https://t.co/NTn14v4DzR
p1038
aVLearn HTML &amp; CSS w/ @theaccordance from @HigherGroundHQ in part-time classes, starting 4/19 Sign up this week! https://t.co/NTn14v4DzR
p1039
aVSign up now for JS with @tjbenneche, lead dev @Umojo. Part-time #JavaScript classes @StartupInst start 4/19 &gt;&gt; https://t.co/NTn14v4DzR
p1040
aVLooks like a great group of Illinois college entrepreneurs ready to pitch to you @chestnutchi @1871Chicago Thanks for repping @StartupInst
p1041
aVThrilled to have @noahmanion + @mereforce1 teaching part-time #marketing classes this spring. Starts 4/19 &gt;&gt;  https://t.co/NTn14v4DzR
p1042
aVSign-up for part-time #Ruby classes @StartupInst to #learntocode w/ @bangner, dev @builtnativ. Starts 4/19!  https://t.co/NTn14v4DzR
p1043
aVLearn the fundamentals of #webdesign w/ @theaccordance from @HigherGroundHQ in part-time classes, starting 4/19 https://t.co/NTn14v4DzR
p1044
aV#Learntocode with @tjbenneche, lead dev @Umojo. Part-time #JavaScript classes @StartupInst start 4/19 &gt;&gt; https://t.co/NTn14v4DzR
p1045
aVRT @chestnutchi: Students who complete surveys earn fabulous @StartupInst hoodies #incentives #SIChicago #swag https://t.co/gDOS7rYArF
p1046
aVRT @chestnutchi: My manicurist:"so do you have to work tomorrow?" me: "Oh, I GET to work tomorrow." And went on to gush about our @StartupI\u2026
p1047
aVRT @chestnutchi: Hot tips at @enova #dev apprenticeship panel with @jillscript @StartupInst alum who found value in resources #mentor https\u2026
p1048
aVHey @anel132 thanks! What will you use that you learned @StartupInst last night? See you again soon I hope!
p1049
aVLearn how to break into #sales in #ChicagoTech. Panel of pros moderated by @charleschuman at @contextmedia https://t.co/D14I6nqq5U
p1050
aVPacked house @StartupInst getting wise on conversion by @kaleighsimmons @Rippleshot &amp; @MFacchinello  @cliquechicago https://t.co/bnmFhw1GWY
p1051
aVGot 1 night/week to learn a new skill? Learn #Ruby #Marketing #JavaScript or #WebDesign w/ our part-time classes. https://t.co/7S8QIonFHo
p1052
aVGrow your #career with part-time courses in #ruby, #javascript #marketing, or #webdesign starting 4/19 @1871Chicago https://t.co/7S8QIonFHo
p1053
aVJust perfect on an unusually warm spring evening, Claude Debussy's Claire de Lune. Emotion, restraint, wonder.
p1054
aVThe StackFallacy https://t.co/udnU17N9vX via @techcrunch why companies are better innovating down the stack v up the stack
p1055
aVRT @StartupInst: We're thrilled to announce the beautiful new Startup Institute Media Hub, by @LarCavezz!   https://t.co/oPduOIwz2K https:/\u2026
p1056
aVRT @chestnutchi: Want to #learntocode? Our part-time #Ruby + #JavaScript classes in Chicago are perfect for newbies. Starts 4/19 --&gt; https:\u2026
p1057
aVGetting schooled in virality by the one and only @EmersonSpartz @dose @StartupInst https://t.co/Xe8OAvAMnT
p1058
aVThe secret from @EmersonSpartz @dose Learning how to learn is exponentially the most powerful thing you can do https://t.co/qqrvy75qLH
p1059
aV.@rayshaunagray next time you are home come visit us @StartupInst and bring @MysteryBaer \U0001f31f
p1060
aVRT @StartupInst: TOMORROW in CHICAGO! Join us for our "Working a Job You Love" alumni showcase @1871Chicago https://t.co/ppkGHrrcEt
p1061
aVRT @buckleym117: .@StartupInst in the house @NorthwesternU #startup career fair! https://t.co/cYpkyQaSgH
p1062
aVWish we had you @rayshaunagray too in our #Chicagoness pantheon. So @MysteryBaer you must be awesome. How should we meet?
p1063
aVHow are you showing up today? Energy leadership for conflict mgt. Thanks Tim Ressmeyer @HappyHourCoach @StartupInst https://t.co/fHCA5y1F2Q
p1064
aVNestled Will Scan Your Email Inbox to See If the Baby Products You Bought Have Been Recalled https://t.co/WxisdSdDW8 via @ChicagoInno
p1065
aVThanks Oliver @StartupInst Students join the #Tribe for Sales &amp; Marketing Hack https://t.co/auBtqZaxzr via @Tribe_do
p1066
aVHuge shout \U0001f4e2 out to Chicago @MakeOffices team and Jerre for #SIOpenDoors I say they #MakeGoodTimes too
p1067
aVAwwww @Cruiter thanks pal; hope you got a tamale - and a few good convos last night at #SIOpenDoors
p1068
aVRT @CNyren: Every two sided marketplace #startup presents a chicken &amp; egg problem - founders just need to #fakethechicken at the start #edu\u2026
p1069
aVRT @CNyren: Woah, there's more high school #students on LinkedIn than high school #teachers?
p1070
aVSay yes to things you think you are not ready for - @Grubhub CMO Barbara Martin Coppola's wise words for @StartupInst cohort today
p1071
aV@buckleym117 I hear there will tamales from Pilsen at #SIOpenDoors https://t.co/ZeamdFjxn5  https://t.co/9AsneEvk8l
p1072
aVHey @MarkMcEachran you are changing lives over here @StartupInst with your deep dive on display marketing - thank you for being you.
p1073
aV.@TroyHenikoff is our collective treasure in Chicago. @StartupInst students will give first. Thanks for today. https://t.co/PEGbDqINCV
p1074
aVGreat @techstars entrepreneurs balance tenacity w/coachability - too much of one or the other blocks progress @TroyHenikoff @StartupInst
p1075
aV@TroyHenikoff laughing with @BrigitteAnder17 @StartupInst about if he can start talking about biking https://t.co/Eptfiz7ORP
p1076
aVRT @ethanaustin: Dig it -&gt; Happy Startup Canvas: A framework for building stuff that matters https://t.co/DkZdbMe1rI via @welovelean https:\u2026
p1077
aV@jessicatenuta hurrah! You are a \u2b50\ufe0f @chestnutchi will reach out. Love you have been with @StartupInst in our early days. @packbackbooks \U0001f451
p1078
aVQ: What is Big Data? A: First understand your client's or your own problem. Canh Tran @Rippleshot @StartupInst
p1079
aVBrand is what people remember after you leave the room - and culture helps you recruit Canh Tran @Rippleshot @StartupInst today
p1080
aVCanh Tran @Rippleshot CEO is here @StartupInst "believe you're awesome &amp; be humble enough to laugh at yourself" https://t.co/oWLdRp79Bi
p1081
aVCheck out AIM Local (@weaimlocal): I just reserved my place to get exclusive, local artisan gifts every month: https://t.co/EwjAQT2Xsc
p1082
aVFuture of tech is a women's world, brilliant @WTFounders tonight @1871Chicago https://t.co/DSnjEakI3I
p1083
aV"No one will believe in you if you don't believe in yourself - every single one of you will be amazing" thanks @annmarie_vue @WTFounders
p1084
aVThe clutter inside your head? Clear it. Or you surely will own it. Yes. @dimaelissa @vismed3D thanks for sharing. #WTFounders
p1085
aVRT @SandeeKastrul: Time kills all deals. Exwcute, execute, execute. I encourage you to move. @dimaelissa #womentechfounders
p1086
aVGreat talk tonight @WTFounders @jessicatenuta A question (ha ha!): would you ever come teach a design class @StartupInst this summer?!
p1087
aVRT @buckleym117: What does creating a culture of curiosity &amp; asking great questions achieve? Fostering lifelong learning + empowerment. @pa\u2026
p1088
aVGreat job @TerriBrax @WTFounders tonight @1871Chicago - you are making a dent in the  universe and hope you feel it!
p1089
aVFocus on the founder and not just the gender lens - cool words from @nicoleyeary here at #WTFounders night @1871Chicago
p1090
aVThanks Mike @FounderEquity for sharing your 9 lessons of being a startup employee @StartupInst sooooo good!
p1091
aVWhere #startup hustle meets up with cool friends #SIOpenDoors Mar 23  @MakeOffices https://t.co/ZeamdFjxn5 #careerlove #networking
p1092
aVWant to meet amazing, career-driven people in Chicago? #SIOpenDoors is Mar 23  @MakeOffices https://t.co/ZeamdFjxn5 #careerlove #networking
p1093
aVFall in love with the problem; don't fall in love with the solution.
p1094
aVExcuses are a waste of time. Keep track of the promises you make. #keepingitreal @tullman @StartupInst @1871Chicago https://t.co/9OxyQiSUWd
p1095
aV"Before Facebook status was a private resource; now it is a viable component of a business and we all keep score" @tullman @StartupInst
p1096
aVReverse roadmaps @tullman wow a great way to build the future a la Netflix CDs prior to broadband https://t.co/QKzthGqA6D
p1097
aVRT @chestnutchi: Be clear on the why. For your business, your career, your being here! Always inspired by @ideaLemon to think big. https://\u2026
p1098
aVRT @FutureFounders: Becoming more awesome with @ideaLemon. @StartupInst @StartupInstCHI @1871Chicago #ffstartup https://t.co/4Gyci36N90
p1099
aVRT @FutureFounders: Kickin' off an intro to the #startup ecosystem workshop at @1871Chicago with our friends at @StartupInstCHI! https://t.\u2026
p1100
aVRT @chestnutchi: Chicago is a hotbed for innovation says @buckleym117 of @StartupInst to room of @FutureFounders college students. https://\u2026
p1101
aVYou want to build a company that is like Swiss cheese - lots of holes for customer listening - YES.
p1102
aVThe next generation is looking for the story, that is what sells an otherwise commodity. Jai Shekhawat...so great!
p1103
aV@Rick_Zullo asks: If you could start a company today what would it be? Jai sez: Something in the human capital space.
p1104
aVJobs fragmented into projects and projects are fragmenting into tasks; god knows where to from here Jay Shekhawat https://t.co/GnAJjkGHTk
p1105
aV"You don't get eaten from the top, you get eaten from the bottom" even Salesforce - Jai Shekhawat founder of @SAPFieldglass
p1106
aVRT @ethanaustin: How Facebook could end #Slacktivism with a single button https://t.co/KpNEPWuO7R
p1107
aV"Startups are not jobs, they are life decisions. Not for the faint of heart, but worth it." Thank you @Rick_Zullo for sharing @StartupInst
p1108
aVWhat Chicago does well: marketing tech, fintech, enterprise software, SMB - Chicago a great place to grow a company @Rick_Zullo @lightbank
p1109
aV"Invest in pain killers not vitamins" @Rick_Zullo dropping VC wisdom on @StartupInst Chicago
p1110
aVHearye my @StartupInst peeps! @Rick_Zullo says "team is number 1 reason driving whether a company has a 'good idea'" https://t.co/CinyCtE5GL
p1111
aVDoodles from my husband @friendtodawgs during 11 hours dealing with @MicrosoftHelps #Windows10 wrecking his setup https://t.co/RcnOjxbFLd
p1112
aV@ColorJar @David_Gardner shares about a decade's worth of brand wisdom in first 20 minutes @StartupInst Chicago https://t.co/GPrw0iFnKy
p1113
aVDepth &amp; breadth of ideas for @blacktechmecca by @StartupInst team 2 won them hoodies! #crushedit https://t.co/bqnO3MItbX
p1114
aVLet's do this "give" button \u201cThe End of Slacktivism\u201d a brilliant idea by @ethanaustin https://t.co/X8sTtEwaUM
p1115
aVHacking away with @blacktechmecca Team 4 @StartupInst #smartnetworking #Chicago https://t.co/wlSSxgMP6C
p1116
aVOur @blacktechmecca team is listening intently to their 5th IdeaHack presentation @StartupInst Chicago https://t.co/dloDwpoxFv
p1117
aVChicago #tech needs better branding - thinking bigger and more collaboration are key, thanks @tdegg @ITAbuzz https://t.co/ejBXryEv68
p1118
aVHow Illinois and Chicago are gunning to grow to US #2 tech hub for long haul #ecosystem #talent #capital thanks @FredHoch @ITAbuzz
p1119
aV@FredHoch is more bullish on Chicago tech than ever before (if that is possible) @StartupInst Spring 2016 cohort https://t.co/9FwunJlsEr
p1120
aV@ethanaustin Yup - sharknados and level 10 a**hats - we're gonna miss ya bad!
p1121
aV@rickdesai you are pure gold for what you teach our fresh cohorts at @StartupInst "get out there and hustle" "everyone sells" we love you!
p1122
aV@ethanaustin gives us his last teach on startup culture @StartupInst - we have been so lucky to learn from you! https://t.co/yFmU2Szcsm
p1123
aVRT @jasonhenrichs: Number of female founders continues to grow, but still only 18%. We need more #Women #entrepreneurs via @techcrunch http\u2026
p1124
aVWhere do most companies get digital wrong? "Speed, agile teams and continuous testing are good ways where you can go wrong" @derekcnel
p1125
aV@derekcnel of @cliquechicago @StartupInst welcomes the Spring16 cohort "you can never outsource understanding" https://t.co/DIMioBa6kA
p1126
aVRT @StartupInst: Interview w/ @JohnnyC115 @goWeSpire on #careerchange, #codingbootcamps vs cs degrees, + how to become a senior dev https:/\u2026
p1127
aVRT @buckleym117: .@startupinst graduates get hired quickly, are in control of their career paths &amp; love the work they do. Learn more: https\u2026
p1128
aVDo you know a laid-off @ChiPubSchools teacher who is truly ready for career change? 2 seats left for Feb 29 start @StartupInst Chi apply now
p1129
aVRT @JoeKutta: The Chi-Tech Riser is out! https://t.co/KkA8IEcsDp Stories via @eatonbrook @MarkV_Chicago @GetPlatypi
p1130
aVWord, this panel rocked last night @digintent - @NoraNoH8 @kaleighsimmons @noahmanion @mereforce1 @zblois @andyangelos @buckleym117
p1131
aVHow 2 college grads found career love in #Chicago #tech through @StartupInst, as told by one of their moms https://t.co/3X6GXvRXJB
p1132
aV@JoshSimons237 &amp; @ChristinaDevon1 share how @StartupInst helped them find jobs they love  https://t.co/KqP3AYYlMW @BuffaloGrovePPN
p1133
aVThurs. night @digintent learn how to build a digital marketing career from the people who've done it https://t.co/LpHSQ26Kqo  #gethired
p1134
aVAnd that's not all @mereforce1 @zblois @andyangelosshare will dole out advice Portrait of a Digital Marketer event https://t.co/LpHSQ2olhW
p1135
aVExcited for @NoraNoH8 @kaleighsimmons @noahmanion to share their #digitalmarketing career advice this Thursday! https://t.co/LpHSQ2olhW
p1136
aVLearn how to launch a digital marketing career in #ChicagoTech from cool people who've done it https://t.co/LpHSQ26Kqo #gethired
p1137
aVIf you're stuck, get unstuck. Download @startupinst Outcomes Report: https://t.co/Qk2c4F6U9q #tech #marketing #sales
p1138
aVRT @dorkitude: (some things I have learned) http://t.co/360JrB5rzH
p1139
aVThanks to our friends @digintent - I think this is going to be a great evening! https://t.co/qz2JmT7TZ3
p1140
aVA few days left for #WOCinTech to apply for the scholarship - I'd love to see some aspiring sales talents apply! https://t.co/tJaDyHSDVJ
p1141
aVA diverse innovation community will produce the best impact for Chicago, says @TdeMedici https://t.co/k8XfvztoRY via @StartupInst
p1142
aVAll of us @StartupInst alums in Chicago want to engage more and do more good, says @slonetastic https://t.co/k8XfvztoRY
p1143
aV#CommunityManagement allows you to see the brand as a whole, says @SuperBad_ #cmgr https://t.co/X2GlyoYM0c via @StartupInst
p1144
aVSimply, #communitymanagement is the hybrid b/w marketing + customer service, says @SuperBad_ https://t.co/X2GlyoYM0c via @StartupInst
p1145
aV@karishustad shares backstory on how @StartupInst Chicago #wocintech scholarship got going https://t.co/7FHtxj0Cpu  https://t.co/KDcW0yj7YT
p1146
aVEmployers love hiring alumni. Find out why our 8 wk program works + will get you #hired &gt;&gt; https://t.co/Tl7a6qn6vA
p1147
aVRT @DianeHessan: $3,000 Scholarship for #wocintech in Chicago who want to attend our spring cohort https://t.co/IPxrsCmx40 #womeninstem
p1148
aVRT @FutureFounders: Join us as we equip the next generation of entrepreneurs at https://t.co/mE9X49KC5F https://t.co/reeH7xCAO9
p1149
aVRT @StartupInst: $3,000 Women of Color in Tech Scholarship\u2014learn more: https://t.co/c3FZZ8oIYp #chicago #wocintech thx to @FreshwaterDW &amp; @\u2026
p1150
aVRT @Propllrhead: A lovely goodbye to @GiveForward by @ethanaustin https://t.co/KUhinBOCcp
p1151
aVWe have an exceptional team here + we've proven @rippleshot's value\u2014 @jeffreyspetter https://t.co/KAqJ9cnIaw via @StartupInst
p1152
aVWoooo @jeffreyspetter u rock https://t.co/smEmEWRW5A
p1153
aVIn-depth tips by @elizabethegg and @bickfordkatie @StartupInst How to Get In to Startup Institute https://t.co/J3TRYmmN8G
p1154
aV@jasonhenrichs thank you for noting how Adam thought to make the world better helping one person at a time
p1155
aV.@StartupInst Chicago Alums who sought advice from Adam London - pay forward that gift he gave you https://t.co/IiVTQInCO6 via @ChicagoInno
p1156
aVRT @buckleym117: "It all comes down to what you value as an individual &amp; then finding the right fit for you." @eatonbrook on @StartupInst e\u2026
p1157
aVGrateful to have @charleschuman @aimeemfranco @jessinaction + @dancepantss chat working #jobs they love tonight! https://t.co/xp9gPz8RTF
p1158
aVHow focusing on diversity is helping this Chicago startup succeed:  https://t.co/lgZhNNtjqe via @BuiltInChicago
p1159
aVWhat do Middle Eastern politics &amp; startup#sales have in common? Hear @charleschuman tell his story tomorrow night! https://t.co/tRXFaTP9ip
p1160
aVHow do you translate experience in the art world to become a digital #marketing maven? Hear @jessinaction tomorrow! https://t.co/kqDqaLmqzs
p1161
aV.@Brentskeez so glad you are digging @waitbutwhy let's discuss Fermi paradox
p1162
aV@Fabian_Elliott massive congrats you earned some fogginess today @blacktechmecca #SBTE2016
p1163
aV"Always follow up" a big small thing entrepreneurs need to do #SBTE2016
p1164
aV.@dominicmliddell you connected with love and passion tonight @blacktechmecca #SBTE2016 so proud @StartupInst alum
p1165
aV@codewhileblack CWB Fellows on Feb 5 connect educate empower so blown away
p1166
aV#SBTE2016 @dominicmliddell @codewhileblack firing up the crowd!!
p1167
aVAt the end of the day leadership is about creating opportunities for others @SandeeKastrul @blacktechmecca #SBTE2016
p1168
aVHigh demand for #UberMENTOR last week, so @StartupInst is bringing our mentors back tomorrow for a career panel https://t.co/wL9aCD8DJF
p1169
aVRT @TroyHenikoff: Was a mentor for @Uber_CHI today. 8 trips with future entrepreneurs:\u000a- 6 women\u000a- 6 ppl of color\u000a- 1 white guy\u000a#diversityi\u2026
p1170
aVPragmatic startups in 1st #WiSTEM cohort @1871Chicago @PartySlate @payyourselfie @TraknProtect @DigitalGroundUp etc https://t.co/4X7AqjFQIZ
p1171
aVStill smiling #chitechsoiree party with a purpose for @BLUE1647 by pay-it-forward alums @StartupInst @BucketFeet https://t.co/RFTR54mHO7
p1172
aVHope to see you at #WiSTEM to learn how these clever startups are progressing! https://t.co/ajB9oET9K6
p1173
aVThanks @EmKDee #UberMENTOR was such a fun day for everyone. @StartupInst team was honored to help organize it.
p1174
aV@galenisgalen hey hey it was fun doing the Western Avenue shuffle and getting you home to Evanston
p1175
aVThanks @markrenshaw insightful post on your #UberMENTOR day https://t.co/9d1vq3wMgU via @leoburnett
p1176
aVThe @Uber_CHI team &amp; drivers ROCKED. And yes all #UberMENTOR mentees - stay tuned for a second chance ahead! https://t.co/NlGSlh6sOm
p1177
aV.@sethkazair is getting creative funding tuition for @StartupInst and I believe in him https://t.co/oFal1oZ2JB via @gofundme
p1178
aV@JuliusGivens you need to ride around in @UberMentor cars all day long - our world would be so much better! https://t.co/ND0rtMdycp
p1179
aV@thekatylynch @Uber_CHI I so wished I'd stayed in the car with you and Wabi for Bowie!
p1180
aVAnd so, my friends, this is why mentorship matters! Thanks @shr4dha #UberMENTOR @StartupInst  https://t.co/m5qfVUnq8l
p1181
aVRT @scottissen: Having fun meeting talented #entrepreneurs during @Uber_CHI Mentor Day @StartupInstCHI @FutureFounders https://t.co/X1TqLsL\u2026
p1182
aV.@FredHoch @terryhowerton #UberMENTOR sharing @ITA @TechNexus advice today https://t.co/MnabhOIHKf
p1183
aVRT @thekatylynch: From 11am-3pm TODAY I'll be riding around Chicago in this @Uber_CHI. Request me in the app now! #UberMENTOR https://t.co/\u2026
p1184
aVRT @scottissen: Excited to begin mentoring folks in Chicago with the wonderful Margaret @Uber_CHI @StartupInstCHI https://t.co/xWuCfZkYYF
p1185
aVLet the #UberMENTOR games begin! @thekatylynch &amp; her first mentee in West Loop - #steeryourcareer &amp; enjoy the ride. https://t.co/GjL8ayEDCp
p1186
aVAwesome #UberMENTOR @thekatylynch @TechweekCHI meeting her #Uber driver for the day https://t.co/wpzPwyCuWA
p1187
aVRT @dwcordova: Mentorship + network are a key drivers of career success, says @eatonbrook #UberMENTOR #steeryourcareer https://t.co/gnPRXJo\u2026
p1188
aVIn Chicago, Your Next Uber Ride Could Come With a Tech CEO (And Free Career Advice) https://t.co/NfsO0P4Xmb via @ChicagoInno
p1189
aV.@kaleighsimmons + @SuperBad_ 's intro to #marketing @StartupInst is practical +holistic  https://t.co/3grLkpqI6Y
p1190
aVLearn the startup pitch from the ringmaster @PitchCircus of @StartupInst Jan 20 @1871Chicago: https://t.co/qWM8MlVP8m
p1191
aVHow to yearn https://t.co/Ac8IyKJ8xb via @jbernoff
p1192
aVRT @chestnutchi: #tbt to @kaleighsimmons &amp; @SuperBad_ winning the marketing instructor awards at our fall @StartupInst TalentExpo! https://\u2026
p1193
aVRT @blacktechmecca: ANNOUNCING SPEAKERS for #SBTE2016 @kurtasummers Treasurer of the City of the Chicago. RSVP: https://t.co/VwOXbjlHNu htt\u2026
p1194
aVRT @karishustad: More tech money heads to #education https://t.co/hRBL3t4BUt via @techcrunch
p1195
aVRT @gurkot: #Startups on startups on startups. #1871 @StartupInst @1871Chicago
p1196
aVRT @buckleym117: Congratulations @StartupInst #Chicago alum @dkellyChi!  https://t.co/A4pNIj3RJy
p1197
aVRT @slonetastic: Join @StartupInstCHI alumni 1/22 @BucketFeet on Damen as we party with a purpose to raise funds for @BLUE1647! https://t.c\u2026
p1198
aVRT @buckleym117: .@StartupInst experience vs Formal Ed? "There's no grade or shiny object to reach for. You have to do this out of passion \u2026
p1199
aVRT @buckleym117: "Sometimes you have no choice but to figure it out." - @MoniqueWingard on finding your personal passion during 8 weeks @St\u2026
p1200
aVRT @buckleym117: "It's challenging. No matter the size of the #startup, there's going to be uncertainty everyday." - @Velo_MikeV @StartupIn\u2026
p1201
aVHow to yearn https://t.co/Ac8IyKJ8xb via @jbernoff
p1202
aVRT @codewhileblack: 10 Things Every Web Designer Should Be Able to Do in Their Sleep https://t.co/bx1iqKb3cs
p1203
aVAmen to advice #7 @firstround : Forget GPA; select for grit, rigor, impact, teamwork, ownership, curiosity, polish \u2013 https://t.co/SSTc0TUds7
p1204
aVRT @Brentskeez: 30 Under 30 2016: Media - Forbes https://t.co/R1xTWrVDoA Congrats @EmersonSpartz
p1205
aVRT @CoalitionImpact: Excited for #happyhour with @FutureFounders ! https://t.co/6TVe524P1L  @SEA_Chicago @NIChicago @goodcitychicago @RXChi\u2026
p1206
aVRT @thekatylynch: Interesting. If You\u2019re Launching A #Tech #Startup In 2016, Focus On Privacy And Fast Data https://t.co/olLRUiXHIN on @tec\u2026
p1207
aVBest headline so far in 2016 https://t.co/SrxTo3NRzO
p1208
aVYay! @StartupInst @1871Chicago part-time #Ruby + #JavaScript classes start 1/7 #learntocode https://t.co/RHdtZCo46f
p1209
aVRT @chestnutchi: Want to #learntocode? Our part-time #Ruby + #JavaScript classes in Chicago are perfect for newbies. Starts 1/7 &gt;&gt; https://\u2026
p1210
aVHi @tcruse see you in the new year or drop by @1871Chicago next week! I am there Mon and Tues yes!
p1211
aVHey art, interior &amp; fashion friends - Rider debuts in West Loop today https://t.co/K0WwGtQfaL via @crainschicago
p1212
aVHappy for 1871-based fraud analytics firm @Rippleshot $1.2 million raise https://t.co/ENwBZwdRlD via @ChicagoBlueSky
p1213
aVRT @StartupInst: Become a #salesperson for a high-growth company in Chicago. Apply by 12/21 to save $600 off tuition https://t.co/5QWY30QiWE
p1214
aVWorth a visit - proud of Rider the boutique debuts in West Loop on Dec 22 https://t.co/K0WwGtQfaL via @crainschicago
p1215
aV@gallonofallan you stop reading this and go to bed! Can't wait to hear the ROAR from #SITalentExpo Boston and NYC tomorrow!
p1216
aVHey @BrianWalkerCHI hoping to meet you soon?!
p1217
aVRT @BrianWalkerCHI: Congrats @StartupInst - I wish every job candidate I meet was as confident &amp; competent as #SITalentExpo @1871Chicago ht\u2026
p1218
aVRT @AEGroupChicago: What a great looking bunch from @StartupInst - Excited for the pitch sessions at @1871Chicago #entrepreneur #Startup ht\u2026
p1219
aVRT @BrianWalkerCHI: My buddy @ToddConnor of @TheBunkerLabs sharing his entrepreneur journey to @StartupInst at @1871Chicago https://t.co/Wu\u2026
p1220
aVRT @revaminkoff: Congrats to all the graduates of the @StartupInstChi Technical Marketing Track! I have no doubt you'll achieve great thing\u2026
p1221
aVThanks @dwcordova! Your energy helped fuel the morning mojo with the #sitalentexpo pitches @StartupInst @1871Chicago!!
p1222
aVRT @1871Chicago: Last chance to sign up for the #cybersecurity meetup tonight! #meetups #chicagomeetups #infosec #informationsecurity https\u2026
p1223
aVRT @1871Chicago: Congrats to 1871's @Rippleshot @Infiniscene @gospecless @akoubacredit @optionsaway @herbfront @gliderainc - 16 to watch in\u2026
p1224
aVRT @1871Chicago: .@ToddConnor discussing the importance of trial and error to finding success #SITalentExpo https://t.co/5wDCBaUWeC
p1225
aVRT @1871Chicago: .@tullman kicking off @StartupInstCHI's #TalentExpo for their 7th cohort https://t.co/5HyKxgC6kb
p1226
aVWho knew it took a whole mess of Big Gulps to get @tullman &amp; @nicoleyeary cranking on @WiSTEM @1871Chicago #caffeine
p1227
aV@nicoleyeary shares with @StartupInst a great story of who inspires her - @shrada of @contextmedia
p1228
aV.@nicoleyeary on the leap she took to trust herself to focus &amp; build a specialty from her mentor @gitomer
p1229
aV.@nicoleyeary bravely pursued her dream as a female entrepreneur in tech @StartupInst Chicago https://t.co/Kp1vd7KOLs
p1230
aVTalented people who want to be hired by you are hanging out @StartupInst #talentexpo. Meet them Dec 16 @1871Chicago https://t.co/x6Krv1xRIM
p1231
aV.@Fabian_Elliott great story https://t.co/VtzmvQWXzO thanks @Chicago_Reader
p1232
aVRT @buckleym117: "Tell people who you are not what who you do." Discovering my inner awesomeness with @ideaLemon! @StartupInst https://t.co\u2026
p1233
aVRT @buckleym117: "Don't run away from the person you are.. Lean into it." @ideaLemon wisdom going down here @1871Chicago \U0001f64f\U0001f3fc https://t.co/lW\u2026
p1234
aVRT @idealexit: .@StartupInst goes to the @WhiteHouse! So privileged to speak on workforce and other issues with the Joint Center. https://t\u2026
p1235
aVLooking for awesome new hires? We have awesome talent! See @StartupInst students pitch to you @1871Chicago: https://t.co/KPbMQJdlfH
p1236
aVRT @EmersonSpartz: Big news: Spartz is now Dose (@DoseTeam), and we raised $25M from Tribune Media &amp; Ronin! \u000a\u000ahttps://t.co/WjXwSxfJTh https\u2026
p1237
aV.@switchorg thanks for inspiring all of us to be even better @StartupInst\u000a https://t.co/8XPGqM8SYo
p1238
aVStuck? @IdeaLemon Discover Your Inner Awesome workshop-top 5 tech events  @StartupInst @1871 via @BuiltInChicago https://t.co/R7ibB9dU55
p1239
aVWho's smart, awesome &amp; ready to make your company better? @StartupInst students. Meet them @1871Chicago Dec 16! https://t.co/As6rZ9RTGk
p1240
aVRT @KristiDula: .@1871Chicago's @Rippleshot ropes in $1.2M to help companies prevent #Fraud:  https://t.co/vUVnkIhPvT
p1241
aVRT @karishustad: #UPitch2015: 1st place: #Seedslide, 2nd place @CocovanaLife, 3rd place: @huktvmounts https://t.co/4CfliR5HEM
p1242
aVWoo hoo! Seed Slider and Cocovanna take 1st &amp; 2nd @FutureFounders #UPitch2015 \U0001f3b8\u2728\U0001f4b0
p1243
aV"The mindset of the entrepreneur is that of a researcher" @TheSharkDaymond #UPitch2015 agree!! https://t.co/J5Ho9uXBwD
p1244
aVObsession, measurable goals &amp; mentors are what you need when you are ready to throw in the towel. @TheSharkDaymond advice for @StartupInst
p1245
aV"A Shark is not going to change your life" @TheSharkDaymond #startup #truth @FutureFounders
p1246
aVRT @PennyPritzker: Hats off to @YourFutureEdge, @FutureFounders, @TheSharkDaymond and all of the #UPitch2015 entrepreneurs today for an exc\u2026
p1247
aVRT @1871Chicago: 12/16 Meet the talented graduates of @StartupInst at their Fall Expo! Coffee &amp; breakfast will be served. RSVP: https://t.c\u2026
p1248
aV"Ability to learn from others on the team is something I hire for" @TheSharkDaymond @FutureFounders
p1249
aV"Take small affordable steps - think with the power of broke" @TheSharkDaymond gives wise advice to entrepreneurs @FutureFounders
p1250
aV"Happiness is doing what you are obsessed with" @TheSharkDaymond @FutureFounders #UPitch2015
p1251
aVTuesday night @StartupInst Chicago learn how @TopstepTrader hires talent RSVP https://t.co/MAX8uJolfE
p1252
aVWhat does it take to create impact in tech? Hear how @StartupInst alum @joshlmoyer does it in UX &amp; sales. RSVP https://t.co/MAX8uJolfE
p1253
aVThink you have the chops for digital marketing? Hear how @StartupInst alum @kaleighsimmons did it. RSVP https://t.co/MAX8uJolfE
p1254
aVCurious how to break into #Chicago tech &amp; do work you love? Hear how @StartupInst alum @Vwampage did it. RSVP https://t.co/MAX8uJolfE
p1255
aVRT @StartupInst: RT @EarlybirdDev: Enjoyed meeting great @StartupInst students at last night's event. We may've found our next hires! https\u2026
p1256
aVRT @1871Chicago: From the 1871 blog: 1871 Ranks Fourth In The World In Study of Business Incubators https://t.co/HY7AYiFrIW
p1257
aV@joshsimons237 @PitchCircus @chestnutchi @buckleym117 so bring on the heat - what's hot and what's not?
p1258
aVRecharge your battery to head into the holidays and 2016! https://t.co/IpdQnEJW3U
p1259
aVHey @joshsimons237 hit me with the latest on what's hot @StartupInst Chicago. I hear @chestnutchi Divvy rants are blazin!
p1260
aV@StartupInst alums #gratitude for caring enough to write a review; #inspiration to keep making it better with your feedback
p1261
aVDearest @StartupInst alums I send you #gratitude &amp; #Inspiration for Switchup's #1 ranking of SI's web design program https://t.co/yh22jqdJHb
p1262
aVRT @chestnutchi: Thanks to @jonathanpasky for teaching equity to our @StartupInst Chicago students. #startups https://t.co/aUb7L80Tse
p1263
aVRT @jonathanpasky: Thanks for hosting me yesterday @StartupInst! Good time doing the fireside chat -- and great Qs.  https://t.co/RriSwtWaqw
p1264
aVRT @ingadriksne: Loved #SIOpenDoors hosted at Chicago's @LinkedIn office last night! Great people and delicious appetizers, thank you @Star\u2026
p1265
aVRT @buckleym117: Wow! #SIOpenDoors was incredible last night. Amazingly grateful for the support of the #Chicago @StartupInst family!
p1266
aVRT @buckleym117: Huge thank you to @jonathanpasky for sharing such great advice with our @StartupInst #Chicago cohort this morning! https:/\u2026
p1267
aVRT @JuntoInst: Our JuntoIII graduates! Congratulations! #JuntoNight https://t.co/LX4O0s7cRG
p1268
aVThe best rants of the entire fall session @StartupInst from @jasonhenrichs thank you!! https://t.co/TW3iqfL0Wu
p1269
aV.@ChicagoInno knows a party happens when you pack the #innovation community like sardines @PearlTavern with #50onFireChi noms
p1270
aVCome party with @StartupInst @LinkedIn at #SIOpenDoors party RSVP now (while you can still get on the security list) https://t.co/PF1RNLgkGF
p1271
aVRT @StartupInst: Impressed by alumna @katyerker's insightful interview on #Chicago tech + @WTFounders. Watch the video &gt; #WeAreWTF https://\u2026
p1272
aVExcited to celebrate #Chicago tech community at #SIOpenDoors party @LinkedIn RSVP now while you can https://t.co/PF1RNLgkGF
p1273
aV@ericbendy sorry I missed your session this morning - I must have signed up or accidentally signed up - not my style to not show up :-(
p1274
aVRT @StartupInst: Pumped for a great week of events @SMWChicago from Nov 16-20! The line-up of speakers looks awesome. Who's going? #SMWChic\u2026
p1275
aVRT @StartupInst: If the grass looks greener on the other side of the fence, it may be that they take better care of it. https://t.co/lB9PGE\u2026
p1276
aVSaw bison this weekend on restored prairie in #Illinois at Nachusa Grasslands https://t.co/1Hhsmefrik https://t.co/eHGzQyNVSO
p1277
aVRT @StartupInst: Great blog post on facing professional doubt by #Boston student Raela Ripaldi https://t.co/MdNuHLck0L
p1278
aV.@buckleym117 I hope your special day was full of happy moments and lots of decadent surprises; the Owls love ya! https://t.co/JJwRvUDq5S
p1279
aVHearye my @StartupInst Fall peeps: \u201cWhy are some people so good at persisting?\u201d by @natekontny https://t.co/c68fQ6mlEU
p1280
aVI love how @HarryGottlieb1 zigs when others zag about #Millennials and everything else https://t.co/P7uX60TYTd
p1281
aVRT @scottissen: Hey #CEONAT2015 #treps: enter @FutureFounders pitch competition that features @TheSharkDaymond &amp; $10k prize pool https://t.\u2026
p1282
aV"Get into the flow of your customers' behavior so you can figure out how to change that behavior" @FreshwaterDW https://t.co/OBvtoBI2W1
p1283
aVYeah! Constraint allows you to build a more valuable company in the long run thanks Chris Shipley @1871Chicago
p1284
aVRT @AlissaAmpezzan: Good to be home @StartupInstCHI #community @1871Chicago https://t.co/VQl9Vn0To1
p1285
aVUIUC Startup Actif Is Developing Wearable Tech Turn Signals, Brake Lights For Bikers https://t.co/X8uFUv7e0Z
p1286
aVMike Rome @FounderEquity &amp; friend @StartupInst says growth begins with the user and is the only real growth hack https://t.co/tG5rDLENGz
p1287
aVOrder new banners! 1871 Ranks 1st in United States in Study of North American Business Incubators https://t.co/b4K5Id4gQX via @1871chicago
p1288
aVRT @1871Chicago: From the 1871 blog: 1871 Ranks 1st in United States in Study of North American Business Incubators https://t.co/4fitQ9Yk2V
p1289
aVRT @StartupInst: For all things#IoT, join@ITAbuzzfor 3rd Annual#ITAIoTSummit - 11/16 &amp; 17! \u000ahttps://t.co/g3gJZC6cFt  #Chicago https://\u2026
p1290
aVRT @StartupInst: Okay so #Chicago has some moves! Huge thanks to alumnus @deepspacekevin for leading a great improv session today. https://\u2026
p1291
aVRT @StartupInst: CEO @DianeHessan tops the 2015 Boston Business Journal Power 50 https://t.co/77P8QHu7Zb  @BosBizJournal
p1292
aVRT @StartupInst: You're invited to our signature #networking event in #chicago @LinkedIn Nov 18! https://t.co/5gz8vbawC3 #SIOpenDoors https\u2026
p1293
aVMusic majors + Python check it out https://t.co/uAkbA7b7zL via @ChicagoInno true @StartupInst Chicago we have a jazz sax dev!
p1294
aVSo happy @Asa_Lama_Laika was so brave @StartupInst via @DellPowerMore https://t.co/m9hvCFh0BD
p1295
aV"Without customers all you have is a product" strong POV @TroyHenikoff @StartupInst @XanderOutLoud https://t.co/C88JKHPS98
p1296
aVRT @StartupInst: Great #careeradvice from alumna @AlissaAmpezzan\u2014find your inner weirdo. Here's how: https://t.co/A63L5XZGQe https://t.co/t\u2026
p1297
aV@TroyHenikoff dropping #startup hustle, #lean #Discovery v #Delivery @StartupInst https://t.co/Ne8YaL8Z5r
p1298
aVArts + music are particularly imp. for economically disadvantaged youth - @ExplorerProgram https://t.co/o1aVuXGZQG via @StartupInst
p1299
aVWoooo! "learning how to learn is exponentially the most important thing you can do" @EmersonSpartz @StartupInst https://t.co/0SLlWYjnKX
p1300
aVRT @shr4dha: https://t.co/Z4oteDq9nc
p1301
aVTeam 1 rocks new @StartupInst hoodies as IdeaHack winners for @ExplorerProgram with @JuliusGivens @PitchCircus https://t.co/m8NTKwWuyH
p1302
aVTeam 1 melds old-school postcards with arduinos and raspberry pi for @ExplorerProgram @StartupInstCHI IdeaHack https://t.co/OA2fF2qmhP
p1303
aV.@JuliusGivens smiles at awesome IdeaHack presos for @ExplorerProgram tech engagement @StartupInstCHI @1871Chicago https://t.co/P4nv7qIVTR
p1304
aVTeam 4 tackles school-to-prison pipeline for their @StartupInstCHI IdeaHack @ExplorerProgram https://t.co/HopfmsPJFi
p1305
aVTeam 3 @StartupInstCHI gets viral and visual to bring together Explorers and Investors @ExplorerProgram https://t.co/m7verhhh6X
p1306
aVTeam 2 @StartupInstCHI solving engagement thru tech for @ExplorerProgram IdeaHack https://t.co/rCKFCyV9kx
p1307
aVRT @ITATechTalent: ITA CEO @FredHoch doing a fireside chat at @StartupInstCHI @ITAbuzz https://t.co/B0q7rhTz7X
p1308
aVRT @kaleighsimmons: Hanging out with the @StartupInstCHI marketers with my pal @SuperBad_ . Good group! https://t.co/CJevShOuMk
p1309
aVRT @JuliusGivens: It was amazing pitching the @StartupInstCHI students on @ExplorerProgram! Can't wait to see their amazing work!  https://\u2026
p1310
aV#50onFire: Edtech Startups And Educators Heating Up Chicago - hey hey @StartupInstCHI burning it https://t.co/rQZW6nHW8L via @ChicagoInno
p1311
aVWe got your movie references @ethanaustin  @StartupInstCHI but we really got your message about culture #grateful https://t.co/3gHd0w6ZVz
p1312
aV.@chestnutchi sez "may the force be with you" to Fall 2015 cohort for #Strayboots @StartupInst scavenger hunt! https://t.co/mAxuj53uf9
p1313
aV@brooks_golden tells new @StartupInstCHI cohort how he got 12 interviews by #DTFO and paying it forward https://t.co/ZYLSUk34r7
p1314
aV@TdeMedici says to new cohort @StartupInstCHI "go home tired" https://t.co/337QP8cqvQ
p1315
aV@derekcnel @cliquechicago thanks for urging @StartupInstCHI students to go well beyond the surface these next 8 weeks #Buildandgrow
p1316
aV@Mbuckleym117 and SI alum getting all giffy with EQ @StartupInst new Chicago cohort - keeping it real. https://t.co/RN5gPsHQF7
p1317
aV@StartupInst team 3 in Chicago taking a novel tent approach #innovation http://t.co/txx4J1ycmF
p1318
aVCode Bootcamp Students Will Be Eligible For Federal Aid Under New Program http://t.co/mB5IudGX7k via @ChicagoInno
p1319
aVChicago is my kind of town 150 Nominees for Chicago Inno's 50 on Fire http://t.co/zi2VBCxljM via @ChicagoInno @StartupInst
p1320
aV88% of our grads now have jobs they love more. That's the most gratifying metric. - @DianeHessan http://t.co/JNWIGCzGWM via @StartupInst
p1321
aV#chicagoness is alive tonight at Momentum Awards; perseverance among friends @1871Chicago
p1322
aVRT @thekatylynch: YAASSSSS! @shr4dha &amp; @RishiShah on stage at the #Momentum Awards! Y'all rock.  cc @1871Chicago http://t.co/lmNvXyvbeW
p1323
aV.@RamanChadha we are looking forward to tonight's town hall with local startup founders too! https://t.co/aTgfGe65pD
p1324
aVEvery #Chicago startup needs #salespeople, says @charleschuman. Get out and meet people. http://t.co/zREJPVvl3X via @StartupInst
p1325
aVRT @charleschuman: How to work in #sales in #Chicago #tech: attend @StartupInstCHI, know yourself and where you can add value #network\u000ahttp\u2026
p1326
aVBTW, still love this @Signal @StartupInstCHI team @jamesblacher jeff bender @care_oh_liine @vwampage  http://t.co/WxvrcicaEF
p1327
aVCareer changer? Find out why employers love hiring @StartupInst grads and why grads love their new jobs http://t.co/WxvrcicaEF
p1328
aVWant more inspiration &amp; challenge from your #career? Pitch party tonight @1871Chicago RSVP \u2192http://t.co/opokzZf8NB
p1329
aVWant inspiration &amp; challenge from your #career? Pitch party Monday night @1871Chicago. RSVP \u2192http://t.co/opokzZf8NB
p1330
aVChicago is so lucky to be home for @GiveForward; thanks @firstround http://t.co/HgnuLvcCEY http://t.co/CCwtXJ2KTo
p1331
aVKnowing the right question to ask is key to innovating, thanks @GiveForward https://t.co/I8Q6DZAoZT
p1332
aVRT @karishustad: Here's a look at how @StartupInst has a 92% employment, 88% job satisfaction rate (and why that may not be scalable) http:\u2026
p1333
aV.@dancepantss Great encouragement, fun + wise advice you give to Chicago tech + @StartupInst http://t.co/ayJN8IqdYz
p1334
aVI even feel this way at the END of the day! Thanks @buckleym117  https://t.co/X4ObtbpKDh
p1335
aVRT @narrativesci: Chief Scientist @KJ_Hammond wins Technologist of the Year @ITAbuzz #cityLights http://t.co/YhvOZhNYJh
p1336
aVRT @JuntoInst: We are thrilled to share that @_KnowledgeHound (JuntoIII) was nominated for the Illinois Corporate-Startup Challenge! http:/\u2026
p1337
aVRT @StartupInst: Here's why companies love to hire our startup-ready grads &gt;&gt;\u000ahttps://t.co/HgODdsAdF7 #careerchange #readyforgrowth
p1338
aVTechstars' Task Masters @Tribe_Do. Go Team!   http://t.co/DpaynqntsU via @ChicagoInno
p1339
aVGet career love AND a free lunch tomorrow http://t.co/vcprfvmywu @StartupInstCHI @1871Chicago
p1340
aVDon\u2019t wait until a crisis slams you to your knees (your actions won\u2019t be empowered\u2013they\u2019ll be reactive) http://t.co/c7rFBWne8m
p1341
aVRT @StartupInst: Turn "blah blah blah" into "AH." @JellyvisionLab CEO @AmandaLannert gives 5 tips on how to "speak in human." http://t.co/c\u2026
p1342
aVHey - don't be blue - use these Networking Tips to show the real you  http://t.co/vzl27uuBAV via @BuiltInChicago and feeling rhyme-y
p1343
aVI learned the habit of seeking the scary experiences. - @julespieri https://t.co/NhgAtB5uGp
p1344
aVRT @yeefunk: "Half our waking lives is a terrible thing to waste." MUST-READ @nytimes article http://t.co/Z0VJq2bNQg @startupinst http://t.\u2026
p1345
aVWhere to Eat and Drink in Evanston http://t.co/wfnhNfnOgi
p1346
aVRT @chestnutchi: .@StartupInstCHI 's 2nd app deadline is TODAY! Build the #skills + #network to work at a #startup \u2192 http://t.co/cBAhJQ2kj2\u2026
p1347
aVSo happy to share this @StartupInstCHI formal partnership with @JuntoInst http://t.co/kQlJIoHGUl
p1348
aV.@StartupInstCHI save $300 apply by midnight, no cost. Build #skills + #network = #career love http://t.co/KKOa9posBF http://t.co/6gXfvg2HWY
p1349
aV.@deepspacekevin we miss you http://t.co/bqTPbmjaGr
p1350
aVWomen's entrepreneurship is soaring, thanks to this group  http://t.co/zRdjzIowU4
p1351
aVValuable advice from @RamanChadha @JuntoInst : How to Measure Emotional Intelligence When Hiring People http://t.co/nMjFBXX4lm
p1352
aVRT @1871Chicago: \u201cWhat gets measured and appreciated is what gets done.\u201d @tullman
p1353
aVRT @Technori: .@RishiShah during our first two years, I called on a customer 21 times and left 21 voicemails. The 22nd call went great. #hu\u2026
p1354
aV@SamBackus - I like to pair program in interviews. It helps me get a feel for what it\u2019s like to work with someone. http://t.co/8x9q7sdF87
p1355
aVFailure stories foster humility and develop trust, says @DeepSpaceKevin http://t.co/W8Nv0qHqzJ via @StartupInst
p1356
aV@tomalexander19 yeah! And @1871Chicago the Arctic Air is gender neutral \U0001f631 http://t.co/8yxUuYQ9xH
p1357
aVInside Startup Institute, A Bootcamp For Chicago's Startup Talent Gap http://t.co/auWJDhIQFB via @ChicagoInno
p1358
aV.@iPaulLee @RyanCJeffery @roniin there are phenomenal operators in Chicago - it is all about execution. YES. @pivotallabs @StartupGrind
p1359
aV.@iPaulLee "I want Chicago tech to succeed" thanks @roniin @StartupGrind @pivotallabs
p1360
aVGet inside story @StartupInstCHI via @ChicagoInno http://t.co/9EJkzZIkpl + join our Info Session tonight http://t.co/Khaqx5vU1I
p1361
aVSomeone you know is restless. So invite them to "Chicago: Meet Startup Institute and Find a Startup Job You'll Love" http://t.co/rMexvvZqJ3
p1362
aV#Smarketing uses MQLs to bridge the divide b/w sales + marketing, says @ewasson http://t.co/YR1VR7JN7x
p1363
aVRT @StartupInst: A successful #sales process is about having a steel mind, says @brandonkeao http://t.co/npJa2UBi1R
p1364
aVRT @DabbleInTravel: Taking a web development class at the Startup Institute at 1871 @ 1871 Chicago https://t.co/3KqC6Fq3YU
p1365
aVPeek into what career changers do @StartupInst http://t.co/9EJkzZIkpl we had fun with @karishustad @ChicagoInno
p1366
aVRT @chestnutchi: Best decision I ever made: an accountability partner and driver for my career transition: http://t.co/GvSHIBC8pa via @Chic\u2026
p1367
aVRT @_ericarose_: yay @ChicagoInno &amp; @narrativesci &amp; @StartupInst !! http://t.co/VYwUvMEkcU
p1368
aVRT @StartupInst: #SITalentExpo is today in Chicago, NYC + Boston! Come meet your next great hire. Video &gt;&gt; http://t.co/t2iQfuLGdN
p1369
aV20, 60-second pitches you don't want to miss @1871 Thursday am http://t.co/Xy3hF1o18s via @BuiltInChicago
p1370
aV20, 60-second pitches you don't want to miss this week http://t.co/0NBeD6kEwR via @BuiltInChicago @StartupInst @1871
p1371
aVCheck out #Chicago's top #tech talent at @StartupInstCHI's TalentExpo this Thursday at @1871Chicago - http://t.co/pFC89TMTcX #SITalentExpo
p1372
aV.@care_oh_liine I love your post "I've had to learn that perfection impedes #progress. In #startups, action wins." http://t.co/BhWvkezc8L
p1373
aV.@narrativesci - our team @StartupInstCHI knows you are the coolest - we are fortunate to have you as a partner https://t.co/n7fujXUx0u
p1374
aV.@salesengine thanks for the morning sales snax https://t.co/XgYmjAgGcg
p1375
aV.@iamnamster awesome inside story to help career-changers take the brave leap you did @StartupInst http://t.co/M86cIV3CiR so happy for you
p1376
aV.@charleschuman @AdaStreetChi @ChooseChicago I am sold! Booking rezzies now.
p1377
aVIncisive, practical growth hack: How Chicago can draw elite tech talent to Chicago http://t.co/CxlTCAMpS5 thanks @tullman
p1378
aVDo you need a webdev, web designer, marketer, or salesperson? @StartupInstCHI #SITalentExpo will have Chicago's best! http://t.co/Je08XF6SIb
p1379
aVRT @davemacboston: Hired 5 awesome @StartupInst alums last 2 years incl @willthefrench @jesseotremblay @TheWickedWebDev  https://t.co/g9vO7\u2026
p1380
aVAttn career changers: Chicago tapped as one of the best startup ecosystems in the world: http://t.co/GhVheJPuo1 via @BuiltInChicago
p1381
aV.@AmandaLannert sez true talent just knows how to offer value to others...and crack jokes she's right @StartupInstCHI http://t.co/chn4HXn9b5
p1382
aVBecause @Brentskeez knows how to DTFO @StartupInst with @DianeHessan http://t.co/fLjYLfhDjN
p1383
aVRT @MoniqueWingard: Two great events tonight! @startupinstCHI Open Doors and @ImBlackInTech. \U0001f4be (at @1871Chicago in Chicago, IL) https://t.c\u2026
p1384
aVRT @DianeHessan: Thanks to @EileenCerca @jdallke @Rick_Zullo &amp; @chrisrcampbell 4 the great insights &amp; passion you shared with our @StartupI\u2026
p1385
aV.@AvantCredit Al Goldstein says - I don't think we are in a bubble - companies aresolving real problems @ChiFounders @1871Chicago
p1386
aVThanks Chicago Inno! Join us Wed eve for Open Doors and see Jim Dallke in action http://t.co/W9e1CAJkft  via @ChicagoInno @StartupInstCHI
p1387
aVThanks Chicago Inno! Come join #S for Open Doors and see Jim Dallke in action http://t.co/W9e1CAJkft via @ChicagoInno @StartupInstCHI
p1388
aVRT @smashingmag: A curated and time-saving list of web design tutorials, articles and news: http://t.co/8umzNTxhNq
p1389
aVRT @StartupInst: Here's why it is so fun and easy to satirize #startups http://t.co/0lp2qmkuGL #branding
p1390
aVRT @StartupInst: Top hot #careers for college grads. Our program trains for 3 of the top 4 in-demand roles http://t.co/i787XdrmZ3 #classof2\u2026
p1391
aVRT @StartupInst: Here's what *not* to say when asked "Why are you interested in this position?" http://t.co/53uXNWblUZ #interview
p1392
aVSo proud of #SIChicago alum @TheKCush @ClearContract and so not surprised http://t.co/HMve7N9Dj0
p1393
aVRT @zimmerbugg: Great to read about @delmarsenties + @eatonbrook discussing purpose + future of ed @glappitnova . Wish I'd been there http:\u2026
p1394
aVRT @ChicagoInno: At @glappitnova, the education community debates accelerators vs college http://t.co/Qio5TO56g6 http://t.co/fHQUULbZIk
p1395
aVRT @1871Chicago: From the 1871 blog: Tullman: 3 Deadly Startup Sins to Avoid http://t.co/r7hWzb9zSL
p1396
aVRT @chestnutchi: Stellar panel tonight w Chicago startup leaders at @braintree. Why Chi is ripe for your new career. #chitechscene http://t\u2026
p1397
aV@KristiDula excellent reco on the @1871Chicago logo emblazoned Snuggie #classy @carlonavarro @chestnutchi http://t.co/eK4l9bGnkL
p1398
aV.@chestnutchi has that sultry summertime look going @1871Chicago @StartupInstCHI #SI-Beria http://t.co/DOEPUbk4EI
p1399
aV.@Siraris of KnowledgeHound sharing his #startup journey @StartupInstCHI fireside chat with lots of questions from the cohort!
p1400
aV.@tullman on what makes 1871 special and why commercial property is ripe for disruption http://t.co/8Vl8tsmUDU  via @PWNews
p1401
aVAnd can you see @chestnutchi laughing?! @StartupInstCHI @PitchCircus  @Brentskeez @carlonavarro
p1402
aV4 questions to ask yourself before starting your career path http://t.co/CSSrg0OCeQ via @TIMEBusiness @StartupInstit
p1403
aV.@StartupInstCHI sales track: I dare you to build your story matrix! Props @craigwortmann for your energy and wiseacre wisdom
p1404
aVRT @tomalexander19: .1871chicago companies are hiring right now. Join us!!! Please retweet! http://t.co/PYrSLqUlxo
p1405
aVRT @brandonkeao: Thanks to @craigwortmann for stopping by @StartupInstCHI to give an amazing talk on story telling @StartupInst http://t.co\u2026
p1406
aV@EmKDee you know @StartupInstCHI is game to bring the Chicago startup ecosystem to yoooooo
p1407
aVEvent tracking data tells meaningful stories to optimize #design - @MTTHWBSH http://t.co/MdAY4p198M via @StartupInst
p1408
aVSee @ethanaustin it's working @tjbenneche
p1409
aVRT @erinaengstrom: Welcome, new @StartupInstCHI cohort! It's an intense eight weeks but they'll fly by. Buckle up and enjoy the ride!
p1410
aVRT @shayboykin: @StartupInstCHI thanks for the free workout/scavenger hunt this afternoon! It was fun getting to know my team!
p1411
aVThanks @ethanaustin for defining what constitutes a startup "level 10 asshat" for @StartupInstCHI summer cohort today!
p1412
aVRT @RebeccaOtis: Can't wait to share personal branding &amp; @LinkedIn tips &amp; tricks @StartupInstCHI tomorrow! @Brentskeez @eatonbrook @chestnu\u2026
p1413
aVHey hey our How to Get a Job at a #Startup workshop is an Official @TechweekCHI Partner Event! http://t.co/t7zkf6zOTJ
p1414
aVDiane Hessan @StartupInst Busted Out a Four-Minute Tech Rap at Boston State of Innovation [VIDEO] http://t.co/z5aotcQOsi via @BostInno
p1415
aVRT @hydeparkangels: "The term sheet is the pre-nup. You should never, ever look at the document ever again if you have a good relationship.\u2026
p1416
aV.@RDOTUS sez - Don't be left w/ regret. Be bold, take risks, put yourself out there #careerlove #yolo http://t.co/G7YTveYGNS And he's right.
p1417
aVFor #earlybirds Set just three #priorities for your day. Everything else should be secondary. @lavidacomolamia http://t.co/hnxi4RXuS4
p1418
aVCommunispace rebrands itself as C Space via @BetaBoston http://t.co/5Xg1uarhY1
p1419
aVRT @laurencreedon: Diane's keynote moved her to IDOL status in my book. Here's to diversity #BOSSOI @BostInno @DianeHessan @StartupInst htt\u2026
p1420
aVJoin us at @nextdoorchicago tomorrow &amp; learn more about #Chicago's growing #startup ecosystem! http://t.co/gGsM2gu1de
p1421
aVRT @idealexit: Wow. Who called it? https://t.co/1quWOLzyO7 #StanleyCupFinal #Blackhawks
p1422
aVLove seeing diverse Hawks fans celebrating outside United Center tonight!
p1423
aV#WebDesign alumnus @RDOTUS from @StartupInstCHI shares insights + advice on #designingyourcareer http://t.co/A996lSzGe4 via @StartupInst
p1424
aV.@kiramnewman you make 5 Damn Good Reasons to Startup in Chicago irresistible! http://t.co/xhX01SMDTO
p1425
aV.@carlonavarro rocking the Tips &amp; Tricks for finding a #startup job you love @StartupInstCHI @1871Chicago http://t.co/m3EfWD32pu
p1426
aVMeet the entrepreneur teacher who is changing the face of education @DianeHessan http://t.co/49wQDQJ6OA via @upstartbusiness
p1427
aV@chestnutchi no way YMCA invented b-ball?! Wow. Can't wait IdeaHack for Summer cohort @StartupInstCHI @YMCAChicago https://t.co/Mg8RYg1ddN
p1428
aVYa'll - a cool oppty to create impact @ThinkCERCA  https://t.co/qtgiVxyxTo
p1429
aV.@DianeHessan @StartupInst here come the Follies to Boston Tech Community-yeah! http://t.co/CCtQiZvyKH via @BostInno
p1430
aV.@OTSChicago launch today @1871Chicago to take action on issues for women and our community #OffTheSidelines http://t.co/iyggLzcDmG
p1431
aVRT @devbootcamp: Panelist @chestnutchi emphasizes self-awareness and developing skills on the panel of Women Leaders of Coding Schools/Acce\u2026
p1432
aVRT @devbootcamp: "Creativity comes from a diversity of ideas" - @chestnutchi speaks abt value of diverse classes at our panel on leaders of\u2026
p1433
aVWe want to have lunch with you! Drop by 6/8 for #lunchandlearn on finding a job you love at a #startup http://t.co/gHZh4L5SpB @1871Chicago
p1434
aVRT @chestnutchi: Excited to speak on behalf of @StartupInstCHI at @devbootcamp tonight for the panel on career accelerators! http://t.co/TS\u2026
p1435
aVYour allegiance to a problem will take you further than a specific idea. - @samhysell http://t.co/AYwyCd4Yzi
p1436
aVMadeleine Albright @1871Chicago "You are making and breaking the rules at the same time and doing good"
p1437
aV#Startup work = diverse people working to do something that's never been done @mslauriewrites  http://t.co/ILWzHPBM8G via @StartupInst
p1438
aVLet our alumni panel give you the inside scoop on Startup Institute at our Info Session tonight 5/29: http://t.co/DHA6aFybap  #startups
p1439
aV#entrepreneurship advice from John Canning @NFTEChicago benefit - real success derives from deep mutual trust and respect on your team
p1440
aV#Startups need ninja #sales people - get the skills that will get you hired:http://t.co/DHA6aFgAiR  #chicago
p1441
aV#Startups need ninja #sales people - get the skills that will get you hired:http://t.co/VH8Qidd3xK #chicago
p1442
aVYour startup gets bought. What next? Great stories! http://t.co/B3VaCmOApE via @WSJ @DianeHessan
p1443
aV#JavaScript isn't just a #backend option, it's a formidable one, says @tjbenneche http://t.co/kSiOJqpsoo
p1444
aVYes! How a Startup Should Define Diversity@tullman http://t.co/cSVodzTjcu
p1445
aV@kadavy @ramit
p1446
aVhttp://t.co/riTcC7nOSH
p1447
aV.@plnevels @WorldBizChicago @ChicagoNEXT fusing partners in clean tech between big corporate + startups at Cleantech Innovation Bridge cool!
p1448
aVHey wake up Evanston why are you not here at Lyfe Kitchen on Saturday morning? Jes sayin... http://t.co/SSw22Uu7Q8
p1449
aVHey ya'll here's how to find your first real job after college (and love it) Download the guide: http://t.co/AJTxLoxoB3 @StartupInstCHI
p1450
aVOvercome public speaking dread: Reframe HAVE TO to GET TO says @PitchCircus http://t.co/PqY10CRDmD via @StartupInst
p1451
aV.@jbernoff nailed it: 10 top writing tips and the psychology behind them http://t.co/7sQJcx3Up5 @StartupInstitCHI
p1452
aVRT @TroyHenikoff: Proposal on changing gender balance in Chicago business by @AmandaLannert and @bigpayoffradio!\u000a\u000ahttp://t.co/TJBCZXxEeA\u000a\u000aA\u2026
p1453
aVRT @KaileyRaymond: Need to Know Right Now: Chicago's Tech Ecosystem - April 2015:  http://t.co/iHGnBZ4w8C via @BuiltInChicago
p1454
aVHow you tell your story as a #careerchanger makes all the difference; good examples by @dacunhac http://t.co/BJGPw7DBex
p1455
aVRT @DianeHessan: The next @StartupInstCHI info session is 5/6. Find out if #startuplife is right for you: http://t.co/sHnlgnvAJe #classes #\u2026
p1456
aVRT @tomalexander19: Which Technologies Do Startups Use? An Exploration of AngelList Data http://t.co/rR8hMMRLDr http://t.co/zKQNOY7Xlo
p1457
aVDuck fat fries return! Former Hot Doug's cooks open Hot 'G' Dog in Uptown @DNAinfoCHI http://t.co/6pw2eXyUv0
p1458
aV@friendtodawgs why you jes standing there on stage with that hot blues harp?! @shumpinfunky you killed it
p1459
aVDebut of Beans on the Bottom Blues band at Rosa's with Old Town School of Folk Music http://t.co/a7dBMUvAgS
p1460
aVRT @baugh20s: Listening to great advice from @DianeHessan. No. 1 takeaway: live an AND life. Whatever you're torn about, you can do both. @\u2026
p1461
aV.@AmandaLannert proof point 143,628 it is MetrA that gives you such a thrill not MetrO and I am with you (sniff)
p1462
aVStill amazed at double overtime and a bloody noggin it took to win Raise the Rim tournament http://t.co/jqc8BJER8H via @BuiltInChicago
p1463
aV.@StartupInst raised $10K via #RaiseTheRim in Chicago Boston &amp; NYC to support @TUGGorg @FutureFounders @UAMakerNYC http://t.co/MsJhEPMOaq
p1464
aVRT @jeffreyspetter: .@Vwampage @StartupInstCHI dtfo http://t.co/C5S3JR6FM1
p1465
aVRT @cliquechicago: Proud of @_dereknelson for receiving the Student Choice Award for the marketing track at the @StartupInstCHI #passion ht\u2026
p1466
aVRT @chestnutchi: Our @StartupInstCHI dev students share what they've learned with their peers. Dev 101 for marketers and sales. http://t.co\u2026
p1467
aV@StartupInstCHI @craigwortmann @salesengine hey SIC Spring cohort - what is your sales trailer? Thanks Craig!
p1468
aV.@JimmyOdom @WeDelivr Jimmy explains 4 cool words that define WeDeliver's business at @StartupInstCHI http://t.co/CovG8abKnK
p1469
aV.@ColorJar @David_Gardner @MobileXLabs he shoots he scores! #RaiseTheRim http://t.co/SaFfFt7c4G
p1470
aV.@JellyvisionLab plays wicked hard against @AvantCredit but AV goes to the semifinals at #RaiseTheRim http://t.co/WzfDt3gXIf
p1471
aVBig win for Team @MobileXLabs at #RaiseTheRim - on to the semifinals! @StartupInstCHI http://t.co/aUApdOignv
p1472
aVSole Revival driving to semifinals of #RaiseTheRim against @AvantCredit tough but awesome competition http://t.co/0pquiwqiky
p1473
aVIn a few hours we #RaiseTheRim Chicago! 24 startup teams playing basketball to raise funds for @FutureFounders #startups @StartupInstCHI
p1474
aV@GooseIsland I loved seeing (and smelling) your barrel aging beer location!
p1475
aV.@zimmyzam @StartupInstCHI @gooseisland check out tanks of beautiful beer for Raise The Rim!! http://t.co/6jyrycEUop
p1476
aV.@StartupInstCHI IdeaHack for @TransTechSocial was a real-life lesson in startup challenges @erinaengstrom http://t.co/jsyDYV2lOT
p1477
aVRT @dominicmliddell: today got off to a refreshing start! Thanks @argotea for stopping by @StartupInstCHI w/ my fave, green tea ginger twis\u2026
p1478
aVRT @chestnutchi: Wellness in tech spaces. Slowly but surely. New yoga studio Bottom Line at Board of Trade: http://t.co/Z1BtmwLRLI
p1479
aVThriving in ambiguity, being scrappy and 4 other traits entrepreneurs adore in their best employees http://t.co/ITYwmTw1pL
p1480
aVRT @dominicmliddell: you know you're a developer when you want to go to grubhub but type in github. Food me, Seymour!
p1481
aVThe Folly of the Unicorns http://t.co/KNIbQVCFW2
p1482
aV@DianeHessan we both loved and tweeted these maps, omg what does this mean?!
p1483
aVI love "losing myself" in maps - these 40 maps explain the Middle East and stole a big chunk of Sunday http://t.co/pkzGBXhPTc
p1484
aVRT @DianeHessan: Oh the fun of being with some of our @StartupInst Team in Chicago! http://t.co/qpHSpOU6tV
p1485
aV@BowTruss Would love for feature your coffee for @StartupInstCHI mass coffee chat!
p1486
aV@tullman @1871 thanks for super-inspiring morning for #StartupInstCHI - we are pumped to grow companies that make a difference, yeah!
p1487
aVRT @dwcordova: Learn the lingo: #scaleup is the newest buzzword in the #tech scene  http://t.co/rzW6gIsbkw #startups @StartupInst
p1488
aVRT @1871Chicago: .@tullman discussing 1871 and entrepreneurship with @StartupInstChi this morning http://t.co/ekhzAZcreE
p1489
aVRT @ZestHealth: Ready for @StartupInst's Raise the Rim games for @FutureFounders. See you on the court @contextmediainc, @SproutSocial, @go\u2026
p1490
aVI can't wait for #SIOpenDoors! Grab a friend and celebrate #Chicago's #startups on 4/1 - yeah! http://t.co/tERx9afcTo
p1491
aVOpen Doors 4/1 to toast our awesome students, alumni, partners, instructors &amp; Chicago #startup community #SIOpenDoors http://t.co/tERx9afcTo
p1492
aVWe're counting down to #SIOpenDoors! Grab a friend, meet the SI community, and celebrate #Chicago's #startups on 4/1! http://t.co/tERx9afcTo
p1493
aVRT @hydeparkangels: #SXSW: Booth's New Venture Challenge ranks No. 4 among U.S. accelerators http://t.co/5IYZtvUoex @polskycenter http://t.\u2026
p1494
aVHoward Tullman's heavily caffeinated life http://t.co/lSzaNwodzl via @crainschicago
p1495
aVRT @stuartfrankel: 8 reasons Chicago's tech scene is getting hot via @FortuneMagazine http://t.co/DixRT3dgMy @narrativesci
p1496
aVRT @dominicmliddell: amazing time at @Opternative happy hour with my @StartupInstCHI crew. Excited to take online eye exam. Opternative is \u2026
p1497
aVRT @StartupInst: Our Startupedia on what it means to pivot and famous pivots in the tech sector http://t.co/IzkNOKl0i4 http://t.co/CJxUGipY\u2026
p1498
aV@samhysell @eatonbrook great article! Thank you!
p1499
aVWhen you reach out to industry leaders, show they've inspired you into action @samhysell http://t.co/DJDJhW0DXS via @StartupInst
p1500
aVRT @KaileyRaymond: Shoot hoops for a good cause at Raise the Rim 2015! All proceeds go to @FutureFounders. Register here: http://t.co/0FAfc\u2026
p1501
aV@rickdesai  #startupinstitutechi Spring cohort hears and obeys your wisdom "patience and persistence" in standup today
p1502
aV@BaumgartKevin @KatyaSiddall @Velo_MikeV "Amazing" insights into what makes a great salesperson today @StartupInstCHI
p1503
aVExplore Chicago's #startup scene &amp; youth #entrepreneurship w/ @StartupInstCHI &amp; @FutureFounders on 3/3. RSVP:http://t.co/9pP1nF5aN4
p1504
aVUnsung Heroes of Chicago's Startup Scene http://t.co/2bXqvfHbQI via @ChicagoInno
p1505
aVOur alumni panelists @chestnutchi@meganbui @wallace_sarah &amp; @KahnTemplate are pumped to discuss @StartupInst w/ you!http://t.co/LY42VdIjKd
p1506
aV@Kai_A_La @eatonbrook gosh thanks twice over for the feedback + volunteering. Crush it on Friday being your best you :-)
p1507
aV@DESIGNJORDAN @StartupInstCHI @ChicagoInno thank you and yes, completely agree we've got the best un-sexy industry strengths to leverage!
p1508
aV@zimmyzam @yeefunk  @DianeHessan I feel the same way to work with all of you
p1509
a.