(lp0
VThis makes me smile BIG!  Love both these guys! https://t.co/5TOcPcIqZV
p1
aV#NationalCatDay2018 Prettiest kitty on Culpeper Road https://t.co/fUVxoLVaxS
p2
aVRT @dignan_jd: Met with @SecElaineChao  at the Columbus Club today. https://t.co/3Epwo80jhi
p3
aVRT @Kevin_Courtois: The conversation is as vibrant as the art at the @ColumbusChamber #GovDay18.  @PatTiberi, @RepSteveStivers,  @USChamber\u2026
p4
aVRT @GarthWeithman: .@JDiJames moderating a discussion on tax reform, opportunity zones and immigration with @ohiobrt @JonEBase &amp; @RepSteveS\u2026
p5
aVRT @bendgibbons: Great conversation led by @JDiJames. Many thanks to @PatTiberi @RepSteveStivers &amp; @USChamber.  #govday18 https://t.co/osd6\u2026
p6
aVRT @BostonGlobe: An Alex Trebek-hosted gubernatorial forum in Pennsylvania led to some unexpected moments. https://t.co/SnZgUq2FOF https://\u2026
p7
aVRT @RickIntlAirport: Thank you @RepTimRyan for visiting Rickenbacker today and showing your support! https://t.co/ol6SxN5gQM
p8
aVRT @guycoviello: @RepBillJohnson and @RepTimRyan demonstrate bipartisan cooperation in the #mahoningvalley for the #mahoningriver #camprave\u2026
p9
aVRT @guycoviello: \u2066@SenSherrodBrown\u2069 addresses #mahoningvalley leaders during the DC fly-in \u2066\u2066@910AW\u2069 #campravenna #mahoningriver https://t.\u2026
p10
aVRT @guycoviello: \u2066@RepTimRyan\u2069 and \u2066@RepBillJohnson\u2069 address #mahoningvalley leaders in DC advocating for #CampRavenna #mahoningriver and \u2066\u2026
p11
aVRT @USecAF_Official: Thanks to @RepTimRyan for the opportunity to meet with civic leaders of Youngstown-Warren, Ohio. Their support is esse\u2026
p12
aVRT @rboulware: Proud to sponsor and support the @ywchamber and the #YWRCFlyIn. Great two days of meetings to promote the economic opportuni\u2026
p13
aVRT @rboulware: Nice to hear @RepTimRyan &amp; @RepBillJohnson agree on the importance of #shale #natgas development in Ohio and the need to dev\u2026
p14
aVRT @NickSSantucci: @RepBillJohnson &amp; @RepTimRyan addressing the @ywchamber delegation at the #YWRCFlyIn! https://t.co/JB9ztbzWma
p15
aVRT @lancegrahn: The #YWRCFlyin continues.  More positive energy for the #MahoningValley #ProsperTC https://t.co/A1Sddas7Up
p16
aVRT @lancegrahn: Sen. Brown just finished.  Sen. Portman is now at the podium as our Warren-Youngstown delegation engages its first #YWRCFly\u2026
p17
aVRT @twellmon03: Lots of good news about manufacturing from congressmen Johnson n Ryan #ywrcflyin https://t.co/ThVEUhAO5G
p18
aVRT @hughhewitt: The National Missile Defense Review --forthcoming (https://t.co/12bsgaMbD0) needs to select a center for east coast missile\u2026
p19
aVRT @guycoviello: Looking forward to the inaugural #mahoningvalley DC fly-in tomorrow and Thursday to advocate for the #mahoningriver #campr\u2026
p20
aVRT @guycoviello: Ohio\u2019s Congressional delegation scores for #campravenna. \u2066@RepJimRenacci\u2069 \u2066@RepTimRyan\u2069 \u2066@RepBillJohnson\u2069 \u2066@SenSherrodBrow\u2026
p21
aVRT @guycoviello: @hughhewitt gave our #campravenna advocacy a shout-out to his 2 million @HughHewittShow listeners this morning. Looking fo\u2026
p22
aV@harshils_ Wow!  Where is that?
p23
aVRT @guycoviello: Looking forward to hearing Professor Michael Kimmage talk about U.S.- Russia relations. #CampRavenna @dresenjo @ywchamber\u2026
p24
aVRT @guycoviello: Happy to hear that @RepBillJohnson will meet with local leaders during the inaugural #mahoningvalley D.C. Fly-in to discus\u2026
p25
aVRT @guycoviello: Looking forward to meeting with @RepTimRyan during the inaugural #mahoningvalley fly-in. @ywchamber https://t.co/8RfrKdayLc
p26
aVRT @ywchamber: Attracting a missile defense site to #CampRavenna, expanding operations at the @910AW, and revitalizing the #MahoningRiver f\u2026
p27
aVRT @guycoviello: Glad to hear that @SenSherrodBrown will be addressing community priorities during the inaugural #mahoningvalley D.C. Fly-I\u2026
p28
aVRT @RepAndyBiggsAZ: @MissingKids Ms. Foster's courage in moving past the grief of her daughter's murder is beyond remarkable, and I have be\u2026
p29
aVRT @RepAndyBiggsAZ: Just returned from a beautiful event hosted by @MissingKids. Ms. Pamela Foster was presented with an award for fighting\u2026
p30
aVRT @guycoviello: Keep it up #mahoningvalley. We can do this. @ywchamber @TimRyan @RepBillJohnson @RepDaveJoyce @RepJimRenacci @SenSherrodBr\u2026
p31
aVRT @guycoviello: Thank you @rickungar for having me on the @SteeleAndUngar Show talking about #campravenna. @TimRyan @RepBillJohnson @RepJi\u2026
p32
aVRT @RecordPub: The past few weeks two U.S. senators and 14 members of the House from Ohio signed and sent a joint letter of support to Pres\u2026
p33
aVRT @guycoviello: In NYC, looking forward to the @SteeleAndUngar show tonight. #campravenna @ywchamber @SenSherrodBrown @senrobportman
p34
aVRT @guycoviello: On my way to The Big Apple for the @SteeleAndUngar show. #campravenna @ywchamber @TimRyan @RepBillJohnson
p35
aVRT @guycoviello: Scheduled for 7 o\u2019clock tonight on @SteeleAndUngar SiriusXM POTUS Channel 124. #campravenna @ywchamber @JDiJames @MichaelP\u2026
p36
aVRT @loisbeckett: Covering a walkout this morning at an elementary school in Virginia, and the 11-year-old organizers had a press packet rea\u2026
p37
aVRT @Sen_JoeManchin: I was doing yard work this Sunday when my good friend @SenCapito ran by on an afternoon jog. It\u2019s a small #WV! https://\u2026
p38
aVRT @RepSteveStivers: Happy birthday to my colleague, friend, and partner in civility, @RepBeatty. https://t.co/rpfECn2whG
p39
aVRT @dignan_jd: Thanks for keeping up the pressure... perhaps the cost effective choice will be selected as the preferred site! @RepTimRyan\u2026
p40
aVRT @RepTimRyan: Always great to work with the phenomenal businesses in NEOhio to bring jobs and investment to our community.  We\u2019re just ge\u2026
p41
aVRT @dignan_jd: Ohio delegation comes together to urge Secretary of Defense James Mattis to select #CampRavenna as the preferred East Coast\u2026
p42
aVRT @guycoviello: All corners of the state are jumping aboard to support #campravenna and #mahoningvalley. @SenSherrodBrown @senrobportman\u2026
p43
aVRT @cindymccain: Great News! https://t.co/e6T15ndDli
p44
aVRT @SenJohnMcCain: Last night, the House passed my bill w/ @SenatorHeitkamp named for Ashlynne Mike, an 11 yr old Navajo girl who was abduc\u2026
p45
aVRT @SenatorHeitkamp: My bipartisan bill w/ @SenJohnMcCain to make AMBER Alerts more accessible to Indian Country passed the U.S. House yest\u2026
p46
aVRT @guycoviello: As the Missile Defense Agency weighs its options, it should recognize the overwhelming support in #mahoningvalley @RepTimR\u2026
p47
aVRT @SenBobCasey: AK Steel in Butler, Pennsylvania is the only domestic producer of electrical steel. When Hurricane Sandy hit, they helped\u2026
p48
aVRT @senrobportman: As currently constructed, AK Steel, the last domestic producer of grain-oriented electrical steel, would not fully benef\u2026
p49
aVRT @RepTimRyan: The entire Ohio Delegation agrees: Camp Ravenna is the ideal location for the new East Coast Missile Defense site. \u000a\u000ahttps:\u2026
p50
aVRT @dignan_jd: @robportman (R-OH), Brown (D-OH), Johnson (R-OH), Ryan (D-OH), and 14 others from Ohio's Delegation sent a letter to Secreta\u2026
p51
aVRT @guycoviello: Good coverage, pardon the pun. Let\u2019s keep up the full court press. @ywchamber @RepPerales @dignan_jd #campravenna Camp Rav\u2026
p52
aVRT @guycoviello: Better step it up for #CampRavenna @dignan_jd @JDiJames @jj1820  https://t.co/afLBhzC1tf
p53
aVRT @guycoviello: I\u2019d feel a lot better if we put a missile defense site at #campravenna. @TimRyan @SenSherrodBrown @MichaelPHartley  https:\u2026
p54
aVRT @guycoviello: SecDef Mattis should tour #campravenna @jj1820 @ywchamber @mdustmanmagic https://t.co/hDP9QHWtmm
p55
aVRT @guycoviello: Bill Johnson and Tim Ryan give lesson on how Congress can work across party lines #campravenna #mahoningvalley @hughhewitt\u2026
p56
aVRT @SS_Strategies: Honored to be part of the team advocating for Camp Ravenna. @ywchamber @guycoviello https://t.co/BdFYkJxt7G
p57
aVRT @baronadv1: Ohioans in Congress keep pushing for missile-defense site in Ravenna https://t.co/IsGi61Rao4
p58
aVRT @RepTimRyan: 2/ Proud to work with my colleague @RepBillJohnson to lead an Ohio delegation wide effort to urge Secretary of Defense Jame\u2026
p59
aVRT @RepTimRyan: 1/ My tour of Camp Ravenna last month reinforced my confidence in our readiness to take on this nat'l security endeavor. It\u2026
p60
aVRT @senrobportman: Proud to join my bipartisan colleagues in urging Secretary Mattis to select Camp Ravenna as the East Coast missile defen\u2026
p61
aVRT @guycoviello: Ohio\u2019s Congressional delegation signed a letter to Secretary of Defense Mattis endorsing Camp Ravenna for a missile defens\u2026
p62
aVRT @RepBillJohnson: Ohio Congressional Delegation to Secretary Mattis: Camp Ravenna Ideal Location for Missile Defense Site-- https://t.co/\u2026
p63
aVRT @jim_jwalters: We must fix the tribal lands gap in our AMBER Alert system  https://t.co/SgO3zO4hs2
p64
aVRT @RepAndyBiggsAZ: I thank her for her efforts \u2013 &amp; those of @SenJohnMcCain, House leadership and staff, Chairman @RepGoodlatte &amp; @HouseJud\u2026
p65
aVRT @RepAndyBiggsAZ: NOW: I'm on the @HouseFloor to recognize the extraordinary work of @SallyJoHarrison, the President and CEO of the @Mesa\u2026
p66
aVRT @RepAndyBiggsAZ: I'll always remember when I met Pamela Foster. As I prepare my thoughts for floor debate tonight on the "AMBER Alert in\u2026
p67
aVRT @WestrnFreePress: U.S. House Passes the "Ashlynne Mike AMBER Alert in Indian Country Act" https://t.co/oDG3sqQiOC
p68
aVRT @AZs_Politics: UPDATED/WATCH: Have added the very-agreeable "debate" video on the "AMBER Alert In Indian Country Act", led by Arizona's\u2026
p69
aVRT @RepAndyBiggsAZ: NOW: I'm on the @HouseFloor to lead debate for the "Ashlynne Mike AMBER Alert in Indian Country Act." WATCH on @cspan o\u2026
p70
aVRT @RepAndyBiggsAZ: Ms. Pamela Foster, the mother of Ashlynne Mike, has turned the grief she felt at her daughter\u2019s abduction and murder in\u2026
p71
aVRT @westerncaucus: Congrats to @RepAndyBiggsAZ  on passage of the Ashlynne Mike AMBER Alert in Indian Country Act.    \u000a\u000aThis bill will ensu\u2026
p72
aVRT @RepAndyBiggsAZ: PASSED!\u000a\u000aIt is gratifying to join my colleagues of both parties as we change policy that saves lives. While many of the\u2026
p73
aVRT @RepAndyBiggsAZ: @960ThePatriot @SethLeibsohn @thechrisbuskirk @POTUS @realDonaldTrump Hope you're still listening to @960ThePatriot - I\u2026
p74
aVRT @guycoviello: Chamber hopes Trump talks YARS, Camp Ravenna Tuesday - Newswatch | https://t.co/e6irUqDOx0 https://t.co/Q3RvDMSU7f via @tw\u2026
p75
aVRT @RepAndyBiggsAZ: I'm looking forward to hearing from @POTUS @realDonaldTrump tomorrow for his first #SOTU address. I'll be bringing Ms.\u2026
p76
aVRT @RepAndyBiggsAZ: Privileged to welcome Ms. Pamela Foster back to the Hill. Her bravery to champion the "AMBER Alert in Indian Country Ac\u2026
p77
aVRT @RepAndyBiggsAZ: The AMBER Alert in Indian Country Act has PASSED the @HouseJudiciary Committee. Thanks to Chairman @RepGoodlatte for hi\u2026
p78
aV@allinwithchris @chrislhayes @RepLanceNJ7 @joanwalsh @DonnaFEdwards @CarolLeonnig @NatashaBertrand @MMFlint It\u2019s Al\u2026 https://t.co/J2hiAfF1ph
p79
aVRT @AlanaUCASA: Honor Ashlynne Mike-protect children on tribal lands S. 772: AMBER Alert in Indian Country Act of 2017 https://t.co/6SVlifo\u2026
p80
aVRT @RepAndyBiggsAZ: A solemn topic, but pleased to be joined by @GeneralBrnovich in @thehill to urge passage of AMBER Alert expansion: http\u2026
p81
aVRT @RepAndyBiggsAZ: No child - regardless of race, ethnicity, sex, or birthplace - should be outside the protection &amp; jurisdiction of such\u2026
p82
aVRT @RepAndyBiggsAZ: Ms. Foster's remarkable courage in fighting for passage of the AMBER Alert in Indian Country Act has the potential of s\u2026
p83
aVRT @repbenraylujan: Met Pamela Foster whose daughter was abducted/ murdered last yr.  Amber Alert wasn\u2019t issued for full day-Working w Nava\u2026
p84
aVRT @RepAndyBiggsAZ: Thank you to original co-sponsors @USRepRickNolan, @FrankPallone, @RepRatcliffe, @RepDarrenSoto. https://t.co/2n5yyQaq24
p85
aVRT @RepAndyBiggsAZ: Thank you to original co-sponsors @RepSeanDuffy, @RepMattGaetz, @RepGallagher, @DarrellIssa, @repbenraylujan, @RepGwenM\u2026
p86
aVRT @RepAndyBiggsAZ: Thank you to original co-sponsors @RepTrentFranks, @RepRubenGallego, @RepRaulGrijalva, @RepGosar, @RepSinema, @RepOHall\u2026
p87
aVRT @RepAndyBiggsAZ: I'm about to speak on the @HouseFloor on a bill I'm introducing today to close vital loophole in AMBER Alert system: ht\u2026
p88
aVRT @RepAndyBiggsAZ: I am proud to have introduced the AMBER Alert in Indian Country Act - a bipartisan effort to close a vital loophole: ht\u2026
p89
aVRT @NCJTC: Cindy McCain &amp; Senator Heidi Heitkamp are keynote speakers at AMBER Alert Child Protection Symposium June 1-2 \u000ahttps://t.co/pi9a\u2026
p90
aVRT @cjlpratte: Sen McCain making a statement at SCIA session regarding slain Navajo child Ashlynne Mike and support for S 772 thank you @Se\u2026
p91
aVRT @SenJohnMcCain: My bill expanding AMBER Alert system to Native American communities is impt to stop child abductions in Indian cntry htt\u2026
p92
aVRT @OSUinDC: .@MayorGinther welcomes congressional staff to Linden's Douglas Community Rec Center. #SmartColumbus #DCtoCBUS https://t.co/BG\u2026
p93
aVRT @OSUinDC: OH congressional delegation sees @ENERGY funded &amp; student led R&amp;D  @OSUEcoCAR - who wants to drive this Camaro!? https://t.co/\u2026
p94
aVRT @OSUinDC: Tour/discussion of Linden neighborhood challenges &amp; opportunities led by @KnowltonOSU prof. Jason Reece https://t.co/IhmBFpwoqr
p95
aVGreat day talking transpo mobility starting at OSU CAR.  #CbusFlyOut2016 https://t.co/1IkhYMyIii
p96
aVNexus 6P International #Giveaway @AndroidAuth
p97
aVRT to #VoiceSaveZach https://t.co/OaBGWmYbVV
p98
aVRT to #VoiceSaveMadi https://t.co/OaBGWmYbVV
p99
aVRT to #VoiceSaveJeffery https://t.co/OaBGWmYbVV
p100
aVRT to #VoiceSaveEvan https://t.co/OaBGWmYbVV
p101
aVRT to #VoiceSaveKorin https://t.co/OaBGWmYbVV
p102
aVRT @RichardsonTory: #WHChamps in DC http://t.co/g8xelrMBuY
p103
aVRT @nscorp: What do a rail corridor/20k jobs/intermodal facility have in common? Elaine Roberts, @WhiteHouse Champion of Change. http://t.c\u2026
p104
aVRT @AAAEDelivers: Congrats to AAAE Past Chair Elaine Roberts, AAE on her Transportation Champions of Change rec by @WhiteHouse @USDOT! http\u2026
p105
aVRT @ARNMagazine: Elaine Roberts of the Columbus Regional Airport Authority will be recognized as a Transportation Champion of Change. http:\u2026
p106
aVRT @morpc: Congrats to Cbus Regional Airport Authority\u200b President/CEO Elaine Roberts - named a 2015 White House Transportation Champion of \u2026
p107
aVRT @RepBeatty: TODAY: Watch as #OH03\u2019s Elaine Roberts honored as \u201cChampion of Change\u201d at the @WhiteHouse. #leadership http://t.co/LGNVNYnOj5
p108
aVRT @PortColumbusCMH: Congrats to our leader, Elaine Roberts, a US DOT Champion of Change. Watch live 1:30PM http://t.co/aVcLMRV3fd #WHChamp\u2026
p109
aVRT @senrobportman: Congratulations to @PortColumbusCMH Airport Authority CEO Elaine Roberts on receiving the \u201cWhite House Champion of Chang\u2026
p110
aVRT @airportscouncil: Congrats to Elaine Roberts of @PortColumbusCMH  for recognition by @WhiteHouse as a Transportation #ChampionOfChange h\u2026
p111
aVRT @airportscouncil: .@kevinburke_aci accompanied Elaine Roberts to the @WhiteHouse today where she was recognized as a #WHChamps http://t.\u2026
p112
aVRT @WomenWhoDare: See #ElaineRoberts.White House Champions of Change \u2013 Beyond Traffic: Innovators in Transportation http://t.co/vZiQO1WZEt
p113
aVRT @AAAEDelivers: Congrats again to @PortColumbusCMH's Elaine Roberts, A.A.E. on her @WhiteHouse and @USDOT recognition! #WHChamps http://t\u2026
p114
aV@KimNicky
p115
aV#voicesavekimberly
p116
aV@joanneb3338
p117
aV#VoiceSaveIndia
p118
aV@NBCTheVoice #VoiceSaveIndia
p119
aV@NBCTheVoice #SaveIndia
p120
aVRT to #VoiceSaveIndia http://t.co/OaBGWmYbVV
p121
aVRT to #VoiceSaveBrian http://t.co/OaBGWmYbVV
p122
aVRT to #VoiceSaveDeanna http://t.co/OaBGWmYbVV
p123
aVRT to #VoiceSaveMia http://t.co/OaBGWmYbVV
p124
aV#VoiceSaveMia
p125
a.