(lp0
VRT @PodSaveAmerica: We went to go knock some doors with @JoeBiden. He taught us a lot. \u000a\u000aThis weekend is your last chance to get out the vo\u2026
p1
aVMacoupin County Democrats Unity Dinner.  #TeamAndy #IL48 #FinishStrong https://t.co/9GtaZgGRKg
p2
aVCongressman John Lewis campaigning in Decatur IL for Betsy Dirksen Londrigan #IL13 #TeamBetsy #BlueWave https://t.co/ii21jU6XHJ
p3
aVRT @MeganClasen: Proud to work for @JBPritzker who is great ally for women today and will continue to fight when we elect him governor #Wom\u2026
p4
aV#IL18 #BlueWave #IlDems
p5
aVhttps://t.co/WVUBqLAD1M
p6
aVRT @SenatorDurbin: Confirming Brett Kavanaugh would shake the confidence of millions of Americans in the integrity of the Court. The impact\u2026
p7
aVMatt Damon Is A Sniffing, Shouting Brett Kavanaugh On 'SNL' Season Premiere https://t.co/W8EmAAbWH9
p8
aVGet out this weekend and knock on doors for a candidate you support!\u000a\u000a#bluewave https://t.co/lABrkF98Pk
p9
aVRT @JBPritzker: .@BruceRauner has constantly lied to Illinoisans throughout his four years in office. In 2015, he pushed ethics aside and m\u2026
p10
aV#IL13 #BetsyForCongress #BlueWave2018 https://t.co/xnOUDvEPYu
p11
aVRT @JoeBiden: John McCain was many things \u2013 a proud graduate of the Naval Academy, a Senate colleague, a political opponent. \u000a\u000aBut, to me,\u2026
p12
aVRT @lyft: Over 15 million people cited transportation as their primary barrier to voting in the 2016 election \u2014 that\u2019s why we\u2019re introducin\u2026
p13
aVRT @capitolfax: NBC Poll: Pritzker leads Rauner by 16 points https://t.co/upAM0juF7g
p14
aVRT @TaylorvilleDems: State Senator Andy Manar helped secure $840,914 more in funding for Christian County Schools. He puts downstate kids f\u2026
p15
aVRT @JenMcMillin: Congratulations to all our #Illinois candidates that were endorsed!  @JBPritzker @JulianaforLG @KwameRaoul @SeanCasten @LU\u2026
p16
aV#BlueWave https://t.co/2x5N6kXeLk
p17
aV@McLeanCoDems Great day in McLean County. Thank you Congresswoman Cheri Bustos for your Build the Bench program and\u2026 https://t.co/hpLeYoCQ74
p18
aVRT @JBPritzker: Everything is at risk with Brett Kavanaugh\u2019s nomination. We need a Supreme Court justice that won\u2019t ignore the facts and un\u2026
p19
aVRT @JBPritzker: Women have always been leading the fight \u2013 The fight for representation, for their rights, and for equality. And now more t\u2026
p20
aVRT @SenatorDurbin: My statement on the nomination of Brett Kavanaugh to fill the Kennedy vacancy on the Supreme Court #ScotusPick: https://\u2026
p21
aVRT @JBPritzker: Scott Pruitt was always unfit to lead the EPA. He proved time and again that he was unqualified and disinterested in protec\u2026
p22
aV#IndependenceDay #happyfourth #Happy4thofJuly https://t.co/suUIiq3RnI
p23
aVRT @cnnbrk: "Look at ICE (U.S. Immigration and Customs Enforcement), what a group of incompetents. At this point they're focused more on to\u2026
p24
aVhttps://t.co/NNbdp17c40
p25
aVRT @JBPritzker: Watch live as @JulianaforLG responds to @BruceRauner\u2019s comments today that he\u2019s \u201cnot surprised they\u2019re sensitive because th\u2026
p26
aVRT @SenatorDurbin: Make no mistake: the President is doubling down on his \u2018zero tolerance\u2019 policy. His new Executive Order criminalizes asy\u2026
p27
aVRT @JBPritzker: Today, #Juneteenth, commemorates the announcement of slavery being abolished in the US. While there\u2019s still work to be done\u2026
p28
aVhttps://t.co/guCem6lveh
p29
aVRT @SenatorDurbin: In the 21st century, access to a free and open internet isn\u2019t a privilege, it\u2019s a right. I\u2019m fighting for #NetNeutrality\u2026
p30
aVRT @ILDCCA: Are you a young, or young at heart, professional in the Chicago area and your looking for a way to help the #BlueWave in Illino\u2026
p31
aVRT @JBPritzker: We are fighting to take back our state and get Springfield back on the side of working families. Donate to Blue Wave Illino\u2026
p32
aV#BlueWave2018  #Democrats https://t.co/x2h56fpoD2
p33
aVRT @SenatorDurbin: I joined @NewDay this morning to discuss the Trump-Sessions family separation policy. This is a heartless and cruel way\u2026
p34
aV#teambetsy https://t.co/igQ3oa1gas
p35
aVI will be there to support the next Macon County Clerk Amy Rueff! https://t.co/Hv5sGkab7B
p36
aVhttps://t.co/yoK5IdRFmC
p37
aVhttps://t.co/dzQPRgzEdU
p38
aVRT @JBPritzker: It\u2019s been nearly 50 years since the #EqualRightsAmendment was passed by Congress, and in that time 36 states have ratified\u2026
p39
aVCindy and I with Speaker Madigan at the Democratic House Majority Reception last night. #ILDems https://t.co/HriiVOkGaD
p40
aVRT @JBPritzker: It\u2019s time. We need a governor that openly and proudly supports equality for women. Sign your name to tell Bruce Rauner to s\u2026
p41
aVhttps://t.co/D3c1YpFn21
p42
aV#ILDCCA https://t.co/JcNQ8v6tGH
p43
aV@JulianaforLG JB and Julianna are the only team that can lead Illinois back to better financial times because the w\u2026 https://t.co/K9SOGEapOH
p44
aV@susanamendoza10 You are the best Comptroller in my lifetime!
p45
aVJesse White\u2019s Spring Reception is Monday, April 30th. We hope to see you there! See flier below for address and det\u2026 https://t.co/P4EQ1QwALh
p46
aVhttps://t.co/nw98i9piqL
p47
aVPlease keep Barbara Bush and her family in your prayers and thoughts. She was a wonderful role model for all of us\u2026 https://t.co/M1yfXxmT2Z
p48
aVhttps://t.co/8kdaqgrkQ2
p49
aVAFL-CIO Annual DC Dinner at Bobby Van's Restaurant in DC @JBPritzker \u000a#jbforgov #teamjb https://t.co/0yW8PDBmvj
p50
aV@AndyManar Senator Manar is right on teacher salaries because he is Illinois' Education Senator.
p51
aVI just returned from Robert Crowley's Memorial Service. Robert was a UIS Professor and Democratic activist. He serv\u2026 https://t.co/8xTs4tc9me
p52
aV@JBPritzker Best candidate for Governor in my professional career. On to victory in November and JB will be in char\u2026 https://t.co/nFhZlfdRD4
p53
aVHappy Easter from the Houlihan family to all! Enjoy sharing joy with your family and friends.
p54
aVhttps://t.co/QluWWBuQ4w
p55
aVRT @MacoupinBlue: Stop by the @ILAFLCIO tomorrow night for a fundraiser to support @ClarkStateRep hosted by @AndyManar &amp; @BillHoulihan18! h\u2026
p56
aV#teamjb https://t.co/ZJX6iEvfcH
p57
aVRT @JBPritzker: It\u2019s been an incredible journey. Let\u2019s go win big today. https://t.co/Eb3IyqjR7k
p58
aVDon\u2019t forget to get out and vote today. \u000a\u000ahttps://t.co/SC0yvooT4H https://t.co/LvE95Uk7NF
p59
aV#MasonCountyDemocrats #VoteThemOut #ildems https://t.co/EdWvJUzPVh
p60
aVFinished going door to door for JB response very good in Springfield Capital #86. Onward to victory in November for\u2026 https://t.co/M0D6PKok8k
p61
aVJoin us this Sunday, March 18th at 2 p.m. for the Mason County Democrats: Get Out The Vote event!  Please see the f\u2026 https://t.co/9b9VfmUOMN
p62
aVPlease join us this week, 5-8pm at 2731 S. MacArthur Blvd to help elect a Governor who will move Illinois forward!\u2026 https://t.co/AYtc3z8tmS
p63
aV#IlGov
p64
aV#Democrats #ChicagoDemocrats #IllinoisDemcrats https://t.co/ajToXfwV0n
p65
aV#jbforgov #teamjb #jbpritzker https://t.co/fEa9oGcwKo
p66
aVWe had a great turnout last night!  Thank you to everyone who came out and for your support.  #JBforGov
p67
aVPlease join us for fundraiser at Limestreet on March 7th. https://t.co/FFt66lydcs
p68
aVhttps://t.co/XoGDKVnK3M
p69
aVhttps://t.co/CsnzZtQqdO
p70
aV@JBPritzker https://t.co/E2hf7U0tvh
p71
aVhttps://t.co/E1NGZ6dNVB
p72
aV@DannyHuspek @JBPritzker Talking to people in my neighborhood are voting for JB.
p73
aVRT @JBPritzker: Even by his own metrics, @BruceRauner has failed this state. No wonder he\u2019s running scared. #ilgov #twill https://t.co/8SX3\u2026
p74
a.