(lp0
VRT @KaivanShroff: Republicans falsely accused Mueller of sexual assault. \u000a\u000aHe didn\u2019t scream at U.S. Senators.\u000a\u000aHe didn\u2019t sob hysterically &amp;\u2026
p1
aVRT @mattyglesias: The fake rabbi wasn\u2019t even a real fake rabbi. https://t.co/8PGboOv4YU
p2
aVRT @IlhanMN: ICYMI: This is my new favorite conspiracy theory, considering I carried and delivered three children. \u000a\u000a\U0001f602\U0001f602\U0001f602\U0001f34e\U0001f34e\U0001f34e https://t.co/fK\u2026
p3
aVRT @_tomdalton: This video about @VT_Dylan is so awesome! Made me \U0001f642https://t.co/VoeVQfza9c
p4
aVRT @tomperriello: FWIW Soros pulled himself up by his bootstraps (unlike Trump) to earn billions (unlike Trump), then charitably donate 80%\u2026
p5
aVRT @AndrewGillum: This is heartbreaking &amp; devastating. Our houses of worship \u2014 like our schools &amp; movie theaters \u2014 should be safe from this\u2026
p6
aVRT @leahmcelrath: I toggled all the way back through the 16+ pages to undo the Ted Cruz selection manually and change it to a vote for @Bet\u2026
p7
aVThis White House. https://t.co/QGLspq0rXj
p8
aVRT @TylerDinucci: Andrew Gillum is going to be president one day.
p9
aV@VT_Dylan @vprnet I audibly sighed in relief when I saw the LG numbers.
p10
aVGlad to see them pulling out their own youth motivator to counter Taylor Swift! https://t.co/uSGUwJEcwl
p11
aVRT @BillKristol: I\u2019ve got plenty of disagreements with and criticisms of Joe Biden. But I have no doubt of this: He\u2019s a far better man than\u2026
p12
aVRT @HenryJGomez: How down on Renacci are Ohio Republicans? I just spoke to one longtime party operative in the state who called him "Ed Fit\u2026
p13
aVWithout a doubt the weirdest race in the country. It\u2019s been up there for a long time but this really puts it over t\u2026 https://t.co/a77YNG0Ml5
p14
aVRT @EmmyA2: CANDIDATE behind in polls WILL USE MONEY raised from GRASSROOTS DONORS who want him to SPEND their donations on WINNING HIS RAC\u2026
p15
aV\U0001f926\u200d\u2642\ufe0f https://t.co/a1Fm0cV7iD
p16
aVRT @HowardMortman: #OHSenDebate :\u000aRenacci: "Sherrod Brown has volumes of records of substantiated claims of spousal abuse. People of Ohio n\u2026
p17
aVRT @politico_chris: For those concerned about the controversy surrounding Brian Kemp\u2019s actions as Secretary of State, don\u2019t forget that @Ge\u2026
p18
aVRT @cliffschecter: Ruh roh. That doesn\u2019t seem like a guy you\u2019d want, um, auditing stuff... https://t.co/VXUGytF2tZ
p19
aVThis administration could use more Josh Lymans and fewer Robert Ritchies. https://t.co/3mhXvXls1a
p20
aVRT @RuthHardyVT: I am thrilled to have the support of Bristol resident @RealESonneborn. As a mom of teens, I'm especially interested in emp\u2026
p21
aVWell actually you transparently did. Regardless, you are the reason a sexual predator will have a crucial vote on o\u2026 https://t.co/RRbacTIo8j
p22
aVIt\u2019s not a good night to be IDC.
p23
aVRT @thehill: Avenatti blasts Tucker Carlson after Fox News chyron called him "creepy porn lawyer" https://t.co/fiVoIdiMyU https://t.co/Tb26\u2026
p24
aVDonald Trump doesn\u2019t care about Puerto Rico. This is old news though.
p25
aVRT @CounselorAdrian: This meet-up @FletcherFree #BTV next Sunday with @RealESonneborn looks like fun for the whole family! #VTpoli https://\u2026
p26
aVWhat a brilliant man. https://t.co/JZQD8Hdlxz
p27
aVRT @christineforvt: Thank you, @RealESonneborn for your endorsement. You should be so proud of the campaign you ran and the example of enga\u2026
p28
aVArguably the most charismatic gubernatorial ticket in a state that needs a deeper democratic bench. https://t.co/vV37xyk1Qf
p29
aVThis really should go without saying. https://t.co/vEeVxSWaqV
p30
aVRT @natsilvervt: TJ has spent his career working to fight this epidemic. As a prosecutor, TJ fought for treatment for those suffering from\u2026
p31
aVI disagree with @marcorubio on baiscally everything. That said, he has a right to not have Alex Jones touching him\u2026 https://t.co/1ecZ3CZ8rc
p32
aV@jBillingsjr I\u2019m unfit because I choose LGBT Vermonters and people who like having healthcare over an ultra conserv\u2026 https://t.co/1WgSqGaLBm
p33
aVWelcome! Now leave. https://t.co/jhvrIAjG2k
p34
aVWhoops
p35
aVwell i think we can all agree he did an absolutely fantastic job. https://t.co/gW8jN9YMMD
p36
aVTed Cruz is campaigning on being uncool and untalented. This time it seems intentional though.
p37
aVRT @mehdihaddache: everyone: TeEnAgErS nEeD tO fOcUs oN mOrE iMpOrTaNt ThInGs\u000a\u000ateenagers: *talk about politics, feminism, racism, sexuality\u2026
p38
aVRT @ananavarro: You know guys, the idea of Aretha Franklin and John McCain hanging out together in the Freshman section of heaven, kinda ma\u2026
p39
aVThis isn\u2019t about politics. It\u2019s about honoring John McCain\u2019s sacrifice and his dedication to giving back. Say what\u2026 https://t.co/6ZUTvf4f0K
p40
aVYes! 2020 will be the year of the people! https://t.co/a7ibxsaQ0w
p41
aVRT @VTHouseDems: Rep. Condon was a decent, thoughtful person who made our legislature better with his hard work and his sense of humor.  We\u2026
p42
aV@KiahMorrisVT has been an effective legislator and upon entering the legislature, was an instant leader. It\u2019s sadde\u2026 https://t.co/FZg2Wcfy2U
p43
aVSo sad. John McCain is a war hero and one of a few courageous people who stay brave after decades in politics. I di\u2026 https://t.co/1YbFPeHuOA
p44
aV13(!) is a lot in American politics. British soccer journalists are very lucky. Politicians amirite? https://t.co/5tbds5pHV7
p45
aVRT @mattdizwhitlock: Such a good tshirt. https://t.co/x6b1oc8Czr
p46
aVthis is a reminder that Devin Nunes was once on @TIME\u2019s forty under forty list. he also said he\u2019d be making cheese\u2026 https://t.co/AyC9PDlgze
p47
aVRT @christineforvt: Our team grows every day! #vtpoli #teamchristine https://t.co/mGztGQDBS0
p48
aVThis is why @OneNorthAvenue is one of the best police forces in the country. https://t.co/SDZlakasm5
p49
aV@AlexRFarrell is not a different kind of republican, he\u2019s more of the same with a little extra Phil Scott idolizati\u2026 https://t.co/tY7x5BtBM3
p50
aVRT @RepJoeKennedy: Unless you are sick or will ever get sick, in which case he has completely forgotten about you. https://t.co/jynet91zFf
p51
aVHe\u2019s Flaking on his job. https://t.co/r6suO86oTm
p52
aVRT @PrdNewEnglander: How many 14-year-olds can say that they've won more than 4,600 votes in an election? @RealESonneborn can! \u000a\u000aHere's a m\u2026
p53
aVRT @ebaldothemenace: Voting for @RealESonneborn was the proudest day of my life, the kids got a great name \U0001f44d\U0001f3fb
p54
aVSeems likely that @andrewcuomo is going to be the one forced out of office based on things he\u2019s said. https://t.co/26ccWccMX7
p55
aV@BrendaForVT Yeah, I will.
p56
aVVermonters. Are. Dying. \u000a\u000a @GovPhilScott this isn\u2019t a game. This isn\u2019t politics as usual, this is corrupt, immoral\u2026 https://t.co/2kAJs7IlWy
p57
aVHey @twittersupport I\u2019m not a primary candidate anymore. You can verify me now!
p58
aVRT @HarrisPoll: Vote and retweet if you want to see our \u201cGeneration Z is Poised to Revolutionize Politics\u201d panel at #sxsw2019, featuring sp\u2026
p59
aVWait what? https://t.co/tZNeInx5k4
p60
aVRT @kpottermn: Responding to Johnson\u2019s charge that he would raise taxes and shift health care to government run, Walz quips: \u201cHe left out t\u2026
p61
aV@DaveSilberman @lseconnors Kevin Gibbs. He\u2019s my town\u2019s police chief. Also the owner of one of a small number of Kei\u2026 https://t.co/JBylqX3oeE
p62
aVIt\u2019s very surreal when @cameron_kasky likes your tweet.
p63
aVTo add to my last tweet, I\u2019m gonna work SO hard to elect Christine Hallquist Governor.
p64
aV@jwalters7D @EhlersforVT Someone should tell him that https://t.co/ZefnPASxiZ
p65
aV@James_Ehlers should not run as an independent.  @christineforvt is our nominee. Last night I called christine to o\u2026 https://t.co/8bREfpKzb4
p66
aVThank you Vermont. Keep fighting.
p67
aV@jwalters7D No cuz red wave.
p68
aVYeah. We do. Stop by! https://t.co/lMPPcajbrr
p69
aVI made the national news!! But more importantly, so did Kate! Go @KateLaroseVT ! #vtpoli https://t.co/fEN3h82U8X
p70
aVThanks. Good luck to you on all the much more important stuff you do. https://t.co/qjRVbQIwe6
p71
aVDisagree. https://t.co/WMVJTzDHBB
p72
aVTomorrow.
p73
aVRT @VTdems: Tomorrow is #PrimaryDay in Vermont!\u000a\u000aVerify your registration &amp; find your polling place \u27a1\ufe0f https://t.co/kp4qIlGN7b https://t.co\u2026
p74
aVRT @HarrisPoll: We need your vote! Help us get to #sxsw2019 by voting for our panel submission \u201cGeneration Z is Poised to Revolutionize Pol\u2026
p75
aVRT @JoeBiden: Today we honor the memory of Heather Heyer, whose spirit we see in every person who stands up to reject hatred and bigotry. M\u2026
p76
aVPass. https://t.co/m6XBSHAnyv
p77
aV\U0001f6a8 Action Alert \U0001f6a8 \u000a\u000aWe need your help today, tomorrow, and Tuesday. Here\u2019s how you can help:\u000a\u000a\U0001f535Knock Doors\u000a\u000a\U0001f535Campaig\u2026 https://t.co/h9N8alvZOV
p78
aV@VoteVal We\u2019re at 110 W. Canal Street in Winooski
p79
aVI concur as strongly as one can possibly concur.\u000a\u000a https://t.co/TVIc2X2crv
p80
aV@votebergeson18 ran an admirable campaign. Kansans owe him a debt of gratitude for his advocacy on behalf of famili\u2026 https://t.co/brOjg15Mtl
p81
aVRT @EhlersforVT: James\u2019 question for @RealESonneborn: if I am elected, will you serve me as an advisor on youth &amp; education issues? Ethan s\u2026
p82
aVhttps://t.co/vKNulJSsrO\u000a\u000aFree and open to the public but RSVP is required!
p83
aVHow will I ever recover. https://t.co/DKJgP53dmG
p84
aVRT @VTdems: .@RealESonneborn\u2019s closing remarks \u2b07\ufe0f https://t.co/23IyEAm6jN
p85
aV@ejyoung67 @BrendaForVT @christineforvt @EhlersforVT @GovPhilScott I\u2019m offering a vision for a Vermont that serves\u2026 https://t.co/fUgFQxNyt9
p86
aVLive in Vermont? Want a yard sign? Let us know! We have an abundance and want to distribute them across the state.\u2026 https://t.co/I2EWlgSNXb
p87
aVTonight in Monkton, on a Wednesday night, at an event where @ACDCVT was hoping for 25 people to hear\u2026 https://t.co/aMXxQ4Njvc
p88
aVPolls show that we can beat Phil Scott. Can you help us bring progressive values back to the governor\u2019s office by c\u2026 https://t.co/rfjKRfHprV
p89
aVThanks to @vprnet @mwertlieb for having me on Vermont Edition!
p90
aVRT @MatthewSmithVT: He's a firmly progressive candidate for VT governor. He advocates for a $15/hr #MinimumWage, a tax on carbon emissions\u2026
p91
aVDude you\u2019ve been a Democrat for like 3 days. https://t.co/Zh2GbLcJ1b
p92
aV47% of Vermonters know someone who struggles with opiate addiction. The time for politics is over and the time for\u2026 https://t.co/kD9T1CyUek
p93
aV@KateLaroseVT @ethansonneborn Gladly. BTW @RealESonneborn is me @ethansonneborn is an old personal account \U0001f642.
p94
aVFranklin County is a crucial battleground and we need to elect @KateLaroseVT to the house. She has a strong track r\u2026 https://t.co/ifEmmhSJAJ
p95
aVDJT: Thank you for coming John.\u000aJohn Kelly: My pleasure. \u000aDJT: Now, jobs. You no longer have one. https://t.co/HmdAtSMASW
p96
aVAnother edition of \u201cJoe Lieberman convinces an old white guy named Joe to abandon the Democratic Party after losing\u2026 https://t.co/OwXAPWsPRD
p97
aVHonored to endorse @MitziJohnsonVT. She\u2019s a champion for middle class families and communities. https://t.co/4RPxmp0QQd
p98
aV@DaveSilberman He should try going and visiting a school for a day.
p99
aV@DaveSilberman Whoever tweeted this clearly hates our youth.
p100
aV*step we
p101
aV@CounselorAdrian @julielyn @SamGaleRosen @BeckImpact @VTAttorneyGen @christineforvt how do you feel about this supp\u2026 https://t.co/GzX8324ctV
p102
aVCongratulations @VermontSOS ! https://t.co/0OOwzh89OH
p103
aVRT @eveewing: People say \u201cwhy do you only care when police kill people but not when black people kill each other.\u201d Most of those people are\u2026
p104
aVI couldn\u2019t agree more. https://t.co/uyGzKa4QCq
p105
aVODPS\u2019 are the biggest, most important steppe can take right now. Short term matters as much as long term on this issue.
p106
aVRT @renato_mariotti: Well, this surprises no one whatsoever. https://t.co/Hko2bPPmMx
p107
aVRT @Atul_Gawande: Imagine a cure for cancer deaths but not using it. That's opioid addiction. @DrSarahWakeman @ml_barnett @NEJM:\u000a1. Bupreno\u2026
p108
aV@leechambers  https://t.co/m9I1hfZDrQ
p109
aVDetective Trump is the best law enforcement official in the country. Good thing he\u2019s a trained professional with th\u2026 https://t.co/lh2gXZSjl7
p110
aV@CounselorAdrian @VTdems Channel 17 on August 2nd, VPR on August 8th and VT PBS on August 9th.
p111
aVCJR is incredibly important. We need to keep working on this. We built a foundation, now let\u2019s improve on it. https://t.co/ohM2O5tGil
p112
aVRT @VT_Dylan: Great to host @RealESonneborn at this morning\u2019s Essex @VTdems meeting. Ethan makes a strong case about the importance of new\u2026
p113
aVhttps://t.co/KVSJ0rb9r0\u000a\u000aThis does not feel like adequate karma for stealing healthcare from working class families.
p114
aVFun fact: @RepCicilline is the first member of congress to follow me. https://t.co/twtGMVW7h2
p115
aV@Indivisible_MRV Thank you!
p116
aVCan\u2019t donate? Share this and let your friends know that tomorrow matters!
p117
aVWe\u2019re ramping up our strategic efforts in the coming weeks before the primary. We need to fund voter outreach, grou\u2026 https://t.co/ILMBHaonTa
p118
aVTo clarify: the link is the attorney general\u2019s office saying I\u2019m eligible, the screenshot is a Jon Margolis column\u2026 https://t.co/YO9zBe0aaD
p119
aVI\u2019m gonna stick with the attorney general on this one. \u000a\u000aLast paragraph: https://t.co/wRFJvMzqxU https://t.co/KjOXAbJA88
p120
aVCan we just leave a good thing alone? https://t.co/K1G5W66adn
p121
aV#@RickSaccone4PA is very bad at using twitter https://t.co/RumxnH9O3m
p122
aVI will buy this book. https://t.co/6jIxxjXCav
p123
aV*too https://t.co/mpiB91p1Io
p124
aV@brianschatz Me
p125
aVI really like @Ojeda4congress
p126
aVTAN SUIT https://t.co/hpg1f1JA2T
p127
aVLet\u2019s smear @TimAsheVT because he wanted a budget and because he wants a functioning social safety net. https://t.co/GQX2883uWT
p128
aVGreat event with @RightsVT @ninaturner and @MariInTheHouse in Bristol! Like Mari and Nina said, \u000a\u000a\u201cEverything we lo\u2026 https://t.co/MsmsEJf6AF
p129
aVRT @AFSCME: The #Janus decision sends our economy in the wrong direction. But it's also a rallying point. We call on elected leaders and ca\u2026
p130
aVRT @carterforva: Three years ago, I was installing light switches for a living. Two years ago, @pwcdanica was writing news articles for low\u2026
p131
aVProgressives win.
p132
aVRT @votevets: Oh no. https://t.co/yI7CsLBA3d
p133
aVI really don\u2019t care, do u? https://t.co/M7scm3LQOj
p134
aV@Chela393 We think he\u2019s pretty great too!
p135
aVRT @cmclymer: Want to reiterate: the temperature in McAllen, Texas yesterday was 82 with humidity in the high 80s, resulting in a \u201cfeels li\u2026
p136
aV@newsdoneright I\u2019m not pro-abortion, I\u2019m pro-choice . It\u2019s not the governments role to regulate uteri. Ever.
p137
aVNot to pile on, but there is a real pattern of behavior.\u000a\u000ahttps://t.co/mhWiYa3vke
p138
aVThere\u2019s more, unrelated but also disturbing content in this thread. Thank you @LachlanFrancis for speaking up and i\u2026 https://t.co/LOZEHutASz
p139
aVI\u2019m 100% pro-choice and I hope my fellow candidates will be as well. A full statement will be released tomorrow. I\u2019\u2026 https://t.co/OOprQmMM6R
p140
aVThis is shocking and disappointing. People can evolve, and I\u2019d like to see James reconcile these comments.\u2026 https://t.co/uJSbVS6U4J
p141
aV@yllennodmas I agree
p142
aV@DaveSilberman Very sad!
p143
aV@DaveSilberman @AmyBTV This is is true
p144
aVRT @SenKamalaHarris: This Executive Order in no way deals with reuniting the *two thousand three hundred* children who have been torn away\u2026
p145
aV@DaveSilberman @christineforvt @EhlersforVT @BrendaForVT Separating families is draconian and immoral. We all need\u2026 https://t.co/HNyAhOGE13
p146
aV@johnweeks https://t.co/iE7A1lW9k5\u000a\u000aIf you just google Steve Scalise David Duke without the baggage you\u2019ll find more.
p147
aVYou know, Steve Scalise is a fighter and I\u2019m glad he lived and all. That said, let\u2019s not forget that in 2002 he gav\u2026 https://t.co/RVYJbmgoOb
p148
aVRT @ndrew_lawrence: Imagine how much spit Stephen Miller is about to ingest https://t.co/xudua0SjWa
p149
aV@RoKhanna gives young people in politics everywhere a good name.
p150
aVI\u2019m boycotting the Magnolia. https://t.co/0ZoAx8rxJ5
p151
aV@april_mccullum, great piece. I hope both candidates listed here comply with the law \u000a\u000aOne clarifier: I was exempte\u2026 https://t.co/eFgzAijITg
p152
aVBeing concerned about a government shutdown isn\u2019t radical, it\u2019s common sense. https://t.co/ZJggYNd5ac
p153
aVPhil Scott needs to understand that he\u2019s not a one man government. Don\u2019t let him run as a moderate again. He\u2019s an i\u2026 https://t.co/JhALr58e3Z
p154
aVRT @brianschatz: If you are not for Corey Stewart you should say so. If you are not for separating kids from their families you should join\u2026
p155
aVRT @TimAsheVT: In this segment the Gov claims the bill on his desk to prevent a government shutdown includes a tax increase. Simply not cor\u2026
p156
aVRT @brianschatz: If you are pregnant, mentally ill, have cancer, a bad knee, asthma, diabetes, sleep apnea, acne, lupus or any other pre-ex\u2026
p157
aV@RSPavek @EhlersforVT @christineforvt @BrendaForVT @RSPavek it\u2019s common sense to me to allow localities to make the\u2026 https://t.co/pWdWygwNMX
p158
aVRT @TheOpposition: Not sure what this trend is but I'll find out as soon as this hashtag loads... #NetNeutrality
p159
aVAgreeing with a SCOTUS decision doesn\u2019t mean you \u201cwon\u201d. I liked the royal wedding, it doesn\u2019t mean I officiated it. https://t.co/WI4BJl2YPm
p160
aVThat\u2019s because legislative leadership\u2019s priority is families and the working class. None of those amendments put th\u2026 https://t.co/azw2YxUbD5
p161
aVhttps://t.co/4eT3lTgWxc\u000a\u000aThis is smart.
p162
aV@dtanner2194 Man alive do I relate.
p163
aVNew York would win. https://t.co/kknR33pBSu
p164
aVRT @TheDweck: Congrats to Scott Pruitt on finding a way to have non-sex-related scandals that are somehow more embarrassing than a sex scan\u2026
p165
aVRT @jules_su: I am laughing so goddamn hard at this video of Trump inexplicably putting his water bottle on the floor, and Pence immediatel\u2026
p166
aVRT @PoliticalEmilia: I\u2019m 15.\u000aHow is it that I knew what happened during the War of 1812, but the president didn\u2019t?\u000aStop calling the preside\u2026
p167
aVRT @criscarter80: President Obama should invite the Eagles to his house for a barbecue.
p168
aVRT @THISISVT: Here is a helpful map of all the states where you can get a decent maple creemee. https://t.co/PQ21WB87Js
p169
aVRT @RuthHardyVT: Our kids are leading. I love the @MiddTigers senior class prank - rainbow art! In honor of a classmate who took his own li\u2026
p170
aVWith the news of our filing, we\u2019ll need support from hardworking people all across the state. Can you chip in a few\u2026 https://t.co/nvkd1oDx97
p171
aVIt was an honor to file my paperwork today in\u2026 https://t.co/wjuuAWHwhX
p172
aV#firejason https://t.co/eWuXnePMpF
p173
aV@richcordray is a nerd and I honestly love it. https://t.co/NpzP8Njmm1
p174
aVHe admitted to the crime. https://t.co/TSPlBcmaNH
p175
aVOnce again, Herman Cain is wrong. https://t.co/FZ60zA63sM
p176
aVRT @VTHouseDems: "All they have to do is ignore fiscal responsibility and competent governance and give me everything I want, exactly as I\u2026
p177
aVRT @brianschatz: Maybe we should just call them children. https://t.co/6CJgRTyI1d
p178
aVRT @MillenPolitics: WATCH \u2014 President Obama met the sister of a fallen soldier unexpectedly. \u000a\u000aThis is how a President should honor the fal\u2026
p179
aVRT @jwalters7D: 1/x Memorial Day long thread. William H. Eyler was a young Ohioan in his mid-20s, a member of the Ohio National Guard who'd\u2026
p180
aV#memorialday \u000a\u000aLet\u2019s not think of Memorial Day as a day of parades or barbecues, but as a tribute to all those who\u2026 https://t.co/AhlgAb3Ou8
p181
aVThe GOP has lost its right to call itself the party of family values. They separated families and then lost the kid\u2026 https://t.co/yWtPeQ2crR
p182
aVRT @michaelianblack: That sucks. Trayvon Martin is dead. https://t.co/elz2xWT3eY
p183
aVRT @ChrisMurphyCT: Even if you\u2019re not a parent, it isn\u2019t hard to imagine the mind bending horror of your child being ripped from your arms\u2026
p184
aVRT @RepMaxineGrad: It was a great year for Justice reform!\u000a#vt #vtleg #vtpoli https://t.co/H036pTpS3O
p185
aV@yllennodmas Thank you Sam!
p186
aV@christineforvt Thank you Christine!
p187
aV@MsMaggieLenz Thanks!
p188
aV@MsMaggieLenz Yeah I get that, I just find it to be pretty bland, kind of a nothing-burger, but yeah I guess disapp\u2026 https://t.co/Isxq7yjZgS
p189
aVRT @JohnDingell: Are they dating? https://t.co/q8a7o2LIBn
p190
aVRT @ACLU_VT: Ethnic studies promote student achievement, build bridges, and dispel myths about history, literature &amp; science. Tell #VT Sena\u2026
p191
aVI\u2019m not sure why people are so upset by this, it seems like a fine, unimpressive but inoffensive answer. https://t.co/NwgC2Ii6ME
p192
aVRT @MsMaggieLenz: This like Ross and Rachel but with nuclear weapons. #NorthKoreaSummit #WillTheyWontThey https://t.co/VPe0PEGk5j
p193
aV@Indivisible_MRV @vtdigger Thank you!
p194
aV@Indivisible_MRV @vtdigger I think it stops qualifying as forgetfulness when Jon Margolis has never mentioned me as a serious contender.
p195
aVOh I\u2019m sure we won\u2019t. https://t.co/g7wpe8UdCz
p196
aVRT @politicsluo: Man I almost forgot how cool John Fetterman is
p197
aVGreat to participate in this! https://t.co/OdxW18Y8tJ
p198
aV@momdogz I usually have decent luck on Plank Road by Four Hills.
p199
aVRT @ForecasterEnten: It's pretty darn pathetic that it took until 2018 for there to be a black woman major party nominee for governor.
p200
aVRT @LizzieHask: Phil, why? https://t.co/VCHbvp5dtX
p201
aVRT @davidhogg111: You know if the government has enough info to send me a draft card on my 18th birthday they should just register me to vo\u2026
p202
aVRT @TimAsheVT: I frequently ask audiences: \u201cDo you believe it\u2019s possible in 2018 for an adult working full time on $10.50/hour to make ends\u2026
p203
aVRT @SherrodBrown: No. https://t.co/BGzaUCYXAo
p204
aVRT @a_pasta_dealer: #IfIdieInASchoolShooting put my body in the parking lot of the NRA
p205
aVRT @SenWhitehouse: I\u2019m at a loss for words. https://t.co/pQH4VXQhP0
p206
aVGlad to see so many teachers, support staff, students and their allies gather to resist Phil Scott\u2019s anti child, anti educator agenda.
p207
aVRT @shannonrwatts: My prayer is that you will lose to @BetoORourke in November, Senator Cruz. And that you end up in the ash heap of histor\u2026
p208
aVRT @cameron_kasky: And now it\u2019s the #RoyalWedding on your timeline. \u000a\u000aCongratulations, America, we\u2019ve become desensitized to the mass murde\u2026
p209
aVRT @clairecmc: This week @HawleyMO was interviewed and said he\u2019d done 10 events in 6 weeks. I did 5 yesterday, will do 3 today and 5 tomorr\u2026
p210
aVMy peers are getting shot. It\u2019s time for us to stop talking about our god given right to weapons of war and start t\u2026 https://t.co/vdtB0U21gl
p211
aVRT @JasonKander: Republican politicians want to talk about hoodies (Sanford), hotels (Vegas), teachers (Parkland), and now doors (#SantaFe)\u2026
p212
aVRT @MollyJongFast: Trump is overpaying. https://t.co/N2Ux6AkS8z
p213
aVThe one time this White House didn\u2019t screw up was a response to a buzzfeed article. https://t.co/m49Vpq0nZt
p214
aVRT @SenKamalaHarris: BREAKING: The Senate just voted to keep #NetNeutrality rules \u2013 a huge victory for protecting the free &amp; open internet.
p215
aVRT @nealgoswami: .@TimAsheVT responds to @GovPhilScott\u2019s letter with his own scathing letter. #vtpoli https://t.co/8EWuFApOCc
p216
aVI disagree with Orrin Hatch on a lot but he\u2019s pretty good at Twitter. https://t.co/1zby2aMXoy
p217
aVYeah, you only support taxes that happen after you leave office. Can\u2019t risk that re-election! https://t.co/m1YmI6Xj62
p218
aV@yllennodmas Minor glitch with licensing and programming. Should be fixed by tomorrow.
p219
aVRT @joshrogin: On the new U.S. embassy plaque, "Donald J. Trump" is in a larger font size than "Jerusalem, Israel" https://t.co/OIkW2NJF9x
p220
aVRT @KamalaHarris: This\u000a\u000ais\u000a\u000anot\u000a\u000aa\u000a\u000adrill\u000a\u000athe\u000a\u000aFCC\u000a\u000ajust\u000a\u000aannounced\u000a\u000a#NetNeutrality\u000a\u000aends\u000a\u000aon\u000a\u000aJune 11\u000a\u000aunless\u000a\u000awe\u000a\u000astop\u000a\u000ait\u000a\u000aretweet\u000a\u000ato\u2026
p221
aVSeems about right \u000a\u000aThat was sarcasm\u000a\u000aLess power for corporations does not equal Armageddon https://t.co/9vq6Smolus
p222
aVRT @Bakari_Sellers: If you see a gang of young black ppl together today, with their grandmothers, staying at an air bnb, playing Young Dolp\u2026
p223
aVYou had no problem with how informed the same voters were when they made you governor. Insulting your constituents\u2026 https://t.co/cm8Ym7vdrg
p224
aV@DaveZuckermanVT @newsdoneright @realDonaldTrump @EhlersforVT @christineforvt @GovPhilScott I agree with the Lt. Go\u2026 https://t.co/sm8XzPgqKo
p225
aVRT @TimAsheVT: I'm disturbed that Gov. Phil Scott's office has questioned the non-partisan integrity of the Joint Fiscal Office. We've seen\u2026
p226
aVWe need to investigate this incident. No one should live in fear of being arrested. https://t.co/AqBDjmTTHZ
p227
aVRT @selene_colburn: S.40 (bill to raise min wage to $15) passes VT House 77-69; many years later, I\u2019m still dealing with impacts of working\u2026
p228
aVI understand the math concepts in the education plan. @GovPhilScott and I should trade places.
p229
aV@PreetBharara should run for New York Attorney General.
p230
aVI just retweeted something but then I saw this. Amen. https://t.co/meFd5QqBt1
p231
aVRT @MattxRed: FACT: In 2016 AND 2017 the United States averaged one toddler shooting someone (or themselves) a week. https://t.co/4ZWpTP5Fwq
p232
aVRT @DaveSilberman: @JayDiaz4Life @vtdigger The @GovPhilScott admin should not tolerate this kind of \u201calternative facts\u201d presentation from a\u2026
p233
aVWhere should our third location be?
p234
aVJoin us in Bristol!  https://t.co/xv0Opb4egU
p235
aVJoin us in Burlington!  https://t.co/I9qJgPla6O
p236
aVRT @TheDemocrats: The Democratic Party has a mission and a message. We\u2019re fighting to build a better future for America. That\u2019s why we need\u2026
p237
aVRT @DaveZuckermanVT: Gov. proposed use of $58m in one time $$ kicks the cost down the road another year and solves nothing. Voters passed 9\u2026
p238
aVWho will win tomorrow\u2019s debate?
p239
aVRT @laboryes: S.53 needs the support of Vermonters like you - contact your representatives and ask them to support Universal Access to Prim\u2026
p240
aVPhil Scott is mortgaging my future with his so called \u201ceducation plan\u201d . Full statement tomorrow.
p241
aVHe campaigns for us now I guess. https://t.co/vKHTn5EtLv
p242
aVSo so so good https://t.co/JvppxS4139
p243
aVRT @michelleisawolf: Thank you! https://t.co/0Nsx5ZBj8c
p244
aVSo you DO empathize with not wanting to get shot. https://t.co/YsltRf12li
p245
aVRT @Mikel_Jollett: TRUMP (talking about Paralympians): It's a little tough to watch, but I watched as much as I could.\u000a\u000aImagine losing your\u2026
p246
aVWe\u2019re looking for volunteers! Go to this page! \u000a\u000ahttps://t.co/EmYimosSWe
p247
aVMy thoughts are with Gov. Hoff\u2019s family. A true champion for everyday Vermonters, Phil was a man of the people in e\u2026 https://t.co/88boMbXzxr
p248
aVThis might sound crazy, but I feel like a woman who doesn\u2019t sexually harass people is a better fit for this show th\u2026 https://t.co/wUcrGZplBY
p249
aVRT @DavidRutz: Best presidential handshake I've ever seen https://t.co/QD8YnXmhqX
p250
aVRT @jessewarren: 22 states already prohibit corporations from contributing to political campaigns. \u000a\u000aVermont should be on that list. \u000a\u000a#vtp\u2026
p251
aVRT @johnlegend: Please stop calling the police on black people who are just trying to live. Please. Stop.  Police shoot us for no fucking r\u2026
p252
aVRT @HaydenDublois: Heard today in #VT \u201cPeople not born here don\u2019t belong here.\u201d What is happening to our state? This rise in nativism is no\u2026
p253
aVMore of our facilities can be exercising sustainability
p254
aVWe need not to talk about the environment but to act. Will @christineforvt and @EhlersforVT join me in a pledge to\u2026 https://t.co/zIi87PYh3I
p255
aVRT @TinaSmithMN: #EarthDay haiku:\u000aClimate change is real. \u000aScott Pruitt should resign now.\u000aTime to get to work.
p256
aVRT @AlexPadilla4CA: Research shows that if we can get a young person to vote not just in the first election after turning 18 but also the s\u2026
p257
aVNominate someone! It\u2019s a great way to give recognition to an often unrecognized profession! https://t.co/OxPhWv4LVK
p258
aVRT @PoliticalEmilia: If your primary reason for not wanting teenagers involved in politics is because you don\u2019t want to listen to \u201cimmature\u2026
p259
aVRT @taylordobbs: Moments of unity: The Vermont House just sang Imagine by John Lennon to kick off their daily business today. #vtpoli https\u2026
p260
aVRT @TimAsheVT: An inspiring group of Vermont students joined us in Montpelier today to make it clear their fight for gun safety continues.\u2026
p261
aVRT @UVMDemocrats: Stephanie Young, Chair of @BTV_Dems, gives her opening remarks including thank you's to @MiroBTV, @SarahFairVT, @BRVermon\u2026
p262
aVMore young people. https://t.co/t8Jb08B8mt
p263
aVRT @robb_kidd: There goes the political courage award. @GovPhilScott sides with polluters over protecting Vermonters. https://t.co/m0OjSuZZ\u2026
p264
aVI don\u2019t care what anyone says. This is hard hitting journalism. https://t.co/n6lnq8tzLE
p265
aVRT @JasonKander: Sean Hannity this afternoon: Cohen has never been my lawyer. \u000a\u000aSean Hannity this evening: Everything I told Michael Cohen\u2026
p266
aV@senatorsirotkin is an effective legislator to deserves to stay in the senate. https://t.co/0om8DTBdSM
p267
aVGood. We can\u2019t have provocateurs going and lecturing the victims of gun violence about how they know nothing about\u2026 https://t.co/jNBBTEjU7u
p268
aVHowever, he did do a good thing and the NRA should stop shaming politicians who support students, not the gun lobby\u2026 https://t.co/7FsZkS4Ayj
p269
aVHe did do a good thing, however, he stayed out of it until it was politically untenable to be silent anymore.Thank\u2026 https://t.co/rY1p0YW2Rh
p270
aVRT @matthewjdowd: This pardon of Scooter Libby is simply outrageous.  I worked for President Bush from 1999 to 2005, and Scooter is a felon\u2026
p271
aV#CoolDudeDay https://t.co/9wO5ZnY5ia
p272
aVRT @mviser: Secretary of Defense Jim Mattis: "I've never seen refugees as traumatized as coming out of Syria. It\u2019s got to end."\u000a\u000aNumber of\u2026
p273
aVRT @VTTreasurer: In addition to #equalpayday, we are excited to celebrate the birthday of Frances Perkins, 1st female cabinet member &amp; Sec\u2026
p274
aVEthan's Statement on this Week's Gun Legislation - https://t.co/ifAweXaLgQ
p275
aVThis is not the time for nicknames. It\u2019s the time for presidential leadership. For everyone\u2019s sake, Mr. President,\u2026 https://t.co/oGjmMU0xPd
p276
aVNo thanks. https://t.co/N9OuO3RxeV
p277
aV@christineforvt officially kicked off her campaign today. This campaign has officially gotten underway. Want to sig\u2026 https://t.co/H7bJIcclsx
p278
aV@JasonKander Well, if it helps, you\u2019re easily top ten on my list of contemporary politicians. #youngpeoplerepresent
p279
aVFact check: I was a Newman supporter but Lipinski endorsed Sanders in 2016. https://t.co/4IH6XWrioE
p280
aVRT @UVMDemocrats: Packed house at the Chittenden County Democrats meeting tonight! It was great to hear from gubernatorial candidates @chri\u2026
p281
aVThe NRA invited violence. Again. This time, though, they succeeded. It\u2019s time for a federal investigation into whet\u2026 https://t.co/r1d93En7H1
p282
aVRT @Ocasio2018: \U0001f3bc My platform brings all the votes to the yard: \U0001f3b6 \u000a\u000a- Federal Jobs Guarantee\u000a- Medicare for All\u000a- Tuition-free public colle\u2026
p283
aVYeah. Thanks for that by the way... https://t.co/egSTvfBJXG
p284
aVRT @KaivanShroff: Republicans don\u2019t think the Parkland teenagers are old enough to debate them, only to date them.
p285
aVWow, I actually agree with Anthony @Scaramucci https://t.co/NT7o0HUqTQ
p286
aVOk\u000a\u000a https://t.co/jjj6NQkzpl
p287
aVhttps://t.co/qEspXiQygn
p288
aVRT @AlexPadilla4CA: These places should be safe spaces, not war zones:\u000a\u274c Schools\u000a\u274c Concerts\u000a\u274c Shopping malls\u000a\u274c Movie theatres\u000a\u274c Places of w\u2026
p289
aVRT @nealgoswami: BREAKING: #VT Senate concurs 17-13 with House version of S.55, sends sweeping new gun restrictions to @GovPhilScott\u2019s desk\u2026
p290
aV@natalia5727 @CNN https://t.co/JB887JsiQK
p291
aVRT @CNN: Ethan Sonneborn is 13 and he's running to be the next governor of Vermont https://t.co/ulz7Nu40xs https://t.co/ssTwFIHAB4
p292
aVRT @VT_Dylan: Today we\u2019re honoring our student #vtleg Pages, who are concluding a 6 week term. I\u2019ve enjoyed seeing #vtpoli Gubernatorial ca\u2026
p293
aVRT @DaveZuckermanVT: RIP Frank Gaylord of Northfield Vermont. Veteran and sculpter who designed the Korean War Veterans Memorial. 93 yrs ol\u2026
p294
aVRT @Ryan_Deitsch: Glad to know that when I register my marriage, they will just take my wife.\u000a\u000a#Rev \u000a#MarchForOurLives https://t.co/xhpoW57\u2026
p295
aVRT @krassenstein: In 2016:\u000a\u000a70% of 18-29 year olds DID NOT vote\u000a60% of 30-44 yearolds DID NOT vote\u000a\u000aOnly 38% of 45-64% did not vote &amp; just\u2026
p296
aVFriends, we need you to make your voices heard. We have applied to be endorsed by @DFAaction . Express your support\u2026 https://t.co/N99OKO74EL
p297
aVRT @blazingxmexican: "Crazy Joe Biden."\u000a"Crooked Hillary."\u000a"Pocahontas."\u000a"Sloppy Steve." \u000a"Crazy (Matt Bai)" \u000a"Wacko (Steve Bannon)" \u000a"Dope\u2026
p298
aVTonight, Vermont took a major step towards making sure it never happens here. Mass shootings are a scourge on our n\u2026 https://t.co/bpM1k28X5E
p299
aVhttps://t.co/Gltz49kZe8\u000a\u000a@EhlersforVT @Christineforvt care to join me?
p300
aVCan we call the Nunes memo fake? https://t.co/TzNfQBgspn
p301
aVRT @Comey: Mr. President, the American people will hear my story very soon. And they can judge for themselves who is honorable and who is n\u2026
p302
aVDon\u2019t let Phil Scott forget this. Hold him accountable. https://t.co/e2GnNxzkRE
p303
aVRT @DonaldJTrumpJr: Kim Kardishian is getting a divorce, I can't believe I lost the office pool by betting the under on 3 weeks. Thought th\u2026
p304
aV#cleanmoney #fiscalresponsibility https://t.co/jPSuoPGRKW
p305
aVok https://t.co/S7TwN5dhF6
p306
aV@nealgoswami @wcax It\u2019s a neat spot. I agree with @jwalters7D though. I\u2019m more impressed with the inside of the dom\u2026 https://t.co/tJFi2flodV
p307
aV#deleonforsenate https://t.co/saUskPMlyJ
p308
aVRT @billmckibben: So, @IronStache, the guy who's running against Paul Ryan, just released his enviro platform:\u000a \u000aAn end to fossil fuel subs\u2026
p309
aVCharming. But seriously, @henrymcmaster , a young progressive will someday take your job. #nevertoored https://t.co/Hf3xUL4Q3Z
p310
aVHas @realDonaldTrump said nothing on twitter about PA?
p311
aVI\u2019m not sure you get what a projection is. https://t.co/3md95aw3KM
p312
aVRT @Redistrict: Projection: Barring a major tabulation error, Conor Lamb (D) has defeated Rick Saccone (R) in #PA18.
p313
aV@nytimes really interesting map. https://t.co/74uBEoAHD0
p314
aVRT @Redistrict: Lamb (D) up 1,238 votes w/ 96% of precincts counted. Of the 25 outstanding precincts, 18 are in Washington/Westmoreland Co.\u2026
p315
aVRT @amyklobuchar: Connor Lamb still ahead in Pennsylvania with 96% in (and then the absentee ballots)!
p316
aVI could really use some new info right now. Kind of in a panicked state.
p317
aVRT @galendruke: Imagine everyone's faces when they find out this district won't exist in 8 months...
p318
aVRT @Redistrict: Lamb (D) lead down to 2,493 votes (1.4%) w/ 87% of precincts reporting. The remaining precincts lean *slightly* Saccone. Th\u2026
p319
aVThe needle has lost this election.
p320
aVNothing from Westmoreland
p321
aVRough stretch over, Lamb is back to the advantaged position
p322
aVRT @Redistrict: Lamb (D) doing maybe a hair better than he needs to do in Allegheny precincts &amp; turnout pretty robust there. Saccone (R) do\u2026
p323
aVRT @FrankLuntz: Whatever the outcome tonight, #PA18 is an extremely bad omen for the @GOP.\u000a\u000aMake no mistake: It is a leaning Republican dis\u2026
p324
aVNYT says Saccone has 53% chance of winning
p325
aVDisagree on basketball, agree on special election. I\u2019ll settle for that. https://t.co/N6zjM1sSZU
p326
aVRT @pattonoswalt: Powerful ad for Conor Lamb. https://t.co/MCLAiehdir
p327
aVRT @IndivisibleTeam: \U0001f440\U0001f440\U0001f440https://t.co/xhlS6PIX7a
p328
aVRT @markdharris: Lamb just won a precinct in Bridgeville 2 to 1. Not a good sign for Saccone. This is the type of Allegheny community he sh\u2026
p329
aVRT @Redistrict: Just in...Scott Township 2-2 (Allegheny Co.):\u000a\u000a2016: Clinton (D) +9.2%\u000a2018: Lamb (D) +30.2%\u000a\u000aLamb is exceeding what he nee\u2026
p330
aVLamb up 18 but it\u2019s ridiculously early to make predictions
p331
aVLamb up 5 with 1% of precincts reporting
p332
aVPolls closed
p333
aVPolls close in just over half an hour!
p334
aVhttps://t.co/7ZcUs2UB8N?amp=1
p335
aVRep. Rachelson fights for progressive reforms every day. Donate and re-elect her! https://t.co/9Pvp9FeJHM
p336
aVCould put a damper on uninspired voters
p337
aVDaily Kos says turnout is high but it is snowing in the district.
p338
aVI\u2019m live tweeting PA-18
p339
aVRT @BenjySarlin: EX-EXXON TEXAN EXEC REX NEXT EX-SEC
p340
aVThis is an attack on democracy. #VoteThemOut https://t.co/vQiHZmbDv7
p341
aVShould I live tweet tomorrow\u2019s special election?
p342
aVEvery year @GiffordsCourage grades and ranks all 50 states on their gun laws. See how Vermont measures up\u2026 https://t.co/rpmWhcaww7
p343
aV@TheDemocrats , get real. No establishment Democrats will win our primary popular vote after the #2016 disaster. Yo\u2026 https://t.co/rX5zF6kcNU
p344
aVWe have a two day opportunity:\u000a\u000aWe just launched our https://t.co/929POLRqYZ page and we are doing a 2 day donation\u2026 https://t.co/YBXqtrCJcS
p345
aVRT @thehill: Poll: Dem candidate leads in key special election in deep-red district https://t.co/toaV9bjn9d https://t.co/vogiMh6NfF
p346
aVProbably the crown jewel of my career. @YoBenCohen https://t.co/vxJMS8zDcJ
p347
aVHappy #NationalWomensDay . Let's remember the strong women who have shaped our lives. We owe it to them.
p348
aVRT @april_mccullum: In a part of Burlington dominated by college students, more people voted in yesterday's mayoral race than in the 2016 p\u2026
p349
aV@UtMormonDemoGuy Jim Matheson
p350
aV@MiroBTV deserved the win. Keep fighting to make Burlington stronger! https://t.co/TDmAzqMeP4
p351
aVAnyone have info on BTV Mayoral?
p352
aVHappy #TownMeetingDay !\u000a\u000aA fantastic tradition in Vermont democracy. Vote tomorrow!
p353
aVThanks for serving Dave. We owe you a debt of gratitude. https://t.co/4LsFSBObfB
p354
aVyour roles would include circulating our petition, helping us scout event locations, and spreading the word about u\u2026 https://t.co/8kL2U6zF7o
p355
aVFriends, if you support our campaign and would like to see Ethan Sonneborn on the ballot for governor this August,\u2026 https://t.co/tASktv0gqh
p356
aVRT @PoliticalEmilia: He calls his rivals and other leaders names like:\u000aCrooked Hillary\u000aLittle Marco\u000aLyin\u2019 Ted\u000aPocahontas\u000aMr. Magoo\u000aLow ener\u2026
p357
aVRT @GeorgiaDemocrat: Thanks, but we have the whole \u201cpresidents building walls\u201d thing covered. \u000a\u000aRegards, \u000a\u000aGeorgia\u000a\u000a#SOTU #gapol #gadems ht\u2026
p358
aVRT @LawyersComm: This weekend marks the celebration of the anniversary of the march from #Selma to Montgomery. Thank you @repjohnlewis for\u2026
p359
aVThis is very, very, very, very, very, very, very, very, very, very, very bad https://t.co/4XyF8hFivT
p360
aVRT @selene_colburn: My fellow #librarians will be pleased to know that the #VT House is currently recessed, awaiting a definition of peer-r\u2026
p361
aVRT @SueMinterVT: Thank you VT Senate for making history today! https://t.co/clPX4DO8Om
p362
aVAll the undecideds at CPAC broke for trump!!!! Just kidding. It\u2019s CPAC. It would have been moderately impressive if\u2026 https://t.co/lzFhzYOUXk
p363
aVRT @RepSwalwell: You\u2019re shouting. https://t.co/SstuQzu2db
p364
aVRT @TheDLCC: BREAKING: @philspagnuolonh has won the special election in Belknap 3 for the New Hampshire House, flipping the seat from red t\u2026
p365
aVSeems like a legit, responsible purchase. 554,000 homeless people in this country. But having good china is importa\u2026 https://t.co/OU7xV7ELn8
p366
aVRT @StewartMyNBC5: Rubbing elbows with the political establishment, a 13-year-old has no shortage of ambition. #vtpoli \u000a\u000ahttps://t.co/YkuqD\u2026
p367
aVRT @electgarrick: The Arizona member of the #FreedomCaucus that I am running against, @RepDavid went on the air today to say that banning a\u2026
p368
aVRT @brianschatz: Hey maybe we should ask the teachers and the students what they want, and then do that.
p369
aVRT @Indivisible_MRV: We need to #flipRedtoBlue in Vermont, too. https://t.co/zH81ZOE20P
p370
aVYes. Unequivocally yes. No hesitation. Yes. https://t.co/xDRrGOu0VR
p371
aV@gowithgibbs
p372
aV@GovPhilScott answer your constituents. https://t.co/1RjVKHJ419
p373
aVRT @dtanner2194: Well damn folks, it\u2019s looks like we have ended racism https://t.co/xHEsRhqOX6
p374
aVRT @SethMacFarlane: 2 observations from CNN town hall: 1) Holy hell, Rubio looked scared of that kid.  And 2) Somewhere, there are 101 pupp\u2026
p375
aVRT @KikkiPlanet: CNN\u2019s Blitzer to Student: \u201cCameron, what do you say to conspiracy theorists who say you\u2019re paid actors?\u201d \u000a\u000aCameron: \u201cHad t\u2026
p376
aVBecause they supported you... https://t.co/8Xn5r8WjEX
p377
aV#BlueTsunami2018 https://t.co/eLS5XHcxaY
p378
aVhttps://t.co/wi1mQDnr2i\u000a\u000aI got to witness part of this. America is awake and we are fed up with #nracongressmen
p379
aVRT @jules_su: CONSERVATIVES: What could have motivated these kids to speak out against gun violence!?\u000a\u000aKIDS: We watched our friends get sho\u2026
p380
aVHey @JasonKander , you like young people in politics? Boy have I got a story for you! https://t.co/3imj67wZtt
p381
aVHow can Donald Trump get his approval ratings up? Attack a beloved public figure with a non partisan base of fans. https://t.co/8o1CNsKySV
p382
aVRT @Susan_Hennessey: It's not a partisan defect. George W. Bush once quietly stood in a hospital and allowed a wounded solider's mother to\u2026
p383
aVRT @brianschatz: Young people are going to lead the way. They always do.
p384
aVRT @JasonKander: Today, in a room full of kids, a brave young man stood up and, holding back emotion, told me he\u2019s afraid to go to school.\u2026
p385
aVRT @schoolwalkoutUS: On Friday, April 20th we want students to attend school and then promptly WALK-OUT at 10:00 am. Sit outside your schoo\u2026
p386
aVRT @tedlieu: Can a one frame, hand-drawn cartoon make you cry? If there is one, this is it. https://t.co/Pc4jrpX3BG
p387
aVRT @JasonKander: To the quiet professionals in the American intelligence community doing their best to protect democracy, please know you\u2019r\u2026
p388
aVRT @nealgoswami: America -- where the Michigan-born, former governor of Massachusetts can run -- and almost surely win -- a Senate seat in\u2026
p389
aVRT @ACDCVT: One must wonder why @GovPhilScott is so eager tp spend money on a prison, yet mandate cost cutting measures on cash strapped sc\u2026
p390
aVLet\u2019s not pray. Let\u2019s fight. I\u2019m angry and you should be too. How many more? I\u2019m done being oblivious to this epide\u2026 https://t.co/VU8XMOIDl7
p391
aV#teamadam https://t.co/ImfFYPMBWY
p392
aVThanks to the #putneyhuddle for the invite! Great discussion with dedicated activists. https://t.co/sbFntavSPp
p393
aVRT @UVMDemocrats: Today\u2019s #VTPoliSpotlight is on the Vermont Senate President pro tempore @TimAsheVT! A UVM alum, Ashe has spent the last 1\u2026
p394
aVRT @IronStache: Veterans don\u2019t want to see a multimillion dollar parade. We want to see our Commander-in-Chief honor our sacrifice.\u000a\u000aHe cou\u2026
p395
aVLet\u2019s do this! Legislatures and local offices all across the country are the building blocks of our country.\u2026 https://t.co/xNNWXnIkGo
p396
aVThank you @DeptofDefense . I knew that James Mattis would gain some courage! Next up a brain for Donald Trump and a\u2026 https://t.co/TOMJ9rm5P1
p397
aVThanks John, gotta say though, you\u2019re no slouch in the writing department. https://t.co/mnRS7Ngv2F
p398
aVRT @NellieTeaches: I'm trying to show my students how quickly information can be shared across the web. PLEASE LIKE/RETWEET  IF YOU SEE THI\u2026
p399
aV@RSPavek I\u2019m glad you were able to fight this battle successfully. And it is beyond inspiring to see you helping ot\u2026 https://t.co/BBSwiDVkBd
p400
aVRT @jackrvickers: In his first campaign, a 27-year old Anheuser-Busch employee won in a district that Trump won by 32 points, defeating a R\u2026
p401
aVRT @funder: .@SpeakerRyan must #RemoveNunes as House Intel Chair immediately. Everyone who retweets this agrees.
p402
aV@SenatorCP Thank you Senator!
p403
aVRT @SenatorCP: We passed a #NetNeutrality bill today in the Senate. It replicates the executive order signed by governors in MT &amp; NY. https\u2026
p404
aVAfter lots of introspection, I have decided that Burlington needs a proven and consistent leader. A bold and forwar\u2026 https://t.co/lm53Yzr2N2
p405
aVWhen will the GOP stop nominating Todd Akin to challenge Claire McCaskill\u000a\u000aMcCaskill challenger links human traffic\u2026 https://t.co/MRGGEPsvFe
p406
aVToday\u2019s statement on @dave_ceo_vec https://t.co/hYyB1SpBSb
p407
aVWelcome to the race @dave_ceo_vec \u000a\u000aA press statement will go out tomorrow\u000a\u000aHere\u2019s to competitive elections!
p408
aVRT @StephenAtHome: Somehow, Trump will claim that there were more people in the room for his State of the Union than Obama's.
p409
aV#teamkennedy
p410
aVRT @ForecasterEnten: Since Carter, the average net change in a president's approval rating between before and after the SOTU is 0 points.
p411
aVRT @AbdulElSayed: Jay Z. John Lewis. Jemele Hill. Khizr Kahn. LaVar Ball. Colin Kaepernick. Frederica Wilson. Doesn't it seem like Presiden\u2026
p412
aVThank you @CecileRichards for inspiring a generation of women. We owe you a debt of gratitude for protecting reprod\u2026 https://t.co/wgXGV3IK1t
p413
aVhttps://t.co/Y0SYLzyC0R
p414
aVRT @NathanHRubin: CNN employees faced a threat of mass murder yesterday, and the man arrested said he wanted to kill the \u201cfake news\u201d journa\u2026
p415
aVhttps://t.co/wtKhyWn6uc\u000a\u000aYikes. Sen. Booker has a classic uncomfortable, uncertain response.
p416
aVWe want to hear from the public! Take our poll. Whether you support us or @EhlersforVT . Vote!\u000a\u000ahttps://t.co/fD6wpaSeSu
p417
aVhttps://t.co/lLFtrfyBM6\u000a\u000aHonored to speak. The resistance is not over!
p418
aVRT @DaveSilberman: \u201cWhile cursing under his breath\u201d https://t.co/N6tpr14cTE
p419
aVRT @JaneLindholm: BREAKING: Vermont's republican governor claims Vermont has "the best local food, beer, cheese and maple syrup in the worl\u2026
p420
aVI\u2019m disgusted. We need a new path for our legal system. #crimininaljusticereform https://t.co/z8hJeQGzih
p421
aVRT @tomforutah: Today, politicians give lip service to Dr. King while ignoring the causes he fought for. When the President sides with whit\u2026
p422
aVYou know things are tough here when a democratic politician retweets Bill Kristol https://t.co/4FvJMwlNAQ
p423
aVRT @repjohnlewis: If Dr. Martin Luther King Jr. was preaching today, he would be speaking the idea that we are one people, one family, one\u2026
p424
aVI like how he accuses democrats of being self serving when he literally, by his own admission, ran for president to\u2026 https://t.co/WcA7QAjpdU
p425
aVMartin Luther King is an American icon and hero. I aspire to one day have contributed half of what he did to this b\u2026 https://t.co/p43Y5z6SJb
p426
aVRT @AhmedBaba_: Hey @realDonaldTrump\u2014El Salvador, Haiti and African countries aren't shitholes.\u000a\u000aBoth my parents came to America from West\u2026
p427
aVI\u2019m proud to support #legalization
p428
aVRT @PreetBharara: Pardon me? https://t.co/Yn34hlFFgs
p429
aVRT @tonyposnanski: There is a leader who is like a stable genius who is extremely educated,self made billionaire, television superstar, and\u2026
p430
aVRT @mviser: Steve Bannon is, among other things, calling the president\u2019s son \u201ctreasonous.\u201d\u000a \u000aPresident Trump says his former top adviser ha\u2026
p431
aVDonate before midnight! We need you to fuel a true progressive movement in Vermont! \u000a\u000ahttps://t.co/Ziy6rpSqWW
p432
aVRIP Erica Garner \u270a\U0001f3fb\u270a\U0001f3fc\u270a\U0001f3fd\u270a\U0001f3fe\u270a\U0001f3ff
p433
aVRT @justicedems: Erica Garner's death is a painful reminder that Daniel Pantaleo\u2014police officer who choked Eric Garner to death, still has\u2026
p434
aVCongratulations Isaiah. You truly are what this campaign hopes to make more young people. Engaged, conscientious ,\u2026 https://t.co/W1NwY4YkKu
p435
aVRT @elizabethforma: I\u2019m going to say something really crazy: I believe in science. Climate change is real and we have a moral obligation to\u2026
p436
aVRT @thehill: WATCH: Biden consoles Meghan McCain over father's cancer diagnosis https://t.co/cnGWmlIfeQ https://t.co/Kx3EunKbVQ
p437
aVRT @BernieSanders: Congratulations to @GDouglasJones for his great victory.Congratulations to the people of Alabama for doing what few th\u2026
p438
aVRT @tomperriello: It\u2019s a miracle - a lifelong public servant who has dedicated decades of his life to fighting for justice and fairness for\u2026
p439
aVRT @SenatorHassan: Hot DAMN
p440
aVSo big day for me as a Jewish democrat... Happy Hanukkah and go Doug Jones!
p441
aV@JasonKander @Majority54 Illegal immigrants hurt the economy
p442
aVWe need a real discussion. At home in Vermont and across the nation. Let\u2019s stand together and say no, say that we a\u2026 https://t.co/D1YuU8aXnJ
p443
aV\U0001f44f\U0001f44f\U0001f44f https://t.co/Jt2rTHurY8
p444
aVCome find us at #middnightstroll tonight!
p445
aVGroups like @IndivisibleVT are helping Vermonters fight back against hatred. I hope you\u2019ll stand with me and applaud them.
p446
aVRT @RSPavek: .@GovPhilScott, your Public Safety Commissioner said safe injection sites "send the wrong message, at the wrong time, to the w\u2026
p447
aVResist! This tax plan is morally reprehensible. There is no precedent for raising taxes on the middle class in orde\u2026 https://t.co/VB95WDoOWh
p448
aVRT @brianschatz: After careful consideration I\u2019ve decided to support this bill. Just kidding I haven\u2019t read it yet because it doesn\u2019t exist\u2026
p449
aVThanksgiving gives us an opportunity each year to find silver linings to things that scared, shocked or disappointe\u2026 https://t.co/WFTgHexWBD
p450
aVFun... https://t.co/LvDxU3F5gG
p451
aVLet\u2019s go UVM! https://t.co/jf1JmXXRYd
p452
aVI am Senator. I am. https://t.co/nIPasqiELY
p453
aV@readergirl Thank you for your support! Which cousin? You can donate below. https://t.co/4J0R1JxrNH
p454
aVRT @funder: RT if you\u2019d #VoteNortham if you lived in Virginia.
p455
aVThis tweet has not aged well. Action, not prayers for Texas. https://t.co/TeMnHokio3
p456
aVDarn! That pesky justice system is stopping us from torturing indiscriminately! We use a court system in America. Y\u2026 https://t.co/RCBTq3lyL4
p457
aVSad news. Sen. Flanagan was a champion for everyday Vermonters. https://t.co/pIyPTRtijz
p458
aV@HilaryShen The State AGs Office said that my campaign is legal but that the legislature can change the law.
p459
aVThank you @ACLU ! https://t.co/FB7HauohRo
p460
aVShould the legislature ban children from running for office?
p461
aVhttps://t.co/q6xRRQQDgf\u000a\u000aFriends, we have overcome a major challenge to our campaign. But the fight\u2019s not over! Tell your reps #nokidban !\U0001f1fa\U0001f1f8
p462
aVI demand justice for Rosamaria Hernandez. A ten year old girl with cerebral palsy who happened\u2026 https://t.co/JR8aQpXuNH
p463
aVHow so? Name a way in which James Comey helped HRC at all. I\u2019ll wait. https://t.co/uvxn6aAPlP
p464
aVBorders are a concept. They can\u2019t produce physical things. https://t.co/CjA83I3QIB
p465
aVWait. so you\u2019re tweeting a poll that says a majority of Americans think you\u2019re lying? https://t.co/qeTQ3q7WG0
p466
aVTwitter: Ethan here, tonight I\u2019ll take some Trump tweets and disprove them! Tune in!
p467
aVNo... I mean... just no... that\u2019s objectively incorrect. https://t.co/nr7ulb1Frh
p468
aVWhat about slavery? https://t.co/APNbpzlRQ5
p469
aVPuerto Rico IS our responsibility. They don't want, "everything done for them" they want the same compassion that Texas and Florida got.
p470
aVWe need to take on discrimination in our state. Real change and holding cops to real standards. #ethan2018 https://t.co/4hDViDqsCI
p471
aV@BeckImpact Thanks for the support! I'm actually pro legalization! I just don't think people should be using it while it's still illegal.
p472
aVhttps://t.co/pXuowpaVjR\u000a\u000a@Cris_Ericson you also shouldn't be high to run for office
p473
aVRT @SenSanders: No Mr. President, providing health care to every man, woman and child as a right is not a curse, it's exactly what we shoul\u2026
p474
aVWe need a governor who will fight the opiate crisis. I have witnessed the opiate crisis among young people in person. I'm ready to fight.
p475
aVRT @AnchorageDSA: [I lean forward and put my lips on the microphone]\u000a\u000a"The rich." https://t.co/gpEaRhgzwS
p476
aVRT @mcquiston: Vermont gets $9.9 million federal grant for substance abuse and mental health services https://t.co/m8V9Qn1yDn
p477
aVRT @NARAL: Sexism is alive &amp; well in the US House. @RepJayapal was just called a "young lady" who "doesn't know a damn thing." She's a CONG\u2026
p478
aVKeep donating! We need your support to protect Vermont Values!... https://t.co/ASn06wuS0b
p479
aVWe MUST protect Dreamers. This is an attack on American Values and we must fight back against this disastrous decision.
p480
aVhttps://t.co/NjXLgz8YGk
p481
aVRT @MarkWarner: Retweet if you agree it\u2019s time for Congress to vote on the DREAM Act. #ProtectDREAMers
p482
aV@SamuelA71459883 How is that relevant?
p483
aVWe have a lot of exciting events coming up! https://t.co/crRDyM42kM
p484
aVGreat new logo! https://t.co/HmmKTnPKdD
p485
aVI'm raising money for Ethan Sonneborn For Vermont 2018. Click to Donate:  https://t.co/dqtHHD5v7L via @gofundme
p486
aV@peplamb @realDonaldTrump Yep. You speak for god in all matters always.
p487
aVIt's official. I'm running for governor of Vermont. I'm in to win and I hope you're in with me.
p488
aVMaybe I'll run for the State Senate. Vermont doesn't have Age restrictions.
p489
aVHere's a pleasant distraction from the storm destroying government ethics.\u000a\u000a #NationalIceCreamDay
p490
aVNo Donald, you can't have my country.
p491
aVPeople are tired of republicans dirty tricks. This guy knows what's what! #support https://t.co/0wM31fMYV9
p492
aVRT @FoxNews: Forty-eight years ago today, the #Apollo11 mission blasted off to land the first humans on the moon. https://t.co/DYLvw9MgRd
p493
aVNo one is above the law. #jaredkushnerforprison
p494
aV5 ways the Trump administration is undoing Obama\u2019s student loan legacy https://t.co/FCfSXFVn4r\u000a\u000aFascinating. Protect students, I dare you.
p495
aVGlad to hear @SenJohnMcCain had a successful surgery, get well soon!
p496
aV@SpeakerRyan Then stop cutting their funding.
p497
aV#killthebill ! @realDonaldTrump doesn't know healthcare. Upsetting.
p498
aVAmerican values are not stripping LGBT families of their rights, they're protecting everyone regardless of who they are.
p499
aVHealthcare for poor and minority Americans is non-negotiable. Period.
p500
aV@POTUS can't keep his story straight on the um... travel, no muslim, thingy majig
p501
aVJust setting up my Twitter. #myfirstTweet
p502
a.