(lp0
VAddie hit me with a "lightsaber" made from pool noodle. \u000a\u000aI told her to give it to me.\u000a\u000aShe said, "let's make a dea\u2026 https://t.co/M1l3qxDYvz
p1
aVMr. Stivers should be the future of the Republican party. I'm really interested in finding partners who will condem\u2026 https://t.co/ILJWNvaWi5
p2
aVRT @BeanPhilosopher: Dear @LidlUS \u000a\u000aMy name is Bean. I eat peanut butter and jelly English muffins for three meals a day. \u000a\u000aBack in Februar\u2026
p3
aV@gregcybulski Sounds like a horrible idea. One bad movie pick is hardly reason to subject myself to that.
p4
aVWatching The Mummy. Never thought I'd say this: the Brendan Fraser version was better than the Tom Cruise one.
p5
aVRT @JKCorden: I can\u2019t stop watching this. https://t.co/7GVvCLKR6M
p6
aVI think I might spend the fall of 2020 in Maine.
p7
aVBeto would have voted no. #novemberiscoming https://t.co/GiMugus4y9
p8
aVI think you created a hashtag, Delegate. #novemberiscoming https://t.co/GScvDGRexk
p9
aVRT @JoeNBC: Exploding deficits, record debt, a refusal to save entitlements, justifying behavior they once found impeachable, the undermini\u2026
p10
aV@JD_Grom And this is not counting what happens to borrowing costs because of both the ballooning debt and interest rate raises
p11
aVRT @SteveSchmidtSES: Riddle me this. If someone is lying (https://t.co/RoJWRckYLb)and they know that lying to the FBI is a crime, why would\u2026
p12
aVShe's not wrong https://t.co/7GdrdeOcnP
p13
aVI just offered my daughter two pieces of chocolate in exchange for finishing her dinner. She said, "Three chocolate\u2026 https://t.co/BnCzGPcwbH
p14
aV.@espn that's not a halftime show. It's a music video you showed at halftime.
p15
aVFinally saw @deray on @SarahKSilverman and amazed at how simply he expresses the moral imperative to respect the autonomy of all people.
p16
aVDarnold had a great night. Who knew the guy from Pitch Perfect could play football??
p17
aVRT @FairfaxJustin: My barber (just now):  \u201cThank you so much for breaking those ties to expand Medicaid!  Now, me and my mom will qualify f\u2026
p18
aVRT @bridgescoffey6: Help me out... https://t.co/maAC4rKMwF
p19
aVRT @rsg: I just gave the maximum allowed donation to Jennifer Lewis, a democrat running for my father's congressional seat. I've also gotte\u2026
p20
aV@JD_Grom @JDVance1 I'd like him to point to one of Kavanaugh's decisions in which the Constitution and the well con\u2026 https://t.co/AX4bYCMLwX
p21
aVRT @MichelleObama: .@BarackObama and I are so proud of @KingJames and @IPROMISESchool. Kids in Akron and across the US are lucky to have yo\u2026
p22
aV@MEPFuller like butter with these rebuttals https://t.co/cObh0eI05f
p23
aVHow is anything that involves sexual penetration not rape???  https://t.co/ViNrjaY792
p24
aVRT @NBDabrowski: The future is female. \u270a\ufe0f\u000a@SpanbergerVA07 @ElissaSlotkin @janasanchez &amp; @HoulahanForPa, rockstar @VoteNewDems candidates, t\u2026
p25
aVRT @andyflick: November can\u2019t come soon enough! Thrilled to hear from four amazing servant leaders and future Members of Congress at #Oppor\u2026
p26
aVLooking at you @DanaRohrabacher
p27
aVIf you're a Republican, and you're worried about an investigation performed by a white guy named "Robert Mueller, I\u2026 https://t.co/B5utf8Fj6w
p28
aVRT @NBDabrowski: "While only a minority of candidates endorsed by progressive groups like Justice Democrats and Our Revolution had won thei\u2026
p29
aV@Lawrence Not really. Neither candidate competed for this, and it's a group that started out preferring her
p30
aVRT @LarrySabato: Protests, fine. Voting, even better. Things that shouldn\u2019t be said by activists anywhere: \u201cWe know where you live.\u201d \u201cIt\u2019d\u2026
p31
aVChalk one up for democracy. Finally.
p32
aV@ProfBrianKalt More important than teaching me torts?!?
p33
aVRT @HouseNewDems: #NewDems released Closing the Skills and Opportunity Gaps, the first in a series reports focused on expanding opportuniti\u2026
p34
aVRT @mikemullin4VA: This may be the most consequential thing I do in my life.
p35
aV@JD_Grom @El_Marrrr Isn't it one of those bags that will charge your phone?
p36
aVLongest beard a Caps player has ever had
p37
aV@hyasmeenh https://t.co/5IvMuM5uTR
p38
aVRT @ericawerner: Barney Frank says the Dodd-Frank rollback bill passing House today leaves his signature law largely intact -- and falls sh\u2026
p39
aVI'm not one to get into royal wedding stuff, but an African American minister just quoted MLK and talked about love\u2026 https://t.co/YEhJfm9HC1
p40
aV@JD_Grom @YouTube I really hope you're clothed at our 10 am
p41
aV@EpicureanDeal Maybe Van Delay Industries?
p42
aV"Do you want to feed your doggy?"\u000a"Feed Gus, daddy."\u000a"Feed Gus, daddy please."\u000a"Feed Gus, daddy. Now."
p43
aVSee this excerpt from the conservative The Economist. And what if you're the richest country in the history of the\u2026 https://t.co/o9v1xnllAH
p44
aVRT @matthewjdowd: As i said on @ThisWeekABC to give some perspective: \u201cBenghazi was a 4 year investigation, there were zero indictments. Th\u2026
p45
aV@MEPFuller Who's Bright Eyes?
p46
aVRT @RepBillFoster: #ThankYouCecile for your devotion to women\u2019s health care and well-being. Your work has been instrumental to countless of\u2026
p47
aV@KatyTurNBC I mean, she's not wrong
p48
aVRT @jonathan_smith: Anyone who remembers his time as Governor knows that he\u2019s a disgusting bully. Totally wrong choice for the job ahead of\u2026
p49
aVThey probably data-mined the hair and suit combination most likely to appear sympathetic to the American public. https://t.co/e27ooSHi2O
p50
aVRT @jonathan_smith: General Motors sells more cars in China than it sells in the US. The $2 billion in profits GM made in China in 2017 wen\u2026
p51
aVImpeachment is not a vote of no confidence https://t.co/7VBdeliQH2
p52
aVThis isn't courage https://t.co/yxyC7jHzyq
p53
aV@MsPackyetti The vast majority of children deserve better, irrespective of race. But you're right that we fail blac\u2026 https://t.co/MIAcuz7Azx
p54
aVI hear the lights are real bright there. \u000a\u000aGiancarlo Stanton strikes out 5 times, hears boos in Bronx debut\u2026 https://t.co/B83nZnkWTz
p55
aVRT @pptsapper: For Confederate Heritage Month, here's Virginia-native General Winfield Scott, senior officer in the US Army at the outset o\u2026
p56
aVRT @petridishes: I Am Sick Of These Kids Demanding Safe Spaces https://t.co/9OekSomGMc
p57
aVRT @HouseNewDems: Last week, the Financial Services Committee passed @RepBillFoster's  amendment to make the Volcker Rule more effective. I\u2026
p58
aVRT @JD_Grom: Hot off the presses. Meet the 16 candidates just added to the @VoteNewDems watch list.  https://t.co/AI4oDdPA4Q
p59
aVOh it was crayons, not creations
p60
aVMy daughter is counting her creations and she counted the orange one twice. She could be Director of OMB!
p61
aV@JD_Grom This is the state party that lost in the state supreme court and their first thought was to impeach the justices
p62
aVEverything about today feels like a Friday
p63
aVRT @newtgingrich: Robert Mueller is superb choice to be special counsel. His reputation is impeccable for honesty and integrity. Media shou\u2026
p64
aV@BrittMVan Autonomous vehicles will cruise through the intersection
p65
aVSometimes capitalism just works. #BoycottNRA
p66
aV.@crookedmedia @jonlovett @jonfavs @TVietor08 you guys have to stop pushing https://t.co/jVjtdrQCkc or we'll run ou\u2026 https://t.co/wNQXDviBjy
p67
aVRT @morningmoneyben: Boomer playbook: smoke some pot, get inexpensive college educations, buy inexpensive homes, repeatedly blow up economy\u2026
p68
aV@JD_Grom @jonathan_smith #getoffmylawn
p69
aV@JD_Grom It doesn't matter what period of time we budget for unless the budget becomes a serious product instead of\u2026 https://t.co/MvD67PSUi0
p70
aV@JD_Grom Might be a better fit for him. Not sure about markets and investors
p71
aV@JD_Grom @jonathan_smith And hockey
p72
aVMy colleague and friend, Ernie Jolly, wrote this excellent piece on why the Administration's immigration proposal i\u2026 https://t.co/ArRhiKRtWm
p73
aV@Mary_Werden @JD_Grom @El_Marrrr @NBDabrowski @HouseNewDems No minions allowed next door
p74
aV@jonlovett And the tax bill would have cut Medicare if they hadn't waived PAYGO
p75
aV@micahcohen @danpfeiffer Seems like a typical comms/policy shop wedge issue
p76
aVRT @PreetBharara: Bipartisan proposal to bring the country together: SOTU speeches should be 18 mins max
p77
aV@RalstonReports Classier than lying about immigration law
p78
aVIf you've made Nazis happy, you're not doing it right. In fact, you're doing it almost exactly the opposite of the\u2026 https://t.co/UbsY216Qb7
p79
aVI'm not reading this because I'm president.... https://t.co/jwK6dFsKm2
p80
aVIn a sign of what 2018 holds, my almost two-year old toddler is walking around the house saying "no" to nothing in particular.
p81
aVSpend your money electing Democrats instead of putting up ads targeting the base advocating for something many of t\u2026 https://t.co/FfFx1ZIGjf
p82
aVRT @jonlovett: If aliens happen to land now and the president they meet is Donald Trump I'm going to be so pissed.
p83
aVTo those who say both sides do it: one side respects the rules and the other does whatever it wants. If you care ab\u2026 https://t.co/zvOR2fIykI
p84
aVRT @KamalaHarris: Doug Jones should be seated immediately \u2014 before we vote again on the tax bill. Alabama voters deserve to have their voic\u2026
p85
aVRT @petridishes: huh weird based on everything we\u2019ve seen I would have expected Roy Moore to take \u201cno\u201d immediately and respectfully for an\u2026
p86
aVRT @CAPAction: .@Bakari_Sellers: "African American voters, particularly black women, are carrying the load for the Democratic Party again.\u2026
p87
aVRT @deray: Black folks elected Doug Jones. FYI. #AlabamaSenateElection https://t.co/CErgK6eOeI
p88
aVSettles the question of whether the big present is the first or the last night of Chanukah https://t.co/fdVwMdMoCb
p89
aV@Mary_Werden https://t.co/hsa0FbEAOc
p90
aVRT @leedrutman: Hot take: whatever happens tonight, the fact that Alabama (population 4.8 million) and California (population 39.3 million)\u2026
p91
aVRT @RepGwenMoore: Another #RoyMoore supporter just called my office posing as an @AP reporter. \u000a\u000aOnce their cover was blown they started sc\u2026
p92
aVRT @chucktodd: Sometimes I swear this entire year as been some liberal\u2019s parody of how they think some on the right would act. https://t.co\u2026
p93
aVRT @RepBillFoster: All the more reason the GOP tax plan should not eliminate tax exempt bonds used to build affordable housing. We need tax\u2026
p94
aVRT @renato_mariotti: No, we\u2019re afraid you\u2019ll take pedophilia to Washington. https://t.co/Zoq99JDZRB
p95
aVRT @RepBillFoster: This report has deeply troubling implications for our country\u2019s reputation as a leader in #science and innovation. It\u2019s\u2026
p96
aVRT @dashching: A running list of recent statements from GOP leaders making clear that tax cuts for the wealthy are just a prelude to cuttin\u2026
p97
aVAnd there's reason to believe he has fewer Russian bots following him @AlyssaMastro44 https://t.co/R68TLQkVeT
p98
aVRT @Austan_Goolsbee: Oh, for the love of God. https://t.co/5nBkRLrXOn
p99
aV@PlayStation why is my PS Vue NBC broadcast for Sunday night football in Spanish?
p100
aVRT @AlyssaMastro44: all the high-fiving feels there are to feel @PPact @NARAL @emilyslist \u270a\U0001f3fc\u270c\U0001f3fc\U0001f4aa\U0001f3fc https://t.co/ALu8Z0Wd86
p101
aVRT @dataeditor: And she beat a 12-time incumbent who authored the state's bathroom bill. https://t.co/sQWoJ1BAaU
p102
aVRT @JohnDingell: Can\u2019t believe we\u2019re almost a year into Infrastructure Week.
p103
aVRT @RalphNortham: I served 8 years in the Army, took care of sick kids, and am running to build a more inclusive Virginia. Don't talk to me\u2026
p104
aV.@AlexVASheriff please ticket this truck parked on Duke at Dangerfield during morning rush hour https://t.co/SciUVur17B
p105
aVRT @RepBillFoster: As the only PhD physicist in Congress, I know that any attempt to throw away the #IranDeal will make our country less sa\u2026
p106
aVDear iPhone, I'm never typing "ducking"
p107
aVWhy does Daniel Tiger have to have a royal family? This is America
p108
aVAnd this is what the House majority is taking about today. https://t.co/hs3YO2ZWat
p109
aVRT @chucktodd: If DoJ media source threat is real (I assume it's not; just a show presser to please WH) then I look forward to ignoring tha\u2026
p110
aVRT @RepBillFoster: On the day of #holocaustremembrance, we are reminded of all the refugees who seek safety in our country and our commitme\u2026
p111
aVRT @RepBillFoster: .@newtgingrich Congress w/o knowledge is incompatible with governing. CBO is critical just like Office of Tech Assessmen\u2026
p112
aVRT @pschefsky: @realDonaldTrump https://t.co/rUV90diKkG\u000aMr. President Elect, address this.  Now.  Publicly.  On Television.  Stop it.  Only\u2026
p113
aV@BGcanes he went outside with us and is living the dream. http://t.co/KESv3XnV6w
p114
aV@morningmoneyben @fivethirtyeight wrote about why those people get on TV: hedgehogs!
p115
aVRT @Slate: In the days ahead we should all bear in mind the wise words of Uncle Ruslan--VIDEO: http://t.co/2eJzMo4emi
p116
aV@Socially_Gold @BGcanes this is the only evidence I have anyone ever sees my tweets
p117
aV@BGcanes we can move down 95 as long as we don't stop until we hit Miami
p118
aV@BGcanes we obviously can't move there since you seemingly don't know where it is!
p119
aV@BGcanes that is not on 95
p120
aV@BGcanes we live in DC; this is the burbs. Time to move to the city up 95.
p121
aV@BGcanes no way
p122
aV@ReidKSmith I'd agree that at some point the incremental benefit of an increase in minimum wage is less than the incremental cost
p123
aV@ReidKSmith More than 2 variables to consider. Think about the consumer spending increases from higher wages at the bottom incomes
p124
aV@ReidKSmith I'm not saying there isn't an inflection point, but I'm not pretending to know what it is. Hopefully debate is about that
p125
aV@ReidKSmith The underlying assumption being that the market has accurately priced current output, which is where we disagree on larger level
p126
aV@ReidKSmith The argument is that increases are good as long as the incremental cost isn't too great, which it would be at that extreme
p127
aV@ReidKSmith Are you saying it must be a linear relationship ad infinitum if we're to believe an incremental increase could be good?
p128
aV@JoeNBC What made it weird was his eyes never left the camera, like it was part of the show and he was endorsing Poland Spring
p129
aVRT @RalstonReports: Guns: "Each of these proposals deserves a vote in Congress. If you want to vote no, that\u2019s your choice." Ah, subtlety.
p130
aVRT @dccc: RETWEET: #ShameOnCantor for blocking VAWA. Sign our petition --&gt; http://t.co/WovZFkjZ
p131
aVRT @LOLGOP: If you're more afraid of teachers with collective bargaining rights than guns, cancel basic cable.
p132
aV@johnkingcnn I think you pointed at only the WWII Memorial when you said people were all the way back on the steps of the Lincoln Memorial.
p133
aV@dcbigjohn you really are at the House GOP retreat
p134
aV@Zatkoff1Nicole don't know what that is, but it can't top the perfect game in For the Love of the Game, right @BGcanes?
p135
aVYou win the Triple Crown, you take the cover. @MiguelCabrera for @MLBTheShow cover.  #MLB13Cabrera
p136
aV@amaeryllis who would have standing to stop it or challenge the law?
p137
aVI'd take the over on the average age on this flight to Tucson being 65.
p138
aVThe free market's efficient allocation of resources: "@AP: $2 billion price tag for presidential election: http://t.co/Bh0MNX6y -CC"
p139
aV@dcbigjohn @mckaycoppins I don't think they can all be mayor
p140
aVRT @TheFix: I admit it: I love political props. The president has an ACTUAL pen!!!!
p141
aVRT @HuffPostPol: Obama: "On Tuesday night, we found out that a majority of Americans agree with my approach" http://t.co/IUGeYrc5
p142
aV@ReidKSmith That's why the President said he wanted $2.50 in spending cuts for every dollar in new revenue. No one-sided solution is good.
p143
aV@ReidKSmith I know your feelings on the issue, but spending is only one side of the debt. Why should Ds talk spending but Rs ignore revenue?
p144
aV@ReidKSmith That's fair, but many voters care about the fact that the median income for women trails that of men across the country.
p145
aV@ReidKSmith This is why there's a gender gap: "issues like equal pay and big bird." You know, the trivial stuff.
p146
aV@HuffPostPol A feeling with which she is quite familiar.
p147
aVRT @Slate: RT @amandamarcotte: Nate Silver's critics last night: http://t.co/eKIAux8x
p148
aVRT @chrisrock: No jokes I'm just happy my girls get to grow up in a better world than I did. .
p149
aVRT @chrislhayes: I thought it was going to be a much later night.
p150
aVRT @chucktodd: It took Barack Obama exactly 12 minutes longer to win a second term this year. We called it at 11pm in 2008. And at 11:12 ...
p151
aV@zerohedge A market he couldn't manipulate?
p152
aVRT @chucktodd: Not sure there is a major swing county in a battleground state that Obama isn't carrying: Hillsborough (FL), Loudoun (VA) ...
p153
aVTodd Akin digging in on the losing message. I guess why stop now?
p154
aVRT @LukeRussert: Man flatlines at polling place, brought back to life, first thing he wants to do is vote: http://t.co/R3EQnWDm That's d ...
p155
aV@LukeRussert But how does that affect the election???
p156
aVRT @repsandylevin: Michigan polls are open until 8 p.m. Find out where you vote here: https://t.co/uQTc2mW5
p157
aVRT @anamariecox: Ads include: American Crossroads, gold, catheters, "get restaurant tortilla bowls at home!" This is a very specific dem ...
p158
aVRT @Slate: Saying nice things to businessmen and not hurting their feelings has nothing to do with economic growth: http://t.co/l7ZL8mU0
p159
aVRT @zerohedge: There has to be some SEC limit on how one can go "activist" using call options as a basis
p160
aV@BGcanes has never seen Arrested Development. I knew something good would come of #SandyDC
p161
aVRT @venice4change: AMAZING PHOTO: Even a hurricane won't keep the honor guard from the Tomb of the Unknown Soldier this morning.  #Sandy ...
p162
aVRT @ReidKSmith: Bout damn time one of the fatties woke up. Go #Tigers.
p163
aV@morningmoneyben @nasiripour I gotta hear this one. Of all the teams, how the Tigers?
p164
aV@morningmoneyben Didn't you ask about "misleading," not false?
p165
aVRT @capitalweather: Federal government CLOSED Monday: http://t.co/FFiWbBQq
p166
aV@maddow @richardwolffedc Amtrak is still running, right?
p167
aVRT @KenJennings: In the kingdom of the blind, the one-eyed man doesn't really have to wear clothes ever.
p168
aVRT @JoeTrippi: The duck (don't ask) helps herd the chickens. http://t.co/bwVAHQgG
p169
aV@LukeRussert @nbcnightlynews Just started by fielding my peremptory call from Pepco that storm is coming and certainly will knock out power
p170
aV@joshtpm @davidtaint "I like the direction you're headed, but can we strike the 'I won't do that' part"
p171
aV@thecaucus A link? Does this story really take more than 140 characters?
p172
aVThose wanting to leave are 55 and older and @BGcanes, which makes sense \u201c@washingtonpost: D.C., city of youth? http://t.co/0yWgVkQs\u201d
p173
aV@SteveMartinToGo The best lesson is not to be hasty in making a decision.
p174
aVRT @KenJennings: Do these Glenn Beck jeans make my nativist paranoia look big?
p175
aV@BGcanes put it out in the universe, that'll keep you healthy. Or take some medicine and get some rest.
p176
aVRT @pourmecoffee: Mitt Romney is totally going to face down Iran right after he can't get a guy from his own party in Missouri to go away.
p177
aVRT @BarrettAll: Welcome to #Hockeytown #PureMichigan http://t.co/0r8VD1Xw
p178
aV@TheFix What's wrong with it? Assuming, of course, one follows the typical rules of tobacco-use courtesy
p179
aVI can't believe how many people are on the three a.m. Amtrak out of NYC. How is this losing money???
p180
aV@jonathan_smith Just sucks it's not Mario and Rod
p181
aVRT @TheReidReport: I don't trust any "reform" of Medicare from the party/ideology that fundamentally opposes the CONCEPT of Medicare. #j ...
p182
aVRT @anamariecox: AMERICA, FUCK YEAH: http://t.co/ayEqC9uZ
p183
aVRT @rollcall: Gary Peters defeats Hansen Clarke in #MI14. He'll be first white mbr to represent Detroit in yrs http://t.co/jELjXfxj
p184
aVRT @KimKierkegaard: Hair braids, bright-colored nails and watermelon\u2026 Let others complain that the age is wicked; my complaint is that i ...
p185
aVRT @JustinVerlander: He's in the groove! #HRDerby #prince
p186
aVI'm sure romney sees  a moral obligation to the poor. I'm sure he tips his caddy.
p187
aV@JasonABowers The Revolution Will Not Be Spelled Correctly
p188
aV@JoeNBC Yes we do, though even SuperPACs aren't as bad as tanks. But you asked about the price tag, not the preserving act itself.
p189
aVI think it's ironic to hear a Republican say we need smart government.
p190
aVRT @KeithOlbermann: Alas! Too late! RT @dailykos Glenn Beck: God told me to quit Fox News or 'lose my soul' http://t.co/PPHfB08X
p191
aVLaughable--conservative pundit fears tyranny of the majority, The left thinks the courts are \u2018undemocratic\u2019 suddenly? http://t.co/b8N8ETdY
p192
aVRT @StephenAtHome: Free question for Justice Scalia to use against Obamacare: Why doesn't everyone just get a lifetime appointment with  ...
p193
aVLike watching CDS prices move--hedging, JPMorgan Employees Join Goldman Sachs Among Top Obama Donors http://t.co/pyPBDc7w via @BloombergNews
p194
aV@DetroitRedWings Darren Helm has to be the hardest skater in the game
p195
aVThree day weekends are a lot better than the two day variety.
p196
aV23!!
p197
aV@MikeHalford_PHT Nassau Coliseum is the problem? An old arena hasn't adversely affected my Red Wings!
p198
aVRT @reilly_b: @ezraklein Saying "tweeps" is uncool
p199
aV22!
p200
aVRT @thinkprogress: Thanks to Obama's socialist agenda, Nasdaq closes at its highest level since December 2000. #icymi
p201
aVRT @PoliticsNation: On #PoliticsNation @RepGaryPeters says unions in Michigan helped make the middle class in the America, and Romney's  ...
p202
aVKabuki! @NancyPelosi: At @GOPOversight hearing right now 5 men are testifying on women's health: http://t.co/iqW4ylug #WhereAreTheWomen?
p203
aVRT @thehill: Planned Parenthood tweets picture of all-male panel at hearing on birth control http://t.co/gKH0BWbC @PPact
p204
aVGM earns highest profit ever. $7,000 in profit sharing to Union workers. @mittromney, no son of Detroit. http://t.co/9ys0W1aI
p205
aVDenying this right is intolerable @BGcanes: "History will judge us" http://t.co/MlxR1RIQ via @moveon @MittRomney
p206
aVRT @thinkprogress: GOP Mayor Of San Diego pushes for marriage equality: "History is going to judge us" http://t.co/waA65Gnv
p207
aVRT @MikeSacksHP: IT HAS ARRIVED: Montana Supreme Court Collides With U.S. Supreme Court over Citizens United http://t.co/WfN03Sot #scotus
p208
aV21 home wins.
p209
aVCaps move into third place in the East, six points behind fourth place.
p210
aVI don't like mule and bertuzzi on the same line. They bring the same thing, with 93 having better hands.
p211
a.