(lp0
VRT @ClarityPartners: We made it! Again! So honored to be #22 on the @chicagotribune #TopWorkplaces list this year. Cheers to our employees\u2026
p1
aVRT @ClarityPartners: #TheClarityWay in action, volunteering with #FeedMyStarvingChildren today! https://t.co/5F0TqjJ4aT
p2
aVRT @CPLFoundation: We did it! #CSLA2018 raised $2.4 million for lifelong learning programs and initiatives at @chipublib Thank you so much\u2026
p3
aVRT @ClarityPartners: We're honored! The Academy of Interactive and Visual Arts has recognized two Clarity-built websites with @W3Awards! Co\u2026
p4
aVRT @ClarityPartners: THREE Clarity-built websites have won #InteractiveMediaAwards! Thanks to IMA and our clients @nb_parks, @ChicagoParks\u2026
p5
aVRT @ClarityPartners: #CoolestCompanies Most Philanthropic! We are honored. Thanks \u2066\u2066@ChicagoInno\u2069, congrats to all of companies making #Chi\u2026
p6
aVRT @ClarityPartners: Clarity is an @inc5000 fastest growing company for the 6th year in a row! Thanks to our clients and team members. What\u2026
p7
aVRT @CPLFoundation: August 22, we host Literature &amp; Libations featuring sommelier and author, @RegineRousseau at @AmerWriteMuseum. Rouseau r\u2026
p8
aVRT @ClarityPartners: Celebrating National Summer Learning Day with @CPLFoundation and @shedd_aquarium! Volunteers led STEAM and literacy ac\u2026
p9
aVRT @SethMacFarlane: In other words, don\u2019t think critically, don\u2019t consult multiple news sources, and in general, don\u2019t use your brain. Just\u2026
p10
aVRT @kumailn: I\u2019m alone and sad and scared about the world. \u000a\u000aLet\u2019s be kind to the people around us. That has to be the key right? No matter\u2026
p11
aVRT @BarackObama: \u201cLow plastic stool, cheap but delicious noodles, cold Hanoi beer.\u201d This is how I\u2019ll remember Tony. He taught us about food\u2026
p12
aVRT @ClarityPartners: We\u2019re #46 on Crain\u2019s list of Best Paces to Work in Chicago! Thanks @CrainsChicago and congrats to all winners. #TheCla\u2026
p13
aVRT @ClarityPartners: Come say hi at #DrupalConNA! Visit us at our session, Birds of a Feather, or @womenindrupal happy hour. See you soon.\u2026
p14
aVRT @ClarityPartners: SIX Clarity-built websites just won #awards from @HorizonAwards, putting us on the Distinguished Agencies list for the\u2026
p15
aVRT @ClarityPartners: Excited to sponsor @CPLFoundation's #NightintheStacks again! Help celebrate and support our #publiclibrary system, tic\u2026
p16
aVRT @CPLFoundation: It's #GivingTuesday #ILGiveBig day and we have something for everyone. New and increased gifts are matched. PLUS gifts o\u2026
p17
aVRT @thedesirina: The GOP insists that the Vegas shooter's gun arsenal is "a right," but medical treatment for his 500+ survivors is merely\u2026
p18
aVRT @StephenAtHome: Days like today can make you feel powerless. You're not.\u000a\u000ahttps://t.co/KY1CykC0nh\u000a\u000ahttps://t.co/iDYdGnke8C\u000a\u000ahttps://t.co\u2026
p19
aVRT @GavinNewsom: Graham-Cassidy allows insurers to NOT cover:\u000a-Pregnancy\u000a-Newborn care\u000a-Mental health services\u000a-Prescription drugs\u000a-Rehab\u000a-\u2026
p20
aVRT @BarackObama: Thinking about our neighbors in Mexico and all our Mexican-American friends tonight. Cuidense mucho y un fuerte abrazo par\u2026
p21
aVRT @CPLFoundation: It's not too late to get #LiteratureandLibations tix. Get yours before they're gone! @AmerWriteMuseum @TastingsBTI https\u2026
p22
aVRT @CPLFoundation: Join us for a cocktails &amp; networking at @AmerWriteMuseum w/@TastingsBTI on 9/18! Tickets = $45/$30 Get them here ---&gt;htt\u2026
p23
aVRT @BarackObama: To target hopeful young strivers who grew up here is wrong, because they\u2019ve done nothing wrong. My statement: https://t.co\u2026
p24
aV#DACA repeal = 41,256 IL DREAMers subject to deportation. @PeterRoskam, Reject nativism. Support #DreamAct https://t.co/qOqCF2AlRA
p25
aVProud to be part of Clarity! https://t.co/5amFH7Mnoc
p26
aVRT @BarackObama: "No one is born hating another person because of the color of his skin or his background or his religion..." https://t.co/\u2026
p27
aVRT @ClarityPartners: Help Colleen, our Director of People, Culture and #endlesspossibilities, win an #itacitylights award! Vote by 8/18: ht\u2026
p28
aVRT @KristinaLuca: I cannot stress enough how important it is you watch this gorilla bathe-dancing to maniac. By @bobhagh https://t.co/e15f9\u2026
p29
aVRT @ClarityPartners: Proud to be #44 on the @CrainsChicago #Fast50 list! https://t.co/k47d4HpTPC
p30
aVRT @ClarityPartners: Wrapping up at the @TechweekInc Chicago growth summit, thanks to all who stopped by! \U0001f44b\U0001f3fb https://t.co/pm0qdeTa9h
p31
aVYessss! I am now a proud patron of Shahid Buttar on @Patreon, and you should be too: https://t.co/nPgzcVlotS
p32
aVRT @CNN: Video shows crowds at the March for Science in Chicago from above https://t.co/OkodsQg7ZB https://t.co/PwOBD4ieMR
p33
aVls
p34
aVRT @ILComptroller: We're all disappointed. #ILBudgetNow #twill. https://t.co/qqhd4KIzhw
p35
aVRT @HamillHimself: "The time for trivial fights is over"Let our nation unite only in vital issues like trashing Arnold's horrible Apprentic\u2026
p36
aVRT @SenSanders: Remember when Donald Trump told us that he was going to take on Wall Street and drain the swamp? Ha! What a joke.
p37
aVRT @pattonoswalt: Alice just made this postcard for President Trump. I just mailed it. https://t.co/R8ouktijxe
p38
aVRT @ScienceMarchDC: Hello everyone, the official hashtag for the march is #ScienceMarch . Please make it trend and show your support for Sc\u2026
p39
aVRT @HamillHimself: All Americans would "absolutely love" for you to do that. You can prove once &amp; for all you have nothing to hide. Come cl\u2026
p40
aV2016 Carl Sandburg Award Dinner Raises a Record-Breaking $1.7 Million for the Chicago Public Library Foundation https://t.co/oqQrU1fv7S
p41
aVRT @Attack: Please take a moment to learn about data-caps and file a complaint with the @FCC, before it's too late: https://t.co/riZB2oJ3PN\u2026
p42
aVRT @FallonTonight: .@Stranger_Things's @milliebbrown shows off a hidden talent -- rapping @NICKIMINAJ's verse from "Monster" https://t.co/4\u2026
p43
aVJust took a 5-star @Lyft ride \u2014 you should try it. Use my invite code for FREE credit toward your first ride!e https://t.co/nQIAeJnXx0
p44
aVFinally!! Meiko's new album is out today! #MovingDay --&gt; https://t.co/D9SxpMB0ha
p45
aVRT @BernieSanders: \u201cYou should be willing to debate anytime, anywhere.\u201d \u2014 @HillaryClinton in 2008.\u000ahttps://t.co/UruLT1afY3
p46
aVRT @thenation: We rarely do this\u2014only twice before in 150 years\u2014but today we endorse Bernie Sanders for president: https://t.co/8jF2aK3HSN
p47
aVRT @ChicagoBreaking: Death of toddler found in Garfield Park Lagoon ruled a homicide https://t.co/oqEj2wogx3
p48
aVRT @tuohy: "We want debates" cry drowns out DNC chair. #FITN #nhpolitics http://t.co/fG64gzEfSk
p49
aVRT @SenSanders: We\u2019ve got to do what every other major country on earth does and have a medical and family leave program. http://t.co/z2nlg\u2026
p50
aVRT @twitter: Nine years and billions of miles later, Twitter is over the moon for today's #PlutoFlyby! https://t.co/bBD2y5oe65 http://t.co/\u2026
p51
aVChange your http://t.co/IXgHAm1Bdd passwords! Security Notice: Forum User Password Resets  https://t.co/YWkeQtGbYH
p52
aVRT @davidfrum: I\u2019m not following the Reddit thing closely, but one thing seems obvious: corporations shouldn\u2019t hire CEOs who hate their pro\u2026
p53
aVJack Black Breaks Down Meeting Homeless Ugandan Boy Who Just Wants An Education http://t.co/KKN1mr1sor via @HuffPostImpact
p54
aVI\u2019m stepping up on Saturday for #FitbitGoalDay
p55
aVRT @Nick_Offerman: Congrats @GovPenceIN \u000aWE ARE CANCELING \u000aIndiana Summer of 69 tour 5/16.\u000aI WILL PLAY @IndianaUniv this Weds and donate my\u2026
p56
aVRT @redditflipboard: South African comedian Trevor Noah on The Daily Show, absolutely kills it [r/videos] http://t.co/niGKI5sEGr #reddit #f\u2026
p57
aVRT @kpereira: Read this. And weep. Then get punchy and vocal: http://t.co/T9F4dGRJov
p58
aVI just backed Arkis Vir, a 4X Turn-Based Strategy Game on @Kickstarter http://t.co/OMas0Lr3Rr
p59
aVCheers, #IE6 is dead. Now can we please kill IE 7-9. http://t.co/A35vtyxvSs
p60
aVRT @lifehacker: Think of yourself as a jack of all trades and master of none? Good news, dabbling is actually good for the brain: http://t.\u2026
p61
aVCheck out this event at the Chicago Public Library!  http://t.co/6O2kjft3eG
p62
aVI just backed NSA vs USA: an electro-house dance track &amp; music video on @Kickstarter http://t.co/M35xDhGgh8
p63
aVThe 10th Doctor's Sonic Screwdriver - redditgifts http://t.co/EdGl6cHpUE via @redditgifts thanks svendover!
p64
aVRT @kpereira: Wait. What?! WHAT!!!! "The GOP's rule change they hoped you wouldn't notice." http://t.co/ER3QKuH1vB (via @reddit)
p65
aVDesperately Seeking Cichlid: Fish Species Down to Last 3 Males, http://t.co/q0fpiPzxmx via @sciam
p66
aVRT @Eric_Alt: Look, if you insist on doing the duck face selfie, you can't get mad when I chuck bread at you and let my toddlers chase you \u2026
p67
aVRT @ChrisWarcraft: That's a bold move Cotton. Lets see how it plays.
p68
aVRT @pcworld: When something is referred to as the BSOD patch...you may want to get rid of it. http://t.co/EDZ2k6ETO4
p69
aVRT @redditflipboard: Guy posts a picture of his son every time he cries, along with the stupid reasons why [r/pics] http://t.co/yCGSQiNN ...
p70
aVRT @chicagodetours: The Chicago Pedway often goes through building's basements: http://t.co/FtL0G2Ek1Q
p71
aVRT @kpereira: Baby's First Lightsaber: http://t.co/P2tsVNSGUg @blairherter and @Jessica_Chobot, you're on notice.
p72
aVRT @PopSci: The biggest DDoS cyber attack in history just happened! That's why the whole Internet has been sluggish today http://t.co/3I ...
p73
aVRT @lifehacker: After being pulled from Google Play, Adblock Plus is back with a new version! Here's how to get it: http://t.co/E0vmbVMqu3
p74
aVRT @engadget: Evernote issues site-wide password reset after hackers access user details -  http://t.co/wUc4eYeyU6
p75
aVStop CISPA (Cyber Intelligence Sharing and Protection Act) http://t.co/UHd4nnUHU1
p76
aVRT @GeekDads: Calvin and Hobbes in Our World http://t.co/5TsLBVwp
p77
aVRT @chicagodetours: Chicago's got a 40-plus-block-long network of passageways. It can be bewildering. This will help: http://t.co/bT0Rsind
p78
aV@CLEAR Where can i download the clear connection manager software? Its unavailable on the website when using the link
p79
aVRT @iiez33: #FilipinoPride. #URBANo. #TopChef #Sheldon #RestaurantWars
p80
aVRT @lifehacker: Want to know what iOS apps are doing with your personal data? This website promises to reveal all: http://t.co/1eqigFkX
p81
aVRT @kpereira: Zero sleep. Supercharged by candacebailey5 and saraunderwood. What a fun night! http://t.co/vxpI3lNK
p82
aVRT @kpereira: In two days, @CandaceBailey5 and @SaraUnderwood join me for a live #Pointless podcast! Someone's getting pregnant! #DEATHSQUAD
p83
aVRT @PopSci: We've got some sci/tech requests for your next four years, @BarackObama. http://t.co/xFpDymUg
p84
aVhttp://t.co/7zzyWHQA via @imgur - My new favorite gif of all time!
p85
aVRT @bittman: Why I Am Pro-Life http://t.co/hSclSR1w. Possibly the best T. Friedman column ever written.
p86
aVRT @SaveSensataJobs: Cue ironic laughter and head shaking by #Sensata workers here at #Bainport http://t.co/WYffXlRJ
p87
aVRT @kpereira: Gorgeous! Mind = BLOWN! Painting 3D Goldfish into Resin: https://t.co/xo522Tpw (via @reddit
p88
aVRT @cultofmac: If That Internet Explorer 9 Commercial Were Honest It\u2019d Look Like This [Video] http://t.co/9AAFUILz
p89
aVRT @redditflipboard: Posted in the PBS Break Room [r/pics] http://t.co/WITakCHL #reddit #flipboard
p90
aVRT @wiredplaybook: Maybe one of the best pictures ever. RT @si_vault: Michael Jordan at the 1987 Slam Dunk Contest: http://t.co/NRR6nbSH
p91
aVRT @PopSci: New Google Maps feature lets you snorkel around the world's oceans, without ever leaving the couch. Brillz. http://t.co/YQtAdhc7
p92
aVRT @CNET: How @CoryBooker plans to "hack" politics and disrupt democracy http://t.co/pgYpDgcR
p93
aVRT @bi_politics: Are We Better Off Than 4 Years Ago? Let's Go To The Charts!.... by @hblodget http://t.co/YmSH59Pg
p94
aVRT @redditflipboard: NFL Punter Chris Kluwe Explains Gay Marriage To The Maryland Politician Who Is Offended By An... http://t.co/q7ewrP ...
p95
aVRT @bi_politics: CLINT EASTWOOD: "President Obama Is The Greatest Hoax Ever Perpetrated On The American People" by @hblodget http://t.co ...
p96
aVRT @WiredGeekDad: New: Those wonderful toys: A Subscription Service for Wonderful Things: Image: Quarterly.co\u000aQuarterly.co is a su... ht ...
p97
aVRT @FastCoDesign: A Top Nike Designer Rebrands Game Of Thrones http://t.co/utkp4Olw
p98
aVRT @BuzzFeed: 23 Things You Probably Didn't Know About The Movie "Finding Nemo" http://t.co/WehkZBTC
p99
aVRT @HuffingtonPost: A member of the Black Eyed Peas debuted his song from Mars http://t.co/IZa88wkK
p100
aVRT @redditflipboard: Jimmy Fallon fulfills an audience request to fuse both reggae music and a barbershop quartet ... http://t.co/KrHLcX ...
p101
aVRT @lifehacker: The best Google features you're probably not using: http://t.co/OkH3zcqH
p102
aVRT @arstechnica: Freeing your router from Cisco\u2019s anti-porn, pro-copyright cloud service http://t.co/ht3g2WEV by @JBrodkin
p103
aVRT @whitesox: If this tweet is RT'd 1K times 1 lucky fan will win this #TakeJake Giant @JakePeavy_44 Head.  http://t.co/LcW4gnWG
p104
aVRT @eaterchicago: ICYMI: Watch Jack McBrayer &amp; Triumph the Insult Comic Dog @TheWienerCircle. Some seriously funny shit http://t.co/fFkyj7W5
p105
aVI'm supporting Extra Life! I'm raising money for my local Children's Miracle Network Hospital http://t.co/5vSXmxMB via @DonorDrive
p106
aVRT @TheNextWeb: This is exactly how I want multitasking to work on the iPad [Video] http://t.co/hUVbOpX by @mpanzarino on @TNWapple
p107
aV@FlipboardTips I can't express in words how much I love this app for my iPad.
p108
aVRT @newscientist: Parenting tips from neuroscience http://t.co/ -\u000a thx @lizzardH
p109
aVRT @WSJ: President Obama proposed a $447 billion package of spending initiatives and tax cuts. Here are details: http://t.co/6xLimGD
p110
aVFacebook for iPhone 3.5 Update: Easier Sharing and Increased Privacy Settings http://t.co/vOYrmRQ via @pcmag
p111
aVRT @dharmesh: "Life is short and you should spend the time working with people you enjoy." ~Schmidt #df11 - TOTALLY!
p112
aVFTW #hipmunk ! This is the best tool for looking up airline prices, dates, across multiple airlines,at hipmunk.com\u000aAA should take notes
p113
aVCraked, Broken iPhone 3GS screen, no problem. Give me a screen replacement w digitizer, and a paperclip. Took me about two hours first try.
p114
aVCongrats to pacman for winning fight. Hbo puts on a way better event than showtime.
p115
aVAs a sucker for a good looking app that helps me organize, I'll give springpad a whirl http://springpadit.com/springpad/
p116
aVGoogle Account Security Best Practices (via @Lifehacker) http://t.co/iz8WjR0
p117
aVThis solution fixed my NoScript & LastPass browser issues in firefox : http://bit.ly/gk1GIr via @addthis
p118
aVIts that time again to patch, another zero day exploit for Adobe Reader and Adobe Flash. http://bit.ly/hDh7lH
p119
aVGoogle jumps into 'Do Not Track' debate with Chrome add-on http://t.co/NTcigsf
p120
aVAmazing what I can fix with just a toothpick.
p121
aVHere's hoping that tweeting will push the cold spring away!
p122
a.