(lp0
VRT @juliacraven: I wrote about @AndrewGillum, how his politics are rooted in lessons learned from his grandmother, why people adore him &amp; h\u2026
p1
aVVote blue Wisconsin! https://t.co/xamEdfI1Ah
p2
aV@mobyJen You go, Amy
p3
aV@AP_Politics And he\u2019s too old to be president? He \u2018s been working to spread his message of concern about the great\u2026 https://t.co/jjAQHkxhgK
p4
aV@renato_mariotti @LWVslice Agreed
p5
aV@jonathanalter @LWVslice I agree.
p6
aV@Action6thDistIL Thanks to the Sisters!
p7
aV@BernieSanders So true.
p8
aV@Grammanoni @WandaSpeaks67 @BernieSanders Yes, Bernie is a highly regarded leader, When Bernie was last on Cobert,\u2026 https://t.co/OHBKOOJcu0
p9
aV@Grammanoni @WandaSpeaks67 @BernieSanders You are right,Lori. Bernie has been our leader. Now we can aspire to univ\u2026 https://t.co/Z6aizvnnGu
p10
aV@Action6thDistIL @PeterRoskam Let\u2019s all get out and tell Il.6 voters that we have a chance to get rid of Roskam bef\u2026 https://t.co/ymFoY6MKy6
p11
aVRT @BernieSanders: 70% of American voters now support a Medicare for all, single-payer system and 60% now support tuition-free college. Our\u2026
p12
aV@MargoRebollal @tangledupinbleu @Delilah399 @BernieSanders You\u2019ve got a better candidate with better ideas .Don\u2019t you?
p13
aVRT @BernieSanders: Many of the ideas we\u2019ve been talking about for years are now ideas that are mainstream ideas supported by the vast major\u2026
p14
aVRT @VoteCasten: Today is Social Security\u2019s 83rd birthday! \U0001f389\U0001f388\U0001f382\u000a\u000aHow is Roskam celebrating this milestone? By trying defund it to pay for $2.\u2026
p15
aVRT @prathgan: @SenSanders You are so right! I cannot believe this is actually happening in the modern world!
p16
aV@jthomas458 @BernieSanders Yes.
p17
aV@meaux55 @BernieSanders Let\u2019s keep tweeting this and shouting it from the house tops.
p18
aV@michael1016jl @Hutchins4CD12 @BernieSanders @proviewsusa Take back the billionaires \u2018 tax cuts.
p19
aV@NCForBernie Working people on low wages need food stamps.
p20
aV@paintbetty @TheTrussel @AnthonyNewbill @RyanOBedford @michelekeastott @s_krull @SenSanders Absolutely true. Heartless in other words.
p21
aV@denehoffman @tylerjhard @Leonnie13 @SenSanders Or take less profit, down from $11,000 an hr. That the CEO makes.
p22
aV@JoshAmieInSD @SenSanders Way to go Bernie . Terrible to think of working people unable to feed their families.
p23
aV@BernieSanders Our hope is in you, Bernie. Thank you for your courage in speaking truth to power.
p24
aV@Action6thDistIL @SeanCasten Great to see the crowd of your supporters in the Elgin Parade today.!
p25
aV@OurRevolutionNM Thanks, RBG, for this opinion. Harking back to the early twenties, they culminated in October 1929
p26
aV@Action6thDistIL @PeterRoskam Where did they meet? If at school ,who gave permission for him to be there behind clo\u2026 https://t.co/aoCklIhC2l
p27
aV@SenSanders Right on, Bernie. Eventually, this kind of greed will bring the economy down.
p28
aV@SenSanders I thank Senator Sanders for addressing the issue of poverty. It\u2019s hard to solve problems without naming\u2026 https://t.co/xYeIcQq97K
p29
aV@Action6thDistIL @PeterRoskam Sean Casten will make a fine replacement. Let\u2019s get behind him , volunteer-and donate.
p30
aV@Action6thDistIL Roskam will make an appearance tonight, April 5, on Chicago Tonight, WTTW , 7-8 pm. Finally, scope\u2026 https://t.co/imBDGMSEjv
p31
aV@SenSanders We have to keep envisioning a government that cares about its citizens\u2019 needs. Thank you Bernie.
p32
aV@Action6thDistIL @doctrixi @HHootman I am able to telephone,address post cards and anything else you can think of t\u2026 https://t.co/OQVOKsLWV4
p33
aV@Action6thDistIL @PeterRoskam @MaryAnnAhernNBC @maddow Does Roskam\u2019s challenging Sean Casten to a debate suggest ma\u2026 https://t.co/FFRpJ3uBCi
p34
aV@SenSanders @keithellison We need Medicare for all. It\u2019s the humanitarian way to go, and it will cost less in the long run.
p35
aV@Action6thDistIL @PeterRoskam Sean Casten is the candidate best prepared in climate change science.
p36
aV@Action6thDistIL Anyone but Roskam
p37
aV@duffygirl8 @SenSanders Paul Ryan will ask the Congress to cut Medicare and Social Security . That\u2019s what he\u2019s telling us.
p38
aV@democracynow @NewSanctuaryNYC @thenyic Thanks to these demonstrators who continue to make America great!
p39
aV@TwilaKMyers4 @SenSanders I shudder to think how much worse it would be without Bernie.
p40
aV@TwilaKMyers4 @SenSanders Thank God for you , Bernie. Thanks for your persistent leadership. Thank you, Twila
p41
aV@FlipThe6thIL That damn chain migration.
p42
aV@LauraOKane9 @PeterRoskam @Action6thDistIL Yes, by not commenting,Roskam appears to be a racist too.
p43
aV@HarmEconomics What we have is classic mischief,means to an end.
p44
aVTell your Congressperson: don't move U.S. embassy to Jerusalem https://t.co/pVgNMHAPWz https://t.co/22C5K5fXKA
p45
aV@00001Kat @NBCPolitics @SenSanders Exactly. I think most people would be happy with the arrangement. it works in a\u2026 https://t.co/HU65n6ehQj
p46
aV@SherryPerry2 @NBCPolitics Yes , I think the force is with him. His marvelous perseverance is a wonder.
p47
aV@ricardorossello @SenSanders Glad he\u201ds there. He spreads hope wherever he goes.
p48
aV@ricardorossello @SenSanders Glad he\u201ds there. He spreads hope wherever he goes.
p49
aVNow is the Time. https://t.co/nay3n0WuCT
p50
aV@BernieSanders Keep on saying it. You've got lots of support out here.
p51
aVRT @SenSanders: Until we put patients over profits, our health care system will not work for ordinary Americans. #MedicareForAll
p52
aVRT @SenSanders: I'm very proud to be introducing the Medicare for All Act today, which has 15 co-sponsors in the Senate, a record level of\u2026
p53
aV@SenSanders So grateful to you, Bernie. You've opened a dialogue.
p54
aV@Aaronbrownon Sundaywatch or record Ken Burns' Vietnam Nam on wttw. 7pm.
p55
aV@SenSanders I'm reminded in these times of brutality toward the children of illegal immigrants of the question. "when will they come for me?
p56
aV@SenSanders I agree with Bernie on DCAA and almost everything else. You go ,Bernie. Keep speaking up for justice.
p57
aV@BarackObama Nice pic
p58
aVWhy was Mark Giangreco suspended from ABC News Chicago?Tweeting criticism of Trump. No free press for sportscasters?
p59
aV@Mama4Obama1 @iamcmax @SenSanders Oh but he did. 2015 net worth was 430,000.
p60
aVSign @RBReich's petition: Bernie or Hillary? Let the voters decide -- not party elites  https://t.co/igycIQnZK3
p61
aVmy question to Chuck Todd :Why did you not ask Cruz and Rubio about what their health care position is after they dismantle Obama care?
p62
aVColbert@lateshow.com@bernie https://t.co/TFIGfobPLt https://t.co/Z44HgECOkI
p63
aVAxelrod on Chelsea Clinton Sanders Attack https://t.co/YbV3w0OmFS via YouTube
p64
aV@FaceTheNation @BernieSanders
p65
aVSign Robert Reich's petition: Support @BernieSanders's plan to break up the big banks. #BreakEmUp https://t.co/qWHc1bVVQT
p66
aVSanders-Warren Before New Hampshire Would Rock the Nation https://t.co/abMrdIDrQO
p67
aV@SenSanders
p68
aVhttps://t.co/dMDdgay0Nv
p69
aVRT @NMwomen4Bernie: https://t.co/2nuP1RfEQ9
p70
aVhttps://t.co/nhZjvu7Iiz
p71
aVI think Bernie Sanders should be #TIMEPOY. What do you think? Vote now https://t.co/Xwm9awhpql
p72
aVI think Bernie Sanders should be #TIMEPOY. What do you think? Vote now https://t.co/Xwm9awhpql
p73
aV#demdebate How would Hillary deal with the crisis of global warming?
p74
aVRT @SenSanders: In my view, Democrats will not win unless we run campaigns which generate excitement and momentum and which produces a larg\u2026
p75
aVDept. of Justice: Investigate Alabama voter suppression http://t.co/qbJQGfAPxb @moveon
p76
aVhttp://t.co/KxwveFsZFE
p77
aVhttp://t.co/bZUlPcdNZB contact us for volunteer opportunities to aide Bernie's campaign.
p78
a.