(lp0
VRT @MsPackyetti: Black and Brown people are not political pawns. The @NRA doesn't get to use us to prove a point-while repeatedly devaluing\u2026
p1
aVRT @AAlhanti: The REAL way to scare Politicians and spark change is to register to vote and actually follow through with it. Ages 18-29 hav\u2026
p2
a.