(lp0
VRT @CA_DaveJones: Make a plan to vote on Tuesday!  No one can afford to sit on the sidelines. Too much is at stake. Including protecting pe\u2026
p1
aVRT @tribelaw: Polls show ONLY ONE OUT OF EVERY THREE people between 18 and 30 who\u2019re eligible to vote are definitely planning to vote on Tu\u2026
p2
aV@HaroldItz @LoveEachother14 @realDonaldTrump Someone should send @realDonaldTrump a copy of The Boy in the Striped Pajamas.
p3
aVRT @BarackObama: While we're talking about preexisting conditions, the ACA is the law that finally protected your coverage for preexisting\u2026
p4
aV\u201cChange will not come if we wait for some other person or if we wait for some other time. We are the ones we've bee\u2026 https://t.co/wbyTAiZIlM
p5
aVRT @Callahan_Blaine: Big win for our client @AdyBarkan after a judge rules our class action lawsuit against Health Net WILL be litigated in\u2026
p6
aVRT @AdyBarkan: Major companies use mandatory arbitration to deny consumers and workers our basic legal rights. Without due process &amp; tools\u2026
p7
aVI am proud to represent a real life hero. @AdyBarkan is willing to give his last breath to bring about change in ou\u2026 https://t.co/dySUIIRSyG
p8
aVRT @HarleyRouda: Rep. Rohrabacher\u2019s office received 2000 phone calls from his constituents urging a NO vote on Trumpcare, which eliminated\u2026
p9
aVRT @Redpainter1: I beg of protestors, and I am sure there will be many:\u000a\u000aInstead of screaming and waving signs, just TURN YOUR BACK TO HIM.\u2026
p10
aVRT @sam_vinograd: @DavidCornDC @neeratanden I\u2019d like General Mattis to share why we need more than double the amount of troops at our south\u2026
p11
aVRT @CNNPR: No @PressSec, CNN did not say @realDonaldTrump was directly responsible for the bomb sent to our office by his ardent and embold\u2026
p12
aVRT @BarackObama: We grieve for the Americans murdered in Pittsburgh. All of us have to fight the rise of anti-Semitism and hateful rhetoric\u2026
p13
aV@PhilipRucker \U0001f92f
p14
aVRT @EricHolder: Our hearts go out to our Jewish brothers and sisters in Pittsburgh. Your loss is our loss.Your grief is our grief. And our\u2026
p15
aV@markthesnark \U0001f602
p16
aVRT @markthesnark: You heartless bastards\u000aI command you to stop putting doorbell sounds in commercials!!!\u000a\u000aDo you not have dogs?
p17
aV@EricHolder Not only have Congressional Republicans voted over 70 times to repeal the ACA, here is a list of Republ\u2026 https://t.co/a2Sp0IhY01
p18
aV@ttfernandez21 \U0001f602
p19
aVRT @Marc_Perrone: The Dallas Morning News who endorsed:\u000a\u000a\U0001f4ccReagan\u000a\U0001f4ccBush 41\u000a\U0001f4ccDole\u000a\U0001f4ccBush 43\u000a\U0001f4ccMcCain\u000a\U0001f4ccRomney \u000a\u000aEndorsed \u000a\u000a@BetoORourke for US S\u2026
p20
aVRT @HarleyRouda: Rep. Rohrabacher voted to end insurance coverage protections for people with pre-existing conditions.\u000a\u000aCareer politicians\u2026
p21
aV@PiperPerabo Thank you! We welcome any and all help flip CA48. @HarleyRouda \u000a#CA48 #HarleyRouda #NoRohrabacher #CaliforniaCounts #November6
p22
aVRT @PiperPerabo: New York is my home, and I love it. \u000a\u000aBut it's not the state with the most House seats that could switch red to blue this\u2026
p23
aVThere is ZERO EVIDENCE to support President Trump\u2019s tweet. Not only have Congressional Republicans voted over 70 ti\u2026 https://t.co/bGkuZMGysQ
p24
aVRT @sam_vinograd: Words matter. Especially from those in leadership positions. https://t.co/AqI7gLv0b3
p25
aV@clydes1mom @sam_vinograd @SpeakerRyan @ZekeJMiller @SecretService \U0001f602
p26
aVRT @sam_vinograd: I've lived in and analyzed from afar several countries where public figures, "dissidents," and the media are targeted. In\u2026
p27
aV@sam_vinograd @SpeakerRyan @ZekeJMiller @SecretService My first thought as well.\u000aMy second thought: Who in public o\u2026 https://t.co/UIErdgeUZl
p28
aV@RepJoeKennedy @realDonaldTrump \U0001f602
p29
aVRT @danpfeiffer: First 19 months of the Trump Administration: 3.58 millions jobs \u000a\u000aLast 19 months of the Obama Administration: 3.96 million\u2026
p30
aVRT @DalaiLama: The creation of a more peaceful and happier society has to begin from the level of the individual, and from there it can exp\u2026
p31
aVRT @WSJ: Trump defends separating families at the border, saying the fear it evokes deters some immigrants https://t.co/DYqv4DgFRo
p32
aVRT @lpackard: I'm traveling across the country on a big blue bus to tell my health care story &amp; hold the GOP accountable for their sabotage\u2026
p33
aV@Ocasio2018 And as parents, even in the OC, you raise your children to understand and care about the issues affecti\u2026 https://t.co/WZ4ZBENTuw
p34
aVRT @AdyBarkan: https://t.co/gbOkx2VqtT
p35
aV@RealJamesWoods Don\u2019t be a douche bag.
p36
aV@SteveScalise Oh please. Don\u2019t be a douche bag.
p37
aVRT @RepJoeKennedy: If this is your first time seeing this graph, you have friends who haven\u2019t seen it yet. Share far and wide. h/t @zessoul\u2026
p38
aV@ABC @TomLlamasABC This is like that @katiecouric interview of @SarahPalinUSA. My face starts to scrunch\U0001f623, my stoma\u2026 https://t.co/BZUT7KJIs0
p39
aV@Redpainter1 \U0001f602
p40
aV@Redpainter1 \U0001f602
p41
aV@ilyamerica @SarahKSilverman, you are brilliant.
p42
aVhttps://t.co/74BZgH9zeY
p43
aVCA voters: At a time when our #healthcare is under attack, we need to elect @RicardoLara4CA as #Insurance Commissio\u2026 https://t.co/CaDm1m3H3l
p44
aV@AP The real adult in the room has now left the room. The administration is now void of all sense and sensibility.
p45
aVRT @Lady_Star_Gem: I know you're disappointed\u000aI know you're frustrated\u000aI know you're fed up\u000aI know you're numb\u000aI know you're angry\u000aI know y\u2026
p46
aVAnd you\u2019re freakin\u2019 waaayyy cool! https://t.co/zcR4Az8LxX
p47
aV@CJMcG56 Can you and Bill help Ms. Rice establish residency? https://t.co/M2zBHZQLwv
p48
aV@MeaganMacvie Pullin\u2019 a Kavanaugh? That\u2019s actually a drinking game.
p49
aV@KirstenPowers Incredibly patient persistence in setting the record straight. Quite admirable.
p50
aV@HelenBrosnan You\u2019re a badass and you\u2019re my hero!
p51
aV@kaitlancollins "The [judge] doth protest too much, methinks"
p52
aVRT @aaronsojourner: @realDonaldTrump Unemployment rates are low &amp; that's great. Check out the trends (graph).\u000a\u000aWe got here thanks to progre\u2026
p53
aVRT @farhip: People who are critical of \u201cthe media\u201d often fail to distinguish between the reporting of facts and opinions about those facts.\u2026
p54
aV@AnnCoulter I hope one day when you\u2019re on your death bed that you are haunted by the question:  Was it all worth it?
p55
aV@Redpainter1 Tuned in late. Had no idea what I was watching. Blinked, rubbed my eyes, and said, \u201cyeezus, what the hell is this?\u201d
p56
aVRT @AnaMariaArchil2: So much love to all the 1000s of people who are changing the course of history with their protests, stories, &amp; courage\u2026
p57
aVRT @MiekeEoyang: I keep thinking Kavanaugh citing his admission to Yale law to @maziehirono as an accomplishment. He went to prep school th\u2026
p58
aV@AnaCabrera \U0001f3af
p59
aV@ttfernandez21 I believe you. And I\u2019m sorry this happened to you. You are #brave  and #courageous !
p60
aVRT @joncoopertweets: Our entire nation feels John Kelly\u2019s pain during Trump\u2019s incoherent press conference. https://t.co/hwjBMxCqXI
p61
aV@Amy_Siskind LOL (which he wanted me to do)
p62
aVRT @KerryHowley: I have a difficult time believing that hundreds of gymnasts could be molested by a single osteopathic physician over decad\u2026
p63
aVRT @funder: .@realDonaldTrump Watch the applause for Obama when he gave he first UN speech. He wasn\u2019t an international laughingstock, like\u2026
p64
aV@SarahKSilverman @YouTube \U0001f60d
p65
aVSomething for the #SenateJudiciaryCommittee to consider when reflecting on  #JudgeKavanaugh unbelievable denials ab\u2026 https://t.co/eHFxddsF99
p66
aV@realDonaldTrump Uh, no freakin thanks
p67
aVRT @AdyBarkan: I got arrested (again) today. \u000a\u000aI did it in solidarity with the brave women who have led the movement against sexual violenc\u2026
p68
aVRT @HelenBrosnan: WHILE YOU'RE HERE, CALL YOUR SENATORS PLEASE: (202)-224-3121
p69
aVRT @AdyBarkan: Let me tell you something I know to be true: the hundreds of brave people getting arrested today \u2014 including survivors of se\u2026
p70
aVRT @HelenBrosnan: The entire hallway is in tears. We are at a moment in history where women have to repeat their trauma to the masses to li\u2026
p71
aVRT @SenGillibrand: We can\u2019t let Trump\u2019s right-wing nominee, Brett Kavanaugh, take a lifetime seat on the Supreme Court. I still need 548 mo\u2026
p72
aVRT @Redpainter1: Men that are denying the sexual assault allegations against #Kavanaugh\u000a\u000aI was sexually assaulted on November 30, 2012.\u000a\u000aTh\u2026
p73
aVRT @AdyBarkan: Yes! @JeffFlake there is still time for you to #BeAHero. https://t.co/MgGCzoDOB5
p74
aVRT @AdyBarkan: When you near the end of your life, @SenatorCollins, you will care deeply about your legacy. Trust me, I know. https://t.co/\u2026
p75
aVRT @DrLeanaWen: We know that the #opioidepidemic disproportionately affects people of color &amp; perpetuates existing disparities. Addiction i\u2026
p76
aVRT @DrLeanaWen: \u201cAddiction is a disease that requires treatment. Yet only 10% of people in this country have access to the treatment they n\u2026
p77
aV@kaitlancollins New addition to the Endangered Species Act:  Red Deficit Hawk
p78
aVRT @kaitlancollins: The government spent $895 billion more than it brought in from taxes and other revenue sources during the past 11 month\u2026
p79
aVRT @JenGranholm: DC Republicans should listen to America and STOP trying to take away coverage:\u000a\u000a"83% of Democrats and 80% of Republicans s\u2026
p80
aV@Redpainter1 \U0001f61c
p81
aVRT @MikeLevinCA: We recently launched our first campaign ad of the general election, called \u201cDay in the Life,\u201d featuring me and my family.\u2026
p82
aVRT @MikeLevinCA: Retweet if you think Bob Woodward is more truthful than Sarah Huckabee Sanders.
p83
aV@realDonaldTrump @LouDobbs Details please, not conclusory plaudits.
p84
aVRT @SenFeinstein: This New York Times editorial clearly shows that Brett Kavanaugh misled the Senate. Too many missing emails and too many\u2026
p85
aVRT @nowthisnews: If you still don't think the midterms will affect you, @BarackObama is back to spell out just how important they are https\u2026
p86
aVRT @jennycohn1: Ds must demand all emails to or from #Kavanaugh that were kept on Smartech's server! When Congress investigated the Bush WH\u2026
p87
aVRT @PodSaveAmerica: Barack Obama to young people: What the fuck? \u000a\u000ahttps://t.co/nVq2paZVin #votesaveamerica https://t.co/gTeeqvcauf
p88
aVRT @lpackard: .@SenatorCollins has a choice to make. Mainers are begging her to #BeAHero and #StopKavanaugh. Show your support, pledge to d\u2026
p89
aVRT @AdyBarkan: Friday afternoon. An amazing week. Appreciations are in order.\u000a\u000aFacing incredible odds, a few dozen American women have wedg\u2026
p90
aVRT @AdyBarkan: Kavanaugh must be removed from the Federal Judiciary. \u000a\u000aPlease RT if you want a member of the House to file Articles of Impe\u2026
p91
aVRT @SenFeinstein: Brett Kavanaugh used materials stolen from Democratic senators to advance President Bush's judicial nominees. He was aske\u2026
p92
aVRT @AdyBarkan: I may be losing my voice, but I can still send a message, and I have one for @SenatorCollins: \u000a\u000aIf you vote for Kavanaugh we\u2026
p93
aVRT @EricHolder: This is so dangerous and stupid it\u2019s mind boggling.  This is a fundamental threat to the rule of law. https://t.co/JriGVcGE\u2026
p94
aVOur health care is under attack! Tomorrow, oral argument will be heard in the Texas lawsuit brought by red state Re\u2026 https://t.co/ItdECyNsKu
p95
aVRT @WhenWeAllVote: #WhenWeAllVote, @atnfdn &amp; @RyanForRecovery\u2019s #VoicesProject want to send you and a friend to meet @macklemore in Rhode I\u2026
p96
aVRT @RyanForRecovery: We\u2019re ready to get our community registered. Join @MichelleObama @tomhanks @macklemore because @WhenWeAllVote, we all\u2026
p97
aVOnly after a news report ... a lawsuit ... an order ...\u000aOur health care should not be a war of attrition. https://t.co/VbCx3um7OM
p98
aVRT @EricHolder: Republicans again taking steps to destroy stable health care system. Pushing rates up. Increasing the number of uninsured.\u2026
p99
aV@RyanForRecovery Congratulations, Ryan! You are saving lives by sharing your story. Can\u2019t wait to read American Fix.\u000a#AmericanFix
p100
aVRT @RyanForRecovery: 46 months ago, I was on the streets \u2014 I couldn\u2019t stop using heroin. Today, I launch my first book #AmericanFix. In bet\u2026
p101
aVRT @maziehirono: I have cancelled my meeting with Judge Kavanaugh. @realDonaldTrump, who is an unindicted co-conspirator in a criminal matt\u2026
p102
aV@ttfernandez21 @tyronemuseny Doo Wop (That thing)
p103
aVRT @billscher: A seminal moment in the history of the Republican Party, which eventually chose the path of the woman in red https://t.co/yo\u2026
p104
aVGreat article by Wayne Drash about insurer proclivity for denying medically necessary treatment as \u201cexperimental or\u2026 https://t.co/3IJYiAQrOO
p105
aVRT @AdyBarkan: Thanks! Let\u2019s get to 3000 donations and $75k by midnight! https://t.co/gdFjwqA8W2
p106
aV@SusanBReynolds1 Thank you. Such an emotional impact. Beautifully described. Brought to tears.
p107
aV@CJMcG56 @realDonaldTrump And more Trump versions, like Clue: It was Jared in the Tower with a sack of rubles. [Spo\u2026 https://t.co/MsRBGqDI6N
p108
aV@CJMcG56 @realDonaldTrump Other Trump versions of your favorite childhood games:\u000aThe Game of Life \u2014 Happy 65th Birt\u2026 https://t.co/OEFtN8PTdf
p109
aV@CJMcG56 @realDonaldTrump Hey kids, try it in the car on your next trip to grandma\u2019s.
p110
aV@NatashaBertrand @CJMcG56 This brought back so many bad memories of a federal court trial five years ago. Our judge\u2026 https://t.co/DuycddPmdX
p111
aVRT @Kurkjian_ESPN: An ex-college pitcher coached a team for 12-year olds. He got tired of parents yelling at the kids for making outs, he m\u2026
p112
aV@CJMcG56 @realDonaldTrump Wow, it does work. It\u2019s like mad libs for Trump tweets https://t.co/9bl0GMBnuB
p113
aV@sam_vinograd @realDonaldTrump \U0001f64c\U0001f3fc
p114
aV@realDonaldTrump You look desperate and weak.
p115
aVRT @EricHolder: Trump move against John Brennan is unjustified- won\u2019t silence him.  Nor will his threats silence the others on his enemies\u2026
p116
aVRT @JohnBrennan: This action is part of a broader effort by Mr. Trump to suppress freedom of speech &amp; punish critics.  It should gravely wo\u2026
p117
aV@AdyBarkan \U0001f602
p118
aVHealth insurance companies are denying access to medically necessary treatment by excluding coverage on grounds tha\u2026 https://t.co/KWz47eXqP3
p119
aV@JackPosobiec And you don\u2019t have the experience or character to even shine Mr. Brennan\u2019s shoes.
p120
aVRT @AdyBarkan: Wow. I can\u2019t believe today is our final stop on the @BeAHeroTeam cross country tour. \u000a\u000aI\u2019ll have more reflections later, but\u2026
p121
aVRT @AdyBarkan: This weekend, we wind down our @BeAHeroTeam cross country tour. \u000a\u000aToday in VT, tomorrow in NH, and Sunday in ME \u2014 these coul\u2026
p122
aVRT @AdyBarkan: I am honored to be back alongside @BernieSanders today doing 3 events (!!!) together in Brattleboro, Bennington &amp; Bristol VT\u2026
p123
aVRT @lizjaff: Listen to us @AbdulElSayed you are a winner. We love you. Heres a special message from @Ocasio2018 and @AdyBarkan https://t.co\u2026
p124
aVRT @HelenBrosnan: Heart exploding. These two are changing our country one town hall at a time, one neighborhood a time, one organizing ask\u2026
p125
aVRT @Ocasio2018: About to kick off our 1st Bronx Town Hall with @AdyBarkan!\u000a\u000aToday\u2019s Town Hall theme is Labor. We\u2019ll be talking about day ca\u2026
p126
aVRT @lizjaff: Packed room for @Ocasio2018 and @AdyBarkan tonight in the Bronx. I havent seen a reception like this for a member of Congress\u2026
p127
aVRT @EricHolder: There is a debt that is owed to those who gave so much so that all Americans would have the right to vote.  Honor their sac\u2026
p128
aV#healthcare #ACA
p129
aV* Imposing unnecessary and onerous documentation requirements, making enrollment even harder; \u000a\u000a* Allowing insuranc\u2026 https://t.co/HDis6oEfBL
p130
aV* Slashing funding for outreach strategies; \u000a\u000a* Misusing federal funds for advertising campaigns aimed at smearing\u2026 https://t.co/H86JZN47SY
p131
aVSome of the alleged steps taken by Trump include:\u000a\u000a* Discouraging Americans from enrolling; \u000a\u000a* Working to raise pr\u2026 https://t.co/S5EhE4LOb0
p132
aVIt is alleged that President Trump is deliberately undermining his executive obligation to "faithfully execute" the\u2026 https://t.co/y9WBlumVf2
p133
aVOur health care is under attack!\u000aBut some cities are fighting back. The cities of Baltimore, Chicago, Cincinnati an\u2026 https://t.co/c2frrbPFrY
p134
aV* Imposing unnecessary and onerous documentation requirements, making enrollment even harder; \u000a\u000a* Allowing insuranc\u2026 https://t.co/xzFMGDncPV
p135
aV* Slashing funding for outreach strategies; \u000a\u000a* Misusing federal funds for advertising campaigns aimed at smearing\u2026 https://t.co/TvQ61TnbGh
p136
aVSome of the alleged steps taken by Trump include:\u000a\u000a* Discouraging Americans from enrolling; \u000a\u000a* Working to raise pr\u2026 https://t.co/6XWQ3L9U84
p137
aVRT @AdyBarkan: This is my favorite profile in a long time. Thanks, @will_bunch, for giving me voice.\u000ahttps://t.co/dWnbRc2wBa
p138
aV@Redpainter1 \U0001f44f\U0001f3fcbravo
p139
aVRT @AdamParkhomenko: THANK YOU ALL! You helped get this @ActMeasuresDoc film trailer that just came out yesterday to over 10K followers in\u2026
p140
aV@One_Curmudgeon @McFaul HahahA
p141
aVRT @dannyoconnor1: I hope all of my supporters will follow @AdyBarkan. A true superhero. \U0001f9b8\u200d\u2642\ufe0fhttps://t.co/RkUKGklhcv
p142
aVRT @RoKhanna: The Kochs are trying to pump huge amounts of money into a smear campaign to discredit Medicare for All but their own research\u2026
p143
aVRT @every90mins: Lost hope. It's easy to lose hope at this stage of the disease. Back when this picture was taken my symptoms were merely a\u2026
p144
aVRT @AdyBarkan: Big thank you to @TeaLeoni who just paid for everyone's bail!!! We're out!!! And #StopKavanaugh missed some pretty serious m\u2026
p145
aVNow that\u2019s a Dynamic Duo! https://t.co/Tz7uzABRiQ
p146
aVRT @AdyBarkan: When we show up together, we win. Our @BeAHeroTeam and hundreds of supporters stormed the Capitol to #StopKavanaugh. He move\u2026
p147
aV\u201c[B]eginning in 2016, HealthNet referred all providers ... to its Special Investigations Unit (SIU) \u2018prior to perfo\u2026 https://t.co/rzMV9iYcPs
p148
aVRT @atrupar: 4 years ago right now Trump was (needlessly) calling for doctors and nurses who traveled to help deal with an Ebola outbreak t\u2026
p149
aVRT @davidgura: "I'm here to speak on behalf of the President, and he's made his comments clear." \u000a \u000aHere is the official White House transc\u2026
p150
aVRT @JamesKosur: Jim @Acosta standing up to Sarah Huckabee Sanders is what America needs right now. Her pathetic failure to say the free pre\u2026
p151
aVRT @tribelaw: The good news \u2014 as @selectedwisdom says \u2014 is that these US institutions are at long last circumventing the Commander in Chief\u2026
p152
aVRT @Callahan_Blaine: https://t.co/9XjIjRZUsL\u000ahttps://t.co/kS0XCbP8t8 https://t.co/iord0oukrp
p153
aVRT @Callahan_Blaine: We are proud that our own Daniel Callahan has been featured in the Orange County Business Journal. Honorees range from\u2026
p154
aVRT @Callahan_Blaine: Diagnosed with ALS in 2016, Health Net denied our client Ady Barkan critical medical necessities (including a ventilat\u2026
p155
aVRT @Callahan_Blaine: \u201cHealthNet carried out bad faith denials in the midst of a drug epidemic, knowing that patients in... https://t.co/zZa\u2026
p156
aV"As my life is coming to an end I want to make sure I am doing things everyday that make me proud, and that will ma\u2026 https://t.co/hiKPFYr3S6
p157
aV"I want them to understand the future in our hands, we control our destiny of this country and we can make our live\u2026 https://t.co/fEeqywiHzw
p158
aVRT @CJMcG56: How dare @IngrahamAngle say #ShutUpAndDribble to @KingJames? How effing dare she?  What kind of vile and reprehensible person\u2026
p159
aVRT @MsPackyetti: A thread of people power. https://t.co/7f5k18NvgE
p160
aVRT @Marc_Perrone: \u201cOnce social change begins, it cannot be reversed.\u000a\u000aYou cannot un-educate the person who has learned to read.\u000a\u000aYou cannot\u2026
p161
aVRT @CJMcG56: Heads up @GOP! Your guy is empowering #Nazis to fly their flags in out parks! We fought a war over this. Americans died protec\u2026
p162
aVRT @lizjaff: team - Ady and over 100 folks were arrested. We are hoping to pay full bail funds. It's $50 a person - so $5000 total - if you\u2026
p163
aVRT @KristinMinkDC: Holy moly if you want to be inspired to RESIST with everything you\u2019ve got, you need to hear @AdyBarkan speak! Hear his p\u2026
p164
aVRT @KristinMinkDC: Hey Brett Kavanaugh and the Republicans you\u2019re meeting with, we would like a word.  \u000a\u000a#StopKavanaugh #BeAHero https://t.\u2026
p165
aVRT @KristinMinkDC: @funder @AdyBarkan Thanks for coming, @funder! Looks like we\u2019re getting Kavanaugh\u2019s meetings cancelled allllll day. Look\u2026
p166
aVRT @AdyBarkan: Taking civil disobedience with my @BeAHeroTeam comrades to say #StopKavanaugh now and save the lives of vulnerable Americans\u2026
p167
aVRT @funder: Hundreds of protesters outside the US Capitol to #StopKavanaugh https://t.co/bJOtk3SMzh
p168
aVRT @HelenBrosnan: .@AdyBarkan\u2019s heroic words. Ringing through the halls of Congress. #BeAHero https://t.co/jH7AzGhMtR
p169
aVRT @traceyecorder: First Civil Disobedience with .@AdyBarkan \u000a\u000aCapitol Police say we weren\u2019t arrested but we definitely were - demanding th\u2026
p170
aVRT @KristinMinkDC: The system is corrupt, and that\u2019s why we disrupt! #StopKavanaugh #BeAHero #ConfrontYourReps\u000a\u000a@AdyBarkan @BeAHeroTeam @ad\u2026
p171
aVRT @AdyBarkan: Wow. I can\u2019t believe we made it this far to DC. This is because of all of you. We\u2019re going to keep going. We have a democrac\u2026
p172
aV@realDonaldTrump Paul Manafort\u2019s trial starts today!
p173
aVBy 2025, tax cuts will have sent $2 trillion to the richest Americans. Republicans in Congress want to pay for thos\u2026 https://t.co/AzbFGyG5fS
p174
aVRT @HelenGymAtLarge: On Tuesday @AdyBarkan brings his national @BeAHeroTeam to our city to talk about how we're supporting returning citize\u2026
p175
aVRT @AdyBarkan: On Tuesday, I'm standing in solidarity @buckssda and @PennProgress in Bucks County, PA to demand @RepBrianFitz invest in com\u2026
p176
aVRT @AdyBarkan: I can't wait to be with @MakeTheRoadPa, @PAWorkFamilies, @OnePennsylvania, @seiuhcpa on Tuesday night to be in conversation\u2026
p177
aVRT @AdyBarkan: Over the past month, the #beahero tour has been to 15 states from CA to NY. Now we are hitting the home stretch and we have\u2026
p178
aVRT @AdyBarkan: Y\u2019all know I\u2019ve been on a cross country road trip trying to motivate folks to fight for our democracy this fall. \u000a\u000aI\u2019m comin\u2026
p179
aVRT @AdyBarkan: Today is the 53rd anniversary of Medicare &amp; Medicaid. \u000a\u000aI\u2019m in Burlington County, NJ  @NJCitizenAction @MaketheRoadNJ &amp; othe\u2026
p180
aVRT @AdyBarkan: Apparently Vice President Pence is campaigning for @Troy_Balderson today. \u000a\u000aHelp us fight back with the power of small dolla\u2026
p181
aVRT @AdyBarkan: \u201cWill I be able to afford a ventilator to  keep me alive a few more years so I can watch my son go to first grade? And watch\u2026
p182
aVRT @AdyBarkan: Are you following the amazing .@BeAHeroTeam as we travel across the country?\u000a\u000a@lizjaff \u000a@HelenBrosnan \u000a@julesp__ \u000a@traceyeco\u2026
p183
aVRT @AdyBarkan: .@JeffFlake I have left two messages with your office and tweeted requesting a meeting with you on Wednesday when I\u2019m in DC.\u2026
p184
aVRT @CaringAcrossGen: Medicaid is essential in ensuring our loved ones are cared for, covering a majority of nursing home and home care serv\u2026
p185
aVRT @AdyBarkan: 53rd anniversary of #Medicare &amp; #Medicaid reminds us of #POTUS #Trump\u2019s loyalties. Instead of protecting the health care tha\u2026
p186
aVRT @SSWorks: A2: \u000aPresident Lyndon Johnson signed Medicare &amp; Medicaid into law. They were intended as a first step towards guaranteed healt\u2026
p187
aVRT @SEIU: 1 in 5 Americans rely on Medicaid for quality, affordable care. These are seniors, children, people with disabilities, and workin\u2026
p188
aVRT @HealthCareVoter: Medicare and Medicaid have been giving Americans life-saving care for 53 years.\u000a\u000aBut the @GOP is cutting funding and t\u2026
p189
aVRT @AdyBarkan: A5. No. People like me rely on Medicare and Medicaid for lifesaving treatment. \u000a\u000aNothing about wanting to live a full, digni\u2026
p190
aVRT @AdyBarkan: "The truth is unambiguous. Republicans are trying to take health care away from Americans to benefit millionaires and billio\u2026
p191
aVRT @Marc_Perrone: President Lyndon\u000aJohnson\u000a\u000asigns Medicare into law\u000a\u000a#OnThisDay in 1965.\u000a\u000aToday Republicans are trying to destroy it...\u2026
p192
aVOur health care is under attack!\u000aThose suffering with mental health and substance use disorders are being marginali\u2026 https://t.co/LMaRedo2L5
p193
aVRT @EricHolder: Return ALL of the separated children. https://t.co/BCy0NJSNdE
p194
aVRT @No_Quarter_Dad: PSA: Don't speak to people with ALS like children or ask us constantly how we are doing. It's insulting and it happens\u2026
p195
aVRT @tribelaw: Impeaching &amp; removing Trump might just trade kleptocracy for theocracy. Could Bannon et al have picked Pence as an insurance\u2026
p196
aVRT @BruceBartlett: Economist: "On Trump's present course, farmers will lose much more than the $12 billion relief package by the time they\u2026
p197
aVRT @timkaine: President Shutdown is at it again - how many times will he threaten to shut down the government\u2014putting Virginia\u2019s and our na\u2026
p198
aVRT @morethanmySLE: Trump is spreading #FakeNews \u000a\u000aAssociation Health Plans have HISTORY of fraud, mismanagement &amp; abuse w/$MILLIONS in unpa\u2026
p199
aVRT @LauraLpelg: Alaska &amp; Maine peeps:\u000a\u260e\ufe0f\U0001f4de\u260e\ufe0f\U0001f4de\u260e\ufe0f Murkowski &amp; Collins need to hear from you NOW!\u000a\u000aTell them Vote NO on Kavanaugh!\u000a#Healthcare\u2026
p200
aVRT @morethanmySLE: STOP whatever you are doing and WATCH @ChrisMurphyCT @brianschatz &amp; @CoryBooker explain why you MUST call your 3 Congres\u2026
p201
aVRT @DaleDiamond6: Please watch @BetoORourke new ad, then support him to replace uncaring Terrible Ted Cruz who works with DJT on racist imm\u2026
p202
aVRT @TopherSpiro: \U0001f6a8 Collins and Murkowski say they are feeling less constituent pressure on Kavanaugh than during the health care debate. Fe\u2026
p203
aVRT @UROCKlive1: If you're in Maine or Alaska PLEASE call  your senators &amp; remind them how wrong this is. https://t.co/VkixVINmGU
p204
aVRT @Amy_Siskind: The Trump regime did NOT reunite:\u000a* 46 out of 103 children under 5,\u000a* 711 out of 2,551 children 5 to 17,\u000aand they consider\u2026
p205
aVRT @teambarbara: ICYMI: I crashed @realDonaldTrump's favorite show on @FoxNews to speak to him directly and give him a message: stop abduct\u2026
p206
aVRT @AdyBarkan: Yo People Listen Up:\u000a\u000aIf you weren't already awake to the importance of the upcoming #OH12 special election, @realDonaldTrum\u2026
p207
aVRT @AdyBarkan: For 2 years Trump has violated democratic norms &amp; pushed racist policies. Now he's seeking the public's approval. This is a\u2026
p208
aVRT @AdyBarkan: I think it's about time for @DavidYoungIA to answer to his constituents. They deserve to know why he wants to rip away their\u2026
p209
aVRT @KristinMinkDC: Heads up DC area, activist @AdyBarkan is coming to town on August 1st.\u000a\u000aAnd psst he and I just might have something up o\u2026
p210
aVRT @AdyBarkan: Hey Central NY! The @BeAHeroTeam is here today with @ARISEcny and SpeakOutCNY -- meet us in an hour outside of @RepJohnKatko\u2026
p211
aVRT @BeAHeroTeam: .@RepJohnKatko is responsible for ripping away healthcare from working families across #NY24 and choosing to line the pock\u2026
p212
aVRT @AdyBarkan: .@CTLizB and I overcame some hilarious technical difficulties during our interview today. Tune in at 8PM ET tonight to see i\u2026
p213
aVRT @AdyBarkan: Remember how we won the ACA fight?\u000a\u000aRemember how we lost the Tax Scam fight?\u000a\u000aThat\u2019s the difference between bringing the hea\u2026
p214
aVRT @AdyBarkan: We have buses coming from: NYC, Philadelphia, Maryland, Arkansas, Chicago, Indiana and Columbus. Please fill out this form t\u2026
p215
aVRT @AdyBarkan: Beautiful day to fight for democracy, help push out @claudiatenney, and canvass for universal healthcare with @1199SEIU @Spe\u2026
p216
aVRT @BeAHeroTeam: Healthcare and the courts go hand in hand. We need to #StopKavanaugh to protect the dignity and care of all Americans. Dem\u2026
p217
aVRT @HelenBrosnan: Healthcare justice + saving our courts = essential to protect the care and dignity of all Americans. \u000a\u000aThrilled to be on\u2026
p218
aVRT @lizjaff: Fighting for health care with @AdyBarkan on a Saturday morning with @1199UpstateNY @SpeakOutCNY @citizenactionny @IndivisibleN\u2026
p219
aVRT @VoteRobDavidson: Opioids are destroying tens of thousands of lives every year across the United States. Our leaders have been unwilling\u2026
p220
aVRT @SenWarren: We can\u2019t defeat the opioid crisis with empty words and half measures. I was with @RepCummings in Baltimore today to discuss\u2026
p221
aVRT @HelenGymAtLarge: On Tues, Philly will welcome @AdyBarkan and @BeAHeroTeam for a conversation on criminal justice reform with national a\u2026
p222
aV@AddictionPolicy @jess_nickel Playing politics with a national epidemic is despicable.
p223
aV@realDonaldTrump Will you swear to that under oath?
p224
aVRT @AdyBarkan: Dear Senator @JeffFlake, \u000a\u000a7 months ago, we had a substantive &amp; respectful discussion about the health of our nation\u2019s econo\u2026
p225
aVNice to know HealthNet is focused on those \u201ccritical\u201d health issues confronting its female members. Really? https://t.co/2oACBJv4Go
p226
aVRT @AdyBarkan: I am willing to give my last breath to fight for democracy. \u000a\u000aToday I'm releasing an ad for @dannyoconnor1, running for Cong\u2026
p227
aVRT @AdyBarkan: So glad to be here in Hilliard tonight with @SenatorTavares and @UHCANOhio. There's nothing I love more than folks getting t\u2026
p228
aV@CJMcG56 I was not aware of changes to Tricare Dental. It looks like the biggest change will be cost for military r\u2026 https://t.co/iz1xmhV2S5
p229
aVRT @AdyBarkan: Call for help please: \u000a\u000aAsking for any occupational or physical therapist to help me stretch in Cincinnati tomorrow, Tuesday\u2026
p230
aV@realDonaldTrump Someone must be nervous about Mueller.
p231
aV@realDonaldTrump You are weak and pathetic. SAD!
p232
aV@realDonaldTrump What a weak man. SAD!
p233
aV@TheRealBuzz @jaketapper @NASA Yes! \U0001f602
p234
aVRT @AdyBarkan: Tomorrow we reach the midpoint of the #BeAHero tour.\u000a\u000aI\u2019m feeling so grateful to my amazing @BeAHeroTeam comrades. They\u2019re p\u2026
p235
aVRT @AdyBarkan: Detroit! Come hang out with me and the amazing @AbdulElSayed tonight at 6:30PM. \u000a\u000aTogether, we can push forward bold, vision\u2026
p236
aVRT @brianschatz: I\u2019m glad the President is talking about the NFL again because it gives everyone another chance to consider the fact that H\u2026
p237
aVRT @NellSco: Every time someone writes "pee tape," replace it with "hundreds of millions of dollars in loans and laundered money" and you'l\u2026
p238
aVRT @AdyBarkan: We can elect a president who believes in single payer healthcare for all of us. \u000a\u000aWe can build a country for the many, not t\u2026
p239
aVRT @AdyBarkan: Calling for help:\u000a\u000aIs there anyone in Detroit who might be able to help me stretch tomorrow? I'm staying at Haas Lake Park.\u2026
p240
aVRT @HelenBrosnan: \u201cThis is no ordinary moment. \u000a\u000aWe need turnout in this election like we haven\u2019t seen in decades. \u000a\u000aWe need to respond to\u2026
p241
aVRT @jmartNYT: .@nytimes letter to the editor of the day - maybe month https://t.co/Z6vt7fXASG
p242
aVRT @AdyBarkan: Tomorrow night in Detroit, MI, I'll be with my good friend @AbdulElSayed - the next Governor of Michigan! \u000a\u000aI can't wait to\u2026
p243
aVRT @JoeforIndiana: I am determined to not go back to the days when Hoosiers with pre-existing conditions are denied health coverage. It's j\u2026
p244
aVRT @AbdulElSayed: Join us tonight as we're joined by healthcare activist Ady Barkan for a rally to Resist Trump's Agenda! Doors open at 6:3\u2026
p245
aVRT @itsgarsha: It's July. In TN. On a Saturday. Fighting on FB and Twitter isn't getting anyone anywhere. Do you have any idea how frustrat\u2026
p246
aVThis is pretty serious. Rep. Hurd is not just a Republican from the Texas 23rd Dist., but also a former C.I.A. offi\u2026 https://t.co/mtgy93AD8L
p247
aVRT @dnvolz: SCOOP: The three top cyber officials at the FBI are departing, a sweep of turnover that comes amid concerns about flagging mora\u2026
p248
aV@FaceTheNation @margbrennan @realDonaldTrump @jeffglor @CBSEveningNews Pleeeeease let @margbrennan  interview\u2026 https://t.co/ENukh6k0Qa
p249
aV@CBSThisMorning @CBSNews @jeffglor @POTUS Pleeeeease let @margbrennan  interview @realDonaldTrump. She could role p\u2026 https://t.co/COJezEzGWd
p250
aVRT @AdyBarkan: Hey @RepRodBlum, I'm so sorry we missed you in your district. Sounds like you were busy with @mike_pence. \u000a\u000aI have a special\u2026
p251
aVRT @cgagin: The President is entitled to  GOP party leaders, at all levels, fully committed to his views and agenda.  Following today\u2019s pre\u2026
p252
aVRT @cgagin: I remain a proud conservative and Republican, but I resigned today as Belmont Co Ohio GOP Chairman. I did so as a matter of con\u2026
p253
aVRT @AshaRangappa_: Tomorrow's @NYDailyNews cover https://t.co/TRZBTVT6Rc
p254
aVRT @kaitlancollins: It has been two days since the Justice Department announced the indictments of 12 Russian intelligence officers who att\u2026
p255
aVRT @JanzforCongress: The day after Trump called for Russian hacking @DevinNunes said: \u201cThere is no evidence, absolutely no evidence, that t\u2026
p256
aVRT @SenWarren: DOJ's criminal charges provide hard evidence that Russian intel agents attacked America to boost their favorite candidates,\u2026
p257
aVRT @BeAHeroTeam: \u201cLet\u2019s have a moment of honesty here. The employees of your office, @RepErikPaulsen, don\u2019t event receive healthcare. That\u2019\u2026
p258
aVRT @BeAHeroTeam: We\u2019re with the amazing folks at @TakeActionMN today, trying to meet with @RepErikPaulsen, but of course, he\u2019s not here.\u2026
p259
aVRT @AdyBarkan: We\u2019re at @RepErikPaulsen\u2019s office today with members of @TakeActionMN, demanding a government that cares for our people \u2014 he\u2026
p260
aVRT @tedlieu: Dear Chair @RepGoodlatte: FYI #Mueller secured 12 more indictments.\u000a\u000aAlso, instead of doing stupid Judiciary Committee hearing\u2026
p261
aV@FLOTUS @theresa_may @POTUS I REALLY DON\u2019T CARE
p262
aV@SpeakerRyan Hahahaha! Feel Good Friday! While POTUS is getting roasted in the UK, our allies are shaking their hea\u2026 https://t.co/sc6s1k9TAa
p263
aVRT @CoveredCA: An answer a day keeps the frustrations away! Have a question with #CoveredCA? The Social Team is here to help. Tweet or dire\u2026
p264
aVRT @girlsreallyrule: WATCH Raskin remind everyone that insults toward Donald Trump do not mean deep state conspiracy as he points out overw\u2026
p265
aVRT @HelenBrosnan: Packed event with @keithellison and @AdyBarkan for the @BeAHeroTeam tour stop in Minneapolis, MN! Two great progressive h\u2026
p266
aVRT @lizjaff: Nothing better than seeing two healthcare heroes like @keithellison and @AdyBarkan about to talk single payer #BeAHero - this\u2026
p267
aVRT @HelenBrosnan: A favorite @AdyBarkan line: \u201cI know I\u2019m preaching to the choir. But there\u2019s a reason we keep going to church every Sunday\u2026
p268
aVRT @BeAHeroTeam: We have the highest # of preventable deaths compared to 18 other industrialized countries. Unacceptable. \u000a\u000aWe need our ele\u2026
p269
aVRT @BeAHeroTeam: Heroes fighting for single payer #MedicareForAll - we\u2019re done with incremental changes. Healthcare delayed is healthcare d\u2026
p270
aVRT @KamalaHarris: The Affordable Care Act extended health coverage to 20 million Americans. People will be harmed by this Administration\u2019s\u2026
p271
aVRT @SenFeinstein: Texas v. United States could make its way to the Supreme Court in an upcoming term, giving Pres. Trump\u2019s nominee a critic\u2026
p272
aVRT @Callahan_Blaine: We are thrilled to announce that our own founder and principal of Callahan &amp; Blaine, Daniel J. Callahan, is joining th\u2026
p273
aVRT @RepJoeKennedy: Trump Admin has one guiding principle for our health care system: treatment should be expensive and inaccessible for tho\u2026
p274
aV@AdyBarkan @lizjaff This is the best thing I\u2019ve seen all day! \U0001f602
p275
aVRT @AdyBarkan: Got right up to Vice President Pence's motorcade. He waved to me, but unfortunately didn't stop to discuss Jesus' commitment\u2026
p276
aVRT @HelenBrosnan: It\u2019s gonna be \U0001f525\U0001f525\U0001f525\U0001f525 https://t.co/4en3MRB8xH
p277
aVRT @AdyBarkan: I can\u2019t wait to talk about #MedicareForAll with my favorite member of the House and Minnesota\u2019s next AG, @keithellison. \u000a\u000aJo\u2026
p278
aVRT @AdamParkhomenko: Absent from MSM speculation today about why Trump always praises Putin is 2020. Trump is keenly aware he needs Putin\u2019s\u2026
p279
aVRT @EricHolder: One more time- Republicans again taking steps to destroy stable health care system. No shame. Pushing rates up. Increasing\u2026
p280
aVOur health care is under attack. Millions like Laura Packard @lpackard rely upon the ACA for health insurance. The\u2026 https://t.co/2IRSEY11rk
p281
aVRT @KatieHill4CA: I\u2019m running for Congress because sometimes doing what\u2019s right means doing what\u2019s hard. My family, friends, and neighbors\u2026
p282
aVRT @BeAHeroTeam: TODAY: We're in Des Moines, IA!\u000a\u000a\u2705 1PM hearing from members of @ProgressIowa &amp; @IndivisibleIowa at the Des Moines Historic\u2026
p283
aVRT @AdyBarkan: Today, I\u2019m in Salt Lake City, en route to speak with @UHPP to hear from members of @MHaction at a mobile home community in F\u2026
p284
aVRT @AdyBarkan: Same ask for help: If anyone is a physical or occupational therapist I would love your help tomorrow. \u000a\u000aWe will be in Cedar\u2026
p285
aVOur health care is under attack. This moves puts at risk health insurance for  about 20 million Americans. The Trum\u2026 https://t.co/8tTJB4rnQA
p286
aVRT @AdyBarkan: .@rachael_scar &amp; Big Baby Carl are flying home to SBA today. They\u2019ll rejoin the tour in a few weeks.\u000a\u000aI\u2019ll miss them terribl\u2026
p287
aVRT @tackettdc: "The Trump administration is on a losing streak in court cases challenging its efforts to abruptly change health care policy\u2026
p288
aVRT @AdamParkhomenko: Dirty Devin Nunes can be beat this year. Democrat @JanzforCongress has 90.9k followers. Let\u2019s do what we can to push h\u2026
p289
aV@JanzforCongress Kick his ass!
p290
aVRT @AdyBarkan: I\u2019m happy to inspire you, but only if it moves you *into action.*\u000a\u000aI need you to work to defeat fascism.\u000a\u000aNot the general \u201cy\u2026
p291
aVRT @kurteichenwald: Clinton on Benghazi: you can ask me anything you want. I\u2019ll sit for 11 hours of questions before one congressional comm\u2026
p292
aVMore trouble for health care in America. https://t.co/MAbf8Xw7q6
p293
aVSo true. Watch Texas, et al v. USA. https://t.co/UwV2h2kIUg
p294
aVRT @AdamParkhomenko: 92.6k and counting for Democrat @JanzforCongress! Keep spreading the word and thank you!!!! https://t.co/kpJ19mLeAt
p295
aVRT @AdyBarkan: Are there any occupational or physical therapists in Colorado Springs? \u000a\u000aArriving tonight and would be so greatful if someon\u2026
p296
aVRT @nowthisnews: This comedian has a suggestion for white people who call the cops on innocent Black families: A dose of \u2018Mind Your Own F*c\u2026
p297
aV@jonfavs \U0001f602
p298
aVRT @CNN: Watch Angelica Gonzalez-Garcia and her 8-year-old daughter reunite at Boston's Logan Airport in a CNN exclusive report. Gonzalez-G\u2026
p299
aV@RyanForRecovery @GarrettHade
p300
aVWe recently filed this class action lawsuit to change the way health insurance companies cover mental health  and s\u2026 https://t.co/mWwZMpGDI7
p301
aVI\u2019m proud to stand with Ady Barkan @AdyBarkan as we fight to change our managed health care system. Please like and\u2026 https://t.co/H6JEKhi52U
p302
aVRT @MaxBoot: I join other principled conservatives in rooting for a Democratic takeover of both houses in November. Like postwar Germany an\u2026
p303
aVRT @DavidBegnaud: Where are the children?\u000a\u000aAbout 3,000 children - taken from their parents, who were accused of crossing in to the U.S. ill\u2026
p304
aVRT @kylegriffin1: Top Trump Departures\u000aYates\u000aFlynn\u000aWalsh\u000aComey\u000aDubke\u000aShaub\u000aMcFarland\u000aCorralo\u000aSpicer\u000aShort\u000aPriebus\u000aMooch\u000aBannon\u000aGorka\u000aIcahn\u2026
p305
aVRT @alsadvocacy: Democratic activist, suffering from debilitating disease, brings nationwide tour to Sparks https://t.co/xm0b3RTJuD via @rg\u2026
p306
aVRT @AdyBarkan: If you wanna read the details of my lawsuit against my insurance company, see here.\u000a\u000a@rich55collins is a great lawyer specia\u2026
p307
aVRT @AdyBarkan: So excited to be adding IL to our #beahero tour! The team there is fired up and I can't wait to meet @PeterRoskam - seems li\u2026
p308
aVRT @AdyBarkan: It has meant the world to me to have @rachael_scar and Baby Carl on the first leg of the tour. Carl loved the fireworks in C\u2026
p309
aVRT @RyanForRecovery: Few things are as infuriating as a friend who\u2019s overdosed 1/2 dozen times in \u201818 already, who\u2019s finally getting help,\u2026
p310
aVRT @VanJones68: Ryan is on a mission to end the opioid crisis. His message is powerful. Can't wait for the book.\u000ahttps://t.co/tDQ3gmt2jn  @\u2026
p311
aV@thehill @Acosta Pitiful!
p312
aVRT @jskarp: A Nathan\u2019s hot dog has 24 carbs.\u000a\u000aJoey Chestnut ate 74 hot dogs.\u000a\u000aEating 1776 carbs and 74 hot dogs on 7/4 is the most American\u2026
p313
aVRT @AdyBarkan: On the road headed to Reno, NV with @WorkingFamilies @CCWFP @BattleBornProg to Carson City to meet with Veterans, march/roll\u2026
p314
aV@Callahan_Blaine
p315
aV@Callahan_Blaine
p316
aV@AdyBarkan
p317
aV@AdyBarkan
p318
aV"We are asking a court find that these practices are unfair, that they are unjust and that the court order them to\u2026 https://t.co/VqN0yNih0Y
p319
aV"I have a 2-year-old boy who I love and is amazing," Barkan said. "I want as much time as I can get with him, and i\u2026 https://t.co/KHnujCTkRz
p320
aVRT @JanzforCongress: Bipartisan report from Senate Intel Committee says Russians interfered to help Trump win. Hey @DevinNunes you should r\u2026
p321
aVRT @abc7miriam: ALS patient Ady Barkan protests denial of treatment. Files suit against #HealthNet. Wow. So much security at Woodland Hills\u2026
p322
aVRT @abc7miriam: Barkan says Health Net relented.  Covered treatment but only after his social media blitz. More ahead. https://t.co/BlEsQGT\u2026
p323
aVRT @abc7miriam: How much effort does it take to battle a health care provider?  Ahead at 6p, #BeAHero.@AdyBarkan ultimately got the treatme\u2026
p324
aVRT @Callahan_Blaine: Go get 'em @rich55collins and @AdyBarkan! https://t.co/VHOeXxtGMe
p325
aVRT @Callahan_Blaine: Very proud to be representing the unstoppable @AdyBarkan as he protests denial of treatment and files suit against #He\u2026
p326
aVBarkan v. Health Net. Please read.\u000aOnly in a health care system designed to deny and delay coverage for essential h\u2026 https://t.co/0fkfJgf6RU
p327
aVSo proud to stand with these true heroes. We all need to Be A Hero! https://t.co/9mvuVAzDUl
p328
aVFollow the house bus! https://t.co/fVMl9pX3ay
p329
aVThank you Miriam Hernandez @abc7miriam for your coverage of today\u2019s important announcement. We will fight for chang\u2026 https://t.co/SHaKseVBOR
p330
aVOur health care is under attack. That\u2019s why today I was at Health Net\u2019s corporate headquarters to announce 3 class\u2026 https://t.co/J27IvFj5No
p331
aVI am so proud to represent such a courageous man. Let\u2019s do this @AdyBarkan  \U0001f44a\U0001f3fc https://t.co/ChdzXsGH6O
p332
aV@SenFeinstein @AdyBarkan
p333
aV@SenFeinstein @AdyBarkan
p334
aVRT @AdyBarkan: Tomorrow, I'm hitting the road on the first official stop of the #SummerOfHeroes @BeAHeroTeam tour in CA-25!\u000a\u000aI'd love for y\u2026
p335
aVRT @AdyBarkan: Has your health insurance company ever denied you coverage for care you needed?\u000a\u000aThen you\u2019ll be excited about the announceme\u2026
p336
aV@jaypeeterman @WhatICantEven @healthnet @CDInews Thank you, Sina. I will definitely keep you posted and look forward to sharing information.
p337
aVRT @AdyBarkan: \u201cHope should shove you out the door, because it will take everything you have to steer the future away from endless war, fro\u2026
p338
aVRT @AdyBarkan: \u201dTo hope is to give yourself to the future - and that commitment to the future is what makes the present inhabitable.\u201d https\u2026
p339
aVRT @AdyBarkan: Who\u2019s ready for a national day of Resistance?\u000a\u000a#FamilesBelongTogether and free! https://t.co/GPhRAzNzKj
p340
aVRT @FBTLosAngeles: Superheroes are among us today. #familiesbelongtogetherla #FamiliesBelongTogether https://t.co/JNzJ6ORW3Y
p341
aVRT @CPDAction: Huge crowds today at #familiesbelongtogetherla! https://t.co/jbVST7TBvN
p342
aVRT @jonfavs: LA march w/the Crooked fam. Pod out Tues, including interviews with @AdyBarkan , @KamalaHarris , @MayorOfLA, and lots of inspi\u2026
p343
aVRT @BeAHeroTeam: Senator @KamalaHarris meets baby \U0001f476 Carl \U0001f63b. We need you to lead from the inside, Senator Harris \u270a\U0001f3fd @CPDAction @AdyBarkan #F\u2026
p344
aVRT @chadwickboseman: Proud to fight the good fight with so many passionate people today at the #FamiliesBelongTogether rally. This is just\u2026
p345
aVRT @TeamPelosi: Donald Trump and Republicans will do all they can to ensure the Affordable Care Act, including protections for 130 million\u2026
p346
aV@realDonaldTrump https://t.co/YDKTran5Mb
p347
aV@AshaRangappa_ Who is Jesse Watters and what privileged world did he come from? He\u2019s dripping with smug, pompous di\u2026 https://t.co/uA1kyWNGSO
p348
aV@realDonaldTrump  https://t.co/cLzn4niIKE
p349
aV@IvankaTrump  https://t.co/l3ER53saeI
p350
aV@realDonaldTrump  https://t.co/mshI6DeWpl
p351
aV@VP @POTUS @Cabinet @MickMulvaneyOMB  https://t.co/2yFDlZs8Si
p352
aV@SecNielsen  https://t.co/uHMhzSFVBN
p353
aV@realDonaldTrump  https://t.co/hJIzEsDWhj
p354
aV@realDonaldTrump @SecNielsen  https://t.co/UgXZkOUmqN
p355
aV@realDonaldTrump  https://t.co/Fp3MlmDdkr
p356
aV@realDonaldTrump  https://t.co/hKvIBlDBAJ
p357
aV@EricTrump @realDonaldTrump  https://t.co/bTQdQVpcmK
p358
aV@PastorDScott @realDonaldTrump  https://t.co/6QAFxm63fY
p359
aV@realDonaldTrump  https://t.co/zzLi4IikbX
p360
aV@realDonaldTrump  https://t.co/YDkVFONAtK
p361
aV@realDonaldTrump @PeteStauber  https://t.co/jU3kASWjKo
p362
aV@realDonaldTrump  https://t.co/2QwfqvO19u
p363
aV@realDonaldTrump  https://t.co/UWWLYmSpXF
p364
aV@realDonaldTrump  https://t.co/p52wqTSeOT
p365
aVRT @MikeBloomberg: Congress has failed, legislatively &amp; constitutionally. We need new leadership that will re-assert Congress as a co-equal\u2026
p366
aV@FoxNews @TuckerCarlson The \u201druling class?\u201d Come on Mr. Carlson. At least do a better job of pretending to be a journalist.
p367
aV@WhiteHouse Yes, in fact, you did.
p368
aV@marcorubio Oh come on Senator, you\u2019re better than that. How pathetic.
p369
aV@VP @POTUS Because this is the most important issue of the day, right? Come on Mr. Pence. SMH
p370
aV@FaceTheNation @margbrennan @RudyGiuliani Thank you @margbrennan for being the best interviewer on TV. You don\u2019t ar\u2026 https://t.co/PrOqsErJm9
p371
aV@realDonaldTrump Not true. Check your facts.
p372
aV@realDonaldTrump When the last MS-13 killing of an innocent person in the USA? How many murders were attributed to\u2026 https://t.co/vYa59hV8Qo
p373
aV@SecNielsen You might want to pull this down. Your lack of credibility\u2019s showing.
p374
aV@MauryRiddick @FoxNewsInsider @JesseBWatters @TheFive Hahahaha! Not a fake liberal, just one who\u2019s not widely followed.
p375
aV@realDonaldTrump Oh, it will end. Not the way you\u2019d like, but there will be an end.
p376
aV@Alyssa_Milano https://t.co/NgWYDUEfni
p377
aV@foxandfriends @realDonaldTrump @jasoninthehouse President Trump\u2019s campaign manager is going to jail pending trial.
p378
aV@realDonaldTrump Your campaign chairman is going to jail pending trial.
p379
aV@FoxNewsInsider @JesseBWatters @TheFive Who\u2019s Jesse Watters? And what does he do?
p380
aV@SpeakerRyan When you do speak, please explain how the legislation will protect essential health care benefits for\u2026 https://t.co/liwdmT05sa
p381
aV@GOPLeader But if you don\u2019t protect the essential health care benefits for behavioral health/substance use disorder\u2026 https://t.co/qejIYkOBgv
p382
aV@GOPLeader @POTUS Please explain how the various pieces of legislation guarantee the treatment needed for those suf\u2026 https://t.co/MlCV1UM8hN
p383
aV@SpeakerRyan Please explain how the various pieces of legislation guarantee the treatment needed for those sufferin\u2026 https://t.co/bOAdLutKcL
p384
aV@SpeakerRyan But if you don\u2019t protect the essential health care benefits for behavioral health/substance use disord\u2026 https://t.co/yAOTofLkBy
p385
aV@realDonaldTrump You are the President of the USA. Why do you feel the need to stoop down and engage in the name ca\u2026 https://t.co/aVK1vRxSaq
p386
aVRT @KamalaHarris: This is simple \u2014 this Administration is willing to let insurers deny you coverage if you have a pre-existing condition. I\u2026
p387
aV@WhatICantEven @healthnet @CDInews Olivia @WhatICantEven, the lawsuits are pending in LA Superior Court. Health Net\u2026 https://t.co/eaZTkNHv89
p388
aV@cathymcmorris @SpeakerRyan But if you don\u2019t protect the essential health care benefits for behavioral health/subst\u2026 https://t.co/Z1L9v5g26m
p389
aV@RepErikPaulsen @SpeakerRyan @CNNPolitics But if you don\u2019t protect the essential health care benefits for behaviora\u2026 https://t.co/VD9cLxJMyY
p390
aV@SteveScalise @SpeakerRyan But if you don\u2019t protect the essential health care benefits for behavioral health/substa\u2026 https://t.co/5gwXj3SB2h
p391
aV@WhatICantEven @healthnet @CDInews https://t.co/luCj836Nae
p392
aV@WhatICantEven @healthnet @CDInews https://t.co/UmnL3hIK3Y
p393
aV@WhatICantEven @healthnet @CDInews You\u2019re absolutely right. And I took it one step further \u2014 I filed two class acti\u2026 https://t.co/iXeHmjhCcm
p394
aV@pcosta40 Hahaha! So good to see you and the family yesterday.
p395
aV@michaelcburgess @SpeakerRyan But if you don\u2019t protect the essential health care benefits for behavioral health/sub\u2026 https://t.co/0khZ5bXlDD
p396
aV@realDonaldTrump Uh, I don\u2019t think so. Did you ask them how they feel?
p397
aVThanks for bravely sharing @Alyssa_Milano. We need to protect mental health care benefits for all Americans. 1 in 5\u2026 https://t.co/fpeaXlYVP6
p398
aVRT @KamalaHarris: The Affordable Care Act ensures millions of Americans with pre-existing conditions have access to affordable care. This A\u2026
p399
aV@RepEvanJenkins @SpeakerRyan None of this means anything if you strip away the essential health care benefits for b\u2026 https://t.co/kjNKpEvs5f
p400
aV@healthnet How about providing adequate benefits for behavioral health and an adequate network of behavioral health care providers.
p401
aVIf you know Ady Barkan, you must sign the petition. If you don\u2019t yet know Ady, please follow him, hear his story an\u2026 https://t.co/8dFMGmPv8v
p402
aV@SpeakerRyan @WhiteHouse You do realize, however, that the attack on the Patient Protection and Affordable Care Act\u2026 https://t.co/XAbOzWYiAp
p403
aVRT @AdyBarkan: Six months ago, I asked him to be an American hero. He refused.\u000a\u000aSo now I\u2019m asking you.\u000a\u000aJoin me. Let\u2019s take back our democr\u2026
p404
aV@AdamParkhomenko Please help! We are being held captive in CA48 by Comrade Rohrbacher.
p405
aV@seanhannity Thoughts? Do you see this problem? Why not throw down a journalistic challenge to only report verified\u2026 https://t.co/LdK2pRbZ68
p406
aVGot a preexisting condition? The Trump administration wants insurers to deny you coverage https://t.co/uGC4qihUmt
p407
aVRT @BeAHeroTeam: 6 months ago today, @AdyBarkan had an encounter with @JeffFlake on a plane. He begged him not to vote for the #GOPTaxScam.\u2026
p408
aVPlease read this. The attack on the Patient Protection and Affordable Care Act persists. We are at risk of losing h\u2026 https://t.co/oUZPI0QnMU
p409
aV@realDonaldTrump \u201d... Although my campaign did not collude with Russia and there was no influence in the result of\u2026 https://t.co/Uuq9SAcqJE
p410
aV@realDonaldTrump Imagine if you acted presidential from the beginning: \u201cI commend the brave men and women of our in\u2026 https://t.co/vtFj9Y2W3U
p411
aVRT @budweiserusa: If you catch a ball in your beer, you have to finish it. She knows the rules. If anyone sees this girl, tell her she\u2019s go\u2026
p412
aV@seanhannity I am a democrat and prefer to read the news than to watch on TV, but I view as many cable news program\u2026 https://t.co/junGAOtYDR
p413
aV@realDonaldTrump Wow, that\u2019s hyperbolic nonsense.
p414
aV@realDonaldTrump Those in his district are not \u201cproud\u201d of any the drivel that comes out of Rohrbacer\u2019s mouth. What\u2026 https://t.co/HhT6VDiZZM
p415
aVRT @AshaRangappa_: Despite the accusations of "illegality" against the FBI, I have yet to see a *single* coherent narrative of innocence th\u2026
p416
aVRT @KamalaHarris: Access to health care should never be a function of somebody\u2019s wealth. I am proud to have co-sponsored the Medicare for A\u2026
p417
aVRT @AdyBarkan: Yippee! I finally get to meet @chrislhayes in person.\u000a\u000aTune in to @allinwithchris tonight. I\u2019ll be on at 8:45 eastern.\u000a\u000aWe\u2019l\u2026
p418
aVRT @BeAHeroTeam: Today is election day in #AZ08! \u000a\u000aLast week, GOP candidate Debbie Lesko told @AdyBarkan she is \u201cnot familiar\u201d with GOP pla\u2026
p419
aVRT @AdyBarkan: \u201cAdy Barkan, the man with ALS who became nationally famous for confronting Sen. Jeff Flake over his support for the Republic\u2026
p420
aVRT @AdyBarkan: \u201cWhile in Arizona, Barkan, who will need Medicare as his body deteriorates, asked Lesko to respond to the stated intentions\u2026
p421
aV@CDInews @CA_DaveJones @ConsumerAttysCA I\u2019m very much looking forward to hearing from our most effective Insurance Commissioner.
p422
aVRT @CDInews: Tomorrow #Insurance Commissioner @CA_DaveJones Jones is delivering a keynote address at the @ConsumerAttysCA #California Justi\u2026
p423
aVRT @KamalaHarris: Watch my conversation with Stephen Colbert about protecting Robert Mueller\u2019s investigation and what we\u2019re doing to secure\u2026
p424
aVRT @JohnChiangCA: "In his relatively brief time in office...he has announced his intention to undo just about every major environmental reg\u2026
p425
aVRT @CoryBooker: As the Trump administration expands offshore drilling off New Jersey and many other states, this #EarthDay please continue\u2026
p426
aVRT @MikeBloomberg: The U.S. pledged to work with the rest of the world to fight climate change under the Paris Agreement, and that includes\u2026
p427
aVRT @BeAHeroTeam: .@AdyBarkan on @MSNBC:\u000a\u000a"if we're going to save our democracy, we NEED people to turnout as if their lives depend on it, b\u2026
p428
aVRT @AdyBarkan: I\u2019m trying to show people that making sacrifices on behalf of what you believe in can be a joyous and fulfilling and liberat\u2026
p429
aVRT @elizabethforma: My friend @AdyBarkan is a hero \u2013 not only to me, or his son Carl, but to millions of people whose health care he's foug\u2026
p430
aVRT @PodSaveAmerica: "Healthcare is the number one issue. More than Mueller and Russia, more than jobs and the economy, more than rent and h\u2026
p431
aVRT @JohnChiangCA: When Congress attacked the ACA &amp; clinics like @PPFA, I came up w/ \u2018lifeline grants\u2019 \u2014 so CA\u2019s 1,200 community health clin\u2026
p432
aVRT @nowthisnews: .@AdyBarkan was diagnosed with ALS and doesn't know how much time he has left. \u000a\u000aThis is the heart-wrenching letter he wro\u2026
p433
aVRT @AdyBarkan: Today is a big day. Along with leaders from across the progressive movement, I\u2019m launching a national campaign to drive mill\u2026
p434
aVRT @JohnChiangCA: Most people don\u2019t know that @CA_DaveJones &amp; I both grew up in the Chicago suburbs together &amp; ended up in CA serving in el\u2026
p435
aVRT @CA_DaveJones: I met @JohnChiangCA my first day of high school outside Chicago.Friends ever since. Campaign poster from our run for stud\u2026
p436
a.