(lp0
V@SeanCasten You are my hope! You have no idea what that means to me
p1
aV@CherryWallis I TOTALLY understand. They can be dark and scary. A friend once told me to look at these times like a\u2026 https://t.co/D6dyPVHC2J
p2
aV@chrissyteigen Fyi this is why I tell people we are bff's
p3
aV@SeanCasten Cant help u canvas, but voted early and for you! Working on family too!!!
p4
aV@mishacollins @jarpad @JensenAckles @BetoORourke Ugh, I live in Illinois, but hopefully I made ya'll proud, cus I v\u2026 https://t.co/DhsVThIPIm
p5
aV@chicagotribune @PeterRoskam  @SeanCasten ya'll forget that there are plenty of us apapartment dwelling constituent\u2026 https://t.co/jz3kVSwHyD
p6
aV@mishacollins I agree with Vicki.
p7
aV@mishacollins Dont worry, somehow, between school drop off and Halloween lunch pick up, and then redrop off. Someho\u2026 https://t.co/HP9NJTROJf
p8
aV@mishacollins Bahahahaha!! That's priceless!
p9
aVReally @PeterRoskam? You won a rep for "across the isle" politics BECAUSE you stood up against big corporations for\u2026 https://t.co/XXyOSDOxYl
p10
aVWhat do you think? https://t.co/bgn6Tm3zAX
p11
aVWell that sucked. Went to a tattoo shop. Owner was condescending and insulting. Hostile to. Then "dumped" me after\u2026 https://t.co/e8ObUdsRY4
p12
aVWhat is wrong with me? Why do I love @johnlegend &amp; @chrissyteigen so much?! #relationshipgoals and @chrissyteigen i\u2026 https://t.co/0lksKB66Kq
p13
aVThis is pathetic and frightening.The media has always had a resp. In the checks and balances system that is built i\u2026 https://t.co/cvI6sUBmgU
p14
aV@CherryWallis Updated list \u000aQuantum leap\u000aForever Kight\u000aYoung Riders\u000aHighlander\u000aGame of thrones\u000aStar trek: next gen\u2026 https://t.co/Lxqk6hpssm
p15
aV@SophieT Crying right now, thank you for your words of support! You made a difference in my life today! Lately it f\u2026 https://t.co/CSPHUfldTX
p16
aV@chancetherapper Thanks man, I couldn't have said it better myself! I wish I could just get my mom to see that!
p17
aVRT @nowthisnews: This brilliant parody song proves why it's anything but a 'scary time' for men https://t.co/UrNHf3HAB6
p18
aVRT @Alyssa_Milano: Don't let this performance fool you. If @SenatorCollins believed in #MeToo she would have opened the door when I was in\u2026
p19
aVhttps://t.co/C8A7ml4TQc
p20
aVI'm so wrong it is about so much more than that!
p21
aVReminder to always watch what my kids are doing and watching!! Some of this is scary stuff!! https://t.co/v00h77aKkY
p22
aVhttps://t.co/lU78nsvdzg
p23
aV@SenSanders @SenatorDurbin Yes!! Now that actually is my senator! I'm glad to see him fighting this!! Now wheaton,\u2026 https://t.co/G0ub26W9j8
p24
aVRT @Alyssa_Milano: \u201cThis is not a trial for Dr. Ford. It\u2019s a job interview for Judge Kavanaugh.\u201d\u000a\u000aThank you, @SenFeinstein. https://t.co/8J\u2026
p25
aVRT @funder: .@realDonaldTrump Watch the applause for Obama when he gave he first UN speech. He wasn\u2019t an international laughingstock, like\u2026
p26
aV@Alyssa_Milano thank you! \u000a#IfOnly #MeToo https://t.co/MXLdl9Pgr6
p27
aV@GRRMspeaking yes !!! https://t.co/nKb8FbFEqb
p28
aV@TherealTaraji Fuck yeah! With your fist!
p29
aV@ArianaGrande @ImBreathing4U Please dont ever be sorry for asking the squad for support! If all we can do is lift y\u2026 https://t.co/gESUtRCt9D
p30
aVRT @BarackObama: The antidote to government by a powerful few is government by the organized, energized many. This National Voter Registrat\u2026
p31
aVThis is ridiculous,and in itself,criminal!Conversational therapy is a valuable resource for those who are dealing w\u2026 https://t.co/oGEp79jmf1
p32
aVCannot wait!!\u000a\u000aMarvel Studios' Captain Marvel - Official Trailer: https://t.co/7OUTDjvNj5
p33
aVOMG!!! My life will finally be full again!!! https://t.co/gddLYDU7dy
p34
aVYEEEAAASS!!! https://t.co/4SRF4r2xah
p35
aVRT @Eiggam5955: I am 61.\u000aI was raped when I was 17.\u000aBy a man I knew.\u000aI was a virgin.\u000aI blamed myself for years.\u000aI was ashamed and embarrass\u2026
p36
aVMy husband knows me so well!!\u000a\u000aGod Can Always Track You Down and Kill You, but in a 300 Horsepower Toyota Camry You\u2026 https://t.co/W4SuJjTZHH
p37
aVRT @TheEllenShow: Today, @MissyElliott\u2019s funky white sister met her sister. \u000a\u000aWatch more on @ellentube: https://t.co/Ee24Dbm71E https://t.c\u2026
p38
aVRT @GeorgeTakei: Yaasss, Willie. https://t.co/hjheyfvaI2
p39
aVLove when someone new to the situation, comes at me like they know something
p40
aVI really need to learn that the comment section on YouTube is probably not filled with anthropologist and historian\u2026 https://t.co/X5woy1aozH
p41
aVA boy at school tried to insult my son my calling him "Guacamole Man" cus he had guac in his lunch. My son looked a\u2026 https://t.co/gRixxi93uc
p42
aV@mishacollins @uvmvermont @christineforvt Ok cool, just waiting for you to hit chicago (wester suburbs specifically\u2026 https://t.co/hIrFBnYPro
p43
aVRT @mmpadellan: Raise your hand if you're:\u000a\u000a-PRETTY sure the lackluster recovery effort in Puerto Rico from Hurricane Maria had EVERYTHING\u2026
p44
aV@Renner4Real @SarahKSilverman This makes me sick. It is disturbing on a fundamentally human level
p45
aVWhat is the problem with everyone!!! The government has no place telling you what you can or cannot do without your\u2026 https://t.co/6YOkKL4XE3
p46
aVExactly what I needed to hear, especially today...I like you just the way you are. I hope I can pass this on to my\u2026 https://t.co/qGIJxTPxAo
p47
aV@perlmutations Well I know his trump tower in chicago, where I live, is STILL in violation of EPA standards for the\u2026 https://t.co/ZbBSKuDmXq
p48
aV@SophieT Thank you
p49
aVThank you @SophieT I have been struggling HARD with my treatment this past week, and this is EXACTLY  what I needed\u2026 https://t.co/fIXmGXmrCB
p50
aV@jk_rowling I dont know why I am surprised by your mastery of words!! Well written and thank you for getting the th\u2026 https://t.co/giqLjhrsZv
p51
aVHad a dream last night. It was so good I'm pretty sure it was written by @GRRMspeaking and filmed for HBO! Coming to REM sleep near you!!
p52
aV@mishacollins one of the many reasons I love you!! #besure to vote #BlueWave https://t.co/OPPLQ2I3bN
p53
aVTotally indulged in some retail therapy today, and I COMPLETELY blew my budget! Some bills will have to wait, but w\u2026 https://t.co/BJmLGzvWNa
p54
aVYeas!!! Congrats to my longtime heros, @OfficialALW @SirTimRice , this was the first musical that rang through my h\u2026 https://t.co/A9sJFyjcNz
p55
aV@GeorgeHarrison That's the truth!
p56
aV@CherryWallis That'll never change, oh wait it'll just get worse, lol so just enjoy
p57
aVRT @JimCarreyOnline: REAL TIME WITH BILL MAHER | Jim Carrey quote:\u000a\u201cCanadians are so nice because they have a government that cares about t\u2026
p58
aVI love how thes hack videos, they make something like hazelnut milk with an almost empty nutella bottle, then put t\u2026 https://t.co/OrSXHFCPkz
p59
aVAs a mom blinking is a game of russin roulette, I never know when that last blink will become sleep
p60
aVRT @SenSanders: Mr. President, stop the lying. Last I heard, it was your own budget that cut Social Security and Medicare, not the Democrat\u2026
p61
aV@HamillHimself So I'll take it as you're a Bears fan!!! Possibly a Cubs fan!!
p62
aVSo my mother just told me that there comes a point when "I just need to get my shit together" I regards to my ptsd\u2026 https://t.co/TGDkGKnODg
p63
aV@CherryWallis Started at 5yrs old, and never stopped! I'm just waiting for the pictures of the first horse you own!\u2026 https://t.co/6WFTTyNjIY
p64
aVRT @perlmutations: To be clear, your daughters, our daughters, everyone\u2019s daughters with continue to get abortions til forever, and yes, ev\u2026
p65
aVRT @allyobrien: The I weigh movement started by actress @jameelajamil encourages women and girls to accept themselves and define themselves\u2026
p66
aVRT @ChrisEvans: Everyone should watch this whole speech. Please. Anytime you start to lose hope, listen to this speech in its entirety.\u000a\u000aDo\u2026
p67
aVThis works! Thank you @Alyssa_Milano for the script it makes it easier!! https://t.co/Pn0mUzhrdN
p68
aV@chancetherapper I'm so sorry
p69
aVAgreed so important and courageous to take that leap of faith and ask for the help. I had a real bad set back with\u2026 https://t.co/neoCobe2Te
p70
aVJust read about the overdose death of Mac Miller, and all I can say is, Damn. My heart is so sad to hear of this lo\u2026 https://t.co/d5sbTPXJKP
p71
aV@POTUS @FLOTUS @realDonaldTrump Well that speach was made for grown ups, in grown up talk. Not dumbed down for some\u2026 https://t.co/kUuKK5z4M6
p72
aVIt's not that I dont know what to say, there is just so much TO say.\u000aThe press' role has ALWAYS been to act as anot\u2026 https://t.co/LabkAWRjGL
p73
aV@CherryWallis Highlander\u000aForever Knight\u000aGame of Thrones\u000aSupernatural\u000aThe Magicians
p74
aVHe's so opposed to common human courtesy? I've seen more professionalism I a Claire's! https://t.co/VjeJBdzGAk
p75
aVRT @KamalaHarris: Remember that this president is an unindicted co-conspirator in a felony criminal investigation and should not have the a\u2026
p76
aVMany things I love about this pic, not the least of which is that this woman looks like Kate Middleton!!!\u000aWhat do y\u2026 https://t.co/w0bf5h5pWv
p77
aV@Alyssa_Milano @realDonaldTrump Yep looks like it!
p78
aVI guess that depends on which "Lannister kids" you are talking about. \u000a\u000a'Game of Thrones' Star Nikolaj Coster-Walda\u2026 https://t.co/A6w8eigmrt
p79
aVRT @GRRMspeaking: From our friends at Grim Oak Press. Authors helping authors helping others.  All monies for this charitable auction are g\u2026
p80
aVRT @jameelajamil: I gave a very frank interview with @krishgm for Channel 4 News about society's routine abuse of women and how it has shap\u2026
p81
aVRT @SenSanders: The median Amazon employee makes $13.67 an hour.\u000a\u000aMany of those employees rely on food stamps, Medicaid and public housing\u2026
p82
aVPOOP AND PEE IN THE POTTY THIS AM!!!! POOP AND PEE!! And a dry pull up this am!! Potty training is happening in this house!!
p83
aVRT @GRRMspeaking: Throw Back Thursday from my cameo appearance on @SYFY Channel's Zombie Nation https://t.co/7OyI2ei1j0
p84
aV@HamillHimself Lol yes
p85
aV@perlmutations Wait is this a reboot of fantastic beasts, second salemers anyone?! Well they should know you can't\u2026 https://t.co/vbNQRPat0z
p86
aVRT @dodo: This shy dog has NO idea he's about to leave the shelter \u2014 and his reaction is priceless \U0001f436\U0001f495 https://t.co/DjihoCgcF3
p87
aV@perlmutations Thanks one of the many reasons I love you!!
p88
aV@alyankovic @drdemento @thomaslennon Congrats!!! @drdemento is where I first heard your music and spent MANY a sat\u2026 https://t.co/7qhGgIReFX
p89
aVRT @HamillHimself: You should pin this Tweet until he leaves office. https://t.co/C08bhQCzoD
p90
aVRT @davidhogg111: Do not let your anger get the best of you turn your pain into action.\u000a\u000aDo not engage the hate. \u000a\u000aEngage the change. \u000a\u000a-Re\u2026
p91
aV@GRRMspeaking Since this is shameless self promotion cnas I fangirl out and just say how much I love you!!! Ok bye!
p92
aV@perlmutations Oh BTW, witchcraft is exerting your personal energy to effect and manifest the change you want in th\u2026 https://t.co/rK2aSycdri
p93
aV@CherryWallis @Primark Omg do we get to see?!?!?
p94
aV@ArianaGrande Fall is my favorite!!!
p95
aV@ArianaGrande Why do I feel like that pokemon would totally be your spirit animal!
p96
aVRT @realHeatherD: You fucking Congress people say you can't live on $174,000 plus stipend, but expect us to live on $7.25/hr?!?!?!  You can\u2026
p97
aV@CherryWallis Oops! Lol fire pit too!
p98
aV@CherryWallis NOTHING better than an amazing bonfire with friends!!! It is good for the soul!!!
p99
aVDamn. Just Damn it.\u000a\u000aThank you for your service, rest well, and God Bless you and your family. You are already miss\u2026 https://t.co/MrZ06WuAJa
p100
aV@CherryWallis just watching your newest video uploads, just gotta tell ya I LOVE you lots!!!
p101
aVI'm just gonna leave this right here... https://t.co/u60lRYoviR
p102
aVhttps://t.co/9sMRa781CV
p103
aVhttps://t.co/yVXQPJyaTx
p104
aV@CherryWallis Lol, isn't that just how u end up with cats? They show up one day and refuse to leave
p105
aVRT @TheTattooedProf: Hi there-Civil War historian here. So, uh...this is really, really far from "The Truth." Got a minute? /1 https://t.co\u2026
p106
aVRT @ChrisEvans: This is perfect. No grandstanding. Just plain-speaking. This is what integrity looks like from a man who has earned the rig\u2026
p107
aVRT @DalaiLama: I am one of the 7 billion human beings alive today. We each have a responsibility to think about humanity and the good of th\u2026
p108
aVRT @dodo: This guy gave up everything he owned to save hundreds of stray dogs \U0001f44f https://t.co/MPB7SO66SW
p109
aVRT @lemieuxdavid: 49 years ago today @GratefulDead played Woodstock, They were followed that night by Janis Joplin, The Who, and Jefferson\u2026
p110
aV@SophieT Amen sister! Mine is handing it to me today!!
p111
aVJust finished avengers infinity wars and I'm still crying!! I basically feel like that's what happens when you let\u2026 https://t.co/ZVpRUBGRfK
p112
aV@TheEllenShow Omg! I had no idea, not that I should be privy to that, but he has always been a guiding force in my\u2026 https://t.co/BZLKc46pAI
p113
aVThis is a beautiful sentiment. I'm gonna leave it right hear for ya'll\u000a\u000aAnd for me, I wanna remember this one! https://t.co/3wdGAHTCPD
p114
aV@Lin_Manuel Always so inspired by your creativity and now by your positivity!! I will try my best to take your wisd\u2026 https://t.co/XJ4h1f4ZEc
p115
aVRT @SenSanders: Listen to this historian explain why Trump chants "Build That Wall!" (with @TimothyDSnyder) https://t.co/iyBVRGO6z2
p116
aV@chrissyteigen Appalling to me, the way ppl have forgotten the purpose of that word.The soul crushing,breaking of t\u2026 https://t.co/3HjzAN4M1N
p117
aV@freefocusmgmt @CherryWallis You are lucky to have her!!! Love you @CherryWallis
p118
aV@CherryWallis @LEGO_Group yeeessss! Please!
p119
aVIts unrealistic to expect or hope for this in the US, but hey 8 million for a "space force", nope total necessity... https://t.co/b2j4HLW6Ly
p120
aVRT @GratefulDead: "Believe it if you need it,\u000aIf you don't just pass it on" \u000a#TheseLyricsChangedMyLife \u000a\u000aShare your favorite #GratefulDead\u2026
p121
aV@GratefulDead "Once in a while you get shown the light\u000aIn the strangest of places if you look at it right."\u2026 https://t.co/YmHAMRNFh6
p122
aVRT @GeorgeTakei: Pence just doubled down on the need for a Space Force. This from a man who probably believes the Earth is just 6,000 years\u2026
p123
aVUmm... what?! And how many asbestos caused mesothelioma class actions lawsuits have I seen commercials  for? Who wo\u2026 https://t.co/lJxBxbKeof
p124
aVMy poor book Clash of Kings, looks just as war torn as the story inside! Thanks kids, it's always nice to know you respect my stuff!!!
p125
aV@CherryWallis @shanedawson @JeffreeStar @JeffreeStar i completely understand. You are and amazingly strong person a\u2026 https://t.co/QZ1j6eJH5z
p126
aV@GRRMspeaking Just finished #ClashofKings #GameOfThrones and I  CAN NOT believe the number of high lords and banner\u2026 https://t.co/JPT33aJ9Tn
p127
aVRT @nowthisnews: Alejandra Juarez's husband served in the U.S. military 3 times and voted for President Trump \u2014 now she's being deported an\u2026
p128
aV@SenSanders HELL YEAH! This is corporate America, and I too am one of her many victims. Myself and my young family too.
p129
aVHell Yeah, that's corporate America! I hear ya' sister 25yrs working in that and I am broken too. Mental, physical,\u2026 https://t.co/BDou3Kxk13
p130
aVRT @GeorgeTakei: Overheard: "Someone smashed Trump's star on the Hollywood walk of fame. Now he's down to six horcruxes." So, Twitterdom. W\u2026
p131
aV@ddlovato I love you and am so proud of all your hard work! I am such a fan for so many reasons!  It is all gonna b\u2026 https://t.co/jQvwTT2QPq
p132
aV@DHLeCommerce and @Groupon you suck! I have spent 2 days stuck in the endless circle of hell that is doing business\u2026 https://t.co/xhypgeTbfa
p133
aVThank you so much @jk_rowling and I CAN NOT WAIT!!!!\U0001f929\U0001f60d https://t.co/UvPnTSw5yd
p134
aVThe Onion Reviews \u2018Mamma Mia! Here We Go Again\u2019&lt;em&gt;&lt;/em&gt; https://t.co/TDmXPSuIJK
p135
aVhttps://t.co/3foaazkQfg
p136
aVhttps://t.co/wJ0DExcaAt
p137
aV@ChrisEvans lol, me too. can we talk about ear buds now?
p138
aV@SirPatStew just wanted to take the time today to tell you how much I love you!! ok thanks bye!
p139
aV@Renner4Real Oh Great news!! I have two children who need to be signed up, are you taking new registrations yet?
p140
aV@ChrisEvans @realDonaldTrump spoken like a true Captin America. Thank you!!!
p141
aV@HillaryClinton AMEN!
p142
aV@mishacollins @Alex8Calvert I love you! You always make me, and I'm sure others, laugh! thank you for being a ray of light!!
p143
aV@serenawilliams thank you for that and I am amazed by what you do!! https://t.co/BrkESso6OX
p144
aV@perlmutations I am so angry at the disgrace and failure this man is. Just an insult to all who have served and die\u2026 https://t.co/5kXQXkndUf
p145
aV@johnlegend he is a disgrace
p146
aV@realDonaldTrump You are a disgrace. You have let down the people and country you have sworn to protect. The world\u2026 https://t.co/h2wsEME3p3
p147
aV@POTUS you are an embarassment. You fail to protect your people and your country by your distorted reality and comp\u2026 https://t.co/veSe8JW1Zr
p148
aVwhy do I love these two so much... https://t.co/uuZWcXhzxO
p149
aV@perlmutations hell yeah!!
p150
aVi have so much respect for you! You are so intellegent and well spoken. You are such an inspiration, to me personal\u2026 https://t.co/ChjF4ZdqEa
p151
aV@GameOfThrones @Maisie_Williams @instagram I am gonna miss you!!! I can't wait to see what you do next! you are ama\u2026 https://t.co/UAu8C6R4fJ
p152
aVThere's somethin' wrong with the world today\u000aI don't know what it is\u000aSomething's wrong with our eyes\u000a\u000aWe're seein'\u2026 https://t.co/jnpj4XDnWA
p153
aVhttps://t.co/bvvDeYLTki
p154
aVhttps://t.co/gpG2nXFRzW
p155
aV@jk_rowling that's frightening. Not all of us are so blind. thank you again for being strong enough to keep the lig\u2026 https://t.co/zovHWRWGfL
p156
aV@Alyssa_Milano @iamjohnoliver did an episode with all of this in it on @LastWeekTonight
p157
aV@chelseahamill @HamillHimself lol
p158
aV@davidhogg111 pls be careful!! that is an amazingly dangerous road even for drivers! Thank u for being strong and keeping up the fight!
p159
aVthis is AMAZING!!! https://t.co/41kMs2aSZJ
p160
aV@johnlegend @verainstitute @NewAmerica thank you for all you and @chrissyteigen do! you are great people  who NEVER\u2026 https://t.co/u71rd0i8kG
p161
aVRT @johnlegend: .@verainstitute and @NewAmerica are taking action to help reunite children with their families. The Immigrant Connection Pr\u2026
p162
aV@jk_rowling @realDonaldTrump Bahahaha! I love u @jk_rowling you are a lumos in my world!!!
p163
aV@SenSanders I worked a job with a rate of pay that was higher that what most wanted to raise the min wage.They woul\u2026 https://t.co/87V3wMmtyw
p164
aV@JDMorgan wow, sorry! I can't believe people do that to you! That is creepy af and I'd hurt someone! thanks for kno\u2026 https://t.co/mF99S28zN6
p165
aVI can't believe what passes for acceptable behavior from  @FLOTUS while visiting the children @POTUS is responsible\u2026 https://t.co/sgsZtjXsLL
p166
aV@FLOTUS We know u "Dont really care" about the children, infants, and toddlers separated from their parents. U've s\u2026 https://t.co/9t1Wr0pkZs
p167
aV#JurassicWorld
p168
aV@POTUS @FLOTUS  Oh what, Struggling pushing your agenda for your stupid wall when the AP uncovers your Baby contain\u2026 https://t.co/5S0Z1Ca4M9
p169
aVRT @CNN: Canada becomes second nation in the world to legalize marijuana https://t.co/cw5G41buNb https://t.co/fOiEAEEryG
p170
aV@chrissyteigen @chrissyteigen thank you so much for posting this! I have been worried since I had read the photogra\u2026 https://t.co/mOMTGJfRex
p171
aVRT @chrissyteigen: John and I have watched this show for a long, long time now. DVR\u2019ed every night. And I\u2019ve never ever seen her cry. \u201cSumm\u2026
p172
aVLewandowski on Girl With Down Syndrome Separated From Mother: \u2018Womp Womp\u2019 https://t.co/zyDLAPB3sz via @thedailybeast
p173
aVwow. just wow.\u000aLewandowski on Girl With Down Syndrome Separated From Mother: \u2018Womp Womp\u2019 https://t.co/zyDLAPB3sz via @thedailybeast
p174
aVRT @lumos: Children need their families, not cages. The inhumane policy which is being enforced at the U.S. - Mexico border will have an ir\u2026
p175
aV@SenDuckworth @SenSanders @SenatorDurbin @PeterRoskam so upset called senators, wish there was more I could do. Nur\u2026 https://t.co/b3OjaMPc3x
p176
aVRT @SarahKSilverman: Im gonna hold these children hostage until Dems agree to all the shitty things I want = this is on the Dems.  You\u2019re a\u2026
p177
aVRT @chrissyteigen: this little girl is the same age as my daughter. luna is the happiest thing. the funniest girl. and she is absolutely te\u2026
p178
aV@chrissyteigen the photographer who took this also took a picture of her nursing moments before this shot, are nurs\u2026 https://t.co/1UEhPBuaEK
p179
aVRT @johnlegend: Seriously, fuck you. Reunite the families at the border and we can talk about father's day. https://t.co/bbG0gVqfzq
p180
aV@SenSanders @amnesty the crying girl in the viral photo was still nursing, are nursing mothers and children being s\u2026 https://t.co/x6ilEj8uXS
p181
aVIs anybody else as shock and disturbed as I was to learn this 2yr old in this picture was still nursing? Moments be\u2026 https://t.co/MdaqIvGFTi
p182
aVand did I mention I need coffee...
p183
aVI am having a horrible time watching my boy do his ninja camp. A literal panic attack tryna figure out what kinda "stage mom" I should I be!
p184
aVthis is a public service announcement: @NCISLA every single definition, and description of Reiki you gave, was comp\u2026 https://t.co/Yv5Dlp8d7M
p185
aVI LOVE her!! so beautiful and it's because of her heart!! https://t.co/WvS9cPPR2g
p186
aVomg, I had THE most amazing day with @TheKrattBros !There was a birthday party, a whale experience, I EVEN got a ch\u2026 https://t.co/eWXbyGeHgG
p187
aVRT @SenSanders: For whatever reason\u2014you got me, I don't know why\u2014Trump and his administration want to make a bad situation even worse when\u2026
p188
aVI officially embarrassed my little American ninja warrior in his ninja camp...\u000a\u000a#bestmomever
p189
aV"don't you hear sincerity in my voice when I talk"\u000athat line always gets me right in the feels\u000a#Eminem #Lovethewayyoulie
p190
aVtoday I am in a good place. today, right now, I am happy.
p191
aVRT @StephenKing: Dear Group of 7: I am sorry you had to put up with Blabbermouth Don. And embarrassed. Please don\u2019t judge us too harshly. R\u2026
p192
aVWhat is it about Mr Rogers that make me feel like I want to make him proud? Poud of the person I've become and the\u2026 https://t.co/dQLt9UrJHE
p193
aVhttps://t.co/5T7Ie5EVRW
p194
aVRT @jameelajamil: Cool. Emile Hirsch strangled my tiny female best friend until she blacked out at a party in front of dozens of witnesses\u2026
p195
aVHe describes depression like I feel it, only my depression also takes all value of myself from myself and of myself\u2026 https://t.co/hAVqEtXwYs
p196
aVHell yeah! \U0001f918\U0001f918\U0001f918\U0001f918Respect the Old School Hemi!!! That's why she's my favorite!!\u000ahttps://t.co/OlPYScmaRI
p197
aVhttps://t.co/a5Nwi5460l
p198
aVShout out to all my retail peeps! the longest and most painful years in my life were retail!  https://t.co/5qi8EfXkkj
p199
aVNo self care today. Two things I was looking forward to, didnt go my way, so this makes me scared for "the big deci\u2026 https://t.co/f0gQt2nrWm
p200
aVlistening to 103.5 &amp; this woman Christy is awesome and definitely grace under fire!!!
p201
aV@mishacollins Why can't we treat guns and ownership like we do cars. You have to have a current registration, licen\u2026 https://t.co/VMc8ZJTNDK
p202
aVRT @chancetherapper: I\u2019m with #NoCopAcademy because  in 2012 @ChicagosMayor closed half the mental heath service facilities in the city. No\u2026
p203
aVRT @CNN: A Chicago art exhibit lined with replicas of AR-15 rifles is structured to make it look as though getting a weapon is as easy as r\u2026
p204
aVRT @CNN: Read the full address from Bishop Michael Curry that wowed the #royalwedding crowd: https://t.co/H2jshGvFUh
p205
aVRT @CNN: Queen Elizabeth lent Meghan the tiara she wore at the #royalwedding -- Queen Mary's diamond bandeau, made in 1932 https://t.co/bon\u2026
p206
aVRT @CNN: All the best moments from a #royalwedding unlike any other in British history https://t.co/xM7fZ2jPl6
p207
aVRT @Essence: If an employer/school ever makes a comment about your twits, braids, or cornrows reply with, \u201cif it\u2019s good enough for a #Royal\u2026
p208
aVRT @bbcstories: Amelia has struggled with depression and self-harming for years, but now she paints beautiful bright drawings on her skin t\u2026
p209
aVRT @CNN: This 88-year-old grandma was shocked when she found out she was going to a Justin Timberlake concert. Then she got backstage. http\u2026
p210
aV#SNL had the best EVER description of the #RoyalWedding "Today Suits actress Meghan Markle, married some unemployed\u2026 https://t.co/UQGKdoLjVM
p211
aVRT @MichaelSkolnik: The Houston Chief of Police, @ArtAcevedo just posted this on his FB page. https://t.co/CQpo8rumBP
p212
aVRT @mishacollins: For the 22nd time this year we have a school shooting in America, complete with lawmakers offering "thoughts and prayers"\u2026
p213
aVCan everybody just stop being crazy this weekend?! Its the Royal Wedding and I cannot wait to see it!! I know, I kn\u2026 https://t.co/T1Bvhja0KR
p214
aVIn contunuation of using my voice, as an unknown in the twitterverse, to speak my reality and document my fight wit\u2026 https://t.co/IhBo7D1Ctz
p215
aVbtw, decided the twitterverse, where I am an unknown, might be a great place to practice using my voice w/o worring\u2026 https://t.co/9sVm3JZFte
p216
aVrealizing the isolation that depression brings...wanna take that step out of the house, but nowhere to go and no one to see.
p217
aVBeen ruminating over my disdain for Cersei Lannister, and I had a great thought.   What if the reason for the ambig\u2026 https://t.co/rYTX27JUpJ
p218
aV@DalaiLama I am working so hard, the depression anxiety, and ptsd muddy the waters for me. But your words give me s\u2026 https://t.co/vB9NEkBdcJ
p219
aVhaving the hardest time getting through this Game of Thrones book. I am caught up on the show, so I know what happe\u2026 https://t.co/yya1Y7vTmx
p220
aVRT @JoelOsteen: Don\u2019t judge by appearance. Underneath the mess, there\u2019s a free person, a clean person, a forgiven person, an exceptional pe\u2026
p221
aVRT @MuslimMarine: #MyHandleExplained\u000aBECAUSE my faith teaches that loyalty to my nation is part of my faith.  Until Americans stop question\u2026
p222
aV@mishacollins I can relate to that! lol my little ones do that too!
p223
aVthis is hard to learn, but it's worth a try https://t.co/huwMl6qTY8
p224
aVRT @davidhogg111: Get out and vote, get out and run, for those that no longer can. https://t.co/XbWRBwguqD
p225
aV@TheRock  a fan since first wwf appearence! personal hero status when you opened up about your depression. I fight\u2026 https://t.co/LOOC2cPRWT
p226
aVptsd, depression, and anxiety. This is my life.  these are my battles. daily, nightly, even minute to minute.  trig\u2026 https://t.co/lGoICtsVqP
p227
aVhttps://t.co/jGpBMMS5p1
p228
aVRT @davidhogg111: I\u2019m just a now 18 y/o that\u2019s trying to save lives. Say what you want but at the end of the day what matters is the future\u2026
p229
aVRT @Emma4Change: #NorthwesternWalkout needs to be trending at least by the end of the day; be here for them as you were here for us.
p230
aVcatching up on all the #downtonabbey I've missed, and just nearly died choking on my tea!! season 1 the Dowager Lad\u2026 https://t.co/PYfIyN0mFt
p231
aVthat feeling you get when you beat a level of Depression, it's exactly like the candy crush commercials!!!#fightingdepression
p232
aVRT @AC360: "I'm supposed to be recovering ... and I can't do that if these things are still going to be happening."\u000a\u000aUsing cell phones, six\u2026
p233
aVreason #304 why I'd be a horrible criminal....I have no idea where to find the "Black Market"
p234
aVup til midnight, waitin on my hair to dry, got dirty workin at the barn all day, had to take a shower, can't waste\u2026 https://t.co/qfB0PGaY8P
p235
aVI have spent years in the cosmetic industry, I have won and been given tons of gratis. I have always shared with bo\u2026 https://t.co/DjzEFG1K4g
p236
aV@georgia_argiris I love when u do this!
p237
aV@tylerperry came across a broadcast with you on a panel with the Osteen's, and all I can say is I love you so much!!!
p238
aVexplains why music helps me work through things, o much easier!!!\u000a\u000ahttps://t.co/YffAN9fgZl
p239
aVhttps://t.co/gRBEQ54k0J
p240
aVsometimes I am so disturbed by the things that pass as acceptable treatment, to human beings and animals, a sadness\u2026 https://t.co/joplVUHU8O
p241
aVDamn @SirTimRice that and always gets me in the feels Great Job everyone!!!\u000a\u000a#JesusChristSuperstarLive
p242
aV@SirTimRice fell in love with you and your work over a recordpayer with #JesusChristSuperstar and I am a fan to thi\u2026 https://t.co/ts2YPdCZNV
p243
aV#JesusChristSuperstarLive Amazed!!!! goosebumps just like the first time I listed to the records!!!
p244
aV@johnlegend amazing job!!!! I am all aflutter and goosebumps!!!! #JesusChristSuperstar
p245
aV@BrandonVDixon #JesusChristSuperstar has been a family tradition my ENTIRE life, and you are giving me goosebumps!!!amazing job!!
p246
aVBrandon Victor Dixon is ROCKIN IT in my favorite roll, Judas in #JesusChristSuperstar !!!!! He had big shoes to fill and is doing AWESOME!!
p247
aV"They don't scare..."\u000a\u000a#TheWalkingDead
p248
aVhttps://t.co/wqPrhVfZ2d
p249
aVgoogled "why so I feel like crap" didn't expect Dr google to have a valid answer
p250
aVHot and Heavy. Two words that mean something completely different as a washing machine's setting, after my 2.5yr ol\u2026 https://t.co/soJWf1734v
p251
aV@serenawilliams ok I had a hard time with this to. the turtle said "we bended the energy itself not the proof of it\u2026 https://t.co/QQrBCbokSN
p252
aVI love @iamjohnoliver and @LastWeekTonight!!! Not only is he hilarious, but extremely intelligent! \u000ahttps://t.co/6nngzSJyda
p253
aV"what's to tough for other folks, just about right for us" \u000aI think I got that right\u000a#Timeless
p254
aVyou know those adults, who were like monsters to you when you were a kid? I always believed when you grew up they w\u2026 https://t.co/l3H6rJZ0EM
p255
aVdamn you, song I love to sing!!! you've kept me captive inside this car for 15 mins!! I'm hungry and have to pee, b\u2026 https://t.co/cwYmHi6hAe
p256
aVI just finished The Shape of Water, its amazing. This is one of the many little moments that are writen forever on\u2026 https://t.co/ll9A5lWCcy
p257
aVRT @RealGDT: "Unable to perceive the shape of You, I find You all around me. Your presence fills my eyes with Your love, It humbles my hear\u2026
p258
aVRT @Lin_Manuel: Gmorning!\u000aJust because the bridge is hard to see in this pic doesn\u2019t mean it\u2019s not there. \u000aWhat you want is still there, wa\u2026
p259
aVRT @MuslimMarine: #AskTheMuslimMarine any question on #Islam.  All questions welcomed.  I\u2019m at your service. https://t.co/A3w0DgMMuD
p260
aVI learned a hard lesson today. you will never have an argument well thought out enough, to reach someone who is emo\u2026 https://t.co/nMGFTxqOii
p261
aVRT @MuslimIQ: A @gwchb Professor publicly racially abused a young family to \u201cgo back to your country\u201d b/c they\u2019re not white. (They\u2019re US ci\u2026
p262
aVRT @SenSanders: I have a radical idea. Instead of listening to lobbyists in Washington, maybe, just maybe, we should listen to the American\u2026
p263
aVRT @cameron_kasky: The NRA is pretty awful about this, but it\u2019s a bigger issue than that. We need to get money out of politics across the b\u2026
p264
aVRT @CraigCons: The National Rifle Association (NRA) is out here acting like a Grade C terrorist organization. Wacky stuff. Draconian. https\u2026
p265
aVHow much do I love Taraji P. Henson? Only more since I saw her on celebrities read mean tweets!! I love that girl!!!
p266
aV"Baby Girl, just because you sit on something it doesn't make it yours, and you can't sit on someone to make them d\u2026 https://t.co/Ef1d7AqBVh
p267
aVjust told my son he couldn't yell at his sister for, "hating his tablet" because it's International Women's Day
p268
aVHappy International Women's Day, to me, to you, to all us women. May we raise the next outstanding generation of wo\u2026 https://t.co/DOMN0wqDmQ
p269
aVRT @SenSanders: The CEO of Honeywell made 333 times the amount of money as the company's median worker last year. That is an outrage. https\u2026
p270
aVRT @DalaiLama: Peace has a great deal to do with warm-heartedness and respect for the lives of others, avoiding doing them harm and regardi\u2026
p271
aVSomehow I fell into a YouTube hole, that lead to a Shakira belly dancing montage, idk how, but I have decided I def\u2026 https://t.co/xp05wN45Xs
p272
aVJust realised that none of my family is on Twitter. There is no way they could ever find out what I have to say!\u000a\u000aT\u2026 https://t.co/7ggOxVNt44
p273
aVSaw the love of my life, a horse, fall and drag his two rear legs in a manner that I have NEVER seen a horse do in\u2026 https://t.co/QhoSVnQ0Ec
p274
aVunnamed individual: just shut the fuck       up!\u000a\u000ame: you can politely ask me to stop so you can finish\u000a\u000aunnamed in\u2026 https://t.co/WLtyl0Rx4x
p275
aVRT @Lavernecox: May #EmmaGonzalez's words be out rallying cry. We must make it unacceptable for politicians who take money from the NRA to\u2026
p276
aVRT @SophiaF4ever: @krassenstein Emma Gonzalez isn\u2019t old enough to buy a gun.\u000aEmma Gonzalez isn\u2019t old enough to vote.\u000aEmma Gonzalez isn\u2019t ol\u2026
p277
aVRT @margaretcho: THE FACE OF THE FUTURE HAS HAD ENOUGH OF YOUR BULLSHIT! Nothing but love for #EmmaGonzalez, a TRUE leader. #guncontrolnow\u2026
p278
aVRT @lwmunoz: No coincidence that it is the youth pushing for change on immigration, and the youth pushing for change on guns. Maybe time fo\u2026
p279
aVRT @Emma4Change: 1) I can't believe I Actually Thought we could Accomplish anything before this midterm election\u000a2) THEYRE MAKING IT SO EAS\u2026
p280
aVRT @DalaiLama: Because of the great differences in our ways of thinking, it is inevitable that we have different religions and faiths. Each\u2026
p281
aVRT @johnpavlovitz: To all the teenage activists out there fighting for your lives:\u000a\u000aWe love you.\u000aWe're with you.\u000aWe support you.\u000aWe'll marc\u2026
p282
aVEmma Gonzalez questions NRA spokeswoman @CNNPolitics https://t.co/4WG8LTvvYi
p283
aVFlorida student Emma Gonzalez to lawmakers and gun advocates: 'We call BS' @CNN https://t.co/JnXWDnxBBy
p284
aVhttps://t.co/8Xk3SxBKuq
p285
aV@georgia_argiris your writing is beautiful and NEEDS to live. I am so in awe of the raw beauty it shows!
p286
aV@georgia_argiris you are too kind, I hope to be as beautiful as your words! I will keep working toward it daily!
p287
aV@georgia_argiris beautiful, I hope you are not in pain, but if you are, my heart is here for you!
p288
aV@georgia_argiris beautiful
p289
aVIts like Diddy said, Its a competition, and you earned your place!!\u000a#KENDYLE
p290
aVRT @SenSanders: Iceland just became the first country in the world to make it illegal to pay men more than women. In the United States in 2\u2026
p291
aVRT @SenSanders: Mr. Trump, listen to these Patriotic Millionaires who want their taxes raised, not cut. https://t.co/heoPX7VWkV
p292
aVRT @SenSanders: No, Attorney General Sessions. Marijuana is not the same as heroin. No one who has seriously studied the issue believes tha\u2026
p293
aVRT @SenSanders: This is an egregious attack on our democracy. The end of #NetNeutrality protections means that the internet will be for sal\u2026
p294
aV@Elijah_Official I just wish I could hug him and keep reminding him how amazing he is! Those kids are so wrong, and\u2026 https://t.co/rPsfQyVP1a
p295
aVRT @Elijah_Official: YALL HE IS SHAKING!!!!! This is what is going on in these school what about the ones who don\u2019t tell someone\U0001f621\U0001f621 THIS IS\u2026
p296
aV@Lin_Manuel I makes me rethink my life!!!
p297
aV@Lin_Manuel THE most AMAZING Disney movie, EVER!!!!
p298
aV@QueenGiStillo lol, or nap today!!
p299
aVRT @piersmorgan: Undo your disgusting Britain First retweets &amp; apologise, Mr President @realDonaldTrump - or stand condemned as no better t\u2026
p300
aVRT @JKCorden: Mr President, please take down the videos you retweeted from the Britain First group. It is beneath even you to do such a thi\u2026
p301
aVRT @piersmorgan: You just gave the presidential seal of approval to loathsome Muslim-hating fascist criminals, Mr Trump.\u000aWhat the HELL were\u2026
p302
aVRT @piersmorgan: Good morning, Mr President @realDonaldTrump - what the hell are you doing retweeting a bunch of unverified videos by Brita\u2026
p303
aV@sadieannerue or alone in my car
p304
aVRT @SenSanders: 37 of 38 experts agreed that the Republican tax bills would cause U.S. debt to increase "substantially" faster than the eco\u2026
p305
aVRT @katyperry: RT if you have to sometimes fully cover your toes under the bedding at night because you think something/someone is gonna gr\u2026
p306
aV@SenSanders The first time the republicans did this tax plan, it was called Reganomics. No economic growth and tripled National debt.
p307
aV@jesselp81 @SenSanders @everbodyBlocksU Thank you for saying that. People don't always understand how difficult som\u2026 https://t.co/E4QFivGSLq
p308
aVRT @SenSanders: The top 0.1% owns almost as much wealth as the bottom 90%. Republicans say that's not enough. 40% of their tax breaks go to\u2026
p309
aVRT @SenSanders: Spread the word: You can sign up for health insurance starting today. Go to https://t.co/abvyRmbFsY to choose a plan and ge\u2026
p310
aVLol I saw this and all i could think was, "It's you, buddy. It's you!" https://t.co/wOIaYB7MYH
p311
aVWatching @ABCSharkTankTV and YELLING at the tv. I cannot BELIEVE you, Brazin, Lori and Sara are CLEARLY the way to go!
p312
aVRT @mamadaisychain: @katyperry Haha haha! Yes our pizza has that effect on people!
p313
aVRT @SenSanders: Republicans say they don't want to hurt Medicare. Then why does their budget cut Medicare by hundreds of billions of dollar\u2026
p314
aV@katyperry Haha haha! Yes our pizza has that effect on people!
p315
aVRT @SenSanders: The Republican budget is disgraceful. Millions will lose health care and thousands will die in order to give tax breaks to\u2026
p316
aVRT @SenSanders: We must send a message to the billionaire class: You can\u2019t get huge tax breaks while children in this country go hungry. #C\u2026
p317
aVRT @SenSanders: Watch this tax expert debunk some of @tedcruz's most outrageous tax theories: https://t.co/QnZPaPgShQ
p318
aVRT @SenSanders: Well, @SenTedCruz makes a great speech about farmers paying the estate tax. Unfortunately, it has nothing to do with realit\u2026
p319
aVYou and I may end up on opposite sides of an issue, but I will always love you, my friends!!
p320
aVJust a reminder,
p321
aVS. 1992: A bill to amend title 18, United States Code, to requir... https://t.co/DZ7vm64Oha via @GovTrack @SenatorDurbin tryna make a dif
p322
aV\u201cNext week, Republicans might ban abortions after 20 weeks of pregnancy\u201d by @govtrack https://t.co/tgJ55LfjPX
p323
aV\u201cAutomatic Gun Fire Prevention Act would ban devices used in the Las Vegas massacre\u201d by @govtrack https://t.co/iOsFe9LYJR
p324
aV@Lin_Manuel Obsessed and inspired by your creativity!!
p325
aVRT @SenSanders: I have something to say to Mr. Trump: Tell your Republican friends in the Senate you'll veto this disastrous budget. https:\u2026
p326
aVRT @SenSanders: Who's pushing Republicans to pass tax cuts for the rich that only 12% of Americans support? Their billionaire donors.https:\u2026
p327
aV@iamjohnoliver made first call ever to @SenatorDurbin to repeal Dickey Bill &amp; demand continued support for Puerto Rico! #ImJustStarting
p328
aV#NewProfilePic https://t.co/gzLCXV7OYE
p329
a.