(lp0
VRT @JaclynCorin: Young people showin\u2019 up to the polls like... https://t.co/ZYAbTUFclv
p1
aVRT @VoteCasten: Thank you to @DanielBiss, @SuzyGlowiak, &amp; hundreds of volunteers for joining @SeanCasten to launch a huge canvass in Lombar\u2026
p2
aVRT @schoolwalkoutUS: "We can march, we can shout, we can walk out - but the biggest thing that we have to do is we have to vote." \u000a\u2014#Walkou\u2026
p3
aVI just took action on @theactionnet: Start a March For Our Lives local action club. Take action here: https://t.co/8QayJBWF8N
p4
a.