(lp0
V@ANGRYFAN0071 Twork is smoking dust talking about Goonies this Goonies that......gtfoh.....dont think he like rap
p1
aVThat looks really good https://t.co/ZgwMLHChH0
p2
aV@MaxBiggavelli Happy Birthday Max B
p3
aV@therealstylesp It aint nothing like a Styles album to keep ya mind elevated
p4
a.