(lp0
VHappy bell week #rolltigs https://t.co/bruRagxKTp
p1
aVRT @BrendanBuck: Were going to spend all day and weekend talking about the strong economy, right?
p2
aVRT @theskimm: On the podcast @AshLeeStrong talks to us about what a comms director actually is, how she created her network, and what it\u2019s\u2026
p3
aVRT @RepMarkWalker: #OTD 17 years ago, President George W. Bush threw out the first pitch at World Series Game 3 in New York as our nation w\u2026
p4
aVRT @burgessev: Pretty remarkable how many senators and congressmen personally wrote the opioids bill
p5
aVLiterally Paul 2.0 https://t.co/sJx5vSHgYj
p6
aVRT @JerryDunleavy: This Joe Donnelly (@JoeforIndiana @SenDonnelly) ad is almost a shot-for-shot frame-by-frame steal from Jonah Ryan\u2019s ad o\u2026
p7
aVRT @kylegriffin1: Pastor Brunson kneels and prays with Trump.\u000a\u000aAfter the prayer, Trump says, "Can I ask you one question? Who did you vote\u2026
p8
aVRT @michaeldaines: Does this count? #KavanaughConfirmed https://t.co/q1r3cBnuzk
p9
aVRT @ChadPergram: McConnell on Kavanaugh vote: "I always thought landslides were kind of boring anyways."
p10
aVRT @seungminkim: Some color inside the chamber for Collins' speech: After she finished, McConnell led standing O. He then walked over and s\u2026
p11
aVRT @GeorgeHWBush: .@SenatorCollins \u2014 political courage and class. I salute my wonderful friend and her principled leadership.
p12
aVSo is the 3 week constant Kavanaugh news cycle over now? https://t.co/poZSkBWkBp
p13
aVRT @kasie: There are people drinking PBR from red Solo cups outside Mitch McConnell\u2019s house at this early hour. They are chanting \u201cI like b\u2026
p14
aVRoll tigs. https://t.co/8lDIrWc89S
p15
aVRT @AshLeeStrong: Mistakes happen but I sure hope the NYT ensures its correction is prominent including on social media accounts repeatedly\u2026
p16
aVRT @AriFleischer: As I do every year, tomorrow I will live-tweet my memories of what happened seventeen years ago, on September 11, 2001.\u2026
p17
aVRT @Heritage: Watch this clip of @BenSasse ... then watch it again. #Kavanaugh https://t.co/4JegXIA4S8
p18
aVRT @edlavaCNN: A powerful moment that will likely go unnoticed by most. Nancy Pelosi escorts Congressman Sam Johnson of Texas to casket of\u2026
p19
aVRT @KilloughCNN: Pelosi and Crowley walk with Republican Rep. Sam Johnson, a POW for nearly seven years and who shared a prison cell with M\u2026
p20
aVRT @AshLeeStrong: Speaker Ryan: "Hemingway once wrote: 'The world breaks everyone, and afterward many are strong at the broken places.' No\u2026
p21
aVRT @MeghanMcCain: Please read my father's farewell letter to the country he loved so much - \u201cDo not despair of our present difficulties but\u2026
p22
aVRT @NBCNightlyNews: WATCH: Baton Rouge supermarket employee Jordan allowed Jack Ryan, who has autism, to help him stock shelves for more th\u2026
p23
aVA thread that makes fun of everyone https://t.co/OsPBO0fZOh
p24
aVRT @DePauw_Alumni: Congratulations to the Class of 2018! You will leave DePauw to do great things, but DePauw will never leave you. #tigerf\u2026
p25
aVRT @HouseGOP: \u2713 Supporting the military  \u000a\u2713 Combating the opioid crisis\u000a\u2713 Delivering historic tax cuts\u000a\u000aOur focus has always been, and cont\u2026
p26
aVRT @jgm41: The socks worn by the 41st President of the United States of America at today\u2019s funeral for former First Lady Barbara Bush. http\u2026
p27
aVRT @SenateGOP: For years, @GOPSenFinance Chairman @SenOrrinHatch has been working to shred the old tax code. Today, he gets his wish. #TaxD\u2026
p28
aVRT @TODAYshow: The love between George H.W. and Barbara Bush was one for the ages. Watch them share their love letters on TODAY in 2011. ht\u2026
p29
aVRT @laurawbush: I\u2019m missing my mother-in-law and role model tonight. Barbara Bush was a loving mother and grandmother. The world is poorer\u2026
p30
aVRT @LukeMesserIN: I back President @realDonaldTrump's agenda. This is a time for teamwork -- that's why I'm running to shake up the Senate\u2026
p31
aVRT @cathymcmorris: After reading the opinion piece in the @washingtonpost about aborting babies with Down syndrome, I struggled to put into\u2026
p32
aVRT @LukeMesserIN: Thanks to our #ILikeLuke supporters who held #INSenDebate watch parties and phone banks all across the state tonight! The\u2026
p33
aVRT @MittRomney: I am running for United States Senate to serve the people of Utah and bring Utah's values to Washington. https://t.co/TDkas\u2026
p34
aVRT @LukeMesserIN: Hear about Luke Messer from two of the people who know him best - his daughters, Emma and Ava. Luke Messer lives his cons\u2026
p35
aVRT @kristinapet: On Capitol Hill, the first victim of the government shutdown is fashion: https://t.co/v6Nw6KKENp with @ByronTau @siobhaneh\u2026
p36
aVRT @scottwongDC: @rep_stevewomack GOP Steering recommends @RepLaHood (R-Ill.) to replace retiring Rep. @PatTiberi on powerful @WaysandMeans\u2026
p37
aVRT @pewresearch: In polarized era, fewer Americans hold a mix of conservative and liberal views https://t.co/Hl8vqrN0FJ https://t.co/LritVP\u2026
p38
aVRT @SenatorTimScott: Uh probably because I helped write the bill for the past year, have multiple provisions included, got multiple Senator\u2026
p39
aVRT @RepLaHood: "This tax bill plays in Peoria." #TaxReform\u000a https://t.co/1F7cmZHDR9
p40
aVRT @BenSasse: uh, @Netflix?!?! What part of "confidential" don\u2019t you understand? https://t.co/v3sHU2IkPH
p41
aVRT @TJTatum: Ladies and gentlemen, make way for your new dean of the United States House of Representatives https://t.co/oheZEv1nKa
p42
aVRT @PressSec: Frank is hard at work in the Rose Garden and doing a great job! https://t.co/u4f2DtLvu6
p43
aVRT @LukeMesserIN: Check out our first campaign video and RETWEET so Hoosiers can elect a U.S. Senator who votes with them 100% of the time!\u2026
p44
aVRT @LukeMesserIN: Guidelines and Procedures for Driving Congressman Messer https://t.co/ifi9lPtdrR
p45
aVRT @RepLaHood: My statement regarding Charlottesville over the weekend and the reactions that have followed: https://t.co/SgDCotwaQX
p46
aVRT @LukeMesserIN: We're in!! See you at the picnic on August 12th. https://t.co/nmj6LhyMGh https://t.co/QFVfSG5kVK
p47
aVRT @FoxNewsOpinion: .@RepLukeMesser: Tax reform and immigration policy - time for a return to common sense  https://t.co/eJ7YdnY8D8
p48
aVRT @SenToddYoung: Glad @SpeakerRyan is modernizing the dress code. Hopefully my friend @RepJimBanks can finally wear his RompHim on the flo\u2026
p49
aVRT @SenTomCotton: I spoke on the Senate floor earlier today in favor of the Iran Sanctions Bill. WATCH: https://t.co/FwZc0IKExC
p50
aV@instagram What is the best way to contact your head of Government Relations?
p51
aVRT @MittRomney: Our politics have become too base, too low, &amp; too vulgar, but Kathy Griffin's post descends into an even more repugnant &amp; v\u2026
p52
aVRT @SenateMajLdr: This funding bill strengthens our defense &amp; border, combats the\u000a#opioidcrisis, and allows for more #SchoolChoice \u2b07\ufe0f\u000ahttps\u2026
p53
aVRT @realDonaldTrump: Melania and I are honored to light up the @WhiteHouse this evening, for \u000a#WorldAutismAwarenessDay. Join us &amp; #LIUB. ht\u2026
p54
aVRT @SenateGOP: Judge Gorsuch is a well-qualified, independent, and mainstream #SCOTUS nominee with the right judicial temperament for the S\u2026
p55
aVRT @SenateGOP: .@SenSchumer 2013 #TBT: We prefer the risk of up-or-down votes and majority rule to the risk of total obstruction, no matter\u2026
p56
aVRT @SenSasse: Neil Gorsuch is a threat to you \u201cif you breathe air or drink water\u201d? There is a real danger in not condemning that kind of re\u2026
p57
aVRT @cspan: "I wish the American people could see what I've seen\u2026they'd be much bigger believers in their government than they are." #Gorsuc\u2026
p58
aV@Prof_McCall https://t.co/Lp144FAFif
p59
aV@Prof_McCall https://t.co/xM0J2mEUVN
p60
aV@Prof_McCall https://t.co/Iwo7RzCTUH
p61
aVRT @SenateMajLdr: .@GorsuchFacts is uniquely qualified for our nation's highest court. He will be a fair and just Jurist on the #SCOTUS ben\u2026
p62
aVRT @SenateGOP: "I just wish that my friends who call themselves liberals would want tolerance for all Americans ..." \u2013 @SenatorTimScott htt\u2026
p63
aVRT @Reagan_Library: Happy birthday to President Reagan! He was born in the year 1911, which was 106 years ago. https://t.co/XW3BM1BOfE
p64
aVRT @ABC: Former President George H.W. Bush assists with the coin toss at Super Bowl LI alongside Barbara Bush; Atlanta Falcons win the toss\u2026
p65
aVRT @jgm41: President and Mrs @GeorgeHWBush thank their fellow Americans and friends from around the world for their prayers and good wishes\u2026
p66
aVRT @CBSNews: Chelsea Clinton came to Barron Trump's defense when he was mocked online: He deserves "to be a kid" https://t.co/aw89Mj0v0O ht\u2026
p67
a.