(lp0
Vdear @realDonaldTrump \u000a\u000aremember when your party called all of obama\u2019s executive orders unconstitutional and now yo\u2026 https://t.co/bxLn3xWgeA
p1
aVgetting to listen to @SeanCasten and @RepLindaSanchez at such an intimate gathering tonight was certainly an experi\u2026 https://t.co/L8OT2rhKB6
p2
aVthat\u2019s my president \U0001f929\u000a https://t.co/XPSn0bQu5M
p3
aVThis is outraging. No child should be treated this way. https://t.co/yIz3YZ114j
p4
aVregister to vote\u000a\u000aregister to vote\u000a\u000aregister to vote\u000a\u000aregister to vote\u000a\u000aregister to vote\u000a\u000aregister to vote\u000a\u000aregiste\u2026 https://t.co/ihoAyM8fhk
p5
aVRT @AshleyAlese: All jokes aside: What Taylor Swift just did is extremely important. Let's not forget: 53% of white women voted for Donald\u2026
p6
aV@TomiLahren Toni, we don\u2019t need your opinion. I\u2019m so Taylor Swift ALL the way.
p7
aVi\u2019m so proud of my idol @taylorswift13 for voicing her opinion in such a critical time. i am so glad she finally sh\u2026 https://t.co/14pkhOK0n4
p8
aVfrom the man who said we need to put america first... https://t.co/SAshQc79HP
p9
aVRT @TheDemocrats: Dear Republican senators: Women have a constitutional right to make decisions about their own bodies. https://t.co/LZ8n8f\u2026
p10
aVbiggest compliment i\u2019ve received:  \u201cyou\u2019d be an amazing politician! like i wouldn\u2019t vote for you because we differ\u2026 https://t.co/V4FOCfUthb
p11
aVthe #NikeBoycott is the reason foreigners perceive americans as stupid
p12
aVRT @Diego4Change: His name shouldn\u2019t be repeated ever again #nonotoriety https://t.co/NVNbVGUcid
p13
aVTell your Senators: Vote NO on Trump's 2018 SCOTUS Pick  https://t.co/aPdbGEUCMu
p14
aVRT @davidhogg111: Let\u2019s get #DanRyanShutDown  trending. @realDonaldTrump it\u2019s time that you stop using Chicago as a scapegoat for inaction\u2026
p15
aVRT @davidhogg111: You know what's unacceptable is the fact that over 150 kids under the age of 21 have died since the beginning of the scho\u2026
p16
aV@GovRauner I am appalled by your lack of support for the #DanRyanShutDown This was a peaceful demonstration of civi\u2026 https://t.co/TYNCndv4Lv
p17
aVRT @ChicagosMayor: It was a peaceful protest. Delete your account. https://t.co/QoKyIHmuQj
p18
aVToday I am in awe of the power of everyone participating in the #DanRyanShutDown I wish I could be marching alongside them
p19
a.