(lp0
VRT @cher: TOOK PIC WITH SWEET DACA/DREAMER,HAPPY 2 SEE ME B4 trump KICKES HIM OUT OF\U0001f1fa\U0001f1f8. \U0001f1fa\U0001f1f8IS ONLY HOME HE KNOWS. WE HUGGED I \U0001f625.HOPE THERES\u2026
p1
aVWhere\u2019s my taco??? \U0001f602\U0001f32e https://t.co/F3RyCu2OpS
p2
aVEveryone in my building drinks Lacroix but my family is all about the Jumex \U0001f1f2\U0001f1fd\U0001f602 https://t.co/Fet6rHfFXu
p3
aVRT @laloalcaraz: Ending #BirthrightCitizenship starts at the White House https://t.co/NkcgOfZIOF
p4
aVRT @Maria_Hinojosa: So basically my kids would be denied their citizenship. Me. And my kids.
p5
aVRemember when the @whitesox had Chris Sale? He just closed the World Series for the @RedSox while the White Sox los\u2026 https://t.co/M2Q7SckXDH
p6
aVMy condolences to the family of the victims of the shooting in Pittsburgh today.
p7
aVRT @RealDLHughley: #GunControlNow https://t.co/Fph261IEVw
p8
aVRT @WajahatAli: Robert Bowers &amp; Cesar Sayoc. \u000a\u000aNot immigrants who came on a caravan.\u000aNot Muslims.\u000aNot refugees.\u000aNot black men who kneel to\u2026
p9
aVVolunteering for @SeanCasten in Elgin #GetOutTheVote #StopTrump https://t.co/31goGkzx7m
p10
aV18 innings, really??? I know purists don\u2019t like it but baseball needs to implement the WBC extra inning rules. #WorldSeries
p11
aV@MSNBC Dumbasses. \U0001f926\U0001f3fb\u200d\u2642\ufe0f We really need more resources for mental health in this country. #GetOutAndVote
p12
aVRT @MSNBC: "They may have paid him to do it."\u000a\u000aTrump supporters respond to news that pipe bomb suspect exhibited vehement support for Presi\u2026
p13
aVAnother angry white guy commiting some domestic terrorism. Smh. Pinche gringos.
p14
aVRT @MichaelAvenatti: All of my close friends that are Dems have vehicles that look exactly like this. Especially with the crosshairs center\u2026
p15
aVRT @Maria_Hinojosa: Buenos Dias. Remember this president has called journalists the enemy of the people. Are we surprised that bomb package\u2026
p16
aVTrump &amp; the Republicans are responsible for inspiring domestic terrorism. #VoteThemOut
p17
aVRT @PeoplesWorld: Every day, tens of thousands of men visit message boards which promote online male misogynist radicalization. #news #Tues\u2026
p18
aVRT @laloalcaraz: https://t.co/4O9IUo6xmO
p19
aV@HARRISFAULKNER Can\u2019t wait to see you on the next season of @RuPaulsDragRace \U0001f602 https://t.co/T7RQO3kxoS
p20
aVRT @PochoDotCom: Vote as if your life depends on it, because it does (toon) https://t.co/t1GCTtEFer classic toon by @laloalcaraz PLEASE SHA\u2026
p21
aVMarlins man, M&amp;M guy and pink hat guy all need to go away. #pendejos #MLBPlayoffs
p22
aVBlue is the colour! https://t.co/Xd8FHfvWuB
p23
aVCongrats @RedSox I thought the @astros would put up a tougher fight at home but I was wrong. #MLBPlayoffs
p24
aV#EarlyVoting https://t.co/h3MiddcOhw
p25
aV@espn Enjoying the broadcast in Spanish on ESPN2. Gracias! #MNF
p26
aV@WindyCityLIVE @neiltyson @valwarnertv @valearnertv sounded like a complete pendeja talking to @neiltyson on the show today. \U0001f926\u200d\u2642\ufe0f
p27
aVGreen cigars https://t.co/yPbpsd2o0R
p28
aVWhen in Rome... https://t.co/ATc5LRLroK
p29
aVTaking in some culture. https://t.co/kspEmeWIFU
p30
aVCongrats to my sister Thelmitas. #chicagomarathon https://t.co/ymCJXQJjre
p31
aVStaying at the castle tonight. #lasvegas https://t.co/ZphNvO8UR7
p32
aVFinally, a bad cop is held accountable for his actions. #justice
p33
aVRepublicans are going to confirm Kavannaugh no matter what. They don\u2019t care about FBI reports or victims. We need t\u2026 https://t.co/auHbGLh24B
p34
aVI never really watched Sons of Anarchy but I love @MayansFX. Refreshing to see more Latinos on TV.
p35
aVRT @LMRicketts: However lofty and laudable are the words of OUR country\u2019s founding documents, the men who drafted them did not anticipate t\u2026
p36
aVRT @holly_timmerman: All right folks! It\u2019s crunch time! Help a junior class out! Help us get 25,000 retweets! https://t.co/XiwbQ8Io33
p37
aV@AldermanSmith43 Thank you for supporting LP. \U0001f44f\U0001f3fc
p38
a.