(lp0
VRT @MattHennesseyOH: team space ready to knock doors in jackson county for @zackspaceohio and the rest of the democratic ticket https://t.c\u2026
p1
aVRT @jskaggsjd: Final push with @Walke15  for @ZackSpaceOhio and @RichCordray in beautiful rural Southern Ohio. #zackspaceforohio #richcordr\u2026
p2
aVRT @TheDweck: Ted Cruz is the only person who pretends to be a serial killer to be MORE likable https://t.co/W3hcR6ILSm
p3
aVRT @ZackSpaceOhio: When legends collide!\u000aThe great Socrates J Space meets the great @JoeBiden at YSU tonight, sharing a laugh. https://t.co\u2026
p4
aVRT @OPHIcialJT: A 97 year-old Holocaust survivor was killed for being Jewish yesterday. In the United States. Let that sink in.
p5
aVRT @kramtrak: I wrote a thing about my neighborhood. I hope you like it.\u000ahttps://t.co/cVqCSr2Npe
p6
aVRT @jskaggsjd: There are alternatives to division. @ZackSpaceOhio offers ideas for fair representation and unity. #zackspaceforohio https:/\u2026
p7
aVWhat has our country come to that an attack on a former president is a polarized issue?
p8
aVI just can\u2019t imagine being this hateful.  I just can\u2019t imagine claiming that an act of violence/terrorism like this\u2026 https://t.co/Xrw7QnNiW3
p9
aVRT @RobertIrwin: Leading up to \u2018Crikey! It\u2019s the Irwins\u2019, over the next week, 1 \u2018Crocodile Hunter\u2019 episode will be on @AnimalPlanet @ 8pm s\u2026
p10
aVRT @jskaggsjd: @ZackSpaceOhio delivering the message in Gallia County tonight! Sorry @DavidPepper for filming chow time. #endgerrymandering\u2026
p11
aVRT @ZackSpaceOhio: Traveling through eastern and southern OH this weekend reminds me of just how beautiful this part of the state is, and h\u2026
p12
aVRT @ZackSpaceOhio: In this election, Ohio is at a crossroads. \u000a\u000aAs your next Auditor, I won\u2019t take orders from the highest bidder. I\u2019ll ans\u2026
p13
aVRT @ZackSpaceOhio: We keep this NPR story about the drug epidemic ravaging Vinton County - &amp; the consequences it has on our children - tape\u2026
p14
aVRT @cigelske: Wow I can\u2019t believe this is why Ariana Grande and Pete Davidson split up https://t.co/WQrbEBV6uD https://t.co/Dc8b9azhua
p15
aVRT @hannah_salo: dear Ohio,\u000a\u000awe are usually quite supportive of your mood swings but you gotta give fall her chance this year. you are bein\u2026
p16
aVI feel my political science degree becoming more and more useless as the days go by https://t.co/xS0ng8g9yS
p17
aVRT @jskaggsjd: Come out to Sts. Peter and Paul this Saturday for a chance to purchase this basket and many more!  Live auction @ 5. #Oktobe\u2026
p18
aV@devanyup WHAT IS HAPPENING?
p19
aVRT @ZackSpaceOhio: Thrilled to be at the Statehouse this morning to launch the #PeopleFirst Bus Tour. \u000a\u000aIt's time to end the culture of cor\u2026
p20
aV@LAND0Nm My thoughts exactly
p21
aVRT @jskaggsjd: Excellent chili today at the Little Oaks Chili cookoff! Looking forward to using the Jackson Lake Haunted Trail tickets that\u2026
p22
aV@way_mass Miami won though
p23
aVMy US Elections and Campaigns class is starting today by listening to the Hamilton soundtrack. Essentially the whol\u2026 https://t.co/B7LdKt7WVt
p24
aVRT @MeghanMcCain: Please read my father's farewell letter to the country he loved so much - \u201cDo not despair of our present difficulties but\u2026
p25
aVRT @yeetztweetz: don't put the gunman's name out there let them die a no-name coward\u000adon't put the gunman's name out there let them die a n\u2026
p26
aV\u201cMay his descendants never forget the great principles involved and the great price paid for that which is our heri\u2026 https://t.co/Y0Iz002lFn
p27
aVMy great great uncle, who is almost 94, just insisted on opening and closing the car door for me. They just don\u2019t m\u2026 https://t.co/BNemtJPx1p
p28
aVThis is what I\u2019m going to show my parents the next time they tell me that no eyeliner is worth $20. https://t.co/KQo2DlGssR
p29
aVI\u2019ve asked for this for every holiday since it came out and I finally bought it for myself. The picture of John wat\u2026 https://t.co/Ohex3uR0in
p30
aVRT @PeyUp4: I think watching Jurassic Park with this group was a pretty fitting end to graduation. http://t.co/vRyO13VxBT
p31
aVRT @PeyUp4: Tonight was fun, Class of 2015. It might just be the prank talking, but I guess maybe I'll miss some of you a tiny bit after al\u2026
p32
aV"Do not test my power and do not tempt my fury."
p33
aVRT @mariahkretch: Urban be like: "And you get to be a quarterback! And you get to be a quarterback! Everyone gets to be a quarterback!" htt\u2026
p34
aVRT @PeyUp4: Good luck to our Ironmen football team tonight \U0001f3c8! Break some stallions and make school history!! #BeatDeSales
p35
aVRT @PeyUp4: Good luck to the football team tonight at Portsmouth! Bring home another win! \U0001f44a\U0001f3c8
p36
aVRT @PeyUp4: Student section was crazy fun tonight! @JSQUAD_2014 http://t.co/mqnmWEi9jp
p37
aVRT @PeyUp4: \u26bd\ufe0f\u26bd\ufe0f\u26bd\ufe0f\u26bd\ufe0f\U0001f4a5\U0001f4a5Vote for our JHS girls soccer team at http://t.co/e0rYuhj982! \u26bd\ufe0f\u26bd\ufe0f\u26bd\u26bd\ufe0f\ufe0f\u26bd\ufe0f\u26bd\ufe0f\u26bd\ufe0f\u26bd\ufe0f\U0001f31f\u2728\U0001f4a5\u26bd\ufe0f\u26bd\ufe0f\u26bd\ufe0f\U0001f4a5\U0001f4a5\u26bd\ufe0f
p38
aVRT @PeyUp4: Cardboard city had been cancelled due to rain. Spread the word. @LoganWoodyard28 @Walke15 @amyhill_45
p39
aVRT @PeyUp4: Empire by Shakira \U0001f3b6\u2764\ufe0f
p40
aVRT @PeyUp4: Lets not do this one day week thing... Might as well start fresh on Monday, right?
p41
a.