(lp0
VI'm calling on @RepHultgren to return $14,000 in NRA contributions. We deserve leaders who will stand up to the gun\u2026 https://t.co/Mo3CQrinQp
p1
aVRT @MrsFridayNext: GIRL BRING YOUR READING GLASSES NEXT TIME
p2
aVRT @osheamobile: Be Princess Leia in 2017.\u000a\u000aFight on the front lines. Strangle fascists with the chains they would have you wear. Be a moth\u2026
p3
aV@joshwolfcomedy, you were hilarious tonight! Thank you for being kind enough to take the time after the show for  photos and autographs!
p4
aVHanks boots. @BaldMove # fargo #fargosurvivalkit
p5
aVI like your Abe Froman t-shirt, Jim McMahon. #todayshow
p6
aVCouldn't park in front of my building because of this. #assholeparking http://t.co/HAwyA5xG3L
p7
aVAt the end of the day #banjargon
p8
aVRT @WGNRobin: Sweet mother. Is it only Wednesday? @WGNMorningNews
p9
aVRT @katelinnea: Few things drive me as completely crazy as the idea that not liking things is inherently intellectually superior to liking \u2026
p10
aVThanks for the mention of my hometown, Muscatine @sethmeyers!
p11
aVGlad #Pharrell wore his formal Smokey the Bear hat for the #Oscars2014.
p12
aVRT @SpagFlying: I'd just like to say I had no hand in the Superbowl result last night. Neither team prayed hard enough.
p13
aVRT @ifcportlandia: So they don't allow any players to have jersey # 69 for obvious reasons. But what about jersey # 11 and 99? equally as o\u2026
p14
aVRIP Phillip Seymore Hoffman. You took on some great roles as an actor.
p15
aVI miss Troy already #Community
p16
aVRT @lazerdoov: Saw a headline that said "woman killed by train" and I FUCKING TOLD YOU GUYS THAT BAND WAS BAD NEWS
p17
aVDamn #BeyonceAtGrammys looks good!
p18
aV@amyschumer Loved you in #girlshbo! Can you come yell at all my exes now?
p19
aV@pattomasulo Ohio State lost to Iowa, not Iowa State. Go Hawkeyes!
p20
aVGot in my car and realized it wouldn't start, not because of the cold, but because I was an idiot and left my interior light on. #dumbass
p21
aVRT @MeatlessMonday: Retweet if you're ready to make 2014 the year for health with #MeatlessMonday! http://t.co/vrBl1BvOIC
p22
aVUm, outback bowl commentator, university of iowa is not in des moines. #waytofactcheck
p23
aVRT @TheREALHerky: I claim this land in the name of Iowa! #Coming2Conquer http://t.co/bvgBXbRgY1
p24
aVHappy it's a pseudo Friday today!
p25
aVRT @JimGaffigan: I\u2019m glad eating tons of cheese makes you feel sick so you stop.  Otherwise I would be dead right now.
p26
aVRT @Alancumming: Anyone know of any studies about the mass farting humanity does on the day after Christmas speeding up climate change? \u000aAs\u2026
p27
aVRT @ChicagoBears: Packers coach Mike McCarthy announces that QB Aaron Rodgers will start for Green Bay this Sunday against the #Bears. #GBv\u2026
p28
aVWhy am I watching #Mancow? This show is so dumb!
p29
aVReally loving #TheReturned. Sad I'm already up to the season finale:(
p30
aVLoving #BobNewhart on #BigBangTheory!
p31
aVSo, I guess now it's ok to go to the doctor's office wearing a jogging skirt and sports bra? #amiaprude?
p32
aV@genevafilmfest hey there - I'd like to have admin rights for this page. please tweet back if you get this. thanks!
p33
aVSweeet! I got $134.32 so far from like surveys! Waiting for more! LOOK &gt; http://t.co/A6i5Pme2
p34
aVMy best week! I made $268.77 just taking surveys in the past week =)) LOOK &gt;&gt; http://t.co/5sqgWjVn
p35
aVAwesome week! Earned $371.58 doing surveys in past week :) LOOK &gt;&gt; http://t.co/shvEkrZj
p36
aVBest week! Made $303.24 taking surveys in the past week :) LOOK &gt;&gt; http://t.co/shvEkrZj
p37
aVCool! I got $74.18 so far from surveys! Cant wait for more! LOOK &gt; http://t.co/gRJpldDz
p38
aVBest week ever! I made $248.20 just doing surveys this week so far :) LOOK &gt;&gt; http://t.co/uEGcb1p9
p39
aVFavorite week ever! Made $248.61 taking surveys this week =) LOOK &gt;&gt; http://t.co/PUO40lCy
p40
aVMy best week! I made $310.97 taking surveys in past week :))) LOOK &gt;&gt; http://t.co/akppmIjh
p41
aVFavorite week ever! I made $244.60 doing surveys in past week :) LOOK &gt;&gt; http://t.co/ZjhiajvX
p42
aVAwesomest week ever! Made $272.62 just doing surveys this week so far :))) LOOK &gt;&gt; http://t.co/PUO40lCy
p43
aVBest week ever! I made $239.43 doing surveys this week so far :)) LOOK &gt;&gt; http://t.co/IBSBr4OT
p44
aVAwesomest week ever! I made $247.97 just doing surveys this week so far :))) LOOK &gt;&gt; http://t.co/xJCGEoSl
p45
aVMy favorite week! I earned $366.30 taking surveys in past week :) LOOK &gt;&gt; http://t.co/WIvzVRMd
p46
aVSick week! I earned $361.64 doing surveys in past week :))) LOOK &gt;&gt; http://t.co/WUREDzOk
p47
aVMy favorite week! I earned $364.63 doing surveys in the past week =)) LOOK &gt;&gt; http://t.co/wK7aM6kN
p48
aVBest week! Earned $327.71 doing surveys in past week :) LOOK &gt;&gt; http://t.co/WIs30Er2
p49
aVAwesomest week ever! I made $283.07 just taking surveys this week :)) LOOK &gt;&gt; http://t.co/JVWKfpFP
p50
aVBest week ever! I made $329.09 just taking surveys this week so far =) LOOK &gt;&gt; http://t.co/7cQwPqIM
p51
aVBest week! Made $275.24 just taking surveys in the past week =)) LOOK &gt;&gt; http://t.co/wK7aM6kN
p52
aVBest week ever! Earned $272.56 just doing surveys so far this week :) LOOK &gt;&gt; http://t.co/3C29uuen
p53
aVFavorite week ever! Made $307.52 just taking surveys in past week :)) LOOK &gt;&gt; http://t.co/7cQwPqIM
p54
aVFavorite week ever! I earned $352.61 just doing surveys so far this week :)) LOOK &gt;&gt; http://t.co/W7MIeEBe
p55
aVFavorite week ever! Made $239.07 just taking surveys so far this week :))) LOOK &gt;&gt; http://t.co/RkE5FjET
p56
aVAwesome week! Made $329.50 just taking surveys in the past week :))) LOOK &gt;&gt; http://t.co/izELs0Un
p57
aVBest week ever! I earned $356.91 just taking surveys so far this week :)) LOOK &gt;&gt; http://t.co/JVWKfpFP
p58
aVBest week ever! I earned $228.24 just taking surveys this week =)) LOOK &gt;&gt; http://t.co/FiMAmOzQ
p59
aVit appears my twitter account has been hacked :(
p60
aVSickass week! I earned $364.29 doing surveys so far this week :)) LOOK &gt;&gt; http://t.co/wK7aM6kN
p61
aVAwesomest week ever! Made $335.51 doing surveys this week so far :))) LOOK &gt;&gt; http://t.co/GS6wsLFl
p62
aVMy best week! Made $370.17 doing surveys so far this week :))) LOOK &gt;&gt; http://t.co/WhJFaFxN
p63
aVMy best week! Made $203.66 taking surveys in the past week =) LOOK &gt;&gt; http://t.co/aDjAbObp
p64
aVMy favorite week! Made $398.16 just doing surveys this week so far :) LOOK &gt;&gt; http://t.co/TASvKcGB
p65
aVSick week! I earned $371.60 doing surveys this week :) LOOK &gt;&gt; http://t.co/gE2vTVnm
p66
aVAwesome week! Made $373.49 just taking surveys in past week :))) LOOK &gt;&gt; http://t.co/FiMAmOzQ
p67
aVSick week! Made $392.80 just doing surveys so far this week :) LOOK &gt;&gt; http://t.co/WUREDzOk
p68
aVAwesomest week ever! Made $236.92 taking surveys this week so far =)) LOOK &gt;&gt; http://t.co/xJCGEoSl
p69
aVBest week! Made $358.01 just taking surveys this week so far :))) LOOK &gt;&gt; http://t.co/2PybPsjC
p70
aVBest week ever! I made $356.34 just taking surveys this week =)) LOOK &gt;&gt; http://t.co/uOAf77V3
p71
aVBest week! I made $376.64 taking surveys this week so far :) LOOK &gt;&gt; http://t.co/HqDAvhWr
p72
aVSick week! I earned $370.18 taking surveys this week :))) LOOK &gt;&gt; http://t.co/2p9nPIE6
p73
aVBest week! Made $360.76 taking surveys in the past week :))) LOOK &gt;&gt; http://t.co/rBNm7EDY
p74
aVMy favorite week! Earned $326.21 just taking surveys this week =) LOOK &gt;&gt; http://t.co/FNfuLWJL
p75
aVSweeet! I made $81.39 so far from surveys! Excited for more! LOOK &gt; http://t.co/zUJd1G8P
p76
aVCool! I earned $108.83 so far from like surveys! Excited for more! LOOK &gt; http://t.co/RfhOd72p
p77
aVAwesome! I got $132.21 so far from surveys! Waiting for more! LOOK &gt; http://t.co/f804OrLE
p78
aVHappy Fourth, everyone! Bring on the food and fireworks!
p79
aVI got rear ended on my home tonight - but not in a good way ;)
p80
aVLincoln park after dark...makes me happy.
p81
aVSeriously, its a white elephant gift exchange! If you didn't get something you liked, there's no reason to act like a total bitch about it.
p82
aVmy foundry beer mug saved my life. used it to snuff out a candle wildfire.
p83
aVGetting ready to do a site visit, after that my weekend starts!!!
p84
aVTime to get my ass out of bed. Gotta make some bacon and eggie weggies.
p85
aVHeard a censored version of Foster the People's Pumped up Kicks - they took out the words gun and bullet.  What does the song mean now?
p86
aVCan hardly keep my eyes open.  When did I get so old?
p87
aV#lessexcitingbandnames The Made a Pie with Pumpkins
p88
aVTrying to nap. Too much wine last night.
p89
aV#ThanksToMyEx I have an evil cat that craps on my carpet.
p90
aVI'm wondering how much longer twitter is going to keep my attention.
p91
aVMy legs are still sore from my "run" yesterday.
p92
aVI'm wondering what men are thinking.  Actually, I know, but I wish it were something else.  Oh well.
p93
aVThe starbucks instant coffee is actually pretty good!
p94
aVThose two sharpie stains on my pants are now two butterflies.  Yay for iron on patches.
p95
aVIt's nice to know there are nice people out there.  A man was nice enough to help me with my 48# luggage when the escalator was out.
p96
aVI think the swine flew should be called the hiney flew, since the 1s in H1N1 kinda look like "i"s.
p97
aVI wish the stars would line up correctly sometime soon.
p98
aVI'm doing an expense report, oh joy.
p99
aVI wish I had the motivation to exercise on a regular basis.
p100
aVTo the woman in seat 21F: Please turn the sound off on your phone when you are texting.  To the person in 22F: Thanks for not showing up!
p101
aVI'm so pooped that I'm going to bed soon.
p102
aVI'm watching the house bunny.
p103
aVIs watching the series finale of er..
p104
aVIs watching the series finale of we.
p105
aVComcast is getting too expensive.
p106
aVIs trying to figure out the combination to her locks.
p107
aVJust got back from a brown bag party.
p108
aVWatching Obama's acceptance speach!
p109
a.