(lp0
VRT @Casey_Clemmons: like if you knocked doors for democrats this weekend.\u000a\u000aretweet if a friend or family member knocked doors for democrats\u2026
p1
aVRT @waltshaub: Just saw a shocking Corey Stewart campaign ad. It was like a 1930s nazi propaganda reel, and he\u2019s with a major party. The co\u2026
p2
aV@MrsAkgul I love this! It reminds us that the numbers we usually use in sudoku are really symbols. A great way to make that connection!
p3
aVRT @AndyRichter: You can really see why guys like Jacob Wohl lamprey themselves so hard onto Trump because the largesse of a white patriarc\u2026
p4
aVRT @indivchicagonw: Love these Roskam attack ads trying to link Casten to Madigan:\u000a\u000a1) Did you know Casten has never met Mike Madigan? For\u2026
p5
aV@MrsSand119 If we have to get a family dog because of this project...I know where to find you Mrs Sand!!\U0001f600
p6
aVRT @KimsMom3: If the shootings this week bothered you (and they should) there's a way to help fix it.  \u000a1. go to https://t.co/UPUHa9Bq46\u000a2.\u2026
p7
aV@armstrong4th116 Looks great, Room 122!
p8
aVLove this! https://t.co/66AwWh7yG4
p9
aVRT @HeidiPrzybyla: Read this. This is IMPORTANT. \u000a\u000aNo one has done this math before, totaling up the net cost of 20 years of tax cuts for t\u2026
p10
aVRT @RepSwalwell: Looking at early voting lines across America and I don\u2019t see any mobs. But I see moms. Lots of moms. #YearOfTheWoman #Vote
p11
aVRT @NilesTownship: In addition to monetary donations, our Food Pantry is currently seeking donations of toiletries and especially diapers.\u2026
p12
aV@Supt_Clauson @MrsSand119 @SkokieSD69 @EdisonDolphins Congratulations to a great math teacher!
p13
aVRT @WhitfordBradley: The Founding Fathers understood that a tyrant who says that the press is  the enemy of the people IS the enemy of the\u2026
p14
aVRT @chrislhayes: Journalist who spoke to the folks in video being tweeted by the President who says it was local merchants pooling donation\u2026
p15
aVRT @ConnieSchultz: This is glorious on multiple levels. https://t.co/2S6pouriL6
p16
aVRT @ProudResister: Video of the \u201cangry mob.\u201dhttps://t.co/FThYq7Yi0j
p17
aVRT @HeidiStevens13: You don\u2019t have to be Taylor Swift to get out the vote. You don\u2019t have to be Kanye West to make waves. \u000a\u000aOn Saturday, Ch\u2026
p18
aVRT @gretchenwhitmer: Probably because they don\u2019t want to talk about the fact that Bill Schuette joined nine lawsuits to repeal the ACA - wh\u2026
p19
aVRT @RexHuppke: The responses to this tweet \u2b07\ufe0f are AWESOME. https://t.co/WndZTjzyjD
p20
aVRT @GeorgiaDemocrat: BREAKING from @AP: 53,000 Georgians' voter registrations (nearly 70% of them African-American) are being held up by @B\u2026
p21
aVRT @RepJoeKennedy: Let\u2019s count the ways this is a lie:\u000a\u2043You tried to take health care from 30 million Americans\u000a\u2043When you failed, you made\u2026
p22
aVRT @lindsayballant: 100 companies are responsible for 71% of global emissions \u000a\u000a100 companies are responsible for 71% of global emissions\u2026
p23
aVRT @ConnieSchultz: Some are grousing that it took Taylor Swift to convince thousands of voters to register. My union activist dad taught me\u2026
p24
aVRT @DanRather: Are you angry? VOTE. Are you despondent? VOTE. Do you believe in the rule of law? VOTE. Do I sound like a broken record? VOT\u2026
p25
aVRT @ava: This dark day in American history has a light that shines brighter than the cowardly men and women who will put Kavanaugh on the S\u2026
p26
aVRT @skokielibrary: Still need to register to vote? You have two more opportunities to register this weekend at the library, Saturday and Su\u2026
p27
aVRT @SkokieSD69: @SkokieSD69 is currently seeking an Affinity Family Liaison. View the job posting here: https://t.co/1SfIJIKnPB
p28
aVRT @MuellerSheWrote: Today was a reminder to always have your elevator speech ready to go. #WomenRiseUp #NoKavanaughConfirmation #AnaMariaA\u2026
p29
aVRT @renato_mariotti: I hope she thinks that she made a difference, because she did. https://t.co/Y8CCfh4dhy
p30
aVRT @GlennonDoyle: No one really believes this woman is lying. If they vote him in: It is because they believe her and don\u2019t care. We should\u2026
p31
aVRT @pronounced_ing: So what we're learning is, no one unravels more spectacularly than someone who's been privileged all his life (straight\u2026
p32
aVRT @MarySchmich: Good luck, Christine Blasey Ford. Thank you for being fearless. Or for subjecting yourself to this interrogation despite y\u2026
p33
aVRT @TheOnion: "Oh, Christ, what the hell happened last night? What am I doing here?" https://t.co/lCJHPiXRNQ
p34
aVRT @D69CommSchools: Thrilled to be partnering with the ELL Parent Center to offer FREE Adult ESL classes this fall! Our next class will be\u2026
p35
aVRT @SkokieSD69: The @skokiedist69pto @FUND69 @SkokieSD69 Walk-a-thon is this Saturday - 9/29! Event starts at 8:30a - walk begins at 9:30a.\u2026
p36
aV@HeidiStevens13 Cheers! And TGIF\u2014whew!
p37
aVRT @D69CommSchools: Looking for ways to connect to our school community? Join one of our Community School committees! Meetings begin next w\u2026
p38
aVRT @_sashayed: one thing i love about jane austen is that she's like "riding a horse isn't sexy. u know what's sexy? CARRYING an EXTRA UMBR\u2026
p39
aVRT @SkokieSD69: Open house tonight for 1st and 2nd grade @MadisonSD69 families from 6-7pm! @EdisonDolphins have their open house for 3rd -\u2026
p40
aVRT @chicagotribune: Monarch butterflies roost in trees at the Lurie Garden of Millennium Park on Friday during their migration from Canada\u2026
p41
aVRT @HeidiStevens13: Hey, teacher friends! American Writers Museum wants you to come hang out for free on Sunday and learn about all the way\u2026
p42
aVRT @SkokieSD69: What are you doing this Saturday? Come visit the @D69CommSchools Family and Engagement Committee at the free Knox Ave #bloc\u2026
p43
aVRT @jayrosen_nyu: Brilliant cartoon, @wuerker https://t.co/TbRx49Ukyb
p44
aVRT @Alt_FedEmployee: Instead of Space Force, how about an Earth Force that protects the planet we live on from assholes who support corpora\u2026
p45
aVRT @jasonroeder: How far down the current presidential line of succession would you have to go before you found someone who\u2019d return your w\u2026
p46
aVRT @SportsKrunch: If you live in the Chicago area and have a question about your upcoming #FantasyFootball draft, do NOT miss the great @ev\u2026
p47
aVRT @NateSilver538: If you always predict that this isn't the straw that will break the camel's back, you'll almost always be right but will\u2026
p48
aV@tatianatmac W
p49
aVRT @johnpavlovitz: Millions of people are holding their breath and covering their eyes and waiting for the good people to show up and twist\u2026
p50
aVRT @repjohnlewis: Do not get lost in a sea of despair. Be hopeful, be optimistic. Our struggle is not the struggle of a day, a week, a mont\u2026
p51
aVLet\u2019s be Graceful. https://t.co/9UuHlGNq4a
p52
aVRT @susie_meister: It\u2019s almost as if they didn\u2019t mean it when they said \u201cAll Lives Matter\u201d
p53
aVRT @skokielibrary: Free lunches are available for youth and teens in the High School Lounge every weekday from noon to 1 pm, now through Au\u2026
p54
aVRT @adamdavidson: This, by @DavidCornDC is a great explanation of my view: the corruption and collusion are well-established. Incrementalis\u2026
p55
aV@MrsMarsh116 All\u2019s Fair in love and Tug-O-War! My favorite event!
p56
aV@RubinSandwich_ Completely agree!
p57
aVRT @jenbiv: This is not what democracy looks like.
p58
aVRT @FUND69: Good morning from the #walkathon https://t.co/qhmeoQWn8V
p59
a.