(lp0
VKNOCK, KNOCK\u000a... in the #IL06 and all across America!\u000a\u000aWHO\u2019S THERE?\u000aThe #BlueWave. And it\u2019s going to\u2026 https://t.co/uBWmytfbLR
p1
aVCanvassing in the #IL06 can bring you to some mighty long driveways. Like this one in Bartlett which leads to a pro\u2026 https://t.co/LEMvZvDUF7
p2
aVThe fate of our democracy. That is why Robert and Karen in Rolling Meadows, Illinois believe  #VotingMatters. They\u2026 https://t.co/erOMYs0h6N
p3
aVThe future. That is why Kevin in Barrington, Illinois believes #VotingMatters. Kevin is ready to #FlipThe6th.\u2026 https://t.co/0W67Ul0aod
p4
aVMy voice. That is why Angel in Bartlett, Illinois believes  #VotingMatters. Angel is ready to #FlipThe6th.\u2026 https://t.co/uBbuNJcwrb
p5
aVCivil rights. That is why Errol in Palatine, Illinois believes  #VotingMatters. Errol is ready to #FlipThe6th!\u2026 https://t.co/Onu3UxDN66
p6
aV\u201cVoting is our right,\u201d Devi told me yesterday in Palatine, Illinois. Devi is voting to #FlipThe6th and\u2026 https://t.co/atWBiyepyq
p7
aV#VotingMatters for Marianne in Wheaton, Illinois and she can\u2019t wait to #FlipThe6th and #TakeBackTheHouse. https://t.co/a6qnPZ2DIx
p8
aVTeagen in Rolling Meadows, Illinois is one of a million.  #VotingMatters to her because it helps us shape our futur\u2026 https://t.co/ffNuOKjQP4
p9
aVOne million doors and counting @TurnoutPAC has knocked on 1,000,000 doors this election cycle and we are still goin\u2026 https://t.co/UlV7RBm4t5
p10
aVHappy #NationalVoterRegistrationDay. #VotingMatters to me because I believe in freedom of the press.\u2026 https://t.co/EJQgtIwwJa
p11
aVHappy #NationalVoterRegistration day! We are working hard to #flipthe6th for plenty of good reasons. #VotingMatters\u2026 https://t.co/Q6wbE1EHX1
p12
aVHappy National Voter Registration Day! Chris, Rosa, and Geoff take a quick break from knocking on doors to register\u2026 https://t.co/qmDegkJQLz
p13
aV#VotingMatters for Mike in Hoffman Estates, IL. He is ready to vote and #flipthe6th. https://t.co/t9B0zcnqVW
p14
aV#VotingMatters for this Wheaton, IL woman because she cares about her community. She is ready to #flipthe6th! https://t.co/bmfJyANLBp
p15
aVThis Carol Stream, IL mom is ready to be part of the Blue Wave. She\u2019s voting to #flipthe6th! #VotingMatters https://t.co/aU57HKxCMg
p16
aVThis Wheaton, IL mom is voting to make her voice heard. She is ready to #flipthe6th! #votingmatters https://t.co/0HFBK6XLfR
p17
aV\u201cIf you don\u2019t vote, you can\u2019t complain,\u201d says this young voter in Glen Ellyn. He\u2019s ready to vote and #flipthe6th!\u2026 https://t.co/qgA9O38yyB
p18
aVA young voter in Carol Stream holds the future in her hands. She is ready to #flipthe6th! #votingmatters https://t.co/4idaEu2Tkd
p19
aVTalked to these two enthusiastic voters in Wheaton! They\u2019re ready to #flipthe6th! https://t.co/sQap3ZODGP
p20
a.