(lp0
VRT @EricHolder: As you lament the Merrick Garland outrage never forget that McConnell and R\u2019s did not fill lower court seats for YEARS.  Th\u2026
p1
aVRT @ValerieJarrett: Close your eyes and imagine what it feels like to hear one\u2019s attackers laughing when you are terrified and think you co\u2026
p2
aV@BlueGhost40_ Tragic and true. \U0001f622
p3
aVRT @chelseahandler: Just a friendly reminder for the weekend: No white after Labor Day, and no old, white racist men after the midterms. Ge\u2026
p4
aV@JeffFlake Do something about it. Talk is cheap.
p5
aVRT @RBReich: Republicans in Congress have shown more outrage towards NFL players kneeling in protest than the President of the United State\u2026
p6
aVRT @repjohnlewis: Have courage\u2014raw courage\u2014to stand up and speak up for those left out and left behind. #goodtrouble
p7
aVRT @shailjapatel: Read women.\u000aCite women.\u000aCredit women.\u000a\u000aTeach women.\u000aPublish women.\u000aPresent women.\u000a\u000aAcknowledge women.\u000aAward women.\u000aAmplif\u2026
p8
aVRT @AlexCSinger16: Hillary regrets not sufficiently punishing worker who sexually harassed coworkers. She is tarred and feathered by the me\u2026
p9
aV@PreetBharara what are the odds that Devin Nunes is or will be investigated by the Mueller investigation for obstruction?
p10
aVRT @SenSchumer: This letter caused the GOP to silence @SenWarren tonight. Rt if you think they should #LetLizSpeak https://t.co/YSdugxE6Kr
p11
aVRT @NateSilver538: Call me cynical but seems very likely that "sources" portraying Jared &amp; Ivanka in an heroic light are actually Jared &amp; I\u2026
p12
aVRT @xnicorn: 'It is now illegal to ejaculate, unless it's for reproduction' https://t.co/cqhuPFw0PM
p13
aVRT @SethAbramson: Retweet if you want networks to stop booking Kellyanne Conway, the first U.S. presidential counselor to openly advocate l\u2026
p14
aVRT @keithboykin: Sen. Al Franken discovers Trump Education Secretary nominee Betsy DeVos doesn't know the difference between proficiency an\u2026
p15
aVRT @JohnFugelsang: Nixon was evil but he wasn't ignorant.\u000aW was ignorant but he wasn't evil.\u000aThe incoming combo is #unpresidented
p16
aVRT @LauraJSilverman: You JUST filed for a permit to hire foreign workers for your two FL clubs. Americans want those jobs but you won't hir\u2026
p17
aVRT @peterdaou: So an election where dollar bills were thrown at the female candidate and "Trump that b*tch" was a slogan didn't hinge on ge\u2026
p18
aVRT @kurteichenwald: I cannot wrap my head around the fact that the President Elect just publicly slammed an Indiana steelworker just for cr\u2026
p19
aVRT @brianefallon: If only someone had warned us Trump was not up to the task of international diplomacy. https://t.co/jRsKT7VKq0
p20
aVTrying to get Maddie off of wait list by posting. https://t.co/V5ZWG1rcEJ
p21
aVRT @HillaryClinton: The average woman makes just $0.79 for every $1 a man earns.\u000a\u000aRT if you agree we have to fix that. #EqualPayDay https:/\u2026
p22
aV@anjanettew @StevenW2209  ? Not sure what is being suggested?
p23
aV@anjanettew @StevenW2209 I think when you're young is the time to not be practical. You have no mortgage, spouse or kids. No regrets here.
p24
aV@anjanettew @StevenW2209 @ThisIsMvw -yep, if he were also trying to rub up against you at the same time :).
p25
aV@anjanettew The kids use it all the time- that's the only reason I know about it. You are always an early mover on technology :).
p26
aV@anjanettew you are officially a teenager :).
p27
aVPHOTOS: Adults Recreate Classic Childhood Moments via @HuffingtonPost http://t.co/2WU07ZJMLx
p28
aV@_you__MAD_bro__ #like
p29
a.