(lp0
VRT @sharicedavids: I told you I was getting better at this selfie thing! Here I am with just a few of the canvassers that launched from our\u2026
p1
aV\u2066@SotaStickCo\u2069 \u2066@graystonetavern\u2069 https://t.co/XkVFza9N1F
p2
aVRT @FluffyFrens: calm boi https://t.co/Mztea7EQa4
p3
aV@jonlovett @PodSaveAmerica just wrapping up a door knocking shift. #votecastens #votejb https://t.co/4xQYurl6IN
p4
aVRT @keithboykin: President Obama:\u000a\u000aIn 2010, Republicans said death panels would get you.\u000a\u000aIn 2014, they said it was Ebola.\u000a\u000aIn 2016, they s\u2026
p5
aV@AndyCarlsonShow Welp, gonna make my dogs uncomfortable with how much I follow them around for the rest of the night.
p6
aVRT @karalynum: "Any alien who is physically present in the United States or who arrives in the United States (whether or not at a designate\u2026
p7
aV@BuchbergerJm DO NOT EAT THE LAST SLICE. YOU CANT EAT THE LAST SLICE. YOU CAN CUT THAT SLICE IN HALF UNTIL YOURE SP\u2026 https://t.co/pjAENDtsdh
p8
aVRT @carlreiner: What is on my mind will be coming out of my mouth as you watch this: https://t.co/fZkyGg8rlU
p9
aV@MellMarshall @FuriousJorge7 HA!
p10
aVRT @716SportPodcast: Starpoint, NW, NT &amp; Lew-Port are merging for the first ever combined female Fed Hockey team in Niagara County. Many of\u2026
p11
aVRT @NBCNews: Leader of Islamic Center of Pittsburgh announces Muslim community has raised more than $70,000 for synagogue attack victims an\u2026
p12
aV@toddvs35 Google Tom Lawless
p13
aV@toddvs35 https://t.co/vezQ6iT9xR
p14
aV@LUnderwood630 can\u2019t wait for your campaign concert with @CAKEMUSIC
p15
aV@people @BuzzFeedNews a thought/request: could you please start putting the suicide awareness and prevention inform\u2026 https://t.co/l6Ncwybvso
p16
aVRT @NCHAhockey: WHKY, Friday:\u000aAurora @AUSpartan_WHKY   4\u000aTrine @trinewhockey   0\u000a\u000aSOG: TRINE 37, AU 18\u000aAU: * Becca Binder - 37-save shutout\u2026
p17
aV@grizzlefur @Twins They\u2019ve shown no evidence of being able to do that. Breed, man, breed.
p18
aVRT @SportsCenter: LeBron James received the Offseason NBA Cares Community Assist Award for opening up the I PROMISE school this past summer\u2026
p19
aV@grizzlefur @Twins Please have more kids.
p20
aVRT @HarMarSuperstar: Who are these people who vote no on education boosts?
p21
aV@BuchbergerJm Same picture, no filter. https://t.co/q66RINAzih
p22
aVRT @knashty2: And we\u2019re off! First of many #skilldrilltuesday\u2019s for the 2018-2019 season! RT to help grow the game! \U0001f3bc\U0001f3a7\U0001f3d2 https://t.co/1Tij3v\u2026
p23
aV@JesseWTKR Every bunch of apples have a dumbfuck that doesn\u2019t think.
p24
aV@OrlandParkpd are campaign signs allowed at the 143rd street station?
p25
aVRT @Alyssa_Milano: This. Is. Everything. \u000a\u000aI cried ugly tears after watching this. Turn up the sound. Pass it on. Vote. \u000a\u000a(Thanks for inclu\u2026
p26
aVIf you don\u2019t vote, you can\u2019t pet our dogs. #dogsoftwitter https://t.co/jtbYFHqLLT
p27
aV@TwinsAlmanac @FrankViola16 @pgammo could you send this to anyone that gives a \u201cplayers these days\u201d quote?
p28
aVRT @MajorMinnesota: Thanks to a strong understanding of physics acquired at Bloomington Kennedy High School, #MNTwins all-time great @Hrbie\u2026
p29
aVRT @Khanoisseur: Michael Cohen, the guy who set up Trump\u2019s run for President, belatedly recognizing the disaster he has helped create (and\u2026
p30
aV@ParkerHageman This is my favorite holiday.
p31
aVRT @ParkerHageman: Happy National Ron Gant Was Clearly Out Day https://t.co/nvGBECFqPe
p32
aV@SeanCasten had a great time canvassing for you today! Going to try and make time for next weekend.
p33
aVRT @Khanoisseur: This is why Republican lawmakers feared doing healthcare townhalls.  https://t.co/zmywZNXkl0
p34
aVRT @SSWorks: Take it from Republican hero Ronald Reagan: Social Security has ABSOLUTELY NOTHING to do with the deficit.\u000a\u000aCC @senatemajldr h\u2026
p35
aV@SotaStickCo @johnnyrandle93 Where\u2019s the pizza from?
p36
aV@mallofamerica @BDandG963 Wrong answer.
p37
aV@sportingnews @RheaButcher it\u2019s like he knew Machado would do something stupid.
p38
aV@RheaButcher Agree that it\u2019s an inexcusable play. Dangerous for both players. Aguilar needs to get off the bag afte\u2026 https://t.co/6NWcsvKxR2
p39
aV@DanMyers @FSNGorg In a league that gives .1 points per rushing yard. Monday night game. Up .1, Matt Ryan decides t\u2026 https://t.co/TComaqKFUx
p40
aV@FuriousJorge7 I know
p41
aVRT @hodgman: Hello. It has been some time since I checked out https://t.co/U0LXFHOXNO and I have to say the full voter's guide section is i\u2026
p42
aVRT @BuchbergerJm: Heartwarming: A child selling pumpkins to raise money for a charitable cause.\u000a\u000aHeartbreaking: A child selling pumpkins to\u2026
p43
aV@FuriousJorge7 Also cures consciousness.
p44
aV@FuriousJorge7 I\u2019m holding out for the Phil Esposito brand Mystery Booze In a Can
p45
aV@schnellharrison https://t.co/rzCw0YiOij
p46
aV@TedNugent stick to sub par guitar playing.
p47
aV@KidRock stick to shitty music.
p48
aV@schnellharrison https://t.co/AHGRVA9tQ0
p49
aV@graystonetavern SKOL https://t.co/vA6AntcpTC
p50
aV@LindsayGuentzel Yeah, and pegging Cowboy Joe West, the dirtiest.
p51
aV@LindsayGuentzel You mean hitting with a baseball...right?
p52
aVRT @EVRYBODYvsTRUMP: This Disney heiress is here to tell you exactly what the 1% did with Trump\u2019s tax cuts\u000a\u000aSpoiler: They didn\u2019t create mor\u2026
p53
aVRT @AshleeMPreston: Welp...it\u2019s official...Kim Kardashian finally decided to divorce Kanye West... https://t.co/C2p25mxWJO
p54
aVRT @BSUBeaversMHKY: BEAVERS WIN 2-1!!! #GOBEAVERS!!!!!
p55
aV@DanMyers We wore it better. https://t.co/bclrG7wgHO
p56
aV@FuriousJorge7 Sigh....well... life... sigh...
p57
aVRT @rachelysew: LYFT IS OFFERING FREE RIDES TO POLLING STATIONS AND IF YOU DO NOT HAVE A SMART PHONE, YOU CAN ORDER A RIDE ON A COMPUTER. A\u2026
p58
aV@AtlantaMagazine @BigBoi This just made me so happy.
p59
aV@FuriousJorge7 They\u2019re great! Living dogs and a wife with her wits about her. I\u2019m definitely not living my fear.
p60
aV@FuriousJorge7 Sexy waking up to a scene of my wife having gone into a fugue state and murdered our dogs then havin\u2026 https://t.co/tf1bTNMd0R
p61
aV@Mr_JDeli This seems off brand.
p62
aVRT @kylegriffin1: Taylor Swift: The AMAs "are voted on by the people. And you know what else is voted on by the people? It's the midterm el\u2026
p63
aV@BuchbergerJm Well you DID watch a marathon this weekend.
p64
aV@StanLewis_ @TheDonPrincipe @schnellharrison
p65
aV@shaunking The first black player in NHL history is alive. His name is Willie O\u2019Ree. He\u2019s going into the Hall of Fa\u2026 https://t.co/rbeT0qWbA0
p66
aV@Brandon_Warne @SethTweets Rapper https://t.co/Zlm2ff6Sqt
p67
aVRT @NWHL: She plays for the Riveters, coaches at Princeton. The Hockey News profiles @knashty2, someone to admire for many reasons. \u000aThanks\u2026
p68
aV@350Brewing Can you shoutout some of the places they\u2019re going?
p69
aV@schnellharrison https://t.co/U4Hqw3h72p
p70
aV@FuriousJorge7 I actively hate Mitch McConell more than trump. He created this monster.
p71
aV@FuriousJorge7 That was quick.
p72
aVRT @IPCBemidjiState: This could be your classroom this spring! Learn more today 10/4/18, HS 245, 4 pm #educationabroad #studyabroad @Bemidj\u2026
p73
aVRT @lauren_hoggs: All I\u2019m saying is if they have the ability to make a national #PresidentialAlert why can\u2019t they make a national voter reg\u2026
p74
aVRT @FarhinSayeed: MN edition https://t.co/DCMueI1Eg7
p75
aV@BarstoolRadio That game last weekend where Joe Mauer made me cry.
p76
aVRT @notcapnamerica: Drag them! https://t.co/uxTDPXN4Nx
p77
aV@BaseballByTom Most relatable tweet of the night.
p78
aVRT @Twins: Oh, Joe. We're all crying. \U0001f62d\U0001f62d\U0001f62d \u000a\u000a#MNTwins https://t.co/SkmEoil1Db
p79
aVRT @jack_kinsman: Joe Mauer is a Top-5 Player in Twins history. He deserves to go into the Baseball Hall of Fame. His peak as a catcher was\u2026
p80
aVRT @EliTerry: I DRIVE A DODGE STRATUS https://t.co/nzWSPddLqk
p81
aVRT @girlsreallyrule: Can someone please tell me who did this video, so we can give you every award until the end of time??? #KavanaughVote\u2026
p82
aVRT @JeanGreasy: Lindsey Graham would have been eliminated violently and exceptionally early at Willy Wonka\u2019s factory. \u000a\u000aGood lord.
p83
aV@GovRauner does your teacher license bill help with the ridiculous endorsement system here? I have my teacher\u2019s lic\u2026 https://t.co/HFf028s5RS
p84
aVRT @Jammer2233: High school athletes who want to play college sports \U0001f5e3\u000a\u000a%\u2019s of schools that can recruit you depending on your GPA \u2b07\ufe0f\u000a\u000a4.0\u2026
p85
aVRT @dopegirlfresh: animals are sick of our shit. https://t.co/rvov9lxFb6
p86
aV@AaronGleeman Husker Don\u2019t. Fuck the Jayhawks. Atmosphere isn\u2019t really rap.
p87
aV@schnellharrison https://t.co/K9zZZz525N
p88
aV@MarthaYoung Tweet of the night.
p89
aV@graystonetavern
p90
aV@CCvikingsclub @SotaStickCo https://t.co/pvFQVnJ2kp
p91
aVRT @RheaButcher: Goddamn, music is pretty great, huh
p92
aVRT @EarthWindFire: Do you remember? \U0001f914
p93
aV@hodgman I\u2019m positive that I did things between the ages of 19 and 23 that I should regret but don\u2019t remember. Each\u2026 https://t.co/tSXdLBkhwB
p94
aVRT @PodSaveAmerica: Listen to @BetoORourke and help him out: https://t.co/9iJLTQWXbQ https://t.co/F2VZsOAjCW
p95
aVRT @FuriousJorge7: Retweet if you\u2019re embarrassingly proud of your dog for pooping
p96
aV@BuchbergerJm Chalk it up to a future failed business that doesn\u2019t understand marketing
p97
aV@HarMarSuperstar I already have tickets to the show at Thalia Hall in Chicago. Couldn\u2019t be more pumped, going to be\u2026 https://t.co/e3U0F7uyKv
p98
aVRT @sam_walther40: Hey @Holts170, I bought yours...how many retweets for you to buy mine? #NWHL #StanleyCupChamps #SearchingforIsobel https\u2026
p99
aV@LindseyGrahamSC Why?
p100
aV@solomongeorgio I meet these requirements, however, I\u2019m sure that I\u2019m still not trustworthy. I\u2019ve known me.
p101
aV@anamariecox https://t.co/YWRljwjoXi
p102
aVRT @andersoncooper: what are the chances @DonaldJTrumpJr apologizes for lying about me? Im not holding my breath. Check out the video below\u2026
p103
aVRT @frntofficesport: Thanks to @TRIAortho, @WhitecapsHockey are set to have the first entirely female medical staff in North American pro s\u2026
p104
aV@BuchbergerJm @MaraWilson @billyeichner Perfect casting decision.
p105
aVRT @wyomingpd: ***WANTED***\u000a\u000aA field goal kicker who isnt bad. \u000a\u000aSincerely,\u000a\u000aMinnesota \u000a\u000a#MINvsGB
p106
aVRT @Nemock7: Hey y'all #Vikings fans...\u000a\u000aCalling Aaron Rodgers "Erin" is pretty dumb, and really doesn't add any humor to the situation. Al\u2026
p107
aVWho plays Willians Astudillo in \u201cBaseball Turtle: The Willians Astudillo story\u201d?
p108
aV@lexilafleur @DanMyers
p109
aVI know what the rule is. I KNOW WHAT THE RULE IS. I can\u2019t help that Jordan Morris (non soccer version) and Willians\u2026 https://t.co/X26184TzMm
p110
aV@JesseWTKR https://t.co/YY2PjfVo9n
p111
aVRT @JesseThorn: "I just wanted to show that chubby people also run." - Willians Astudillo, baseball superstar https://t.co/hr0shUoecQ
p112
aV@JesseThorn Shit.
p113
aV@JesseThorn Can you define good?
p114
aV@Twins @OfficialBuck103 would have had a shot at that ball.
p115
aVRT @jarrid_denney: Willians Astudillo was asked about his seventh-inning sprint from first to home: \u000a\u000a\u201cI just wanted to show that chubby pe\u2026
p116
aV@nprmusic @_HoboJohnson @NPR I just started listening to him last night! What an interesting guy
p117
aV@DanMyers Go Beavers
p118
aVRT @Msummerslowe: I laughed at this way too hard. https://t.co/Tejtz5EG83
p119
aV@FuriousJorge7 Five to seven Tithis before the wedding day. As is tradition.
p120
aVMillions of taxpayers could wind up owing for 2018 - CBS News\u000a\u000a\u2066@SpeakerRyan\u2069 should \u2066@GOP\u2069 candidates still run on\u2026 https://t.co/RsUO1s6LM0
p121
aV@DennysDiner @torydyck @ErikPHage
p122
aV@_waleedshahid @CynthiaNixon @DNC I\u2019m a recent member. If this mud slinging between Democrats isn\u2019t resolved soon,\u2026 https://t.co/Md1wZSieAa
p123
aV@MRS_T_19 @schnellharrison
p124
aV@SotaStickCo I just ordered a Skol flag to fly at @graystonetavern . Any chance I could get it so it can fly for ne\u2026 https://t.co/D8TQkz7Bch
p125
aV#surlybrewingIL https://t.co/WTO2vH49mR
p126
aV@CCvikingsclub https://t.co/AhrWLtOP3o
p127
aVRT @SotaStickCo: Skol. Skol. #Skol. Retweet and follow @SotaStickCo for a chance to split the winnings with us \U0001f4b8\U0001f4b8 Winner selected on Februa\u2026
p128
aV@KaptanHindustan @schnellharrison
p129
aVRT @alexisohanian: She fought for her life, for our child, for recognition, for equal pay, for women\u2019s rights. She never gives up.\u000a\u000aI had t\u2026
p130
aV@CuteEmergency @schnellharrison
p131
aV@GID_it_done @TheDonPrincipe
p132
aV@cristela9 Tom Hanks FTW.
p133
aVRT @SenKamalaHarris: Can you think of any laws that give the government the power to make decisions about the male body?\u000ahttps://t.co/lDcXP\u2026
p134
aVRT @kylegriffin1: CSPAN has posted the entire nearly 8-minute exchange between Kamala Harris and Kavanaugh on the Mueller probe. It is wort\u2026
p135
aV@schnellharrison https://t.co/eZpXwRzXjd
p136
aVRT @joshtpm: Father of Slain Parkland Teen (Fred Guttenberg) Says Not Only Did Kavanaugh Turn Away As Soon As He Mentioned His Murdered Dau\u2026
p137
aV@BuchbergerJm Between B99 and Newsradio, I kinda wish I could take back Sportsnight. It\u2019s tough, I\u2019m complicated, b\u2026 https://t.co/zeqVEpVdfm
p138
aV@BuchbergerJm West Wing\u000a30 Rock\u000aCommunity \u000aSports Night\u000aBetter Call Saul
p139
aVRT @FuriousJorge7: To anybody who plans on burning their Nike apparel, please consider donating first. \u000a\u000aI\u2019d be happy to take anything off\u2026
p140
aV@jonfavs Can he do anything right? Beto looks f@$&amp;ing awesome, AND he shows up! #BetoForTexas #TedCruz
p141
aVRT @Reuters: Rio's 200-year old National Museum hit by massive fire https://t.co/HDUOylsbpy
p142
aVRT @TankCPTNemo: If anyone needs me, I will be watching this video of @tedcruz spectacularly failing at dunking until the heat death of the\u2026
p143
aVRT @NikkiGlaser: \u201c...until the heat death of the universe.\u201d \U0001f602\U0001f602\U0001f602 https://t.co/RUhEJsU1ZK
p144
aV@FuriousJorge7 @thatblondeguy88 Matt\u2019s is pretty well known, Jorge. Shouldn\u2019t be that tough to process.
p145
aV@FuriousJorge7 @thatblondeguy88 Walnut death by mistaken burial knowing that the world went on before me and that i\u2026 https://t.co/INtYb1hr3T
p146
aV@JesseThorn @Hrbie14 any truth to this?
p147
aVRT @JesseThorn: Saw a tag that said \u201cHRBK.\u201d I can only assume it was Gary Gaetti.
p148
aV@DoWOODSon1 Manny, get at me kid.
p149
aV@erinfoster76 @schnellharrison
p150
aV@HailstormBrew https://t.co/oGVea0sqNE
p151
aVRT @GwenGraham: I want to congratulate @AndrewGillum. The truth is after 20 years of one-party rule, Florida simply can\u2019t afford another Re\u2026
p152
aV@FuriousJorge7 I have to imagine that you\u2019re correct.
p153
aV@FuriousJorge7 My wife Kira says \u201cOh, so cute!\u201d In that voice. You know the one.
p154
aV@FuriousJorge7 https://t.co/7sRJFvyuvD
p155
aV@FuriousJorge7 Relatable tweet of the day. Byron chewed my Wild colored Skol hat last year for the same offense.
p156
aV@darth https://t.co/LkrYPeHHCP
p157
aV@AdamWeinstein @torydyck @ErikPHage
p158
aVRT @JasmineLWatkins: This Nike ad with @serenawilliams and her dad is AMAZING. https://t.co/hGCE0zL5QH
p159
aVRT @MattxRed: We aren\u2019t safe playing video games in this country... We have to understand the horrific reality of gun violence in America.\u2026
p160
aV@pattydraves @tdravesjr HA!
p161
aV@BuchbergerJm You have no idea how much I can relate to this.
p162
aV@ParkerHageman Is he doing something different?
p163
aVRT @neeratanden: THEY ARE NOT PROTESTING THE NATIONAL ANTHEM.  They are protesting police brutality.  Please fix the tweet @cbsnews.  And f\u2026
p164
aV@FuriousJorge7 Have you forgotten the Sidney Ponson era?
p165
aV@T1721Austin @Twins Still more creative than \u201cMauer\u201d.
p166
aV@PurdieBirdie53 @teddyb_h2o Why wait? Cut Trevor, get Teddy!
p167
aV@PurdieBirdie53 Can we trade for @teddyb_h2o ?
p168
aV@fuboTVsupport I already canceled.
p169
aV@Twins A man so exciting his nickname is \u201cMauer\u201d.
p170
aV@fuboTVsupport The way your service is advertised lead me to believe that location wouldn\u2019t be an issue. I live in Chicago.
p171
aV@fuboTV looking for the @Vikings @Seahawks game. Where is it?
p172
aV@fuboTVsupport I\u2019m not seeing the @Vikings vs @Seahawks game. What gives?
p173
aVPodcast idea: @Jordan_Morris learns from an Egyptologist for 30 minuets a week.
p174
aVRT @KingJames: A Must Watch!!! \U0001f64f\U0001f3fe\U0001f4aa\U0001f3fe\U0001f4af\u203c\ufe0f Salute @BetoORourke for the candid thoughtful words! https://t.co/E1YrbqGciZ
p175
aVRT @TVietor08: It's so rare to hear an answer this clear and honest and from the heart that it made my jaw drop. Check out @BetoORourke and\u2026
p176
aVRT @nowthisnews: \u2018I can think of nothing more American.\u2019  \u2014 Beto O'Rourke \u2014 the man taking on Ted Cruz \u2014 brilliantly explains why NFL playe\u2026
p177
aV@LPontheleft https://t.co/JiswPEhBhr
p178
aV@AaronGleeman Would it really be so bad to have a rotation of Berrios, Gibson, Romero, Mejia, Gonsalves?
p179
aV@Twins when you decide to make your Joe Mauer statue for outside of Target Field, consider an image like this. https://t.co/BhdDRwqa3X
p180
aVRT @bridgescoffey6: Help me out... https://t.co/maAC4rKMwF
p181
aVRT @TwinsAlmanac: Retweet for a chance to win a 1990 @Topps Kirby Puckett card. #MNTwins https://t.co/53CwZjPfhZ
p182
aV@schnellharrison @Peace_Coffee Well, I also picked up some @DarkMatter2521 so we have it tomorrow.
p183
aV@Peace_Coffee Sure does! Just ordered a 5lb bag!
p184
aVRT @will_c_fischer: What if \u2014 hear me out \u2014 we didn\u2019t have a system that required a person battling cancer to rely on the generosity of the\u2026
p185
aVRT @TheTattooedProf: Hi there-Civil War historian here. So, uh...this is really, really far from "The Truth." Got a minute? /1 https://t.co\u2026
p186
aV@Peace_Coffee French roast changed my life at Hell\u2019s Kitchen. There I said it.
p187
aV@BuchbergerJm Yes.
p188
aVRT @BuchbergerJm: Today is a bad day. RIP queen. https://t.co/DGzH8SqHiF
p189
aV@FuriousJorge7 So brave, so so brave.
p190
aVRT @questlove: welp. Goodbye Nathan's https://t.co/Pr65l2PRll
p191
aV@TheDonPrincipe @theholdsteady This is an event that I support.
p192
aV@SotaStickCo @CCvikingsclub check these out!
p193
aV@BuchbergerJm I door knocked today as well!
p194
aV@PodSaveAmerica Randy is saying a few words before we start canvassing. https://t.co/Mek36iH99y
p195
aV@BaseballByTom Fair enough. That might have been better, but, I don\u2019t think that what he said is something to get upset over.
p196
aV@BaseballByTom What\u2019s he supposed to say?
p197
aV@DNC I just became a member. Why the reversal on fossil fuel money now?
p198
aV@LaVelleNeal Wait, what?
p199
aV@TVietor08 doing my first canvassing tomorrow in WI01. Any advice?
p200
aV@Ianmurray7 @schnellharrison
p201
aVRT @Variety: .@LenaWaithe explains why she cut her hair: "I felt like I was holding onto a piece of femininity that would make the world fe\u2026
p202
aV@NYRangersPup @myregularface @TheGarden @schnellharrison
p203
aVRT @CNNPolitics: "We only have empty pockets when it comes to the morally right things to do, but when it comes to tax cuts for billionaire\u2026
p204
aV@mike_pence also, you\u2019re clearly gaining weight. You look awful.
p205
aV@mike_pence The University of Minnesota-Duluth is not a High School. You dolt.
p206
aVRT @DanteAtkins: Ocasio-Cortez is a young woman of color. She ran as a Democrat. She's the Democratic nominee. She immediately endorses oth\u2026
p207
aV@PuckSoupPodcast why am I still listening to this? https://t.co/GUYBjyNjHJ
p208
aV@BoringEnormous @schnellharrison
p209
aVRT @MaxFunHQ: It's Monday and if you need a pick-me-up, why not listen to all 8 episodes of #BubbleShow? (Listen here: https://t.co/ocZbRvJ\u2026
p210
aV@SotaStickCo Thought of doing a spin on this only with the V high and the W O below but with the same font?
p211
aV@GoldenKnights Brad, from one Beaver to another, hold the phone above your head.
p212
aV@SotaStickCo Hats?
p213
aV@SotaStickCo I should have waited to make my last order...
p214
aVRT @JonAcuff: Cities that are cooler than people think:\u000a1. Minneapolis, MN\u000a2. Columbus, OH\u000a3. Boise, ID \u000a4. Greenville, SC \u000a5. Birmingham,\u2026
p215
aVWhat @IMKristenBell is to sloths, @schnellharrison is to Kristen Bell movies.
p216
aV@ParkerHageman Why shouldn\u2019t managers try anything within the rules to win a game? The game has evolved many times\u2026 https://t.co/vH43OSjoLF
p217
aVRT @MasonThomas999: @LBoogy31 @davidmackau In a democracy, politics is everybody's lane sir.
p218
aV@FuriousJorge7 @MellMarshall The most relatable tweet on my timeline.
p219
aVRT @ScottHech: Don\u2019t let him distract you. *This is what he doesn\u2019t want you to watch. His deportation force violently stealing away a man\u2026
p220
aVRT @IndivisibleNet: Rep. Stephen Lynch Destroys Republicans for holding 100 hearing into Hillary Clinton's email server AND Only 2 on Russi\u2026
p221
aVRT @MrGeorgeWallace: .@RealDonaldTrump Shut up about Bron. That's my son. My beautiful son. You will be an orange shit stain in history boo\u2026
p222
aVRT @Twins: We're excited to welcome Jaequan and his family to the ballpark tonight! \U0001f32d #MNTwins https://t.co/3m6jfNvcgY
p223
aV@FuriousJorge7 As a veteran of almost 30 weddings I feel compelled to tell you: you have the most reasonable priori\u2026 https://t.co/KOU2s3xEiw
p224
aV@JesseWTKR @brheannaWTKR @WTKR3 Looking .....good? Jesse!
p225
aV@HillaryWarnedUs @IJasonAlexander Now it doesn\u2019t even go to voicemail. I had it ringing for 10 minuets.
p226
aV@JesseWTKR #monster
p227
aVReading The Big 50 by @AaronGleeman and it\u2019s really starting to get to me that the @Twins have squandered so many c\u2026 https://t.co/p3QBRzP92B
p228
aV@putthison @schnellharrison SEE!! I\u2019m \U0001f44fnot\U0001f44falone\U0001f44f
p229
aV@BuchbergerJm @RenaKARE11 Another baseless accusation. Typical. I\u2019m also for freedom of throw pillows. My guess is\u2026 https://t.co/Xgrtb3X1v9
p230
aV@BuchbergerJm @RenaKARE11 A wise man (Jesse Ventura) once told me \u201cConsistancy is the crutch of a weak mind.\u201d That\u2026 https://t.co/lBhJuv9Vy0
p231
aV@BuchbergerJm @RenaKARE11 Again, I am advocating for choice where as you are forcing unwanted fabric into those who don\u2019t want it.
p232
aV@BuchbergerJm @RenaKARE11 So you admit that you\u2019re terrible and oppressive in the same sentence that you lob an ad\u2026 https://t.co/mTfIPQOySQ
p233
aV@BuchbergerJm @RenaKARE11 They have the resources. They should not be forced into buying them or shamed for not using them.
p234
aV@Lawthreeper @Jordan_Morris @MaxFunHQ It me. I that.
p235
aV@BuchbergerJm @RenaKARE11 How, exactly, is forcing another constricting piece of bedding on the people a form of freedom?
p236
aV@BuchbergerJm @RenaKARE11 Listen, Dear Leader, freedom and choice will win out against your regime of opposition an\u2026 https://t.co/VShmGIR6wW
p237
aV@BuchbergerJm @RenaKARE11 If you can\u2019t see that what I mean is cutting the required top sheet, then it\u2019s clear to m\u2026 https://t.co/M1JHus0A0s
p238
aV@BuchbergerJm @RenaKARE11 Read the transcript, my belief that the top sheet was created to make money in no way sta\u2026 https://t.co/do8xR6HBaq
p239
aV@BuchbergerJm @RenaKARE11 My whole premise was that people should not be shamed for being open about who they are a\u2026 https://t.co/61BdPVv3pt
p240
aV@BuchbergerJm @RenaKARE11 The side of individual choice will win. People can do what is right for their own story a\u2026 https://t.co/EwiFFoLUXQ
p241
aV@RenaKARE11 @BuchbergerJm Your oppressive views will be listed with the rest of history\u2019s monsters.
p242
aV@BuchbergerJm @RenaKARE11 This will not be forgotten.
p243
aV@BuchbergerJm @RenaKARE11 I am a millennial and I\u2019m not going to kill myself. I believe that everyone should be abl\u2026 https://t.co/3PLmKxyASC
p244
aV@BuchbergerJm @RenaKARE11 Comfort should be up to the individual consumer. I\u2019m not a prisoner of the past. The bedd\u2026 https://t.co/GT5PWevoIN
p245
aV@BuchbergerJm @RenaKARE11 I\u2019m about freedom in the bedding marketplace. Eliminating the top sheet regulation will b\u2026 https://t.co/R9oq7gEh65
p246
aV@glenperkins @Twins @Indians Remember: you can totally swear all you want to on the internet. Gods speed.
p247
aV@BuchbergerJm @RenaKARE11 It shouldn\u2019t be the job of the laundry system to care for children. If their parents work\u2026 https://t.co/Zth9BlToVf
p248
aV@laurenduca That\u2019s Byron.
p249
aV@laurenduca  https://t.co/yCQ64g8Azr
p250
aV@BuchbergerJm @RenaKARE11 Cutting the top sheet forces a streamlining of the laundry. Since I\u2019m a laundry creator,\u2026 https://t.co/IGdv7juwgq
p251
aV@RheaButcher I\u2019ll be pulling for Dozier\u2019s Dodgers in the playoffs.
p252
aVRT @israhirsi: My mom is Ilhan Omar, and she\u2019s running for congress! https://t.co/5oz78ztE2P
p253
aV@BuchbergerJm @RenaKARE11 Welp, you should have paid more attention in 2008. Maybe you should have campaigned with\u2026 https://t.co/RXCJXZ0BF3
p254
aV@BuchbergerJm @RenaKARE11 The non-top sheet faction of the family won the electoral map.
p255
aV@RenaKARE11 Hold on, what is your life that you think sleeping without a top sheet is gross? Are you working out wi\u2026 https://t.co/EIdgSGEiOy
p256
aV@mcclure111 Totally, once I understood it took ten seconds to change. Super easy.
p257
aV@mcclure111 Thank you, again not only for the help but for your time.
p258
aV@mcclure111 I honestly had not thought about that. I have updated my bio. Thank you for your help!
p259
aV@mcclure111 Ahhh, got it. So if I put my pronoun in my profile, that would be a good thing because it would normali\u2026 https://t.co/igsj6zKpzn
p260
aV@mcclure111 I\u2019m feeling kind of dumb right now because I still don\u2019t get it. I\u2019m sorry. Could you point me to an ex\u2026 https://t.co/XMydh10G0Q
p261
aV@mcclure111 Honest question, and I tried to find the answer to this in the replies before I asked: what do you mean by unnecessary pronouns?
p262
aV@AlexSmithSzn Who gets to choose the sock?
p263
aVListen to Phil. https://t.co/h51YI84Bfc
p264
aVRT @mnwild: Former @BSUBeaversMHKY forward is coming back to the #StateOfHockey. \u000a\u000a\U0001f4f0 #mnwild signs @MReader24 to a one-year, two-way contra\u2026
p265
aVRT @JasmineLWatkins: Dale Hansen always keeps it real. https://t.co/tb5Qw8kg5T
p266
aV@dog_feelings @schnellharrison
p267
aVRT @BSUBeavers: How is this for exciting news, #BeaverTerritory?  Welcome home Reader! #OnceABeaverAAlwaysABeaver https://t.co/3kJ6Y7Nt0W
p268
aV@WaunakeeIcePond @waunakeehockey @fondy_hockey It\u2019s great knowing I coached kids on both of these teams.
p269
aVRT @kinglinguist: Sometimes I feel like my life is an endless cycle of \u201cnext year will be better\u201d. You want to know something? I\u2019m right ev\u2026
p270
aVJust a reminder: @guybranum remembers everything and is smarter than you. \u000a\u000aYou may now go on about your day.
p271
aV@JenAshleyWright @laurenduca @schnellharrison
p272
aV@Jordan_Morris It me. I that.
p273
aV@FuriousJorge7 Careful to not get SWATed
p274
aV@FuriousJorge7 On the field or in the locker room?
p275
aV@FuriousJorge7 Coffee is for real Americans, Jorge.
p276
aV@FuriousJorge7 @kylebear20 @Duggernaut02 @RussoHockey This NEVER happens on twitter. Proud of you guys. https://t.co/Jy52qq2v9G
p277
aVRT @cFidd: Hello, police? I'd like to report a metaphor https://t.co/9KLSYrz2U1
p278
aVRT @JesseThorn: My wife was close friends with a couple she'd known since college. I was, too. A couple years ago, they split up, and we fo\u2026
p279
aVRT @MalcolmJenkins: \U0001f5e3\U0001f442\U0001f3fe https://t.co/1CVokH5GB2
p280
aV@chancetherapper a free concert on voting day where the entrance fee is a selfie if you voting?
p281
aVRT @brianschatz: I would like for the next President to understand economics.
p282
aV@Jr_A_Puck_Scout @nitzp @Bauer129 @FollowThePuck @hockeyscout22 I think Eastview is where this rule originated. Orl\u2026 https://t.co/T6zH3enPuv
p283
aVRT @RepBobbyRush: Today, Emmett Till would have turned 77. His murder is a constant reminder of the work we all must continue to do in addr\u2026
p284
aV@JasonKander I\u2019ll be done with Yes We (still) Can by @danpfeiffer about the time this gets to my house. Perfect.
p285
aV@JasonKander  https://t.co/zvSH1WK9iL
p286
aV@laurenduca Campdogzz
p287
aV@TwinsAlmanac If they had predicted a gold outline instead of silver, they would have been dead on the current logo, sans the bill.
p288
aV@FuriousJorge7 CONGRATS!!!
p289
aV@KevinOnCFB Vincent Damphousse, NHL \u201896
p290
aV@mpbbbee @schnellharrison
p291
aV@schnellharrison https://t.co/eF6uYT0upx
p292
aV@DNC why can\u2019t I volunteer to help elect Democrats without immediately being redirected to a donation page for the\u2026 https://t.co/SOc98VBYw4
p293
aV@JayFromTheBurgh @RheaButcher This is truth in tweet form.
p294
aVRT @stefondiggs: @athielen19 hey so it\u2019s been a while... and I\u2019m starting to feel your getting a lil distant. I just want my brother back i\u2026
p295
aV@JakeSherman DONT CONDUCT SCOTUS HEARINGS!!!
p296
aV@RepBobbyRush congress should not conduct hearings onSCOTUS nominations until the Mueller investigation has conclud\u2026 https://t.co/pUi6sjmvsb
p297
aV@FuriousJorge7  https://t.co/Ap87tt0t5n
p298
aV@SotaStickCo I want to donate one of this Skol flags to the @CCvikingsclub
p299
aV@repjohnlewis This summit is a good reason to not consider a SCOTUS nomination until after the Mueller investigation is concluded.
p300
aV@JeffFlake DO SOMETHING!
p301
aVRT @BMcCarthy32: oh thank god. It'd be nice if this started a trend of people who commentate on baseball actually acting like they enjoy it\u2026
p302
aV@FuriousJorge7 @KirkCousins8 With a statement like this, he needs more education. Send him back to Michigan State.
p303
aV@KirkCousins8 This is an insane statement.
p304
aV@Jadenosteen Here\u2019s some ginger ale, I know we were stuck in traffic for a while.
p305
aVRT @Dimanc59: RT this! Because for every retweet @realDonaldTrump will die a little on the inside! You know this kills him! https://t.co/OB\u2026
p306
aVTeddy woke up as soon as he heard @jonlovett on #lovettorleaveit https://t.co/2rj4zgbucb
p307
aV@BuchbergerJm https://t.co/oG5WlJlHrx
p308
aV@FuriousJorge7 @actuallyerin  https://t.co/2VZrd85Lfk
p309
aVRT @krassenstein: RETWEET if you have ever texted your friends or loved ones political opinion like Peter Strzok had, while not allowing th\u2026
p310
aVRT @joshtpm: Wow https://t.co/nyRwPTGojO
p311
aVRT @girlsreallyrule: WATCH Raskin remind everyone that insults toward Donald Trump do not mean deep state conspiracy as he points out overw\u2026
p312
aVRT @bodegafruit: \u201cWhy aren\u2019t millennials buying houses?\u201d\u000a\u000a\u201cWhy don\u2019t millennials save money?\u201d\u000a\u000a\u201cLazy millennials are ruining this economy\u201d\u2026
p313
aVRT @CNN: After Rep. Gowdy says "I don't appreciate having an FBI with an unprecedented level of animus working on two major investigations\u2026
p314
aV@torydyck @ErikPHage https://t.co/l0zfAXVnOd
p315
aVRT @janashortal: Minneapolis!! It\u2019s our turn to reap the angel\u2019s lawn service. Reach out to this man if you know of anyone in need. https:/\u2026
p316
aVRT @pattydraves: Why is that, as teachers, we need to have a degree in education, a clean background check, and take classes to renew our l\u2026
p317
aVRT @RockTheVote: \u201cAlways vote for principle, though you may vote alone, and you may cherish the sweetest reflection that your vote is never\u2026
p318
aVRT @JimmyWard77: Great message by the Norte Dame Hockey coaching staff to the potential recruits this past weekend!  What a great Camp and\u2026
p319
aVRT @BSUBeaversMHKY: Best of luck to former Beaver assistant captain @GFitzgerald21 (\u201818) as he hits the ice this week for @mnwild Developme\u2026
p320
aVRT @MsPeters14: I make a thread about why I do not care to play 1 on 1 with random dudes and buddy response is that it's a cop out and I sh\u2026
p321
aVRT @SheShouldRun: #ShineTheory at work yall \u201c@Ocasio2018 is trying to leverage her fame to promote other candidates...She has waded into ra\u2026
p322
aVRT @RheaButcher: This is not why people voted for you bro https://t.co/FOBaMTvT0o
p323
aVRT @joshgondelman: Someone whose work and general attitude I enjoy very much: @RheaButcher
p324
aVRT @MattxRed: STORY TIME:\u000a\u000aIncase you didn\u2019t know I am one of the organizers for #RoadToChange and we are currently traveling through TX or\u2026
p325
aVRT @Ocasio2018: It\u2019s almost as if... my platform advances policies... that are already proven to work! \U0001f914\u000a\u000a- Social Security (lift the cap)\u2026
p326
aV@JeffBryanDavis https://t.co/vIiyxKQpc2
p327
aVRT @heatherberm: @Mantia I do get summers off, but I definitely do not get paid.
p328
aV@FuriousJorge7 You can always enjoy. They\u2019re beautiful little nuggets of happiness. However, you will start facing\u2026 https://t.co/yAs9Uv5CSp
p329
aVRT @renato_mariotti: This is not due process. Immigration judges should refuse to preside over removal proceedings of minors who have no ad\u2026
p330
aV@insidejebshead If you want to see a bunch of people in Chicago that know the Gray Duck lifestyle, come to Redmond\u2019\u2026 https://t.co/o6EdrBCY5r
p331
aVRT @erikwillander: Dang! Missed Swedens goal while watching Crosby doing edge work. \u000aIndividual isolated technique training. Why does the b\u2026
p332
aVRT @SamSchuneman: Cults in Minnesota:\u000a\u000a- Carlson School of Business \u000a- People that live on lake Minnetonka   \u000a- Guys that have been on the\u2026
p333
aVRT @CathyMyersWI: The Janesville School Board cut employee health coverage in 2015. So, when we flipped our board to a progressive majority\u2026
p334
aVRT @Ocasio2018: Wondering: How many other House Democrats have a degree in Economics like I do?\u000a\u000aTrying to find who out here is going to be\u2026
p335
aVEverything I learn about you makes me want to vote for you myself just that much more. https://t.co/wkQXVir1CB
p336
aV@okayplayer @GreenDay Dookie
p337
aVRT @Ocasio2018: Pretty much! https://t.co/73nxk22W55
p338
aV@TVietor08 @PageSix @Ocasio2018 Please don\u2019t boost this type of thing.
p339
aV@PageSix This is dumb.
p340
aV@91Tavares @TheDonPrincipe
p341
aV@stiggib3 @torydyck
p342
aV@LiamErven @Twins @Cubs  https://t.co/FCe0jaZocL
p343
aV@schnellharrison https://t.co/9vMomEXveR
p344
aV@AshaRangappa_ @GovHowardDean Every single person at one of those rallies is a paid actor.
p345
aV@_ElvishPresley_ @schnellharrison
p346
aVRT @keithboykin: Senator Cory Booker: "The president of the United States is a subject of an ongoing criminal investigation...that could en\u2026
p347
aVRT @EmmyA2: "I have no fear. I'm in this fight. And I know that there are those who are talking about censuring me, talking about kicking m\u2026
p348
aV@TimPawlenty does your wife let you have beer in the fridge yet?
p349
aVRT @AaronGleeman: Great response from someone as "old school" as they come. I like Woke Gardy. https://t.co/sV0BHdCcF8
p350
aVRT @TheIceGarden: Kelly Nash (@knashty2) is ready for another year of @Riveters hockey and coaching with Princeton (@PWIH) #NWHL https://t.\u2026
p351
aV@Jordan_Morris is currently giving a master class on how to be a great podcast guest as he makes the rounds promoting #bubbleshow
p352
aV@SotaStickCo Can I preorder?
p353
aV@FuriousJorge7 If I never hear \u201cSweet Caroline\u201d again I\u2019ll be able to die happy.
p354
aV@ChristFinnegan @BuchbergerJm @jonfavs @TVietor08 @jonlovett
p355
aVRT @ChristFinnegan: Dem senators, repeat after me: \u000a\u000a\u201cThe President of the United States is under investigation for collusion with a foreig\u2026
p356
aVRT @AlexIerullo97: Very excited to announce my commitment to play D1 hockey at @BSUBeaversMHKY thank you to @NmktHurricanes @OJHLOfficial a\u2026
p357
aVRT @DownGoesBrown: Hi everyone... I don't do this often but this is a cause I'm personally involved with. If you could spare a few bucks or\u2026
p358
aV@SpeakerRyan you\u2019re such a spineless nothing.
p359
aV@chrissyteigen So does that mean you\u2019re fake or are the babies fake? It\u2019s ambiguous.
p360
aVRT @FuriousJorge7: I don't know as much about my Hispanic lineage as I'd like to other than my Mexican father came from practically nothing\u2026
p361
aV@ViceBiscuits @DownGoesBrown How did you get @davelozo out of bed so early?
p362
aVRT @missmayn: If I can\u2019t go to Planned Parenthood for a routine pap smear without being screamed at and harassed by Christian protestors th\u2026
p363
aVRT @krassenstein: Everyone in the media needs to watch this. \u000a\u000aThis is how you FACT CHECK a Trump surrogate. \u000a\u000aEPIC!! https://t.co/1SSXWh6r\u2026
p364
aV@karlanderson13 @RandBall I\u2019d be interested, but most of the tickets I\u2019m seeing are $100+ per ticket. Is that the case for yours?
p365
aVRT @CoachJasonWitt: Video evidence of what is a well known fact: Players get better with focused, skill building practices. NOT in games. #\u2026
p366
aVRT @GrantBrisbee: ME, AGE 20: Ha ha, I like the riffs, but these Rage Against the Machine lyrics are kind of corny. \u000a\u000aME, AGE 40 (at a cock\u2026
p367
aV@schnellharrison https://t.co/AktNya3i66
p368
aV@schnellharrison https://t.co/OjOPYnFEAc
p369
aV@FDLWARBIRDS https://t.co/CULw2Z4alE
p370
aVRT @BuchbergerJm: Just told a man to not tell women\u000awomen to smile, we aren't here to beautify his world, and was immediately validated by\u2026
p371
aVRT @HilaryKnight: Just a reminder of what I believe in... https://t.co/qu4MaRaDVy
p372
aVRT @AaronGleeman: I've tried to complain less about Twins broadcasts, because I used to do that far too often. I've mostly been successful,\u2026
p373
aVRT @AaronGleeman: Jack Morris goes on the same rant about "pitchers today" not throwing enough innings during every game he announces. Some\u2026
p374
aV@FuriousJorge7 You sacrificed quality for speed. And you know what, I get it. You GOTTA get these controversial Chi\u2026 https://t.co/VKzGEsTJnM
p375
aV@FuriousJorge7 It\u2019s so exotic. I hear tell that at Pizza Hut, you can eat pizza with just your hands!
p376
aV@WhitecapsHockey why is your shop closed?
p377
aVRT @GovCTW: How much is the #military #parade that @realDonaldTrump Trump is planning for November going to cost? Perhaps those funds shoul\u2026
p378
aVRT @misterbumface: The Holocaust was legal. Slavery was legal. Segregation was legal.\u000a\u000aThe brave woman who cared for and hid my 6 year-old\u2026
p379
aVRT @TVietor08: The cost of separating kids from their parents and housing them in Trump's tent cities is $775 per child per night. That's M\u2026
p380
aVRT @JesseWTKR: There is literally a series of movies on why we should not do this #JurassicPark https://t.co/AmLQS3Qd80
p381
aVRT @MSNBC: "Womp, womp" former Trump campaign manager Corey Lewandowski says on Fox News during a discussion about a migrant girl with Down\u2026
p382
aVRT @SenJohnMcCain: The administration\u2019s current family separation policy is an affront to the decency of the American people, and contrary\u2026
p383
aVRT @nygard: So, history experts from America who kept claiming Hitler could never have put all those people in concentration camps if only\u2026
p384
aVRT @kingoflosing: RT and ill draw your profile picture https://t.co/wxLD90SsPV
p385
aVI know I\u2019m not friends with @danharmon but I still find myself watching episodes of Community and muttering \u201cVery c\u2026 https://t.co/M3anTu2IAB
p386
aVRT @laurawbush: I live in a border state. I appreciate the need to enforce and protect our international boundaries, but this zero-toleranc\u2026
p387
aVRT @SenJeffMerkley: Paul: The Trump child-snatching policy is evil. Let\u2019s put a straightforward cancelation of this policy on the floor of\u2026
p388
aVRT @handeyecoaches: \u201c\U0001f9e0Here\u2019s a killer partner drill to make you a smarter and faster athlete!\u000a- - -\u000a\U0001f449\U0001f3fbHand Eye Coordination\u000a\U0001f449\U0001f3fbDual Tasking\u2026
p389
aV@BigJoeGun @ParkerHageman  https://t.co/W2s8uRd8Qu
p390
aV@BemidjiState I would have been a doctor, I just didn\u2019t have the patience.
p391
aVRT @jacobsoboroff: I\u2019m a part of the first group of journalists to go into the shelter for detained child migrants in Brownsville Texas sin\u2026
p392
aV@hels \u201cAnt\u201d and \u201caunt\u201d are pronounced differently. That U is there for a reason.
p393
aV@wyshynski @IHOb Very funny Gregory.
p394
aVRT @JWadeTaylor: I hope Macron and Trudeau speak only french to each other when they are around Trump, and regularly drop "Mueller" in thei\u2026
p395
aVRT @jackhitts: Vegas is 0-6 so far this postseason when Brad Hunt isn\u2019t in the lineup. Just sayin\u2019...
p396
aV@RussoHockey @NBCSports He\u2019s showing up Jones.
p397
aVRT @RussoHockey: Watching Subban break down that @NBCSports highlight package like he\u2019s been doing TV for 20 years. He\u2019s a natural
p398
aV@schnellharrison https://t.co/G7qXeZOmqR
p399
aVRT @syntactics: I'm just gonna keep on reminding you all that Jeff Bezos is literally funding space exploration because, as he says, he doe\u2026
p400
aV@BuzzFeedBen @RosalindZAdams @jtemplon @schnellharrison
p401
aV@JesseThorn I mean, all you have to do to make the Chicago winter better is go back in time and be from Minnesota.\u2026 https://t.co/6QuEoWGwYh
p402
aVRT @criscarter80: President Obama should invite the Eagles to his house for a barbecue.
p403
aVRT @Laura_Oatman: My name is on the ballot for US Congress CA48. Do NOT vote for me!! (or Rachel Payne or @MichaelKotick.) We have all with\u2026
p404
aVRT @AmirTalai: Just throwing this out there:\u000aHBO'S REAL TIME WITH @LAURENDUCA
p405
aVGreat coaching leads to great results! https://t.co/xrk4E8dNHG
p406
aV@JesseThorn @MaxFunHQ @Jordan_Morris @tavitulle @ApplePodcasts @KeithPowell @BDayBoysMitch @thealisonbecker I LOVED\u2026 https://t.co/JO7gZJ97Nx
p407
aV@anamariecox  https://t.co/LpF9Dw0VON
p408
aVRT @TopherScottNOW: ATTENTION YOUTH COACHES... https://t.co/WLFxLOC0hQ
p409
aVRT @LindsayGuentzel: This is the best thing ever. \u000a\u000a\u2764\ufe0f\u2764\ufe0f\u2764\ufe0f\u2764\ufe0f\u2764\ufe0f\u2764\ufe0f\u2764\ufe0f https://t.co/71sOxG9iJ8
p410
aVRT @CHSPuckSquad: Interesting that in tonight\u2019s Game 1 of the Stanley Cup three of the Minnesota born players actually played Class A Hocke\u2026
p411
aV@redsteeze \u201cWhere are you from?\u201d\u000a\u201cMN\u201d\u000a\u201cWhere in Minnesota?\u201d\u000a\u201cEagan\u201d\u000a\u201cWhat\u2019s that near?\u201d\u000a\u201cBurnsville, Apple Valley.\u201d\u2026 https://t.co/SfOOaQ1dzt
p412
aV@ErikPHage https://t.co/yyjGqnPNJd
p413
aV@JesseWTKR  https://t.co/4n3cHnPr4o
p414
aVRT @kdreamcatchers: Rosa Parks was not protesting the bus. Gandhi was not protesting the food. The colonists were not protesting tea. Playe\u2026
p415
aVRT @JesseWTKR: This is why Steve Kerr is possibly the smartest dude in all of sports #NFL https://t.co/Ihjm74QBCN
p416
aVCould not agree more! @FDLWARBIRDS https://t.co/76tlg5MF6C
p417
aVRT @anthonyVslater: Steve Kerr on the NFL's new anthem rule: "Typical of the NFL. Appealing to their fanbase. Basically just trying to use\u2026
p418
aVRT @kostka_chris: lemme bless y\u2019all with this video https://t.co/lwUIY3rwPj
p419
aV@JesseWTKR See, Jesse, you can sleepwalk through the rest of the game.
p420
aV@roywoodjr Gimme some more - Busta Rhymes. Impossible in my old age. 33.
p421
aV@Lin_Manuel  https://t.co/lAWDWSMz4h
p422
aV@JesseWTKR Ok... you know this team better than I do...
p423
aVRT @joshnorthsouth: Do I agree with everything Tomi Lahren has to say? No. \u000a\u000aBut do I feel that she should be able to visit my city without\u2026
p424
aV@JesseWTKR uh oh... too loose?\u000a\u000aIn a surprise twist, Barry Trotz takes The Hot Lap ahead of Game 7 https://t.co/ixgq47Qp1B
p425
aV@JesseWTKR Jesse, you\u2019re wound up. Just relax and enjoy this easy breezy win tonight. #ALLCAPS #RockTheRed
p426
aV@JesseWTKR I just can\u2019t win with you.
p427
aV@JesseWTKR @GHessRVA @Capitals @RachelDePompa Jesse, don\u2019t worry. It\u2019s a lock.
p428
aVRT @AaronGleeman: If the high-90s fastball and filthy slider weren\u2019t enough reason to love Fernando Romero, there\u2019s also this. https://t.co\u2026
p429
aV@PTNetherton I once shot a puck from the redline and landed it on top of the net.
p430
aVRT @MatthewKevinJ: I've said it before, I'll say it again: the #MNTwins should play Bob Casey's "No Smoking" announcement before every home\u2026
p431
aVRT @WhistleSports: Most impressive thing you'll see today. \U0001f525 https://t.co/tMn2sq4NO7
p432
aVRT @TwinsAlmanac: Happy 58th birthday to my childhood hero, #MNTwins legend @Hrbie14. https://t.co/KZlW8HGOhc
p433
aVRT @BSUBeavers: The ride continues for our guys Brad Hunt and Zach Whitecloud. On the Stanley Cup Finals! #becauseitsthecup   #onceabeavera\u2026
p434
aV@DanPatrick would you kindly Fuck Off? Please?
p435
aVRT @ChrChristensen: And, by the way, to those who say London has a higher murder rate than New York...no. These are the murder per 100,000\u2026
p436
aVRT @ChrChristensen: 22 years ago, a gunman entered Dunblane Primary School in Scotland, killing 16 kids and a teacher. The UK govt responde\u2026
p437
aVRT @kharyp: These Are The Victims Of The #SantaFeHighSchoolShooting. Let us remember them:\u000aSabika Sheikh\u000aAnn Perkins\u000aAngelique Ramirez\u000aShan\u2026
p438
aV@MikeMartinezDC @jonfavs That teachers subsidize American Education by buying roughly a trillion dollars worth of m\u2026 https://t.co/ttuNAjHKWu
p439
aVRT @BSUBeaversMHKY: Bigfoot, the Easter Bunny and a Beaver walk into a bar.... https://t.co/8YcY3R5Jq3
p440
aV@BuchbergerJm Remember that conversation we had in Florida about tools? Remember what you did? Yep, you. https://t.co/8MZ19vklG6
p441
aVRT @CathyMyersWI: Teachers in North Carolina are striking for fair wages and health care for their students!\u000a\u000aSolidarity!\u000a\u000ahttps://t.co/UmC\u2026
p442
aVRT @NWHL: IT\u2019S OFFICIAL: The NWHL Expands to Minnesota \u2014 Welcome, the Minnesota Whitecaps!\u000a\U0001f517:https://t.co/cTvHLcu9ca https://t.co/CiH9Z8vMEX
p443
aV@FRONZ1LLA @BigReezy59 Why is this a thing you care about? Seems like you\u2019re saying it just to be a dick.
p444
aV@NickNelsonMN I had the same feeling tuning into this game as I did the first Liriano vs. King Felix matchup in 2006.
p445
aV@Twins @davelozo
p446
aVRT @nowthisnews: 'I do not yield. Not one second to you. Not one second.' \u2014 Rep. Maxine Waters will never stop reclaiming her time https://\u2026
p447
aV@bryzgoalie30 When I read your tweets in my head, it\u2019s with the @wyshynski Bryz voice. Thank you.
p448
aVRT @megsaysthings: TWEET LIKE THE NINE NINE DEPENDS ON IT Y\u2019ALL BC IT DOES #BROOKLYN99 #RENEWB99 https://t.co/bm49BtyG5w
p449
aVRT @ian_mendes: Our teenage daughter has had a rough 18 months since undergoing neurosurgery. One of the things that kept her spirits up wa\u2026
p450
aVRT @EW: Dear Fox, here's why #Brooklyn99 deserves to be renewed: https://t.co/knSB8kKmkY #RenewB99 https://t.co/c2zzycwrHR
p451
aVRT @lgbtIiu: What show needs to be renewed #renewb99 https://t.co/raySsSHuFD
p452
aV@DJYwrites @JasonIsbell I\u2019d be mad if I wasn\u2019t just so damn proud of you.
p453
aV@DJYwrites @JasonIsbell I knew someone would get to that before I did. Just glad I read the replies. That would have been embarrassing.
p454
aV@VillageOrlandPk Didn\u2019t we JUST vote against gaming TWICE ON THE SAME BALLOT?!?!?
p455
aV@PaulCharchian Double the medical costs. For example: if one gets giardia, you have to treat both no matter what. D\u2026 https://t.co/870X2Je5wJ
p456
aV@guskenworthy @donaldglover This reminds me of Jeremy by Pearl Jam as far as the impact of the visual. If this vide\u2026 https://t.co/5np02wOa7l
p457
aV@PitchingNinja Pitch receiving mechanics have changed a lot.
p458
aV@SotaStickCo @surlybrewing https://t.co/wa9bQ7lZ3R
p459
aV@Pablo_The_Bean Welp, I don\u2019t think you have a good grasp on what could be offensive. Maybe you needed to pay attention more in class.
p460
aV@AaronGleeman  https://t.co/JdU1JBCKWv
p461
aV@PodSaveAmerica @jonlovett @TVietor08 I\u2019ve been trying to use your @mvmt discount codes and they\u2019re not working. Ar\u2026 https://t.co/HRNhPfJLMz
p462
aV@SethTweets @roysmalley5 @dbremer_pxp Couldn\u2019t agree more. When he\u2019s between two guys that are intellectually inqui\u2026 https://t.co/webVYUb4PU
p463
aV@Twins Dick Bremer is so much better with @roysmalley5 . Great questions, more informative exchanges.
p464
aVRT @JesseThorn: I really missed the "caring about Dennis Miller" cutoff by like 28 months.\u000a\u000aRelated: DON'T YOU DARE BETRAY ME, NORM MACDONA\u2026
p465
aV@CCvikingsclub I\u2019d still be surprised. Nobody\u2019s watching, just let me know.
p466
aV@CCvikingsclub What\u2019s the announcement?
p467
aV@Twins Justin and @roysmalley5 are terrific. Can you just pair late \u201890s and early 2000\u2019s players with Roy for the rest of time?
p468
aV@RealJamesWoods @PressSec Wow. You\u2019re pretty dumb.
p469
aV@schnellharrison https://t.co/FXk3hmkdmy
p470
aVRT @HughNorris7: I voted Leave in 2016. I\u2019ve since realised the Leave claims were based on lies &amp; misinformation &amp; are undeliverable.\u000a\u000aIn a\u2026
p471
aV@lindseyadler @TheDonPrincipe is this true?
p472
aVRT @_LukeKellly: Let\u2019s make this happen https://t.co/CEg6UGKAdB
p473
aV@PuckSoupPodcast the Flower of 2020 is going to be Suter or Parise.
p474
aVRT @drewwpg: *checks the score of the Twins game*\u000a*decides to maintain his policy of \u201cbaseball season doesn\u2019t start until NHL playoffs are\u2026
p475
aV@JesseWTKR  https://t.co/kQr7EUBzQv
p476
aV@MatthewKevinJ @ZBDigitalibrary @Four_Six_Three @LaTroyHawkins32 I want to see @glenperkins try his hand.\u2026 https://t.co/ugdnMglck4
p477
aV@BuchbergerJm @schnellharrison https://t.co/FqZD74v6xL
p478
aV@RussosFilter I would put a massive amount of resources into coaching and player development in Iowa. I would grow\u2026 https://t.co/thhQonKCxG
p479
aV@fdlinsuranceguy Sorry man, I\u2019m in Florida right now for my grandma\u2019s funeral.
p480
aVRT @aletweetsnews: 4 high school students just arrested after a brief sit-in for gun control outside @SpeakerRyan\u2019s DC office. https://t.co\u2026
p481
aV@TheDonPrincipe I\u2019m absolutely going to check that out.
p482
aV@jonfavs @tedcruz @BetoORourke if you don\u2019t beat this guy...
p483
aV@TheDonPrincipe Stranger in the Alps?
p484
aVRT @DustinGiebel: The new Wes Anderson film looks bad https://t.co/63rnflr1PG
p485
aV@BigReezy59 @PaulCharchian @AndyRichter The first paintball episode is one of the most captivating one off episodes of a sitcom ever.
p486
aV@Egudmunson @PaulCharchian @AndyRichter I was just scrolling through to see if anyone mentioned this one. Great show.
p487
aV@PodSaveAmerica @TVietor08 any chance the new Pod Save The World merch can say \u201cReluctant Worldo\u201d? Not because I do\u2026 https://t.co/XwjlAR4RDx
p488
aVRT @The_UnSilent_: Hannity - \u201cYou think I\u2019m bad for America?\u201d\u000a\u000aTed Koppel - \u201cYep\u201d \U0001f610 \u000a\u000a#FireHannity https://t.co/rKoo4jLgzG
p489
aV@MatthewKevinJ This is an ever growing action. I have to listen to a podcast for every game unless there is a guest color commentator.
p490
aVRT @DownGoesBrown: This is the only instance in history of a Capitals fan being sad in the playoffs and then the situation getting better.\u2026
p491
aV@davelozo @JesseWTKR I\u2019m just going to leave this here...
p492
aV@Twins @AaronGleeman this might be the most charismatic this Joe Mayer has ever done.
p493
aV@MatthewKevinJ @ParkerHageman @twinsdaily Naw, wouldn\u2019t trade Target Field for anything.
p494
aV@MatthewKevinJ @ParkerHageman @twinsdaily The other one was in a snow collection center.
p495
aV@davelozo I saw one of those guys in a hotel.
p496
aV@chriskopy @craigcalcaterra What would he have to get to in order to be a lock?
p497
aVRT @AMarch4OurLives: Just a regular common sense conversation starring @Emma4Change &amp; @cameron_kasky \u000a\u000a#2A \u000a#MarchForOurLives https://t.co/\u2026
p498
aVRT @TwinsGeek: Yes, I\u2019m standing alone in my basement, clapping. Why do you ask? #2000
p499
aV@scholaurship Woah
p500
aVRT @AaronGleeman: Most importantly: My mom is going to a Wolves playoff game. She got into the NBA in the mid-90s to bond with her teenage\u2026
p501
aV@ParkerHageman @ErikPHage
p502
aV@jasongiebel @SotaStickCo And use the proceeds to buy more on @SotaStick
p503
aV@jasongiebel @SotaStickCo I\u2019ll sell it to you...
p504
aV@davelozo Please, Dave, stop.
p505
aV@SotaStickCo big night. https://t.co/VSskpL5rD4
p506
aVRT @BemidjiState: #BemidjiState is turning 100! Look for #BemidjiState100 on Twitter, Facebook and Instagram for new content every day, and\u2026
p507
aV@MatthewKevinJ @MarneyGellner Shhhh...
p508
aV@TwinsPrez due respect, however, it\u2019s clear the Bert isn\u2019t trying to learn anymore. You have such a deep roster of\u2026 https://t.co/kAy5jddsV9
p509
aV@Jordan_Morris @hodgman please don\u2019t let Shooting the Bries be the last time you guys host a podcast together. I ha\u2026 https://t.co/W6AJq2z24E
p510
aV@davelozo You could totally chug a beer in six seconds. How fast do you think Torts could chug a beer? If he lost a\u2026 https://t.co/Xj5Ely6qT7
p511
aVRT @lexawiles: while I have y\u2019all here, I\u2019d like to share a link for those just as enraged as I. It helps pay for transportation and lodgin\u2026
p512
aVRT @lexawiles: man Oklahoma is crazy. the high today was 70 and the low was when I remembered a starting level position at QuikTrip receive\u2026
p513
aVRT @RA_Parker: Baseball is the best and also very fun https://t.co/Bk8pDWOe6y
p514
aV@TheDonPrincipe @91Tavares @IslesBlog  https://t.co/EzDUshzCNv
p515
aVRT @GoldenKnights: Solo lap for the kid @ZachWhitecloud \u000a\u000a\U0001f60e\U0001f60e\U0001f60e\U0001f44a #VegasBorn https://t.co/XVu9VmOpQR
p516
aVRT @BSUBeaversMHKY: Here\u2019s a recap from @ZachWhitecloud @NHL Debut last night:\u000a\u000a\u2601\ufe0f Lead all @GoldenKnights players in +/- with a +3 rating\u2026
p517
aV@TheDonPrincipe @PuckSoupPodcast Couldn\u2019t agree more. Can we sit in that dive bar and make up stories that he might\u2026 https://t.co/sOq4XpyGAd
p518
aV@JesseWTKR @davelozo  https://t.co/OAPX4RtzaI
p519
aV@JesseWTKR @davelozo Oh honey....
p520
aV@davelozo @JesseWTKR kiss of death. Sorry man.
p521
aVRT @AaronGleeman: The Fernando Rodney Experience\u2122\u000a\u2611\ufe0f Positive\u000a\U0001f532 Negative\u000a\u000ahttps://t.co/9LcSTsW5Xf
p522
aV@schnellharrison https://t.co/VUR3fb1d60
p523
aVRT @TwinsAlmanac: .@TwinsPrez, I really think the #MNTwins should play Bob Casey's "no smoking" announcement before every home game, and ov\u2026
p524
aV@RussoHockey @NYDNi @TheDonPrincipe will do his be useful to me for mood tracking purposes?
p525
aVRT @tedlieu: Dear @davidhogg111: Those powerful people behind you? They're called the majority of the American people. We have your back. h\u2026
p526
aV@AMAZlNGNATURE @schnellharrison
p527
aVRT @BeauWillimon: Find out if any of your local stations are owned @WeAreSinclair (Sinclair Broadcast Group). If so, make sure to boycott w\u2026
p528
aVRT @billyeichner: Well, you must watch this. Truly horrifying. \U0001f1fa\U0001f1f8 https://t.co/1PWeGMJfPB
p529
aV@JesseWTKR Dumb.
p530
aV@JesseWTKR Dumb.
p531
aVRT @ParkerHageman: MLB should pay minor leaguers a liveable wage and give Montreal back their baseball team.
p532
aVRT @DWolfsonKSTP: Today was a good day for a few ex-#Gophers at Pro Day, as noted by @DanielHouseNFL &amp; others. One player who also did well\u2026
p533
aV@pickandshovelMN maybe this for inspiration. https://t.co/bypqNwKA77
p534
aV@pickandshovelMN any chance of a @Hrbie14 as Paul Bunyan shirt?
p535
aVRT @CathyMyersWI: Paul Ryan reneged on his promise to get rid of the Settlements &amp; Awards fund, which uses our tax dollars to silence survi\u2026
p536
aV@RheaButcher It really bothers me how much I like that song. Sigh, you\u2019re right though. Time for him to (re)mix it up in prison.
p537
aV@ErikPHage @JesseWTKR Welp, that\u2019s three, @JesseWTKR
p538
aV@JesseWTKR Trigger warning: if you don\u2019t want to be upset, STOP READING. \u000a\u000aSeriously.\u000a\u000aI know at least two people t\u2026 https://t.co/HMwZkNiPu5
p539
aVRT @wyshynski: Andrew Ference says NHL must go beyond 'middle-aged white dudes' and is ready to help hockey reach new audiences (ICYMI) htt\u2026
p540
aV@DanMyers Dizzy up the Girl by the Goo Goo Dolls was inside. I thought you had played a joke on me. That\u2019s why the receipt is in there.
p541
aV@DanMyers just came across this is a box. Thanks for the birthday gift, do you remember what was inside? https://t.co/0UlCBkkzpt
p542
aV@Twins Is Joe in on it at this point?
p543
aVRT @EdKrassen: If you didn\u2019t watch Emma Gonzalez\u2019s 6:20 long speech at #MarchForOurLives today, please take the time to do so.  If you did,\u2026
p544
aVRT @MichaelSkolnik: Emma Gonzalez. \u000a\u000aThe entire speech. \u000a\u000aWatch. All. Of. It. \u000a\u000a#MarchForOurLives \u000a\u000ahttps://t.co/AK47lWEkAM
p545
aVRT @krassenstein: In 2016:\u000a\u000a70% of 18-29 year olds DID NOT vote\u000a60% of 30-44 yearolds DID NOT vote\u000a\u000aOnly 38% of 45-64% did not vote &amp; just\u2026
p546
aVRT @wsvn: .@Emma4Change speaks ahead of #MarchForOurLives in DC: "This is one of the biggest 'Rock the Vote' type of events that's ever gon\u2026
p547
aVRT @annkillion: Paul McCartney is marching in Central Park. \u201cOne of my best friends was killed by gun violence right around here.\u201d #imagine
p548
aVRT @TeenVogue: Five gun control activists demonstrate five steps everyone should follow in the event of a school shooting. #NeverAgain http\u2026
p549
aVRT @billyeichner: This is very helpful...but horrifying. Get out there and march today. If no one's marching in your town, march by yoursel\u2026
p550
aVRT @LazyyMillennial: Got to meet someone who supposedly represents me today. Not for much longer, though! #BetoForTexas @SenTedCruz @BetoOR\u2026
p551
aV@schnellharrison Oh Marty...
p552
aV@schnellharrison https://t.co/U3XFYvk71F
p553
aV@CSeagleshockey hey, I\u2019m fairly new to Orland Park and I have more than a decade of coaching experience. Is there a\u2026 https://t.co/NS6kRQRkmD
p554
aV@BuchbergerJm Cleanse your palate with @2DopeQueens @HBO special. Unreal. So funny.
p555
aV@BuchbergerJm I yelled at the tv when he said that. Intensity Level: bad ref.
p556
aV@BuchbergerJm It\u2019s so great. Every episode is a winner.
p557
aVRT @ValaAfshar: Here's how Finland is designing the perfect school \U0001f1eb\U0001f1ee https://t.co/k7kz579mWn
p558
aVRT @knashty2: Hey @jtimberlake! The @NWHL championship game is next door to your concert at Prudential Center this Sunday - if I\u2019m going to\u2026
p559
aVRT @RockTheVote: \U0001f4af\U0001f64c\U0001f3fd https://t.co/UG8NP2M9vZ
p560
aVRT @JoshGar: This is pure gold https://t.co/a51zajwIWu
p561
aVRT @GideonResnick: Context for a burgeoning teachers' strike: In Oklahoma, there are about 1,500 fewer teachers than in 2010 and nearly 20\u2026
p562
aV@SotaStickCo https://t.co/nCZGaE4Z7u
p563
aVRT @UMBCAthletics: No https://t.co/k2Oqh8xPfi
p564
aVRT @StPaulSaints: We don't have a billion dollars like @WarrenBuffett, but our GM @DerekSharrer has officially gone mad. The Saints will gi\u2026
p565
aV@schnellharrison https://t.co/LbFTyaJgOI
p566
aV@schnellharrison https://t.co/qOc6RH27jq
p567
aVRT @nbcbayarea: A teacher's gun goes off inside a Seaside High School classroom, and at least one student suffers injuries from bullet frag\u2026
p568
aVRT @casekeenum7: From the bottom of my heart, thank you Minnesota. Some of the most incredible, crazy, miraculous moments of my life happen\u2026
p569
aVRT @JetMckinnon1: I want to thank the @Vikings organization and coaches for making my dreams come true of being drafted, and giving me the\u2026
p570
aV@ob1moroney @wyshynski @PuckSoupPodcast Fake name.
p571
aVRT @fdlschools: It was a pleasure to recognize the Fond du Lac Warbirds and their coaches on an amazing 2017-18 season that culminated with\u2026
p572
aVRT @hannahbrandt16: Nice to hear a female voice covering an NHL game, good work @AJMleczko \U0001f44f\U0001f3fb #COLvsMIN https://t.co/12ORs7cqca
p573
aV@schnellharrison https://t.co/lWH7izwT9A
p574
aV@JesseWTKR This tweet from @JesseWTKR is concise and well reasoned. It should be read by all with no argument.
p575
aVThanks
p576
aVCan @GleemanAndGeek just post their show now? I want to hear how happy @TwinsGeek sounds right now.
p577
aVRT @IJasonAlexander: Oh so good, Sarah. https://t.co/hgkR4ccLD4
p578
aVRT @GoldenKnights: NEWS: The Golden Knights have signed free agent defenseman Zach Whitecloud to a three-year, entry level contract. \u000a\u000aMore\u2026
p579
aVRT @GoldenKnights: Whitecloud had 4 goals and 14 assists in 36 games with Bemidji State University this season.\u000a\u000aHe is expected to join the\u2026
p580
aVRT @GovMarkDayton: Governor Dayton Proclaims March \u201cWomen\u2019s History Month,\u201d as New Study Ranks Minnesota the Best State for Women https://t\u2026
p581
aVRT @DDVirginia: RETWEET if you're rooting for the @VCU_Hoops at the #A10MBB \U0001f3c0 https://t.co/BzbSEfpokp
p582
aV@JesseWTKR As someone who is currently in a gym: yes.
p583
aVRT @NetStarsHockey: Excited to launch NetStars VR Goalie Trainer this weekend at the @LetsPlay_Hockey Expo during this years MN State Tourn\u2026
p584
aVRT @AndyMcKayHG: Another reminder....success is not a linear process. https://t.co/XhyefkhufI
p585
aVRT @AdamParkhomenko: We have an autocrat that is President learning from his puppet master Putin, so of course Paul Ryan\u2019s political oppone\u2026
p586
aVRT @svershbow: My friend\u2019s boyfriend is an AP English teacher in Austin. He brings his dog Banjo to school every day. Less teachers with gu\u2026
p587
aV@schnellharrison https://t.co/Z4CoALuHdR
p588
aV@WiPrepHockey Don\u2019t you have an answer for this question?
p589
aV@davelozo Is that @JimNorton on the right?
p590
aV@TheDonPrincipe You haven\u2019t understood the phrase \u201cdead inside\u201d until you\u2019ve chosen to go to Costco on a Sunday afternoon. Again.
p591
aVRT @Phil_Lewis_: A charity run in Philando Castile\u2019s name just wiped out the lunch debt of every student at all 56 schools in the district\u2026
p592
aV@WiPrepHockey Who does the voting for the all tournament team?
p593
aVRT @CathyMyersWI: Public education is so underfunded in Oklahoma that schools are moving to 4-day weeks &amp; cutting wages so much that teache\u2026
p594
aV@WiPrepHockey Why was Mary Skorupa left off the all tournament team?
p595
aVRT @NewsroomJake: BREAKING: All schools in West Virginia will be closed again Friday because of an historic, statewide teacher strike. It w\u2026
p596
aV@krassenstein @Emma4Change Durable headphones for young ears
p597
aVRT @davidhogg111: That's amazing thank you! https://t.co/aKQfWpizIJ
p598
aV@TheDonPrincipe Jamiroquoi is the jam. They\u2019ll make you a fan for life live.
p599
aVGoing to be weird watching @FDLWARBIRDS from across the ice. #warbirds https://t.co/z8gbHEUriO
p600
aVRT @FDLWARBIRDS: GAMEDAY at the Alliant Energy Center! Hope to see you all here! https://t.co/JEd5vFJCH4
p601
aV@fdlinsuranceguy @FDLWARBIRDS  https://t.co/stPgqKJAP7
p602
aVRT @DMichalkiewicz: Good luck @FDLWARBIRDS as the travel to Madison for the WIAA State Girls Hockey Tournament! Tomorrow they take on the C\u2026
p603
aVRT @JesseWTKR: This doesn\u2019t get old #USHockey https://t.co/zDEL9cyFOG
p604
aV@TheDonPrincipe Practice?
p605
aVRT @FDLWARBIRDS: Always nice when the last practice of the year is at State! Hope to see you all down in Madison Friday at 12:15pm! https:/\u2026
p606
aV@BuchbergerJm @schnellharrison
p607
aVRT @Emma4Change: TELL THAT TO THE SCHOOLS WHO ALREADY HAVE ALL THOSE PRECAUTIONS AND STILL EXPERIENCE GUN VIOLENCE https://t.co/aOVmIPfFsV
p608
aVRT @yashar: When fires ravaged parts of Tenn in 2016, Dolly Parton gave $1k/month to every homeless family until they could get back on the\u2026
p609
aVRT @AaronGleeman: I spent a lot of years writing and talking about some very bad, very inactive Twins teams. It's invigorating to discuss a\u2026
p610
aVRT @BeauWillimon: Past vs. Future:\u000a\u000a@NRA: 526K followers\u000a@DLoesch: 738K follwers.\u000a\u000a@Emma4Change: 340K followers in just a few days. \u000a\u000aLet\u2019s\u2026
p611
aVRT @Buccigross: Meanwhile, in Florida...a Hockey State Championship for the #MarjoryStonemanDouglasHighSchool hockey squad. #Sticktaps http\u2026
p612
aVRT @Emma4Change: Excuse me while I Sob https://t.co/ZDJCivwiEq
p613
aVRT @KFIZ1450: Congratulations to the Fond du Lac Warbirds girls hockey team who is headed to the State Tournament! They... https://t.co/jwk\u2026
p614
aVRT @fondygirlsoccer: Congrats @FDLWARBIRDS! Keep that mo' rolling! Time to make a statement in Madison! #fondypride https://t.co/5EW9YOZJmC
p615
aVRT @jlandsteiner: Now we are ready. \U0001f4aa\U0001f3fc https://t.co/16JY5a9QN7
p616
aVRT @NBCOlympics: Hockey fans went CRAZY watching @teamusa @usahockey's women take gold over Canada. We showed them your reactions and it wa\u2026
p617
aV@SotaStickCo @TeamShuster WHY DO YOU MAKE THINGS THAT COMPEL ME TO SEND YOU MONEY SO OFTEN????
p618
aVRT @DMichalkiewicz: Here are your Sectional Champs! @FDLWARBIRDS https://t.co/kQQIxeTUTU
p619
aVRT @DMichalkiewicz: WE ARE GOING TO STATE! Final from Cornerstone - @FDLWARBIRDS 5 USM 2 - great job Ladies! #fondypride https://t.co/lDa14\u2026
p620
aVRT @sam_olesonFDL: Congrats Warbirds!!!!! https://t.co/LLw5kFKk0t
p621
aVRT @battaglinoa: I can\u2019t even explain how much I love this. \U0001f64c\U0001f3fd\U0001f64c\U0001f3fd https://t.co/rURPF0COuh
p622
aVRT @NHL: "You guys are an inspiration to all of us. At the end of the day, you guys are what's giving us hope for the future."\u000a\u000a- Roberto L\u2026
p623
aVRT @HoarseWisperer: Ronald Reagan was surrounded by Secret Service agents when he was shot.\u000a\u000aI guess they just needed a few armed math teac\u2026
p624
aV@daniel_b0we @Kellshann Maybe if you don\u2019t think about it.
p625
aVRT @NateSilver538: My understanding is that, under 45.2.11 of the Constitution of Canada, Prime Minister Trudeau faces automatic impeachme\u2026
p626
aVRT @BorzMN: Remember: This is a team that stood up to USA Hockey, demanding better pay and working conditions, and won. Took guts. Then it\u2026
p627
aVRT @SotaStickCo: Way to go team USA \U0001f947\U0001f947\U0001f947 Peep the back of Maddie Rooney\u2019s mask. #MNBorn https://t.co/RUrYcHOlie
p628
aVRT @mochamomma: I'd remind us all that Philando Castile worked in a school. He had a legally purchased gun. Since he was Black and got prof\u2026
p629
aVRT @craigcalcaterra: Do good. Make the world better. Take the burdens from the weak and put them on the strong. Do whatever is possible to\u2026
p630
aVRT @MyNameIsGaron: No one outside of the military should have a semi or automatic weapon. No one.
p631
aVOrland Park, IL. How \u2018bout you, @JesseWTKR ? #TeamUSARollCall
p632
aVThis is perfect. https://t.co/qdvbpvTIux
p633
aV@JesseWTKR @usahockey Jesse, did you meta troll me by sincerely replying to my original reply? I so confused right now.
p634
aV@thewizzizzzook @davelozo I do. Currently. Do you have a question?
p635
aV@JesseWTKR @usahockey Jesse...
p636
aV@JesseWTKR @usahockey But you watched the men...
p637
aV@BuchbergerJm Go for it, kids. I was suspended twice and now I\u2019m a 2nd grade teacher with an awesome wife and two d\u2026 https://t.co/rDtqOthg1k
p638
aVRT @m_tisserand: When asked about the conspiracy theories he says you wouldn't ask that if you'd have seen him in the school's Fiddler on t\u2026
p639
aVRT @thistallawkgirl: Friendly reminder that most of the Parkland students will be able to vote in the 2020 election and Dinesh D'Souza will\u2026
p640
aV@JackKingston you\u2019re such a dummy.
p641
aVRT @BuchbergerJm: I'm just so damn grateful for where I live, the people around me, and the opportunities I have. The more I see what is ha\u2026
p642
aV@schnellharrison https://t.co/CtBo32nJp9
p643
aVRT @BuchbergerJm: @HamiltonBeach @EricaEkman It's hot dish.
p644
aV@SotaStickCo have you guys thought of partnering with @GleemanAndGeek for a T-shirt? If you can sell a Thunderbird\u2026 https://t.co/5Iy234al3X
p645
aVRT @CathyMyersWI: People as wealthy as him also need to stop trying to privatize public education. https://t.co/u5KEIaFC9f
p646
aVRT @SarahThyre: My 12yo's accordion teacher told her "we should just give teachers guns like they do in Israel" so if anyone can recommend\u2026
p647
aVRT @thehill: Bill Gates: People as wealthy as me "need to pay higher taxes" https://t.co/abpaZlPXoR https://t.co/205Ta1Mv4h
p648
aVRT @JoyAnnReid: How politicians can sleep at night knowing they plan to do nothing js beyond me... https://t.co/iuEsDfrzdd
p649
aVRT @GK_Coach8: Hard to believe my first as a head coach has come to a close. Such a great learning experience. I made so many mistakes! Whi\u2026
p650
aVRT @JCE_PC: Oh hai - New Zealand here, we get all your video games and movies. But we don\u2019t massacre children in their classrooms. It must\u2026
p651
aVRT @Buccigross: #CawlidgeHawkey https://t.co/NDIBQ9hVvG
p652
aV@Rob_Tychkowski Typical UAH guy. Like school inthe summertime, no class.
p653
aV@schnellharrison https://t.co/Sw6hED4oor
p654
aVRT @FDLWARBIRDS: Alumni update: 2017 grad teammates Rebecca Binder (Aurora) and Kylee Dyni (Finlandia) got a chance to play college hockey\u2026
p655
aVRT @JasonKander: Today, in a room full of kids, a brave young man stood up and, holding back emotion, told me he\u2019s afraid to go to school.\u2026
p656
aVRT @TheMandyMoore: I am absolutely baffled watching the President speak about the tragedy in #parkland and not ONE word about guns. Shamefu\u2026
p657
aVRT @craigcalcaterra: "Like most rights, the Second Amendment right is not unlimited. It is not a right to keep and carry any weapon whatsoe\u2026
p658
aV@schnellharrison https://t.co/msRpdxSOW7
p659
aVRT @BuchbergerJm: If anyone says it's too soon to talk about gun control, tell them you're talking about Sandy Hook. \u000aIf anyone says that w\u2026
p660
aVRT @car_nove: I was hiding in a closet for 2 hours. It was about guns. You weren't there, you don't know how it felt. Guns give these disgu\u2026
p661
aVRT @mradamscott: $3.3 million from NRA https://t.co/Sf91ZZlXlx
p662
aV@davelozo @wyshynski What if you took the @mnwild green jersey and made this M the primary logo? https://t.co/gGV7YDRfVA
p663
aVIf I wanted to carry a gun at work I would have become a cop. I don\u2019t. I want to teach kids, so, I became a teacher\u2026 https://t.co/RU3LdakKr8
p664
aVRT @JasonKander: That kinda went out the window when the \u201cgovernment\u201d figured out how to drop bombs from airplanes but ok. https://t.co/43Z\u2026
p665
aV@schnellharrison https://t.co/eEb7gFzwY5
p666
aV@RyanSbludbout @KirbyMWilliams @rainnwilson @JasonIsbell Where in this schedule would you like to fit gun training?\u2026 https://t.co/QLN88EEYF5
p667
aV@Ekblad5FLA You\u2019re a multimillionaire. Donate money to someone or someplace that will do something.
p668
aV@randallpink17 @Suzanne_Grace67 @MrGeorgeWallace @GOP @HouseGOP @SenateGOP @realDonaldTrump @SpeakerRyan @VP All sh\u2026 https://t.co/uBIVlXgdnu
p669
aV@randallpink17 @Suzanne_Grace67 @MrGeorgeWallace @GOP @HouseGOP @SenateGOP @realDonaldTrump @SpeakerRyan @VP I don\u2019\u2026 https://t.co/DET0xNXUat
p670
aV@Suzanne_Grace67 @MrGeorgeWallace @GOP @HouseGOP @SenateGOP @realDonaldTrump @SpeakerRyan @VP What\u2019s your point?
p671
aVRT @TheDweck: Sorry for using dead children to advance my controversial political agenda of wanting fewer dead children
p672
aVRT @RachelGonKCMO: The school shooter today didn't act alone. \u000a\u000aHe was assisted by the President, 52 Senators, and the NRA.
p673
aV@KirbyMWilliams @rainnwilson @JasonIsbell My pleasure.
p674
aV@KirbyMWilliams @rainnwilson @JasonIsbell I have to keep track of 17 seven year olds. Now I should also have to wor\u2026 https://t.co/gzJZ5WpRMO
p675
aV@KirbyMWilliams @rainnwilson @JasonIsbell Absolutely not. (2nd grade)
p676
aV@rainnwilson @JasonIsbell As a teacher, I\u2019m woken at night at times with the images of my terrified student\u2019s faces\u2026 https://t.co/yIIgApxcKj
p677
aVRT @rainnwilson: As we send our thoughts &amp; prayers to the people of Parkland, Florida how about we, the people &amp; govt of America, actually\u2026
p678
aV@RepRobinKelly @SpeakerRyan As a teacher I\u2019m forced to think about what I need to do when this happens.
p679
aVRT @JasonKander: Josh, important work is being done at Fort Leonard Wood and Whiteman AFB. They don\u2019t have time to put it aside for 2 weeks\u2026
p680
aV@NWHL When are you getting a Chicago franchise?
p681
aV@FDLWARBIRDS https://t.co/hVUBMujCIy
p682
aV@schnellharrison have you watched this yet in a \u201cdusty\u201d room? https://t.co/oXi27Xrn6q
p683
aV@PhilRosenthal thank you for going on @NeverNotFunny to talk about your show. It\u2019s a snow day in Chicago and we\u2019re binging and loving it!
p684
aVRT @Riveters: We play today so we can stand behind them tomorrow. Happy National Girls and Women in Sports Day! #RepTheRivs\U0001f4aa #NGWSD https:/\u2026
p685
aV@JesseWTKR Criminal. Garbage person.
p686
aVRT @AU_Spartans: Spartans super in shutout of Sabres https://t.co/keMO2nZyQt
p687
aVRT @CCMHockey: What does it take to be the best? Just ask @BDecker14. #MadeOfHockey \U0001f1fa\U0001f1f8 https://t.co/CuwbPoNrOc
p688
aV@BuchbergerJm Contemporary twist. Your current plight earned two extra syllables.
p689
aV@BuchbergerJm In Haiku:\u000aJessica can\u2019t catch a break\u000aShit follows her west\u000aMaybe sun will help it all
p690
aV@BuchbergerJm Oui, la vie.
p691
aV@BuchbergerJm ...uhhh.... c\u2019est la vie?
p692
aV@BuchbergerJm Awful.
p693
aV@schnellharrison https://t.co/B97X5LrlFx
p694
aVRT @Lady_Warriors00: In Warroad, we are proud to represent and honor the Warrior name/logo\U0001f49b\U0001f5a4 #WarriorPride #HockeyTownUSA https://t.co/eekI\u2026
p695
aV@BuchbergerJm Awful.
p696
aVRT @axios: Roughly 44.5 million viewers watched the State of the Union Tuesday, compared to 48 million who watched Obama\u2019s first address in\u2026
p697
aVRT @G_roth17: Never be too busy to listen #BellLetsTalk
p698
aVRT @SethMacFarlane: My parents were teachers, and my family was always extremely strapped for cash, and heavily in debt.  I made my way up\u2026
p699
aVRT @Bell_LetsTalk: Today, every view counts. Bell will donate 5 to mental health initiatives for every view of this video. #BellLetsTalk h\u2026
p700
aVRT @ghirschy06: Toughness isn\u2019t always about blocking a shot or taking a hit, sometimes it\u2019s asking for help or taking the time to ask abou\u2026
p701
aVRT @BeII_LetsTaIk: For every 100,000 retweets this gets Bell will donate $5000 towards mental health initiatives. Lets see how much we can\u2026
p702
aV@cameronesposito They would have a heated discussion on the correct direction of their hair part.
p703
aVRT @MYHockeyRanking: We can't stop, wont stop! The #MYHockey &amp; @AB_HockeySticks giveaway continues.. Week #3 prizes include 2 MYHockey memb\u2026
p704
aV@RussoHockey @eduhatschek Any team that has a two shift plug in the end of their bench that doesn\u2019t make room for a\u2026 https://t.co/y16eN7APFF
p705
aVRT @ParkerHageman: Superb \U0001f989 LII https://t.co/mQFMbtedr8
p706
aVRT @RockTheVote: Your vote counts.
p707
aVRT @Jordan_Morris: Some people will say weddings are silly or frivolous, but I think they're absolutely essential venues for getting your e\u2026
p708
aV@wyshynski Fail.
p709
aV@JenScrivs @schnellharrison
p710
aVRT @gheakes: Hilary Knight @HilaryKnight (11.64) would have finished third in the NHL allstar accuracy shooting beating Blake Wheeler,  Jam\u2026
p711
aV@Aneelinhere @wyshynski could you help us answer this question?
p712
aV@Aneelinhere Just sent $5. Why aren\u2019t the Devils helping with this?
p713
aV@JesseThorn Wait, seriously?
p714
aV@PR_NHL @FitzAndTantrums @PKSubban1 So, wait... you can drum up excited fans for an event and you don\u2019t even have t\u2026 https://t.co/yxVw0enZnT
p715
aVRT @HarMarSuperstar: This is a good list. Proud to be on it. Thanks, @TheCurrent! https://t.co/5H9odFnQRT
p716
aVRT @BaseballByTom: I think Minnesota sports bloggers/podcasters should band together and just put out shitloads of content during the actua\u2026
p717
aV@mattbelknap there\u2019s a monster in Cloverfield? What the hell, man?
p718
aVRT @TheDailyShow: "It's all about building bridges." - NHL Defenseman @PKSubban1 on his Blueline Buddies program, which pairs underprivileg\u2026
p719
aV@JesseThorn @AaronGleeman had a link on the sidebar of his Twins blog. I was a fan of his writing so I trusted his\u2026 https://t.co/JJUHlFvmAD
p720
aVRT @AaronGleeman: Glen Perkins is retiring after struggling to make it back from injuries. I wrote an appreciation of the three-time All-St\u2026
p721
aVRT @FiskPT: Hitters: Ask questions &amp; listen to answers. Good coaches/instructors often hold back details to simplify things for you. They k\u2026
p722
aV@MyNameIsGaron I hate myself for the thoughts I had after reading this.
p723
aVRT @mnwild: Just like that it's 1-0 just 45 seconds into the game. Zach Parise with his second of the season! #OTTvsMIN https://t.co/soOdHp\u2026
p724
aV@mnwild This is mesmerizing.
p725
aVRT @BuchbergerJm: 3 people helped push my car today, but I only helped 2 people. My Minnesota karma is out of balance
p726
aV@schnellharrison https://t.co/ARhWgucV15
p727
aV@CCvikingsclub https://t.co/9Bw3CoQhUA
p728
aVRT @Twins: SKOL! #BringItHome, @Vikings! https://t.co/jzTUyIn6YZ
p729
aVRT @CCvikingsclub: Today\u2019s the day! #SKOL
p730
aV@SpeakerRyan https://t.co/LDPx4F6C1F
p731
aVRT @FDLWARBIRDS: Alumni Update: Great day for 2017 grads Rebecca Binder (Aurora) and Kylee Dyni (Finlandia)! Both of their college teams pi\u2026
p732
aVRT @BSUBeaversMHKY: Beavers win 2-0. And with that shutout Michael Bitzer takes sole possession of 2nd all time in shutouts in college hock\u2026
p733
aVI love this. @davelozo @wyshynski these two are so much more charismatic than any @NHL player. I might go get a\u2026 https://t.co/5jt5XTNLXO
p734
aV@JesseWTKR @AdamWinkSports God help them all when they get to Minnesota. With or without the Vikings.
p735
aV@torydyck @AndyCarlsonShow Disagree. The best part is a ton of fans united for the cause of their own and not give\u2026 https://t.co/LJ5tX5Sgp9
p736
aV@NWHL @HockeyHallFame Put Willie in the Hall of Fame!
p737
aV@NHL @mnwild putting @KidRock on display at the #NHLAllStar game is tone deaf. There are hundreds of acts you could\u2026 https://t.co/sCNkRMWR9N
p738
aVRT @torydyck: My hopes are up.
p739
aVRT @torydyck: I'm not getting my hopes up. I'm not getting my hopes up. I'm not getting my hopes up. I'm not getting my hopes up. I'm not g\u2026
p740
aVRT @nowthisnews: Sen. Kamala Harris just torched Trump\u2019s DHS Secretary over her racist dogwhistling https://t.co/3NBVcv85sU
p741
aVRT @CoachTesdahl: Put everything I had into this program  on a daily basis from 08-12! Provided me an opportunity to compete, improve, and\u2026
p742
aVRT @DigDeepBSB: Hello friends, need a smile today? Well, here you go. #NWHL https://t.co/5t4Vz0TaYs
p743
aV@torydyck https://t.co/qioVpICo71
p744
aV@NHL your decision to have @KidRock play the all star game shows exactly how time deaf you are. Please reconsider. #NHLAllStar
p745
aV@FDLWARBIRDS this mindset is amazing. https://t.co/5PawlDV7n6
p746
aVRT @thedailywolf: Jon Gruden was right @casekeenum7 https://t.co/5vjtu04msD
p747
aVRT @NickSwardson: I\u2019m sobbing at the bar. Tears down my face. Respect to the @Saints
p748
aVRT @mnwild: #Skol @Vikings!!!! #BringItHome https://t.co/yrnPoDWlVe
p749
aVRT @JesseWTKR: HOLY S**T!!!! #NFL #SKOL #Saints
p750
aVRT @EverythinginMN: This will forever be the most Minnesotan thing ever \U0001f602 https://t.co/7xzStmlKeV
p751
aVRT @nytimes: "The president must apologize to both the American people and the nations he so wantonly maligned," said Representative Mia Lo\u2026
p752
aVRT @mnwild: #BringItHome @Vikings \U0001f44a https://t.co/Rnh7VoS616
p753
aV@handeyecoaches @UtahOutliers @FDLWARBIRDS
p754
aV@SotaStickCo love it! https://t.co/DPAfGYVldH
p755
aVRT @wyshynski: Petition to get pro women\u2019s league players involved in the skills competition before we start the choreographed dance petiti\u2026
p756
aV@FDLWARBIRDS https://t.co/sdwzpGtFAQ
p757
aVRT @ParkerHageman: Here's the thing...\u000a\u000a[turns chair backwards, sits, flips hat backwards]\u000a\u000aWho cares. Watch what you want to watch. Demogr\u2026
p758
aV@TwinsGeek @schnellharrison
p759
aV@JesseWTKR  https://t.co/Z5pUFiE63H
p760
aV@JesseWTKR  https://t.co/xWtX72cRNK
p761
aV@JesseWTKR so, Jesse, I\u2019ve finally started watching The Wire. I\u2019m sorry you had such a rough childhood. #thegame
p762
aVRT @MrGeorgeWallace: We grew up so poor we could only play scissors. It was always a tie. Then one kid busted out a rock and all hell broke\u2026
p763
aVRT @benwikler: 202-224-3121 \u000a\u000a"I'm NAME, a constituent. I'm concerned abt reports that Tom Brunell, a partisan who has testified in favor o\u2026
p764
aV@DanMyers Schmozz... nice
p765
aVRT @jakequery: Alabama just went surprisingly left for the 2nd time in a month.
p766
aV@NickNelsonMN @ParkerHageman this man needs advice.
p767
aVRT @Marple82: I am a 3rd grade teacher in Kansas. I am trying to teach my class about the power of Twitter and how fast information can spr\u2026
p768
aV@JesseThorn Your childhood was very on brand.
p769
aV@jadeisthename Is it \u201cDo my best to get any song stuck into the head of the person who reads this tweet\u201d by Jade?
p770
aVRT @StigAbell: Sometimes, just sometimes, Twitter is brilliant. https://t.co/niLyLRdQlr
p771
aVRT @goldenglobes: \u201cI want all of the girls watching here now to know, that a new day is on the horizon.\u201d @Oprah accepts the 2018 Cecil B. d\u2026
p772
aVRT @JenKirkman: This is a Stable Genius https://t.co/f9XaKYmCDQ
p773
aVRT @JJfromKansas: Think of what we lost culturally when Jimmy Buffett didn't have a son named Beau who plays Star Wars-themed island drinki\u2026
p774
aVRT @AF_HKY: Coach Serratore met some new friends at tonight's game. They must have heard his press conference this week #BigFoot #EasterBun\u2026
p775
aVRT @dwyercd: I donated to a GoFundMe to allow American kids to have heat in their classrooms today for the first time https://t.co/z869Uo4W\u2026
p776
aVRT @RockTheVote: By targeting infrequent voters Ohio\u2019s purge practice disproportionately impacts voters of color, low-income voters, and ho\u2026
p777
aVRT @BSUBeaversWHKY: Beavers putting in work during the fall semester combining for a 3.71 team GPA including 11 players with 4.00!! \U0001f44f\U0001f44f\U0001f44f\u000a\u000a#G\u2026
p778
aVRT @Jerica_Phillips: BEST STORY OF THE DAY: South Dallas middle school started a \u201cBreakfast with Dads\u201d program but many dads couldn\u2019t make\u2026
p779
aV@USAHMagazine @usahockey 24
p780
aV@JesseWTKR @WTKR3 Stop tweeting, concentrate.
p781
aVRT @DanMyers: Frank Serratore is a national treasure. https://t.co/JTqBtq9HJw
p782
aVRT @NCAAIceHockey: \U0001f1fa\U0001f1f8\U0001f1fa\U0001f1f8\U0001f1fa\U0001f1f8\u000aWINNER!!!\u000a\u000aON TO THE SEMIFINALS!!!\u000a\U0001f1fa\U0001f1f8\U0001f1fa\U0001f1f8\U0001f1fa\U0001f1f8 https://t.co/tAfIyarnJV
p783
aV@BillsEire @RandBall @brownsguy99 @MattWentz11
p784
aVRT @catmsilverman: If you don\u2019t know a ton about sled hockey, the 2018 Olympics are a perfect excuse to check it out because it\u2019s WILD and\u2026
p785
aV@wyshynski @bruceprichard Thank you!
p786
aV@wyshynski what was the name of that wrestling podcast you recommended?
p787
aV@JesseWTKR https://t.co/JRf1Mo408p
p788
aV@SheriffClarke Aaawwwwe, you\u2019re just such a cutie. What is the puppy going to do, exactly?
p789
aVRT @C_Wallenbrock: Be mild in your beliefs, but strong in your curiosity.
p790
aV@TwinsGeek @DanaWessel Trump. Home Alone 2.
p791
aVRT @BSUBeavers: ICYMI: @BSUBeaversmhky completed a #WCHA series sweep of Alabama-Huntsville with a 4-1 victory. Gerry Fitzgerald led BSU wi\u2026
p792
aVRT @davelozo: https://t.co/gRt0mgtyJC
p793
aVRT @schnellharrison: Someone wants to help #dogsofinstagram #diy #fixerupper https://t.co/mcNkFAZHvk
p794
aV@ALLCHOPS1 @samstein Just remember, no matter what he says, Tony is a bot. Don\u2019t respond to him.
p795
aV@JAmy208 @franktfrank @matthewjdowd @RealJamesWoods @realDonaldTrump Remember, no matter what she says, Juliet is a bot.
p796
aVRT @schnellharrison: When you gift each other \u201cexperiences\u201d for Christmas you end up getting front row seats to\u2026 https://t.co/phfyOT1NqV
p797
aV@BSUBeaversMHKY WHO HATES HUNTSVILLE!?!?!?
p798
aV@JordanUhl Nelson Mandela being released from prison.
p799
aVRT @melinaphotos: Beautifully made film, showing the moments of real lives. Happy to support @IronStache and turn the tide in 2018. https:/\u2026
p800
aVMight be a message @IronStache would like.
p801
aV@jonfavs In a sentence: \u201cWe should really move toward a more logical Demand Side economic policy instead of gamblin\u2026 https://t.co/5VtmjsO6rf
p802
aV@jonfavs rebranding democratic economic policy \u201cDemand side Economics\u201d. Something there?
p803
aVRT @CoachYourKids: WALL BALL. #FridayFielders\u000a\u000aAs kids, we played this for fun. As coaches, we can use it to let our players have that same\u2026
p804
aVRT @PeteBlackburn: Casey Mittelstadt with an incredible effort to tie it 2-2 https://t.co/ubUzUR44n0
p805
aV@PitchingNinja Johan Santana.
p806
aVRT @mikecwright: Spurs coach Gregg Popovich was asked why he thinks it\u2019s important to give back to the community: \u201cBecause we\u2019re rich as he\u2026
p807
aVRT @elizaskinner: Annual reminder that my parents once liked my work ID at a summer job enough to blow it up into a poster. https://t.co/T9\u2026
p808
aVRT @IJasonAlexander: Ok, so can we now all agree that this woman is either batshit crazy or that she will say anything for money? https://t\u2026
p809
aVRT @TheRickyDavila: Presented without a comment: \U0001f384 https://t.co/p7TQoDOIyH
p810
aV@SouthwestAir #Flight1475 Drink vouchers????
p811
aV@SouthwestAir #Flight1475
p812
aV@SouthwestAir we have a crew of people at a bar in Minneapolis waiting to go to Chicago. Any way you can help us fe\u2026 https://t.co/Gi8cO9LiPc
p813
aVRT @BarstoolNewsN: Christmas is cancelled. Thanks Obama https://t.co/vD7gJoAPgg
p814
aV@SpeakerRyan @IronStache I hope @ScottWalker6 didn\u2019t destroy the education in Wisconsin so badly that your children\u2026 https://t.co/aRcQucrN40
p815
aV@SpeakerRyan I hope for you to understand that giving rich people money is economically irresponsible and illogical\u2026 https://t.co/SabcFzhnXf
p816
aV@SpeakerRyan When I first saw Scrooge last night and he asked if the prisons and the work houses were open, it remi\u2026 https://t.co/tx9FnMNXML
p817
aV@torydyck #faith
p818
aV@SotaStickCo Can\u2019t wait to see how many more have this @RedmondsChicago @CCvikingsclub
p819
aV@torydyck sad I\u2019m going to miss a mini WM.
p820
aV@SotaStickCo https://t.co/ribQP4SjoY
p821
aVRT @IJasonAlexander: FESTIVUS!!!!!!!! https://t.co/w27eW5ApUt
p822
aV@jmarthaler I would settle for switching the Wild logo on the front of the green jersey with the M that is on the s\u2026 https://t.co/tbeZYgoeHf
p823
aV@GleemanAndGeek BOOOOOO
p824
aVRT @schnellharrison: Annual visit to see the Christmas Carol \u2764\ufe0f\u2764\ufe0f\u2764\ufe0f #goodmantheatre #christmascarol #tradition #love https://t.co/KzefaXIzX1
p825
aV@schnellharrison https://t.co/qaiVaSRg7q
p826
aV@BuchbergerJm SO FREAKING GOOD!!!!
p827
aVRT @Zach_Driscoll: Proud and excited to announce my commitment to play hockey at Bemidji State University! Thank you to everyone who has he\u2026
p828
aV@schnellharrison https://t.co/j167xMBC14
p829
aVRT @KrangTNelson: it\u2019s weird how the media seems to think that college kids are radicalized by their professors and not their six-figure co\u2026
p830
aV@torydyck https://t.co/y2eC0EM2YH
p831
aV@myregularface @NHL @NHLGIFs Congrats!
p832
aV@SotaStickCo @RedmondsChicago @Vikings @CCvikingsclub Like, before the playoffs?
p833
aV@SotaStickCo Seriously?!?!?!? That way I can wear that with my Grey Duck shirt and Skol hat to @RedmondsChicago for\u2026 https://t.co/ozFI6460TJ
p834
aV@SotaStickCo This but pajama pants
p835
aVRT @BobbyBigWheel: @DonaldJTrumpJr Anyway, you're a fucking moron
p836
aVRT @SenSchumer: Today, @SenateDems are calling on Leader McConnell to hit pause on his tax bill, &amp; not hold a final vote on it until Doug J\u2026
p837
aV@danpfeiffer @ErikPHage
p838
aVRT @AaronGleeman: Happy Hanukkah, @MooreSenate.
p839
aVRT @jaketapper: John Quincy Adams took the oath of office with his hand not on a Bible but on a book of constitutional law. https://t.co/YK\u2026
p840
aVRT @GDouglasJones: Vote! If you're at your polling place BY 7:00PM you can vote!
p841
aVRT @abberzzz: #JJGo is extra silly this week and it's exactly what I needed this morning.
p842
aVRT @GDouglasJones: Polls close in ONE HOUR. Make sure to get to your polling place by 7pm. As long as you\u2019re in line, you can vote. Check h\u2026
p843
aVRT @TheLeadCNN: Roy Moore campaign spokesman responds with silence when asked if he knew people can be sworn in with a text other than the\u2026
p844
aVRT @GDouglasJones: 3 hours until polls close. There\u2019s still plenty of time to vote! Don't forget, you must vote at your precinct's polling\u2026
p845
aVRT @HeadCountOrg: It\u2019s a #SpecialElection Day in #Alabama today. So listen to @JasonIsbell (and @amandashires) and #VoteLocal today. Want t\u2026
p846
aVRT @GDouglasJones: We are halfway through the day and there's still plenty of time to vote! Don't forget, you must vote at your precinct's\u2026
p847
aV@GovMarkDayton @ScottWalker @GovRauner
p848
aV@GovMarkDayton @ScottWalker
p849
aVRT @jonlovett: Here\u2019s something better than Trump attacking women on Twitter. https://t.co/4c31c9Zl2x
p850
aVRT @GDouglasJones: It\u2019s Election Day! Polls open at 7am. Confirm your polling place at https://t.co/5dkGHic81c and make your plan to vote n\u2026
p851
aVRT @VaughnHillyard: Father, who says he's a local peanut farmer in Wicksburg, outside Roy Moore rally talks about losing his gay daughter a\u2026
p852
aVRT @Riveters: ICYMI: Kelly Nash (@knashty2) was named the #NWHL Player of the Week! \u000a\u000a\U0001f517:https://t.co/iTNsy7hZB4 https://t.co/yoFjCSAZUi
p853
aV@JesseThorn Do you have anything besides anecdotal evidence?
p854
aVRT @SI_PeterKing: This has gone unnoticed nationally, but it shouldn\u2019t. The Miami Dolphins have registered every player on the roster to vo\u2026
p855
aVRT @billyeichner: It's not too late to donate to @GDouglasJones to help him defeat pedophile, slavery-friendly, anti-gay criminal Roy Moore\u2026
p856
aV@copperas This Santa is from London. Overheard: kid in the orange hat says \u201cDoes British have an opinion on Brexit?\u2026 https://t.co/2ULlQc02SM
p857
aVRT @Brent_Rooker19: Somewhere out there someone is doubting how good the Yankees lineup will be by saying \u201cBUT HOW WILL THEY MOVE THE RUNNE\u2026
p858
aV@VillageOrlandPk @schnellharrison
p859
aVRT @DianeTurnshek: Two scientists walk into a bar. \u000a"I'll have H2O," says the 1st.\u000a"I'll have H2O, too," says the 2nd.\u000aBartender gives them\u2026
p860
aV@HarMarSuperstar @schnellharrison
p861
aV@VillageOrlandPk @schnellharrison
p862
aV@poperov this showed up on \u201cthing from your timeline\u201d today. 12 years ago. Enjoy. https://t.co/evMSLhxoVw
p863
aV@michaelcaples @Buccigross @gesteves18 @MSU_Hockey @collegehockey Been there.
p864
aVRT @craigcalcaterra: Governance and politics is about policy, not personalities. No figure in a democracy is irreplaceable. Do not make her\u2026
p865
aVRT @SeanTeakle: Great message, don\u2019t let events define you. As an athlete don\u2019t let mistakes eat away at you, move on to the next shift or\u2026
p866
aV@DCRangersFan @wyshynski @JesseWTKR
p867
aV@deray @schnellharrison I have a new favorite carol.
p868
aV@GretchenCarlson @SenGillibrand @sengraham2016 @RepCheri @EliseStefanik @WalterJones2016 @schnellharrison
p869
aV@ebfavs My first thought was \u201cMy god, absolutely.\u201d Then I thought, \u201cWhat it we found out something about Paul?\u201d \u000a\u000aM\u2026 https://t.co/KvDP9fn6qo
p870
aVRT @Lin_Manuel: Good morning!\u000aLook both ways \u000abefore you post the tweet! https://t.co/LqdenAyDH3
p871
aVRT @AUSpartan_WHKY: What a venue! It\u2019s a great night for hockey. https://t.co/Md9n1mgzXs
p872
aVRT @mnwild: #mnwild brought its game day experience to Farmington 12U girls hockey game. It. Was. Awesome. \U0001f64c https://t.co/cw39UuFNTw
p873
aVRT @peterdaou: THE RAGING HYPOCRISY OF MODERN REPUBLICANISM:\u000a\u000a"Pro-life" but shrug at mass shootings.\u000a"Anti-elites" but give tax cuts to th\u2026
p874
aV@RealJeffSnyder They should produce Lucrative Lyft
p875
aVRT @schlthss: Witnessed heart warming event today...our goalie was sick, so we had another child play goalie for the 1st time. The opposing\u2026
p876
aV@JenScrivs This idea is so good that I\u2019m mad I didn\u2019t think of it.
p877
aV@PRyan Man, you\u2019re really bad at math. Also, I\u2019d appreciate it if you didn\u2019t gamble my money on your (awful) theory.
p878
aVRT @RandBallsStu: Paul Ryan sucks.
p879
aVRT @morethanmySLE: Do you live in Wisconsin District 1?  \u000a\u000aPlease share your #ACA and/or #CHIP healthcare journey.\u000a\u000aDM me your story w/full\u2026
p880
aVRT @AjKFAN: My wife might be the most thoughtful person in the world! @abigaelmansour https://t.co/8R33sesV92
p881
aVRT @hodgman: Oh Jeff Flake, you poor dumb. You stupid craven dope. Almost as dumb as all the dumbs who praised you. All of you go away fore\u2026
p882
aV@jackhitts Thanks!
p883
aV@jackhitts Which school and what was it called out for?
p884
aVHow old am I? I\u2019m \u201cputting down a laminate floor in the spare bedroom while listening to Matchbox 20\u201d years old.
p885
aVRT @AlyssaMastro44: thank you and goodnight \U0001f319 https://t.co/p8nNIO65Xk
p886
aVRT @davelozo: Hull was in the crease https://t.co/4QyVS0uiMI
p887
aV@MATrueblood I think you\u2019ve tried to identify the peak too early. It could definitely get worse.
p888
aVRT @jonfavs: There is justice. https://t.co/r3tPyxRQql
p889
aV@schnellharrison https://t.co/i2ui3yYg9b
p890
aV@PR_NHL @myregularface @Canucks This might be the most impressive Gretzky stat.
p891
aV@SotaStickCo Shoot, I\u2019m gearing up my order so I can get the free shipping. Already used up my @AaronGleeman code.
p892
aV@SotaStickCo Are you going to include a Twins one? I\u2019m ready to set up direct deposit.
p893
aV@SotaStickCo Sooooo... when am I able to preorder?
p894
aV@TheDonPrincipe @Giants Redmond\u2019s. Sunday. @CCvikingsclub bandwagon is very welcoming.
p895
aV@Twins @OfficialBuck103 Byron can\u2019t wait for the Ohtani decision. https://t.co/RLESTuBKZw
p896
aV@ananavarro Add Gerrison Keillor to the \u201cLost his job\u201d list
p897
aV@schnellharrison https://t.co/lDhcsOkkpX
p898
aVRT @davelozo: Describe your favorite movie without using the title. Or an actor. Or a quote. Or nouns and verbs. Actually, forget it, nobod\u2026
p899
aV@SotaStickCo Also, they look friggin awesome
p900
aV@SotaStickCo Can the K in the Wild hat be white?
p901
aV@ParkerHageman The question is about how you\u2019re going to help him assimilate into your city, not \u201cWhat about your c\u2026 https://t.co/0Y8AiLfbA4
p902
aV@ThePlumLineGS @GovHowardDean DUHHHHHH
p903
aVRT @IronStache: How about a budget that allows for schools to have basic supplies instead of arguing over whether or not to reimburse teach\u2026
p904
aV@VillageOrlandPk https://t.co/uHZr8L9ckr
p905
aV@AndyRichter @jimmypardo @mybrandonboyd or @fatbellybella
p906
aV@mklptrk @AndyRichter Ohhhh .... this is a good one.
p907
aV@chicagoboothrev @schnellharrison
p908
aV@jackhitts @torydyck if I\u2019ve said it once...
p909
aV@davelozo @schnellharrison
p910
aVRT @ebel96: effort play @knashty2 ?? https://t.co/8U9fjebMH2
p911
aV@davelozo have you ever noticed what the map of the vault of the Bellaggio in Ocean\u2019s Eleven looks like?
p912
aV@MJB_SF @mattbelknap @schnellharrison
p913
aVRT @mnwild: RT by 6 CT &amp; say I'MN for #WinItWednesday.\u000a@thelnino22 autographed puck, $50 in @mnlottery scratch \U0001f39f &amp; more\u2192 https://t.co/Bh5pC\u2026
p914
aV@JesseThorn I live near Chicago and have a fenced yard if that helps. Im sure my dogs will agree to watch them.
p915
aV@JesseThorn You can, Jesse. Just not in the fiery hellscape you call home. More Midwestern shows in the fall is what the doctor ordered.
p916
aVRT @torydyck: I look forward to this montage every week more than a reasonable person should. Especially the part where I scream the chorus\u2026
p917
aVRT @TheRickyDavila: Ladies and Gentlemen, Senator Claire McCaskill laying out truths and facts for Orin Hatch. She doesn't play and isn't t\u2026
p918
aV@juanbuis @schnellharrison
p919
aV@dog_rates @schnellharrison
p920
aV@dog_rates @schnellharrison
p921
aVRT @AdamParkhomenko: ohhhhhhh shhiiiiiiiiiiii..... https://t.co/4upLfsUi1S
p922
aV@SotaStickCo That would be awesome!
p923
aV@SotaStickCo Skol hats in Wild, Twins, and TWolves colors... thoughts?
p924
aV@SotaStickCo WAAAY BETTER
p925
aV@SotaStickCo Meh
p926
aVRT @FDLWARBIRDS: Warbirds/Beaver Dam Coop go 3-0 on the weekend to win the Early Bird High School Girls Hockey Tournament! https://t.co/xvV\u2026
p927
aVRT @AUSpartan_WHKY: 1st victory in program history today vs. @LumberJillHKY 2-0. Thanks to all players, parents, former coaches, staff, and\u2026
p928
aVRT @ghirschy06: Special moment for a special group! Couldn\u2019t be more proud of our players for getting the first program win. Many more to c\u2026
p929
aVRT @janschakowsky: The 500 largest corporations in the country are currently sitting on a $1.84 TRILLION pile of cash. When can we expect t\u2026
p930
aVRT @MattGertz: Shep Smith just took apart the Uranium One conspiracy theory in what amounts to a methodical annihilation of his own network\u2026
p931
aV@VillageOrlandPk @schnellharrison
p932
aV@SenateDems @SenSherrodBrown He should have ended this with \u201cDuuhhhhh!\u201d
p933
aV@SotaStickCo @schnellharrison
p934
aVRT @JoePack: This good news is not out there enough. Congratulations to Caroline Ouellette \U0001f1e8\U0001f1e6 and Julie Chu \U0001f1fa\U0001f1f8 Olympic rivals, CWHL teammat\u2026
p935
aV@Starbucks https://t.co/QHGcduUNJo
p936
aV@JesseWTKR @Aaron8News Oh yeah, to love chocolate and peanut butter together you have to be 5... OR A DAMN HUMAN WI\u2026 https://t.co/TfWO7I3dG2
p937
aV@SotaStickCo @schnellharrison
p938
aV@JesseWTKR @Aaron8News You\u2019re dumb and I hate you for this. The Christmas Trees are gross.
p939
aVRT @smwhughes: Can I offer you a video ripe with econonmic allegory this crisp monday morning? https://t.co/Ldoura21fF
p940
aV@croesler21 how did you learn to block shots like that? I\u2019ve been trying to teach it for years and have not gotten consistent results.
p941
aV@CTWhale_NWHL @syd_rossman @GoldsmithJ_12 @FlukeEmily Who is that blocking that shot?
p942
aV@SpeakerRyan they need you to have a time machine and to do something about it after the LAST shooting. Your prayers have been ineffective.
p943
aVRT @cameronesposito: GODDAMNIT. Goddamnit guns. Goddamnit lack of regulation and the NRA. GODDAMNIT ELECTED LEADERS NEVER TAKING A STAND.
p944
aV@tedcruz nobody gives a shit about your thoughts or your prayers. What are you going to DO about it?
p945
aV@AaronGleeman He was already heading in that direction, Hrbeck just let him do it.
p946
aVRT @FDLWARBIRDS: 2017 Warbirds Alumni Rebecca Binder made her 2nd career start for @AUSpartan_WHKY today! @GK_Coach8 @ghirschy06 https://t.\u2026
p947
aV@anamariecox This is Teddy and Byron after @teddyb_h2o and @OfficialBuck103 https://t.co/HVuSdeRFyv
p948
aV@joewandy13 @jimcaple @TwinsAlmanac How many catchers have won the batting title? He won three. Three gold gloves (\u2026 https://t.co/UUkBaZlea2
p949
aV@PuckSoupPodcast Matt Dumba and four letter last names.
p950
aV@tomsaurer @GitRDoneLarry Check the game log. You\u2019re incorrect.
p951
aV@mnwild @stefondiggs @Vikings How about more gear featuring that M?
p952
aVRT @TwinsGeek: YOU GUYS WE HAVE A NICKNAME FOR MAUER https://t.co/rIrO1Ch9ao
p953
aVRT @TwinsAlmanac: Who remembers trick-or-treating in three feet of snow uphill both ways in their Puckett, Morris, &amp; @Hrbie14 costumes on t\u2026
p954
aV@FDLWARBIRDS https://t.co/HufmMbBmiS
p955
aVRT @jayrosen_nyu: Have you ever seen Wolf Blitzer do this? Brian Williams? https://t.co/qqBxg3EDir
p956
aVRT @BSUBeaversMHKY: Former BSU Captain, 3 Time All-American, Olympian &amp; Stanley Cup Champion... Happy Birthday Otts! \U0001f382 https://t.co/7gSWnh0\u2026
p957
aV@JB_HockeyTalk Maybe the dumbest take I\u2019ve heard on a #mnwild broadcast.
p958
aV@davelozo You need to write a script and sell it.
p959
aV@PitchingNinja Even if you told me that I would have the batspeed to hit this velocity, I would miss that pitch by at least 18 inches.
p960
aVRT @AUSpartan_WHKY: @AU_Spartans fans, watch the first-ever women\u2019s hockey game in school history right here:   https://t.co/Kcos6g6bRL 7pm\u2026
p961
aVRT @TwinsAlmanac: Our #MNTwins won the #WorldSeries on this date in 1991. https://t.co/oLj2NqDFb4
p962
aV@MarianWHockey @marianwbb Who won?
p963
aV@twinsdaily And there was Chuck Knoblach, jumping up and down waiting for Kirby, at the peak of his likability.
p964
aV@mhseverin @JesseThorn I was scrolling through this thread to make sure I would see this. Oscar Meyer is a big tube\u2026 https://t.co/HnvN742Uwk
p965
aV@craigcalcaterra https://t.co/Tww24gbszs
p966
aV@fsnorth @mnwild If @glenperkins retires, I nominate Alex Stalock as Best Neckbeard in Minnesota Sports.
p967
aVRT @TwinsAlmanac: '78 Bloomington Kennedy grad @Hrbie14 made a fine defensive play on @RonGantFOX5 as the #MNTwins won Game 2 of the #World\u2026
p968
aV@tedcruz when was your last honest moment?
p969
aV@tedcruz So, what is your universal tax rate?
p970
aV@tedcruz would you please stop treating people like they can\u2019t see through your bull?
p971
aV@heidiscruz your husband is dumb. Estate tax is on inheritance, unearned wealth.
p972
aV@tedcruz you\u2019re dumb. Estate tax is on inheritance. Unearned wealth.
p973
aVRT @AndyCarlsonShow: FLASH GIVEAWAY \u26a1\ufe0f\u26a1\ufe0f\u26a1\ufe0f\u000a\u000aRT &amp; Follow @SotaStickCo &amp; I for a chance to win a signature #SKOL hoodie. \u000a\u000aWinner picked toni\u2026
p974
aVRT @AndrewNadeau0: MY WIFE:We named you after our favorite songs. You were mine\u000aLAYLA: I love that\u000aME: And you mine\u000aTHEME FROM DUCKTALES: N\u2026
p975
aV@glenperkins @PJHughes45  https://t.co/kLEfFEnBtk
p976
aV@glenperkins @PJHughes45 MST3K but with pitchers that have no skin in the game.
p977
aVRT @swingleft: Virginia! Your voter registration deadline is tomorrow. If we want to flip it blue, we have to vote. https://t.co/Pbk8pYjXyW\u2026
p978
aVRT @mnwild: Minnesotans Willard Ikola, Natalie Darwitz, Neal Broten, Terry Cullen, Dan Brooks &amp; Mark Parrish added water to the @XcelEnergy\u2026
p979
aV@craigcalcaterra  https://t.co/aFQP8Q4ljy
p980
aV@schnellharrison https://t.co/f5bDY532jR
p981
aVRT @BSUBeavers: [mhky] Bemidji State-0, (9) Minnesota Duluth-0 (Final 2OT). Bitzer career-high 45 saves. Dickman goal wins shootout for Bea\u2026
p982
aVRT @IronStache: The @GOP really doesn't care about you.
p983
aVRT @Deadspin: good morning https://t.co/NKrBleiXwG
p984
aV@TwinsAlmanac @boofbonser1 @Jordan_Morris @JesseThorn
p985
aV@SarahKSilverman @FullFrontalSamB @schnellharrison
p986
aV@schnellharrison https://t.co/ozOwE4NHEf
p987
aVRT @NCAAIceHockey: UPSET!\u000a@BSUBeaversMHKY upsets No. 5 Minnesota Duluth, 5-2. https://t.co/Z3o48TCvLx
p988
aVRT @amonteith92: FINAL: Bemidji State 5, Minnesota Duluth 2. Beavers upset the No. 5 Bulldogs to win the season opener.
p989
aVRT @Womenshckyinfo: Congrats to the Kuwaiti Women's Team! Welcome to the international stage! https://t.co/lH13QqvxwG
p990
aV@torydyck @spidr2ybanana Young Duck Duck Gray Duck Shirt
p991
aV@JesseWAVYTV That\u2019s an impossible pace for regular humans.
p992
aVRT @davelozo: I wrote pissed off in Las Vegas https://t.co/P9HXFU5uBI
p993
aV@schnellharrison https://t.co/6MV17J60og
p994
aV@shirtzunlimited @FollowThePuck @mnwild @SotaStickCo
p995
aV@SotaStickCo @schuttedan Please, please, please, make this shirt.
p996
aV@ParkerHageman @hodgman
p997
aVRT @fdlinsuranceguy: Just a fond du lac kid working hard @Mike_in_Ike27 congrats https://t.co/VQNVbrq7Ns
p998
aVRT @davelozo: https://t.co/awOk16gqJU
p999
aV@davelozo Love this guy in Brooklyn 9-9
p1000
aV@VP @POTUS How much did that cost the American people?
p1001
aVRT @ChrisBiderman: #49ers safety Eric Reid to reporters in response to @VP leaving today\u2019s game in reaction to players kneeling during anth\u2026
p1002
aVRT @votevets: Please don't hide behind our military. We fought for their right to #TakeAKneeNFL https://t.co/sOtXwNb1jM
p1003
aV@craigcalcaterra https://t.co/f7kUNCVtoa
p1004
aV@JesseWAVYTV @jaymohr37 Sub @jimmypardo for Carolla and I\u2019m there too
p1005
aV@BuchbergerJm Talk about climate change...
p1006
aVRT @strettyit: What a huge day for women's hockey, the NWHL, and the @NYRiveters. Excited to work the @NJDevils!  https://t.co/pdZ75AcsfO
p1007
aV@IronStache @SpeakerRyan It can be both.
p1008
aVRT @TwinsGeek: That near home run - but 3rd out - feels like the story of Mauer's career.
p1009
aVNever mind
p1010
aVJoe, this is where you become a folk hero.
p1011
aVRT @usairforce: "If you can't treat someone with dignity and respect--then you need to get out."-Lt. Gen. Jay B. Silveria, Superintendent @\u2026
p1012
aVWhat an amazing approach to coaching. https://t.co/Hkc3Fj6yLt
p1013
aVI JUST WANT THE TWINS TO WIN SOOOOO BAD TOMORROW.
p1014
aVRT @Calebkeeter: https://t.co/0NFjHf3PW2
p1015
aVRT @ebfavs: When I hear \u201cthis is not a time for politics\u201d I\u2019m reminded of this quote from the late Sen. Paul Wellstone: https://t.co/vVrlkX\u2026
p1016
aVRT @DaveHolmes: If I die in a mass shooting, I hereby grant you my permission to start politicizing that shit right away.
p1017
aVRT @sethmoulton: I know assault rifles. I carried one in Iraq. They have no place on America's streets. #Orlando https://t.co/ibKQE2PpqF
p1018
aVRT @ClintSmithIII: I want gun control. I want Puerto Rico to have what it needs. I want children to have health insurance. I want something\u2026
p1019
aV@CCvikingsclub @SotaStickCo Redmond\u2019s Chicago https://t.co/4avUo5QwLL
p1020
aVRT @fsnorth: .@glenperkins tearful after recording #MNTwins' final out tonight: 'Harder than when I came back ... I'm just grateful for the\u2026
p1021
aV@1DanMyers The +/- of having those in those days is heavily in the negative.
p1022
aV@1DanMyers \u201cGet off my line, kid.\u201d
p1023
aV@1DanMyers That would have been right around the time you and I were golfing with Jesse Ventura, Common, and David Ruth.
p1024
aV@andcowlicks @BuchbergerJm Disgusting. Does the writer also slander the mayor of San Juan?
p1025
aV@BuchbergerJm @andcowlicks Please tell me you\u2019re pro-Oxford Comma.
p1026
aV@ParkerHageman @Twins One lower case vs. Two upper case. TC is a classic. m is dated.
p1027
aVRT @yashar: You need to watch this right away...trust me. Thank you Lt. Gen. Jay B. Silveria for your service. https://t.co/WPUVl0mXJh
p1028
aV@LPontheleft https://t.co/YtKpuNptTX
p1029
aV@schnellharrison https://t.co/20zfq4skIO
p1030
aVRT @AaronGleeman: Twins' magic number: 0\u000aTwins' playoff odds: 100%\u000aThey're the first team to go from 100 losses to the playoffs. Ever.\u000ahttp\u2026
p1031
aV@Twins @Vikings Buxton and Teddy. Watching the magic number go to almost nothing last night. https://t.co/wr4FiTzM1k
p1032
aV@davelozo @drewmagary My god, packer fans. Donations to a professional football team don't actually make you an own\u2026 https://t.co/zeyVYG9xR9
p1033
aV@davelozo Now, is this irony?
p1034
aVRT @GopherWHockey: We're honored to celebrate Kathleen Ridder Day during our exhibition game against Korea today. https://t.co/XfCFVUu0ba
p1035
aVRT @brennanmgilmore: My grandpa is a 97 year-old WWII vet &amp; Missouri farmer who wanted to join w/ those who #TakeaKnee: "those kids have ev\u2026
p1036
aV@Twins meet Byron Buxton Buchberger. An athlete. https://t.co/Br9JtH5uc4
p1037
aVRT @DrunkZachParise: "The Minnesota Wild will win the Stanley Cup" https://t.co/pTRgHU0Mr1
p1038
aVRT @koopa_kinte: Since \u201cdisrespecting the flag\u201d is still the narrative being used, this courtesy of the US Flag Code Chapter 10: Respect fo\u2026
p1039
aVRT @SotaStickCo: It's that time again \U0001f449\U0001f3fc RT &amp; follow @GleemanAndGeek and @SotaStickCo to enter to win a #BigSexy Minnesota tee! https://t.c\u2026
p1040
aV@TVietor08 https://t.co/egd1ZgNkUW
p1041
aV@TVietor08 Rohinga genocide protest in Chicago. https://t.co/nZXPzq9YKS
p1042
aVRT @ParkerHageman: The key to being a good Minnesota sports fan is to remember to be dead inside.
p1043
aV@JesseWAVYTV @RichmondKickers Maybe next time
p1044
aV@JesseWAVYTV @RichmondKickers Catch a cheap flight to Chicago
p1045
aV@Jordan_Morris Please don't get the pumpkin spice latte.
p1046
aVRT @GoldenKnights: We're definitely proud! But not as proud as @CanadiensMTL are of how many championships they won when there were only 6\u2026
p1047
aV@schnellharrison https://t.co/kS52f2vrmG
p1048
aV@TheDonPrincipe @davelozo But not one of those old school ones, rather the ones that are on their knees turning Thur head around.
p1049
aVRT @RussoHockey: #mnwild small ice practice https://t.co/gl0aNFO1CM
p1050
aVRT @BMcCarthy32: I apologize if this is too inside baseball but cork, yarn and some rubber.
p1051
aV@PitchingNinja The state doesn't matter, Joe Mauer has face blindness. Favorite drink: skim milk. Nickname: Joe Mauer.
p1052
aVFavorite thing on Monday nights? @Twins playoff race with the sound off while listening to #jjgo with @Jordan_Morris and @JesseThorn #maxfun
p1053
aV@schnellharrison https://t.co/XYBdKbMhk1
p1054
aV@AaronGleeman They had a graphic last night that showed @BringerOfRain20 passed Babe Ruth on the all time ops list vs Twins/Senators
p1055
aV@schnellharrison https://t.co/EUvtJgZAQQ
p1056
aV@MATrueblood  https://t.co/4dgeoywAIi
p1057
aV@ESPNPublicEd do you work for espn?
p1058
aV@ErikPHage thoughts? https://t.co/F5k1DeKykA
p1059
aV@ParkerHageman @LindsayGuentzel @Seth_Kaplan If you saw Buxton's interview you can tell that all he's thinking is "\u2026 https://t.co/mhlRfUn0Rk
p1060
aV@JesseWAVYTV 5a https://t.co/fZTJQkVHfe
p1061
aV@JesseWAVYTV I hope you're happy with yourself.
p1062
aV@JesseWAVYTV Five. https://t.co/A5U1Aa8N1h
p1063
aV@JesseWAVYTV https://t.co/BjXzgRA5GG four
p1064
aV@JesseWAVYTV https://t.co/kbQ5H75hTY. Three
p1065
aV@JesseWAVYTV https://t.co/eQ6ZlFRmtj two
p1066
aV@JesseWAVYTV https://t.co/xtAVS6EGp5 we'll just count this as one.
p1067
aV@JesseWAVYTV Oh, I was going to leave it there, but since you asked...
p1068
aV@JesseWAVYTV Jesse, you know I can't stand Bettman either, however, off the top of the dome I can come up with at least 5 worse things.
p1069
aVRT @RussoHockey: When's AP's debut?
p1070
aVRT @ParkerHageman: Diggs doin the Elaine "GET OUT". \u000a\u000aBig Seinfeld fan. https://t.co/JvmoYNfCKQ
p1071
aV@AnthonyLaPanta What is your motive for calling protesters clowns?
p1072
aV@torydyck @AndyCarlsonShow I'm not fancy like Joe, here.
p1073
aV@torydyck @AndyCarlsonShow And I'm good with just water, thanks.
p1074
aV@torydyck @AndyCarlsonShow Egg white omelette, side of dry toast. Hold the cheese.
p1075
aV@schnellharrison https://t.co/B73d7x1Upy
p1076
aV@davelozo STOP WATCHING, LOZO.
p1077
aVRT @NatsSquid: sometimes twitter is really good https://t.co/sWzoEIDcEG
p1078
aVRT @SenFranken: All Americans\u2014including those in rural, tribal, and low income communities\u2014should be able to access reliable and affordable\u2026
p1079
aVRT @CawlidgeHawkeyI: Q&amp;A with Bemidji State goalie and 2017 Hobey Baker Finalist Michael Bitzer: https://t.co/xv2YU1axga https://t.co/bldYf\u2026
p1080
aVRT @joelrusher: as Army vet I support #ColinKaepernick &amp; all PoC's fighting for justice &amp; equality. We chose to fight, they're forced to #B\u2026
p1081
aVRT @st_vincent: I want to wish a very happy Labor Day to the capitalist overlords who depend on worker exploitation to grow their already e\u2026
p1082
aV@torydyck @TimDonahueZ That's justified. If you tell me Janice over Ma, I get it. However, I will point out that Ma created Janice.
p1083
aV@torydyck @TimDonahueZ I don't understand people that hate AJ more than her.
p1084
aVRT @ambiej: An excellent crew of all-black all-women stylists fixed hair and spirits at the NRG shelter in Houston yesterday:  https://t.co\u2026
p1085
aVRT @ComfortablySmug: VIDEO: George HW Bush and Ronald Reagan in 1980 debate fighting over who would be more compassionate to children of un\u2026
p1086
aV@TimDonahueZ Tony Soprano's mother.
p1087
aVRT @davidaxelrod: I can't say enough about Chicago's @chancetherapper, a brilliant young artist &amp; even better person. Just donated $2.2 m t\u2026
p1088
aVRT @chancetherapper: Chance the Rapper - SocialWorks Summit Vol. 1 https://t.co/4hBt8OumRN
p1089
aVRT @NatashaBertrand: Woah. \U0001f525 from @SenJohnMcCain: "Congress must govern with a pres who is often poorly informed...and can be impulsive...W\u2026
p1090
aV@BuchbergerJm always remember: book is book.
p1091
aV@JesseThorn Diedra and Laney rob a train.
p1092
aV@schnellharrison https://t.co/W84UFUFrhO
p1093
aV@PaulCharchian my wife just completed a draft in a 14 team snake redraft league for the first time. How'd she do? https://t.co/BSlAfEeNPN
p1094
aVRT @SotaStickCo: RT &amp; follow @ShineALigh7 and @SotaStickCo for a chance to win a Northern Enforcer tee + hat. We will donate $1 for every R\u2026
p1095
aV@BuchbergerJm As a wise show runner once said "There is no 'real America.'"
p1096
aV@cameronesposito Rarely.
p1097
aV@FDLWARBIRDS https://t.co/DXtw7Faois
p1098
aV@torydyck @BDandG963 Uhh...
p1099
aVRT @ericbodamer: Stick tap to the @mnwild for a great idea!  #OurIce https://t.co/NWadAgOW0Z
p1100
aV@davelozo Wait... It's been Hinson the whole time?
p1101
aVRT @TonyGranato: #BadgerAlumOfTheDay: Mike Cowan, \u201966-69, 90GP, 22g, 41a, 63pts, Superior, WI, hockey book author https://t.co/THsehfkqNi
p1102
aV@myregularface @schnellharrison
p1103
aV@schnellharrison https://t.co/Wls1rzSool
p1104
aVRT @JasonKander: This kid is an instant legend. Wow. https://t.co/wzUOcXRtyy
p1105
aVRT @BeauWillimon: 1. N. Carolina friends, the ONLY hearings for constituents to be heard regarding SCOTUS ruling to redraw NC voting distri\u2026
p1106
aV@schnellharrison https://t.co/AMZY3V6REg
p1107
aVRT @ParkerHageman: In my next life I want to come back as someone who can jack a monster blast to the third deck while a giant image of me\u2026
p1108
aV@JesseWAVYTV @ODUCoachWilder @ODUFootball HIT HIM LOW!
p1109
aVRT @yashar: Robert E. Lee discouraged monuments. They \u2018keep open the sores of war,\u2019 he wrote. https://t.co/Wd0AviJeIx
p1110
aV@craigcalcaterra 6pack of kayaks, please.
p1111
aVRT @RockTheVote: Amen\U0001f447\U0001f3fd\u000aBtw you should update your registration here: https://t.co/pyuHIN3ElV https://t.co/HYi92AJYZT
p1112
aVRT @riotwomennn: Trying some comedy. Tuba player ridicules KKK with a  trolling serenade of slow, lumbering cartoon music then onto Ride of\u2026
p1113
aV@CoreyStewartVA Wait... NOTHING worse? Your priorities are very out of whack.
p1114
aVRT @SteveKerr: If you have 20 minutes today, watch this and be inspired.  THIS is leadership.....https://t.co/Db6E1fc1q2
p1115
aV@DonteStallworth @CoreyStewartVA He's no Minnesotan. He's a lost little boy.
p1116
aVRT @sarahwhelmed: THERE ARE NO MONUMENTS TO HITLER IN GERMANY, EVEN THOUGH THAT'S PART OF THEIR HISTORY. THERE ARE MEMORIALS FOR VICTIMS. T\u2026
p1117
aVRT @jaketapper: God bless the family and the memory of Johnny Cash https://t.co/y2pfGXZleJ
p1118
aV@BuchbergerJm @ACLU I want to be a Friend of the Pod real bad, but, money.
p1119
aV@SotaStickCo Like, maybe, a purple mug with gold SKOL artwork? I'm not going to tell you how to do your job but I k\u2026 https://t.co/EYYcapGMom
p1120
aV@SotaStickCo Nice, just trying to gear up for football season. It would be great to have a SkoL mug.
p1121
aV@SotaStickCo any chance you guys are going to start making pint glasses or coffee cups?
p1122
aVRT @AaronGleeman: "We can't stoop to the Nazis' level. We have to remain respectful."\u000a\u000aOh, word? You figure we killed 'em with kindness the\u2026
p1123
aV@JesseWAVYTV @RachelDePompa @BirchSalonRVA I agree with Jesse. Great recommendation.
p1124
aVRT @neiltyson: Odd. No one is in denial of America\u2019s Aug 21 total solar eclipse. Like Climate Change, methods &amp; tools of science predict it.
p1125
aVRT @cameronesposito: Wanted to tell u what having a show on Seeso allowed us to do. I am so proud of #TakeMyWife. https://t.co/UatqOyrPY7
p1126
aVRT @IPCBemidjiState: Join us for Eurospring this year!  See a new video showing all the fun you can have with us in England this spring! ht\u2026
p1127
aV@IPCBemidjiState Top of the Eiffel Tower Eurospring '08 https://t.co/Nd3pQGhICB
p1128
aVRT @nowthisnews: \u2018I\u2019m really happy to be a part of a generation that doesn\u2019t measure the patriotism of a politician by their eagerness to s\u2026
p1129
aV@davelozo https://t.co/oUzsyPcOKX
p1130
aV@chancetherapper #FundCPS
p1131
aV@chancetherapper Funding needed now, but, CPS should be broken into smaller, more manageable school districts that\u2026 https://t.co/GDocUKYP5x
p1132
aV@schnellharrison https://t.co/K1QiJn8UYk
p1133
aVRT @grogg: Assuming Trout gets his 1,000th hit today, on his 26th birthday, he'll be on pace to get 2,000 hits by age 52. Truly incredible.
p1134
aV@schnellharrison https://t.co/l1q6lTk4U9
p1135
aVRT @DanHirsch: Mike Trout turns 26 today. If he keeps up this pace, he'll be 30 in four years
p1136
aV@schnellharrison https://t.co/sQ0ck8ltuN
p1137
aV@torydyck @ErikPHage @JordanDyck3 https://t.co/SUzQhe31lU
p1138
aV@FDLWARBIRDS I can think of a D that you could use in this way. https://t.co/FWjlcKrExH
p1139
aV@DavidYankovich He so disingenuous. There's no way he actually believes the words he's saying. He's playing a chara\u2026 https://t.co/ojNFptfiMp
p1140
aV@schnellharrison https://t.co/XchruyLwXo
p1141
aV@AaronGleeman But not if you count the rumor time.
p1142
aV@RepBobbyRush Thank you, the woman that answered the phone was wonderful and helpful.
p1143
aV@schnellharrison https://t.co/m2vawXQRwH
p1144
aV@RepBobbyRush Rep. Rush, I'm new to your district and cannot make it to this event on Thursday. Please advise me on\u2026 https://t.co/6PKuLPRqyZ
p1145
aV@CarverJohnny Leroy Hoard, Brad Radke, Randy Moss, Jaromir Jagr, Shannon Stewart
p1146
aV@LaVelleNeal We all know that @Jordan_Morris is the true Boy Detective.
p1147
aV@thrylos98  https://t.co/MB7iHewkff
p1148
aV@Russostrib @tbtduluth 4) "I was just heading to get some coffee." 5) profit.
p1149
aV@Russostrib @tbtduluth 3) "Sorry, I'm weird. I always listen to TBT while watching the Panthers and thinking about old Islanders teams."
p1150
aV@Russostrib (Scribbles down note) step 1) randomly bump into Russo. 2) Use @tbtduluth song title in apology.
p1151
aVRT @bubbaprog: BAH GAWD THAT'S STEVE AUSTIN'S MUSIC https://t.co/vfTwNAC9F3
p1152
aVRT @BemidjiState: #BemidjiState alum Tessa Haagenson was recognized as one of NWF EcoLeader's Top 50 Inspirations! https://t.co/iR9ESeKc3m\u2026
p1153
aV@goldengateblond @schnellharrison
p1154
aV@hodgman @hodgman if you can, I have a Joe Sacic away jersey that might make it's way home with you. https://t.co/PbxtAkkFGS
p1155
aV@hodgman The Mountain Goats are in CHI on Nov. 17th. Any chance you could do an afternoon in CHI too so we could have a doubleheader?
p1156
aVRT @teddyb_h2o: The Miami they forget to mention. The other side of the bridge. Not South Beach. To the city that made me, thank you. See y\u2026
p1157
aV@JesseWAVYTV @oh_hey_tori Jesse, don't let her set the hook.
p1158
aV@FDLWARBIRDS https://t.co/dr2pFbsMdV
p1159
aVRT @JamieRussell18: Middle son improving #getbettereveryday https://t.co/AsmnHuZL4T
p1160
aVRT @danpfeiffer: Now try to imagine Trump having an answer to any question as thoughtful, knowledgeable, and truthful as this one from Obam\u2026
p1161
aV@schnellharrison https://t.co/rUcKrvU7RZ
p1162
aV@schnellharrison https://t.co/taiAf4T1x7
p1163
aV@glenperkins @bracehemmelgarn Correct answer, Glen. That's why our FF trophy is named after him.
p1164
aV@GenChuckYeager @JesseThorn can you please get this man on @Bullseye ?
p1165
aV@midnight it would also be pretty amazing if you could get @larrywilmore @StephenAtHome and @jordanklepper
p1166
aV@midnight but if you could get @TheRock it would be a nice wish fulfillment moment.
p1167
aV@midnight @guybranum @steveagee , @Jordan_Morris , @marcmaron , @ginayashere , @RonFunches ,@DougBenson
p1168
aV@AaronGleeman Let's get at least one of those last two up now. I'd like both, one starting, one in the pen.
p1169
aVRT @yashar: Reminder: When Sen McCain was running against Sen Obama he repeatedly defended his honor and shut down conspiracy theories. As\u2026
p1170
aV@schnellharrison https://t.co/LTxqltAFEq
p1171
aV@PWIH Congrats! That's a long way from Waunakee!
p1172
aVRT @LiveTheDreamWHL: Younger sister's college hockey bio pokes fun at Crosby https://t.co/olea6jEx2j https://t.co/mY44OMwkRZ
p1173
aVRT @Reebok: In case you were wondering when it IS appropriate to say, "You're in such good shape...beautiful,"... THIS: https://t.co/Z1cnnR\u2026
p1174
aVRT @craigcalcaterra: John Henry is worth nearly $3B. The Sox would sell for that much. But sure, the guy with the 10-year career window has\u2026
p1175
aV@DownGoesBrown @Mackletrain Pavel or Valeri?
p1176
aV@TwinsGeek Didn't like how Ali/Clay treated Liston either?
p1177
aV@JesseThorn does Behind the Groove have a twitter handle yet? I can't get enough of Betty Davis right now and the people should know why.
p1178
aV@jesseraub @putthison Fake news. In Minnesota it's tennis shoes.
p1179
aV@torydyck I make sure I read everything on the menu out loud slowly then ask questions about every Spanish word. I\u2026 https://t.co/GBWpRxOvxX
p1180
aV@FDLWARBIRDS see, it's not going to be the reason my heart explodes. https://t.co/xo4fCkrzbs
p1181
aVRT @Twins: RT to wish @SanoMiguel good luck in the Home Run Derby AND for a chance to win this signed HRD hat San wore in his photo shoot.\u2026
p1182
aVRT @evanmcmurry: .@ironstache to @nawazistan: "I'm willing to do Paul Ryan's job...While he's running from people, I'm running for people."\u2026
p1183
aV@chrislhayes @GovHowardDean Please just say lies. Falsehood makes it sound like stretching the truth.
p1184
aVRT @cjzer0: Combined view of Byron Buxton scoring from first on a single, iso cam and broadcast view https://t.co/8uWEaXWJ3h
p1185
aV@CathyMyersWI @DavidYankovich @IronStache please keep your primary civil. PLEASE.
p1186
aV#donate https://t.co/djSGZrqCY5
p1187
aV@RandBall @alex_prewitt There were a lot of dogs, not many kids, named after Kirby.
p1188
aVRT @knashty2: Short but sweet article on the power of the 5 C's: "...having your athlete work for themselves." https://t.co/jlzpYu6ecP
p1189
aV@RepBobbyRush Rep. Rush, if voting suppression is being proposed, why isn't the pushback making voting Day a national holiday?
p1190
aV@AaronGleeman @SethTweets @TwinsGeek @ParkerHageman @NickNelsonMN https://t.co/XaOlbDtktv
p1191
aV@jasoninthehouse you have absolutely no self awareness, don't you?
p1192
aV@JesseWAVYTV  https://t.co/eQ2gjcfapX
p1193
aV@JesseWAVYTV  https://t.co/nhTau4byZI
p1194
aV@JesseWAVYTV  https://t.co/dyC0rpmhpe
p1195
aV@wyshynski @PuckSoupPodcast Does he like Sara Lee? Brand new socks? Ketchup? The NWHL?
p1196
aV@wyshynski @PuckSoupPodcast Does he like non work related travel?
p1197
aV@wyshynski @PuckSoupPodcast That feeling when your hot and take a drink of cold water that you can feel going down?
p1198
aV@joelrusher Remember, it's Canada. Don't forget #LeSigh
p1199
aV@schnellharrison https://t.co/HJhGTuFL8B
p1200
aV@schnellharrison Avoid the curbs!
p1201
aV@schnellharrison Go get 'em!
p1202
aV@tylerhvyindstry @rumpfshaker Many items in that proposal that I like. There are a couple that don't seem to take c\u2026 https://t.co/aS681T7nAW
p1203
aV@james_IA76 @rumpfshaker Thoughtful comments about the veracity of my statement are thoughtfully considered. Reduct\u2026 https://t.co/rSY2YTIgfB
p1204
aV@StephenWSides @rumpfshaker You know what, you're right. I never thought of it that way. Changes my mind completely.
p1205
aV@rumpfshaker People take care of repairs to both that don't meet deductibles and don't report it so their rates don\u2026 https://t.co/GV8bJm1JjS
p1206
aV@rumpfshaker If you're in a rural or smaller area with limited mobility, you can't shop. Home repairs and car repai\u2026 https://t.co/hSjAlNDyQa
p1207
aV@rumpfshaker One cannot shop around in an emergency. Many hosptals have network coverage that equates to a monopoly over an area
p1208
aV@rumpfshaker Your argument here does not take into account that market forces do not apply to healthcare.
p1209
aVRT @BSUBeaversMHKY: Best of luck to one of our own @Tedbelisle, former BSU Captain &amp; Assistant Coach, now Amateur Scout w/ @LAKings in his\u2026
p1210
aVRT @WCHA_MHockey: Top Shelf Moment #3 from the 2016-17 #WCHA season: @BSUBeaversMHKY Hoists the MacNaughton Cup https://t.co/4uMRBgD1Na #We\u2026
p1211
aVRT @nowthisnews: This woman's daughter with cancer would lose her insurance under Trumpcare \u2013 and she just confronted her senator over it h\u2026
p1212
aVRT @KUBremner: Prepositions are not optional, folks. (h/t @LukeMorris) https://t.co/JD0oLvxb8R
p1213
aVRT @JesseThorn: My top priority is family. Specifically, finding the right pictures of the Mothership to get my five year old into P-Funk.
p1214
aVRT @fergnerduson: A twitter play in two acts https://t.co/VPuwnU6t6I
p1215
aV@JesseThorn Even when he's riding a motorcycle with Ragnar. https://t.co/USSuClgMtr
p1216
aVRT @Broethius: this. she was a kind woman in an unkind business that was macho and rough on women. Rest of poem on website. https://t.co/P6\u2026
p1217
aVRT @BSUBeaversMHKY: Beaver Hockey lost a great man in Herb Doran. He &amp; Lynn mean so much to our players/program. He'll be greatly missed ht\u2026
p1218
aVRT @RonWyden: Here's the side-by-side of the debate process for the ACA &amp; for #Trumpcare. Notice the difference? https://t.co/y5FCfS3rbX
p1219
aVRT @PKSF1: Loic is game day ready - are you?! LET'S GO PREDS!! #Game6 #StanleyCupFinals #PKSF #StandWithUs #PKApproved @HopitalChildren htt\u2026
p1220
aVRT @jonfavs: GOP is gutting people's health care with no public hearings or debate. \u000a\u000aDemocrats should halt all Senate business until they\u2026
p1221
aV@RheaButcher is my style hero.
p1222
aVRT @jackhitts: ICYMI (I did, because I'm a Colbert guy), here's Jimmy Fallon making fun of former @BSUBeaversMHKY star Brad Hunt: https://t\u2026
p1223
aVRT @SenateDems: "Will there be a hearing on the health care proposal?" Senator @clairecmc asked today in the Finance Cmte. You should watch\u2026
p1224
aVRT @ParkerHageman: IT IS A DAMN SHAME THAT PAT NESHEK IS FORCED TO PITCH IN PHILADELPHIA WE SHOULD FREE HIM AND BRING HIM BACK TO MINNESOTA\u2026
p1225
aV@JesseWAVYTV @NHLonNBCSports @carrieunderwood @OfficialGretzky Two brains total makes this a duo. https://t.co/Q6WO6dwwxt
p1226
aV@NHLonNBCSports @carrieunderwood @OfficialGretzky @JesseWAVYTV didn't you do his once and it almost ended our friendship?
p1227
aV@PaulCharchian Meh
p1228
aVRT @AaronGleeman: I remember being in my dorm room, watching LeBron's high school game on ESPN. Now he's in his eighth Finals and I ate a c\u2026
p1229
aVRT @JesseThorn: I speak on behalf of Bill Maher and all our fellow not-racist whites. Let us know! Should we use the n word? We're not raci\u2026
p1230
aV@jonlovett @crookedmedia I wish the segment "Ok, Stop" was a podcast in and of itself.
p1231
aV@torydyck , I think I found Aaron's retirement plan. https://t.co/CBosbpplXV
p1232
aV@FDLWARBIRDS https://t.co/keILgMsfg4
p1233
aVRT @AlexSteffen: Most Americans\u2014in every single state\u2014want us to stay a part of the Paris Agreement.\u000a\u000aHuge majorities in some states.\u000ahttps\u2026
p1234
aVRT @jmartNYT: Astonished this hasn't gotten more attention: would be like Rahm in '09 making case for right to work laws \u000a\u000ahttps://t.co/FKS\u2026
p1235
aVRT @PeteBlackburn: When your best friend returns from a long trip and you greet them at the airport https://t.co/hFIiAxUAFl
p1236
aV@CoreyStewartVA @SusanPlattVA Why do you want confederate memorials to remain? Serious question.
p1237
aV@NHL @CHLHockey Could they have found a worse picture of him? Looks like this is his first game of the beginners men's league.
p1238
aVRT @SenatorDurbin: Those struggling to make their student loan payments shouldn't be trapped without options for relief from their crushing\u2026
p1239
aV@1DanMyers Wow, that's really too bad. https://t.co/aOuCW9XxZm
p1240
aVRT @davidaxelrod: Mayor Mitch Landrieu of NO is a powerful voice, well worth hearing-and watching.  https://t.co/fn2dJawTDQ NYTimes:
p1241
aVRT @YareYareZawa: I'm gonna be thinking about this for months https://t.co/eyKkBFpmFd
p1242
aVRT @jbouie: This may rank with LBJ's Howard commencement as 1 of the most honest speeches on race given by a white Southern pol. https://t.\u2026
p1243
aVRT @davidaxelrod: If this @POTUS could actually broker a 2-state solution, it would be huge achievement. No one, regardless of party, shoul\u2026
p1244
aVRT @VanityFair: .@Nick_Offerman shares his advice for surviving 2017 in a new series for Vanity Fair, "Common Sense." https://t.co/sDpAXPcB\u2026
p1245
aV@BuchbergerJm You're welcome.
p1246
aV@BuchbergerJm No.
p1247
aVRT @dyllyp: Young man had just made a commitment to serve his country. He still can if you tell his story and say his name. https://t.co/NP\u2026
p1248
aVRT @AaronGleeman: My level of Minnesotan: Had worst-ever Uber experience. Annoying driver, dropped off three blocks from correct place. Sti\u2026
p1249
aV@hannah_prell @MeganPrellwitz There aren't even puck marks on those. Why don't you block shots?
p1250
aV@davelozo @SeanFitz_Gerald  https://t.co/KoDXL97kX1
p1251
aV@Mr_JDeli happy National Listen to Mr. Deli Day!
p1252
aVRT @Alyssa_Milano: At 3 a.m., NC Senate GOP strips education funding from Democrats\u2019 districts https://t.co/w57gwd3YuT
p1253
aVRT @pgammo: Rightfully so. https://t.co/Q0pFIicF62
p1254
aVRT @NHL: This happened and it's amazing. #StanleyCup https://t.co/wKqHcougWS
p1255
aVRT @SortaBad: Everything is awful this week so please enjoy this short video I saw today of duckings base-jumping https://t.co/TadxrwLm9B
p1256
aV@SarahThyre @RheaButcher His secretary said he was out of the office. Left a message with my phone number, should I hold my breath?
p1257
aV@jonlovett why don't we talk about how jobs are really created by demand for products and services and not by rich people in a tower?
p1258
aVRT @ISD196schools: Congrats to Eastview High for being ranked in the top 3% in the U.S. and as a top 10 comprehensive high school in Minn.#\u2026
p1259
aVRT @craigcalcaterra: Bees must be statheads, because they hate bunting. https://t.co/h5D3RzQ5vP
p1260
aV@NCAAIceHockey @EdmontonOilers Go Beavers! @BemidjiState
p1261
aV@RandBallsStu It's disappointing. It seemed like @wobby was more thoughtful than this. I feel bad for him.
p1262
aV@JesseWAVYTV Was his staff on the ballot?
p1263
aVRT @joshtpm: Our Pictorial Coverage fo the Trumpcare Celebration, Annotated with # of people Who Lose Coverage in Each District  https://t.\u2026
p1264
aV@JesseWAVYTV https://t.co/oDeztOX0Pj
p1265
aV@jonfavs pistachio.
p1266
aV@BemidjiState #BeaverGrads
p1267
aVRT @RachaelGrimes: Can we just replace Milbury with @bryzgoalie30 already? I would LOVE intermissions so much more with Bryz.
p1268
aV@1DanMyers @jackhitts #MaverickTroll
p1269
aVRT @TheMattWilstein: The most personal, moving and convincing case yet for keeping Obamacare, from @jimmykimmel: https://t.co/KRicN9LoqS ht\u2026
p1270
aVRT @TheMightyResist: @bryzgoalie30 so I have a quote of yours tattooed on my though.  Thanks for the inspiration. https://t.co/tNiYb21TxX
p1271
aV@DiscordianStooj @DanaWessel Wambeim is a reach at this spot. I would have grabbed @torydyck
p1272
aVRT @davelozo: Why is it not a delay of game penalty when you get caught sneaking on dudes after an icing?
p1273
aV@1DanMyers @Russostrib The power lies with 'Cato. Always been a Backes dog.
p1274
aVRT @davelozo: A lot of people are calling this a great slide but I thought it was over the top https://t.co/4omtd1zVrN
p1275
aVRT @AaronGleeman: If you're mad when Joe Mauer is in the starting lineup and you're mad when Joe Mauer is on the bench, that probably just\u2026
p1276
aVRT @AlexSteffen: Refresher course: https://t.co/BD23UCFupU
p1277
aV@PuckNerdHockey @davelozo Cherry has only ever been incoherent. Check your facts.
p1278
aV@davelozo Cherry has only ever used real blood on his suits. Check your facts.
p1279
aV@JesseThorn @torydyck always remember this.
p1280
aVRT @alisongriswold: Sine game \U0001f4af https://t.co/S81UrJpY24
p1281
aV@JesseWAVYTV Milbury is the absolute worst. He's been bad at every hockey job he's ever had. I'm not sure how he fe\u2026 https://t.co/JDdc49Ovy4
p1282
aVRT @GK_Coach8: Fitting. https://t.co/9tGDXHH0Xf
p1283
aV@GleemanAndGeek @KyatchiMpls @citypages This makes a lot of sense to me.
p1284
aVAs a member of the people, I agree. https://t.co/VDr9GR5LuI
p1285
aVI just voted for #BloomingtonMN in the #hockeyvilleusa #contest, you should too! https://t.co/obyx599c9H
p1286
aV@JesseWAVYTV @brookeschrider No words. None. I have nothing to say here.
p1287
aV@torydyck  https://t.co/WlW3aQ1VcZ
p1288
aV@JesseThorn Branum?
p1289
aVRT @FullFrontalSamB: Georgia! Don\u2019t forget tomorrow\u2019s special election. It\u2019s either take one hour and vote or go to a town hall every week\u2026
p1290
aVRT @ckone47: https://t.co/MdVb6svULI
p1291
aVRT @wyshynski: The finalists for Kraft Hockeyville USA are Geneseo, N.Y.; Belle Vernon, PA; Bloomington, Minn.; Bloomington, Ill.
p1292
aVRT @FONZY541: It's subtle, but I think I see it https://t.co/xDpifmPoGJ
p1293
aV@torydyck What a bad pick.
p1294
aVRT @kurt_loder: #AnthonyBourdain: Not good with money: https://t.co/06kQdoI80l (via @longform)
p1295
aVRT @ckone47: It is so hard to be a minnesota sports fan. So much sadness\U0001f62d\U0001f62d\U0001f62d\U0001f62d\U0001f62d\U0001f62d
p1296
aV@jgkfan @MardyFish @edinahornets How to Troll a Minnesotan by Justin Gaard
p1297
aVRT @USCollegeHockey: BREAKING: Illinois next ACHA team to go D1? Univ.'s Master Plan includes new ice arena adjacent to football stadium: h\u2026
p1298
aVRT @BSUBeavers: Good luck to our favorite Pred, and former Beaver, Brad Hunt tonight as Nashville opens its 2017 #StanleyCup Playoff run in\u2026
p1299
aVHaula from his knees off a rebound on a delayed penalty. #lozooverlyspecificovertimechallenge
p1300
aVRT @AaronGleeman: Overtime playoff hockey is great even for non-fans because it has the "my mom said I could stay up until this is over" gr\u2026
p1301
aV@torydyck https://t.co/L2N8ZrYkib
p1302
aVRT @RheaButcher: Some goodness in the world: @KingJames made an actual school in Akron, Ohio to help kids in need. https://t.co/PEAx5LXGhu
p1303
aV@WellsFargoNews Lower your credit card rate, raise your savings rate, lower executive salaries, give raises to your\u2026 https://t.co/Ds5z3l415Y
p1304
aVRT @CoachTrudo: Strongest Athletic Trainer in the country!? Practice what you preach!#ATStrength #PullUpGame @nickipieart https://t.co/QQ3a\u2026
p1305
aVRT @PKSubban1: What a legend \U0001f602 #PKApproved https://t.co/4uk7V77sbZ
p1306
aVRT @1DanMyers: This video is awesome. https://t.co/zu7adoGIwB
p1307
aVRT @brianstelter: \U0001f447\U0001f3fc\U0001f447\U0001f3fc https://t.co/HvE7FS1kmS
p1308
aVRT @BuchbergerJm: It's true, I said the thing. https://t.co/z6niA5SPJR
p1309
aVRT @EmilyPfalzer: World Champs!! #WWC2017 \u2764\U0001f1fa\U0001f1f8 https://t.co/m5oQn7pQRw
p1310
aVRT @JHBCHockey: #BloomingtonMN is nominated for a chance at $150K and the chance to host an NHL Pre-Season Game! #hockeyvilleusa https://t.\u2026
p1311
aVRT @LiveTheDreamWHL: Sign the petition to keep @UNDwhockey women's hockey program alive. Then ... share it with everyone you know! https://\u2026
p1312
aVRT @Tedbelisle: Congratulations to Mike Bitzer on first team All-American! Tremendous season recognized by the coaches in NCAA DI hockey. h\u2026
p1313
aVRT @BemidjiState: HAPPY NATIONAL BEAVER DAY! #BemidjiState #BestDecisionEver https://t.co/v3nq358RXY
p1314
aVRT @NHLBlinn: HILARY KNIGHT!!! #2017WWC https://t.co/rIdNDVwCRY
p1315
aVRT @GK_Coach8: As the host country for @IIHFHockey Women's Worlds, why don't we have an American TV broadcast team and network producing go\u2026
p1316
aV@FDLWARBIRDS even though I'm not coaching, it's still the off season. Start lifting! https://t.co/HSAHRca3Lp
p1317
aVRT @BSUBeaversFB: Meet the Beavers\u000a\u000aGet to know Mark Webster\u000a\u000a#BeaverTerritory https://t.co/oJNCNiQKkX
p1318
aVRT @AaronGleeman: Miguel Sano shovels his own driveway.
p1319
aVRT @ByTimReynolds: Roy Williams got $925,000 in bonuses for Carolina's NCAA Tournament performance.\u000a\u000aThe players got awesome T-shirts and h\u2026
p1320
aVRT @jackhitts: Even the Predators broadcast team is in awe of the man, the myth, the legend that is former Bemidji State star Brad Hunt. ht\u2026
p1321
aVRT @mnwild: Tonight during warmups Zach Parise is wearing his dad's North Stars helmet and gloves. #mnwild https://t.co/DezgU2LPEW
p1322
aVRT @1DanMyers: This is awesome. https://t.co/MSjd67sp8G
p1323
aV@TwinsGeek thank you! https://t.co/q1YnoQlnal
p1324
aVRT @MoeninGlory: Fresh out of the gif oven. https://t.co/sTFLTUw2hT
p1325
aV@HumanRocketship @wyshynski @PuckSoupPodcast @DaniRylan would make a great guest.
p1326
aVRT @gopherstate: North Dakota spent more time trying to keep its nickname than women's hockey. Nothing "hockey school" at all.
p1327
aV@SpeakerRyan https://t.co/LO4qyiQr23
p1328
aV@nels_dokken Couldn't agree with you more, Mr. Dokken.
p1329
aVRT @nels_dokken: When training girls, hold them to the same expectations and standards as boys. They can/will be equally amazing. Girl Powe\u2026
p1330
aV@TwinsGeek in the Cities for the weekend and I want to go to the sushi joint you guys love but I forgot the name. Help please?
p1331
aV@GregProops https://t.co/jWWcRayVf7
p1332
aVRT @TwinsGeek: I've watched this at least 20 times. https://t.co/8EpMRXkYPU
p1333
aVRT @nxthompson: There's no way the House would vote to gut Internet privacy tomorrow if people knew what was happening. https://t.co/v4J4yu\u2026
p1334
aVRT @billyeichner: GEORGIA! Early voting starts today in GA 6th! Let the GOP Congress &amp; Trump know how u feel! Vote for Jon Ossoff! #FlipThe\u2026
p1335
aVRT @bball_tips23: I'd rather lose than to watch some kids play the way they play. - Coach Geno Auriemma #character #enthusiasm #Recruiting\u2026
p1336
aVRT @bball_tips23: "You can't nap your way to being a good shooter,".. stop FaceTiming, stop Tweeting and get your butt in the gym." \U0001f64c  http\u2026
p1337
aVRT @thecoachtube: Watch what happens when a kid asks the best question in the post game press conference to Coach Frank Martin. #BestQuesti\u2026
p1338
aVRT @bball_tips23: We are all inherently good teammates... #MoreRealTalk https://t.co/esN98Z8bnJ
p1339
aVRT @MargotMiller19: You have no pulse if you don't smile watching this https://t.co/FblGIqQZbe
p1340
aV@JesseThorn @Jordan_Morris No doubt about that. It's like adding Rick Aguilera to an already great pitching staff.
p1341
aV@JesseThorn Any chance @Jordan_Morris joins you?
p1342
aVRT @hodgman: MUST https://t.co/oB8Sll2vXt
p1343
aVRT @BeaverBsu: Check out the FOTW and QOTW! https://t.co/E48VKNxsNG
p1344
aVRT @shannonrwatts: I'll say it louder for the people in the back. Sean Spicer meant...\u000a\u000aGolfing while white: strategic\u000aGolfing while black:\u2026
p1345
aVRT @dkurtenbach: You messed up https://t.co/xu6ZRvlbKe
p1346
aVRT @GK_Coach8: Great article. Imagine the possibilities. https://t.co/G2MGvTCPGn
p1347
aV@torydyck I think you hit the nail on the head. He sees the chanting crowds as affirmation that he's "great".
p1348
aV@1DanMyers This is a great take
p1349
aVRT @CoachJWPH: Wow. Been shared a bunch but Geno nails it https://t.co/3Lw5OW1vFG
p1350
aV@pgammo @ParkerHageman
p1351
aVRT @PitchingNinja: Pitching, Mental Game, Advice to Young Pitchers (Separating Yourself From the Pack/Getting Most From Every Rep). Randy J\u2026
p1352
aVRT @mduggan10: To our loyal fans. #BeBoldForChange https://t.co/Dh0oFtsZqG
p1353
aVRT @Buccigross: Watch this if you haven't https://t.co/FFFqbYf4mn
p1354
aV@BuchbergerJm Also, it's the plight of the Buchberger.
p1355
aVRT @WCHA_MHockey: Congrats to @BSUBeaversMHKY's Michael Bitzer - a top-10 finalist (1 of 2 goalies) for 2017 @HobeyBakerAward! #WeAreWCHA #\u2026
p1356
aVRT @Buccigross: U.S. women to sit out World Championship over wage dispute https://t.co/ksceTw9weE via @USATODAY
p1357
aVRT @Buccigross: I completely support the USA Hockey women boycotting World Championships over wages. They deserve better &amp; not just because\u2026
p1358
aVRT @knashty2: Last #skilldrilltuesday of the season! Hope these drills have helped players/coaches and have been an inspiration for new one\u2026
p1359
aVRT @LetsPlay_Hockey: The 2017 Minnesota State High School All Hockey Hair Team \u000a https://t.co/CHHpXdUOSa
p1360
aVRT @myregularface: Gaudreau celebrates Dustin Brown's goal https://t.co/2sACvq9UIu
p1361
aVRT @2112hockey: Minnesota High School Hockey Championships had a box office gross of 3.8 million USD.  Does not include concessions and adv\u2026
p1362
aVRT @davelozo: me: a team should be free to manage its roster however it wants\u000aalso me: the spurs and warriors resting everyone is the crime\u2026
p1363
aV@torydyck https://t.co/yPnMGLXXJR
p1364
aV@ErikPHage https://t.co/QX3oBmSmPC
p1365
aVRT @MSHSLjohn: Tonight's Timberwolves crowd at Target Center: 20,412 (a record)\u000a\u000aTonight's 2A hockey semifinals at Xcel Energy Center: 21,4\u2026
p1366
aVRT @FDLWARBIRDS: The Warbirds with their Eastern Shores Championship plague at Tuesday's Banquet. They finished the season with a impressiv\u2026
p1367
aVRT @CCskaret: Highest attendance in an NHL arena tonight was recorded by a MN State High School Hockey Tournament Quarterfinal. Let that si\u2026
p1368
aVFor some reason I think @davelozo is mad about this. Don't know why. https://t.co/bn3PNrZXun
p1369
aVRT @CoachJarnot: Preach! \U0001f64f\U0001f64f\U0001f64c\U0001f64c https://t.co/MBUmSCdyS9
p1370
aVRT @ReignOfApril: Philando Castile was shot in cold blood in front of a child &amp; his GF for a broken taillight. He didn't get the chance to\u2026
p1371
aV@AaronGleeman @torydyck @ErikPHage Grove Painting?
p1372
aVRT @MerriamWebster: \U0001f4c8Feminism is "the belief that men &amp; women should have equal rights and opportunities." It's our #5 lookup right now. ht\u2026
p1373
aVRT @Buccigross: God bless you, Minnesota High School Hockey. God bless the hell out of you. https://t.co/TzIqXf7Ht4
p1374
aVRT @Jabs_13: Woke up this morning with pain and tightness up and down my right leg. Shouldn't be able to feel. Progress...? Pain is good. #\u2026
p1375
aVRT @jjplumer63: What makes a coach proud? 3 days after the season ended, players on the ice working on their own to get better #Vcats https\u2026
p1376
aV@PuckSoupPodcast as a @mnwild fan, I think it's great that these @StLouisBlues fans didn't let the lady die. https://t.co/eXIulbggQR
p1377
aVRT @FDLWARBIRDS: From left to right. Drew Deanovich-Honorable Mention. Kylee Dyni,Hattie Verstegan and Rebecca Binder all received 2nd Team\u2026
p1378
aVRT @NHL: WARNING: This dangle is simply DISGUSTING. https://t.co/AVaB5COUvn
p1379
aVRT @ArponBasu: Claude Julien explains Habs defensive zone adjustments without worrying one bit about openly discussing tactics. Imagine tha\u2026
p1380
aVRT @BSUBeaversMHKY: That was a great playoff run\u2026 started in Bemidji. The Beavers hope to start another at Sanford Center tonight! https://\u2026
p1381
aV@PuckSoupPodcast I'm inordinately upset by these people that are saying three. Each are parts of the whole.
p1382
aVRT @FinallySock: @PuckSoupPodcast related: people who scoop just one flavor out of a Neapolitan tub are monsters.
p1383
aV@ThePeerless @PuckSoupPodcast the fact that it's three parts made into one make it one flavor.
p1384
aVRT @BemidjiState: Bemidji Day at the Capitol marked another occasion for locals to promote key issues with members of the Senate and the Ho\u2026
p1385
aVRT @AaronGleeman: We have so much anger and hatred generated by outright lies, on all sides. I don't understand why media spreading clear l\u2026
p1386
aVRT @AaronGleeman: Go look at the replies to Sansevere's tweet. People are outraged and furious about a thing that didn't occur. His lie has\u2026
p1387
aVRT @AaronGleeman: Fake news. This has been proven false here: https://t.co/IUK1C2X52N\u000a\u000aSomething tells me you won't retract the tweet. http\u2026
p1388
aVRT @DMichalkiewicz: Congrats to Drew Deanovich on being nominated for the Molly Engstrom Award (State Top Defensive Player)! @FDLWARBIRDS #\u2026
p1389
aVRT @DMichalkiewicz: Congrats to Rebecca Binder on being nominated for the Jessie Vetter Award (State Top Goalie)! @FDLWARBIRDS #fondypride
p1390
aVRT @PresHensrud: Congratulations! Well done Coach Scanlan and @BSUBeaversWHKY! https://t.co/IHw83PUfKP
p1391
aV@davelozo @PuckSoupPodcast why does this sport exist? It's both wasteful and torturous. Also, why am addicted to this damn game?
p1392
aVRT @LiveTheDreamWHL: Uncoachable kids become unemployable adults ... https://t.co/dYHPxicV6w
p1393
aVI'm very sad tonight that I had to end my tenure as a coach for @FDLWARBIRDS hockey, though I am grateful to have had the opportunity.
p1394
aV@FDLWARBIRDS managers on point. https://t.co/qB34FNimnj
p1395
aVRT @FDLWARBIRDS: GAMEDAY! 5th ranked Warbirds will host USM in the sectional semi-final! Puck drops at 730pm in Fond du Lac! Hope to see yo\u2026
p1396
aVRT @fdlschools: The puck drops at 7:30 pm Tuesday night at the Blue Line as our @FDLWARBIRDS face University School! GO FONDY! #fondypride\u2026
p1397
aVRT @BobRbrts: Alex Wennberg might be the epitome of hockey sacrifice drawing defenders/attention to himself and then dishing, giving his te\u2026
p1398
aVRT @BobRbrts: Part two... same game... patience with puck, head up, drawing players to him, then dish to teammate with tons of space-time h\u2026
p1399
aVRT @craigcalcaterra: Commenter asking for something reasonable. Sadly, he's referring only to people stereotyping sports fans, not ethnicit\u2026
p1400
aV@twinsdaily @Twins this is a great day for baseball. https://t.co/9SwDPog4Oz
p1401
aVRT @JesseThorn: I believe in my heart I will one day be friends with Fat Joe.
p1402
aVRT @Sports_HQ: What do you do with a mistake: recognize it, admit it, learn from it, forget it. -Dean Smith
p1403
aVRT @skcreno27: Big S/O to Oshkosh West's Rebecca Binder who was named 1 of 6 finalists for Wisconsin's Miss Hockey. Binder plays for Fondy\u2026
p1404
aV@wyshynski @PuckSoupPodcast @hodgman would be great.
p1405
aVRT @AaronGleeman: February 17 and 60 degrees in Minneapolis. Gonna snow next week, so I'm wearing shorts and any self-respecting Minnesotan\u2026
p1406
aVRT @DMichalkiewicz: Good luck @FDLWARBIRDS as they host Beaver Dam to open up WIAA Tournament play at Blue Line at 5:30 pm! #fondypride
p1407
aVRT @StevensProSkate: @mnwild #46's #stride - "Loading the Legs" - Ankle flex / Knees over toe / butt down #hockey #icehockey #nhl #minnesot\u2026
p1408
aVRT @MQThockeymom: @EVHSAthletics @EVGH17 https://t.co/Tpy2V3LUgc
p1409
aVRT @LetsPlay_Hockey: This week's Officially Speaking column: How to become a better ref\u000ahttps://t.co/zfMwZyYHxo\u000a@OSpeaking https://t.co/E5o\u2026
p1410
aVRT @BemidjiState: @CoachBuchberger Posting to say \u201cnobody cares\u201d is the surest sign that somebody cares \U0001f602
p1411
aVRT @WCHA_MHockey: .@BSUBeaversMHKY - 2016-17 #WCHA MacNaughton Cup champions! (Photo credit: Doug Eagan) #WeAreWCHA #TraditionStartsHere ht\u2026
p1412
aVRT @Queener17: Congrats to the boys @BSUBeaversMHKY on the first ever MacNaughton Cup! #onceabeavalwaysabeav #keeperrollin
p1413
aVRT @BSUBeaversMHKY: ICYMI: Beavers win MacNaughton Cup!! WCHA Regular Season Champions #RollBeavs https://t.co/vlpKWIzSE1
p1414
aVRT @PaulBunyanComm: Congrats @BSUBeaversMHKY @WCHA_MHockey Regular Season   Champions! See the MacNaughton Cup tonight 4:30-6:30 at Doublet\u2026
p1415
aVRT @corey_rupp: Thanks for sharing the Cup cup with the community @BSUBeaversMHKY  good luck on the NCAA run! @Affinity_Plus https://t.co/p\u2026
p1416
aVRT @BemidjiHockey: The McNaughton Cup!  Congrats to @BSUBeaversMHKY on your @WCHA_MHockey Championship!  #Beavers https://t.co/mALPTwNP8J
p1417
aVRT @BSUBeavers: [mhky] Zach Whitecloud has been named WCHA Rookie of the Week for his play at Ala.-Huntsville, Feb. 10-11. https://t.co/7i5\u2026
p1418
aVRT @BSUBeavers: The MacNaughton Cup is on display. Visit the Green Mill/Double Tree to take a look  &amp; congratulate the players/staff. https\u2026
p1419
aV@1DanMyers I assure you that @BemidjiState, @BSUBeavers, @BSUBeaversWHKY, @BSUBeaversMHKY, @WCHA_MHockey, and @torydyck care very much.
p1420
aV@1DanMyers to what are you referring?
p1421
aVRT @BemidjiSports: Up close with the Cup: @BSUBeaversMHKY displays MacNaughton Cup for fans (VIDEO)\u000ahttps://t.co/9YwYUtkysK https://t.co/bv\u2026
p1422
aVRT @Sports_Greats: Some may have more talent but there is no excuses to be out worked. https://t.co/mOOd9AkqSt
p1423
aV@JesseThorn Very very Fun Day highlight: the conversation with Sunny D about '90s Twins, Pirates, Braves, and Cleveland Baseball
p1424
aVCouldn't have imagined a better way to end a night than a singalong with @hodgman . Sorry @theflophousepod , it was too perfect.
p1425
aVSaba at #veryveryfunday https://t.co/4zmNltXbNy
p1426
aVRT @Edzo16: WCHA Regular Season Champs. McNaughton Cup is coming to Bemidji. What a feeling. So proud of this group! #RollBeavs https://t.c\u2026
p1427
aV@JesseThorn @ThaliaHallChi line around the corner. https://t.co/l1VOAG6h5O
p1428
aV@mal17pm @ThaliaHallChi @MaxFunHQ  they're good. If you're at Dusek's before the show, try the brunch punch.
p1429
aVRT @BSUBeavers: I doubt you missed it last night, but it\u2019s worth another look. \U0001f3c6 https://t.co/0ZbCjvjzLG
p1430
aVSitting at @SpokeAndBird waiting for doors to open for #veryveryfunday
p1431
aVRT @BSUBeaversMHKY: MacNaughton Cup Champions!! @Buccigross #CawlidgeHawkey #RollBeavs #RoadWarriors https://t.co/w6838KWUer
p1432
aVRT @Tedbelisle: Good job boys! Congrats and well deserved. https://t.co/Fn3F9LAjh0
p1433
aVRT @tomhanks: From a Kindergarten class. Hanx https://t.co/VJl0uMo038
p1434
aVRT @FatimaAl_Ali: Yup took a #selfie with #ovi &amp; #zetterberg after the puck drop \U0001f3d2\U0001f60e\u000a\u000a#dreamscometrue #puckdrop\u2026 https://t.co/PN061OSrKZ
p1435
aV@pharoahemonch #youngteachers writing tests https://t.co/M895o9FiMi
p1436
aVRT @Capitals: Elite selfie game @FatimaAl_Ali #CapsWings https://t.co/huKpn1dxT9
p1437
aVRT @WiPrepHockey: Hudson girls climb to top #wiaahockey https://t.co/qKNqZ8gDzJ https://t.co/WB3tDAIjVP
p1438
aVRT @FDLWARBIRDS: With the win last night the Warbirds improve to 19-2-2 on the season. Next up #1 Hudson on Friday Night. Puck drops at 630\u2026
p1439
aVRT @FDLWARBIRDS: Friday Nights Game will be Senior Night! Come support their last regular season game as a Warbird!
p1440
aVRT @BemidjiState: #BemidjiState has been ranked as one of the nation's most affordable online degree programs in applied engineering. https\u2026
p1441
aV@JesseWAVYTV he's very upsetting.
p1442
aVRT @JonGordon11: 3 mistakes leaders make: \u000a1. They don't confront negativity.\u000a2. They stop focusing on their culture.\u000a3. They don't communi\u2026
p1443
aVRT @sam_olesonFDL: Girls Hockey: Fond du Lac co-op's Mary Skorupa, Kylee Dyni, Lauren Huettl w/ assists in win vs. Lynx; Ashley Schmidt w/\u2026
p1444
aVRT @sam_olesonFDL: Girls Hockey: Fond du Lac co-op 2, Madison Metro Lynx 1. Peyton Airaudi and Maddy Ott w/ goals for Warbirds
p1445
aVRT @nbeaumont: @sarahkendzior https://t.co/BGPsYNmYrj
p1446
aVRT @WiPH_Scores: Girls Varsity Hockey: Fond du Lac Co-Op Warbirds (2) at Madison Metro Lynx (1) - FINAL https://t.co/HW61dCDLz4
p1447
aVRT @BobRbrts: Mitch Marner team unit hockey. Rotates up to cover Dman pinch extending OZ time, then floats down zone lost in the soft spots\u2026
p1448
aVRT @Burchardt_Sci: Congratulations Warburds https://t.co/H1yBzLTnhN
p1449
aVRT @sam_olesonFDL: Girls Hockey: Fond du Lac co-op's Rebecca Binder (G) named first team All-Eastern Shores Conference https://t.co/lDY71mv\u2026
p1450
aVRT @FDLWARBIRDS: Wiaa Girls Hockey Sectional #4 https://t.co/SuenWPBHoJ
p1451
aVRT @Russostrib: #mnwild's Granlund-Koivu-Zucker line shuts 'em down and lights 'em up https://t.co/Vdk16SI7kq
p1452
aVRT @sam_olesonFDL: Girls Hockey: Fond du Lac co-op earns No. 1 seed in its WIAA sectional, will host No. 8 Beaver Dam co-op on Feb. 17 in a\u2026
p1453
aVRT @wiaawi: The girls hockey Tournament Series seeded brackets have been posted on the WIAA website. #wiaahockey @wiaawistate \u000a\u000ahttps://t.c\u2026
p1454
aVRT @DMichalkiewicz: @FDLWARBIRDS win the Eastern Shores Conference Tournament Championship defeating Appleton 3-1! #fondypride
p1455
aVRT @FDLWARBIRDS: 2016-17 Eastern Shores 1st team All Conference (Rebecca Binder, Hattie Verstegen, Kylee Dyni) https://t.co/X9fGWqVEmx
p1456
aVRT @FDLWARBIRDS: 2016-17 Eastern Shores Honorable Mention (Callie Tighe, Drew Deanovich, Morgan Brown) https://t.co/5XONcAutVK
p1457
aVRT @KFIZ1450: Another hockey championship for the Fond du Lac area tonight. Congratulations to the Fond du Lac Warbirds Girls... https://t.\u2026
p1458
aVRT @FDLWARBIRDS: 2016-17 Eastern Shores Conference Champions https://t.co/xJ1NT4RYws
p1459
aVRT @EVHSAthletics: Huge win on the road for @EVGH17 as they head into Section play next week!! Final score 4-3!! #TheReturn \u26a1\ufe0f\U0001f3d2 https://t.c\u2026
p1460
aVEastern Shores all conference honorable mentions. https://t.co/x8LQ77xtLg
p1461
aVEastern Shores 1st team all conference. https://t.co/axAJMFLrgL
p1462
aVRT @DMichalkiewicz: Good luck @FDLWARBIRDS as they compete in the Eastern Shores Conference Tournament Championship tonight! #fondypride
p1463
aVRT @FDLWARBIRDS: GAMEDAY! The Warbirds will face Appleton for the conference championship! Puck drops at 6pm in Arrowhead!
p1464
aVRT @Jason_Zucker16: #HockeyIsForEveryone https://t.co/9DW9ZajfPu
p1465
aVRT @BSUBeaverSoccer: Eastview fball and soccer coming to bemidji state!!! @Emma_Mortensen2 https://t.co/QLDQoaOOMD
p1466
aVRT @sam_olesonFDL: Girls Hockey: Tighe, Brown, Maike Zipp, Mary Skorupa w/ assists for Fond du Lac co-op; Rebecca Binder w/ 31 saves in goal
p1467
aVRT @sam_olesonFDL: Girls Hockey: Morgan Brown, Drew Deanovich, Megan Sprinkman and Callie Tighe w/ goals for Warbirds in win over USM
p1468
aVRT @sam_olesonFDL: Girls Hockey: Fond du Lac co-op 4, University School of Milwaukee co-op 0 in Eastern Shores Conference tournament semifi\u2026
p1469
aVRT @Phil_Lewis_: Barry White Jr, a 5th grade English teacher in NC, has a special handshake for each one of his students: https://t.co/Ql0Z\u2026
p1470
aVRT @WiPH_Scores: Girls Varsity Hockey: University School of Milwaukee Wildcats (0) at Fond du Lac Co-Op Warbirds (4) - FINAL https://t.co/e\u2026
p1471
aVRT @DMichalkiewicz: Final from the Blue Line Ice Center- @FDLWARBIRDS 4 USM 0 #fondypride
p1472
aVRT @FDLWARBIRDS: Warbirds advance to Saturday's conference championship. Game will be played at Arrowhead vs the winner of Bay Area/Appleto\u2026
p1473
aVAnytime I read a quote by @bryzgoalie30 the voice in my head is @wyshynski 's impression. #pucksoup
p1474
aVRT @BobRbrts: Love this play from Orlov Kuznetsov. Bank pass off end boards for grade A chance. Takes a kind of cooperation these two have\u2026
p1475
aV@JesseWAVYTV I don't believe in consequences.
p1476
aVRT @IPCBemidjiState: The Fitzgerald Triplets, Canadian students and hockey players at BSU are featured in the New York Times today. https:/\u2026
p1477
aVRT @BradFolkestad: Excited to finally see this. We\u2019ve been working on it for a while. Proud to say I played a role in getting this story ou\u2026
p1478
aVRT @BSUBeavers: The @nytimes isn\u2019t all politics this morning. Here is a feature on @BSUBeaversMHKY Fitzgerald Triplets. https://t.co/meGS9h\u2026
p1479
aVRT @Classlicity: NPR did a story on the KHL's Kunlan RedStars yesterday. An interesting read with all the NHL/Olympics noise\u000a\u000ahttps://t.co/\u2026
p1480
aVRT @PJHughes45: #BellLetsTalk Please RT for support of mental health initiatives
p1481
aVRT @JustinTrudeau: Let\u2019s talk about mental health so more people ask for help when they need it. RTs send 5 to support mental health progr\u2026
p1482
aVRT @FDLWARBIRDS: Vote for the Warbirds: voting ends in 12 hours. https://t.co/EM80ivcEmg
p1483
aVRT @TwinsAlmanac: Let's all wish a happy 46th birthday to Roseau High School &amp; @BemidjiState alumnus Kerry Taylor. Responsible for one of @\u2026
p1484
aV@ErikHansey https://t.co/JgeJADe30K
p1485
aVRT @myregularface: the mismatched size on this goal hug https://t.co/b9GZReCkuG
p1486
aVhttps://t.co/2ed0vsoz9T
p1487
aVRT @Winging_it: @Buccigross my first attempt at a backyard ice rink in London, England.\u000a#SizeDoesntMatter https://t.co/NMhipBriFo
p1488
aVRT @davelozo: "I'm drawing a Blank." - me, while drawing Falcons owner Arthur Blank
p1489
aVRT @DMichalkiewicz: Congrats @FDLWARBIRDS on their 3-2 win over USM! #fondypride
p1490
aVRT @FDLWARBIRDS: Final:  Warbirds 3  USM 2\u000aRecord improves to 16-2-2
p1491
aVRT @DMichalkiewicz: Good luck @FDLWARBIRDS as they host University School of Milwaukee tonight at the Blue Line Ice Center! #fondypride
p1492
aVRT @FDLWARBIRDS: GAMEDAY! 6th ranked Warbirds (15-2-2) take on 8th ranked USM tonight in FDL. Puck drops at 630pm! Come cheer us on!
p1493
aVRT @FDLWARBIRDS: 6th ranked Warbirds will host 8th ranked USM tomorrow in a Eastern Shores conference game. Puck will drop at 6:30 in FDL.\u2026
p1494
aVRT @fdlschools: Vote for the Fond du Lac Warbirds for Performance of the Week! #fondypride #cardinalfamily https://t.co/RckU5KHYjt
p1495
aVRT @chrisdonovan: A reminder that Barack Obama spent the night before his January 2009 inauguration honoring his defeated opponent by throw\u2026
p1496
aVRT @FDLWARBIRDS: Vote for the Warbirds: https://t.co/EM80ivcEmg
p1497
aVRT @torydyck: Gonna miss this guy. Politics aside, his character, integrity and love of this country are beyond question https://t.co/8zJ2h\u2026
p1498
aVRT @johngarcia6180: Oshkosha West #senior Rebecca Binder shines 4 @fdlcardinals girls #hockey \u000aThe moment I #PUTTHEPADSON it was for me. ht\u2026
p1499
aVRT @mnwild: \U0001f64c You made it to Friday! https://t.co/QQiqIDGeUE
p1500
aVRT @WiPH_Scores: Girls Varsity Hockey: Waupaca Co-op (2) at Fond du Lac Co-Op Warbirds (10) - FINAL https://t.co/urMU9adYVR
p1501
aVRT @sam_olesonFDL: Girls Hockey: Fond du Lac co-op 10, Waupaca co-op 2.
p1502
aVRT @DMichalkiewicz: Good luck @FDLWARBIRDS as they take on Waupaca tonight in Waupun! #fondypride
p1503
aV@JesseWAVYTV Is there a filter that makes it so I only read the tweets you want to send out but won't?
p1504
aVRT @mnscu: @BemidjiState is 1 of 2 US schools offering a degree in 3-D design and has strong industry partnerships. #54Campuses54Days #mnleg
p1505
aVRT @mnscu: @BemidjiState is located in beautiful @BemidjiMN. #54Campuses54Days #mnleg
p1506
aVRT @mnscu: @BemidjiState serves more than 7,000 students annually. #FundMinnesotaState #54Campuses54Days #mnleg
p1507
aVRT @JesseWAVYTV: Congrats to Pudge! One of my favorite catchers to watch growing up #PudgeHOF #Rangers #Cooperstown
p1508
aVRT @CoachJamie_G: Glass is half full gang #creativity https://t.co/cd7jsOm7jy
p1509
aVRT @fdlcardinals: Fond du Lac Warbirds   2   Bay Area   1 - https://t.co/Egq4NTa2rC https://t.co/PpeNG05Ymi
p1510
aVRT @WiPH_Scores: Girls Varsity Hockey: Fond du Lac Co-Op Warbirds (2) at Bay Area Ice Bears (1) - FINAL https://t.co/5hWdUo90L8
p1511
aVRT @sam_olesonFDL: Girls Hockey: Rebecca Binder w/ 33 saves in goal for Fond du Lac co-op, which hands Bay Area its first loss of the seaso\u2026
p1512
aVRT @DMichalkiewicz: @FDLWARBIRDS defeat previously undefeated and #2 ranked Bay Area 2-1 tonight. Great win Ladies! #fondypride
p1513
aVRT @sam_olesonFDL: Girls Hockey: Fond du Lac co-op 2, Bay Area 1. Hattie Verstagen 2 goals for Warbirds; Peyton Airaudi, Megan Sprinkman, C\u2026
p1514
aV@davelozo Children under nine should be the key demo in the NHL. They know that these kids don't stay under nine, right?
p1515
aVRT @sam_olesonFDL: Should be no doubt in anyone's mind that Warbirds girls hockey is a state contender: just knocked off No. 2 team in stat\u2026
p1516
aVRT @GoalieWays: The University of Denver hockey team made the trip to Kalamazoo...their sticks didn't make it. The Pioneers practiced anywa\u2026
p1517
aV@midnight  https://t.co/7K5ohTdBDr via @youtube
p1518
aVRT @bailswright: parking on the lake for class is easily one of the coolest things about @BemidjiState
p1519
aVRT @StarTribune: Man scrapes ice off windshield in most Minnesotan way possible \u2014 with hockey skate. https://t.co/tKlin3Cvou https://t.co/i\u2026
p1520
aVRT @myregularface: remembering something dumb you did 10 years ago https://t.co/kD6QFazv5L
p1521
aV@Jordan_Morris get him! https://t.co/8of9CKydVO
p1522
aVRT @JesseWAVYTV: USA USA USA!!! Parsons is a An American Hero! #TeamUSA #WJC2017 \U0001f1fa\U0001f1f8\U0001f1fa\U0001f1f8\U0001f1fa\U0001f1f8 https://t.co/IqKSeD4kNL
p1523
aVRT @myregularface: this is oddly graceful https://t.co/Q1FgdsinuG
p1524
aVRT @myregularface: and here is a gift to the world https://t.co/a4sf0tAzY1
p1525
aVRT @myregularface: for the person who requested this in reverse https://t.co/4mS2blgtcB
p1526
aVRT @DMichalkiewicz: Final from the Blue Line - @FDLWARBIRDS 15 Arrowhead 0 #fondypride
p1527
aVRT @knashty2: Here is the first #skilldrilltuesday of 2017! Thanks to @Lerno4 for adding this to the drill book! #repsonrepsonreps https://\u2026
p1528
aVRT @iihf_wjc: Latvian goalie @GustavsG31 can certainly put on a show during his warm up routine! Who's cheering for #Latvia right now?! \U0001f1f1\U0001f1fb\u2026
p1529
aV@wildxtra @SethTweets I really enjoyed the play breakdowns. I'm sorry to see you go.
p1530
aV@mnwild @J_Schroeder90 Where do I get that shirt?
p1531
aVRT @FDLWARBIRDS: Tomorrow Warbirds Games:\u000a11am vs Chippewa Falls                                  7pm vs 4th ranked Eau Claire Come cheer u\u2026
p1532
aVRT @1DanMyers: Absolutely one of the best guys in all of professional sports. Truly gets it. https://t.co/dK4wt6Otip
p1533
aVRT @FDLWARBIRDS: Our managers won the best costume award tonight at Brookfield. Final score Warbirds 7 Brookfield 1 https://t.co/9K3KtRHDd4
p1534
aVRT @NathanGerbe14: Nice to get a huge win in shootout before break, happy holidays to everyone! https://t.co/odGCjtCRhx
p1535
aVRT @ONSuperfans: Good luck to the girls hockey team as they play in Brookfield tonight!! \U0001f3d2\U0001f945\U0001f44f\U0001f3fb
p1536
aVRT @FDLWARBIRDS: GAMEDAY! The 6th ranked Warbirds head on the road for a conference game vs Brookfield. Puck drops at 730pm!
p1537
aVRT @Capitals: In partnership w/ @EtihadAirways, @MSE's Monumental Global Academies surprised Fatima to be part of Hockey Is For Everyone Mo\u2026
p1538
aVRT @DMichalkiewicz: Good luck @FDLWARBIRDS as they travel to Baraboo tonight! #fondypride
p1539
aV@BRUNEMM https://t.co/22vXoIakAa
p1540
aV@JesseWAVYTV 13 in 20 minutes. And that's with a ton of giggling in between.
p1541
aV@JesseWAVYTV Still waiting?
p1542
aV@JesseWAVYTV  https://t.co/7LX9fH72H2
p1543
aV@JesseWAVYTV  https://t.co/jYShe14X0P
p1544
aV@JesseWAVYTV  https://t.co/SOd0NJ2oAT
p1545
aV@JesseWAVYTV  https://t.co/iz5qE6aq7X
p1546
aV@JesseWAVYTV  https://t.co/dlEYJm7xJA
p1547
aV@JesseWAVYTV  https://t.co/794UEC5qnc
p1548
aV@JesseWAVYTV  https://t.co/SUWV8EbGsU
p1549
aV@JesseWAVYTV  https://t.co/jsoV9mGvRV
p1550
aV@JesseWAVYTV  https://t.co/AwDQxwt4rW
p1551
aV@JesseWAVYTV  https://t.co/JnL8PZUTTP
p1552
aV@JesseWAVYTV Hey fellas... https://t.co/39yiYJAU8F
p1553
aV@JesseWAVYTV Uh, guys... https://t.co/qkMqQu6FIY
p1554
aV@JesseWAVYTV Umm, Jesse, I think your wait might be over. https://t.co/B1i7CpCSiT
p1555
aVAfter months of listening to @PuckSoupPodcast I looked up @wyshynski on google images. We have a match, folks. The voice and face fit!
p1556
aV@AceBounce having a great time. #bouncehouse https://t.co/gZwjqeqM6Z
p1557
aVRT @Buccigross: Nice effort by Bemidji. Beavers having a good year. https://t.co/7KZzVtUq60
p1558
aVRT @Buccigross: #1 Minnesota-Duluth is home to 13-5-2 @BSUBeaversMHKY (Bemidji St) tonight. Beavers are 1st in WCHA https://t.co/NHpDmHU9NJ
p1559
aVRT @mnwild: Thanks for joining us @NatalieDarwitz \U0001f601 #mnwild https://t.co/qsEg7yOL8t
p1560
aVRT @Sports_Greats: Hard Work, you will never regret it. https://t.co/yhSaeA5YdE
p1561
aVRT @Buccigross: Love the Hawk passing.. https://t.co/KT1nMO6r7u
p1562
aV@FallonTonight building sentences with @jimmyfallon https://t.co/zgz3Q40B2K
p1563
aV@1DanMyers Grill
p1564
aV@1DanMyers I think you did that a couple hundred times in front of my parents house.
p1565
aVRT @DanaWessel: Find it interesting that the sports league with teams named Indians and Braves banned offensive costumes with rookie hazing.
p1566
aVRT @ONSuperfans: Good luck to Maddy Ott who represents ONHS on the Girls Hockey team! They play in Fondy tomorrow. \U0001f3d2
p1567
aVRT @sam_olesonFDL: Girls Hockey: Fond du Lac co-op 11, Beaver Dam/Randolph 0.
p1568
aVRT @FDLWARBIRDS: GAMEDAY! The 5th ranked Warbirds have there 1st conference game of the year tonight. They will head on the road to face Be\u2026
p1569
aVRT @FDLWARBIRDS: After losing 4-1 to current #1 Central Wisconsin the Warbirds still move up to #5 in this weeks prep rankings. Next up at\u2026
p1570
aVRT @EVHSAthletics: Outstanding message from a pro basketball coach on the real purpose of athletics. #whyweplay #purpose https://t.co/14dqP\u2026
p1571
aVRT @PulledGoalie: Hey kids. Even the NHLers do edge work. @EdmontonOilers and @mnwild on @fsnorth starting with Wild Live at 8:00CT https:/\u2026
p1572
aVRT @HockeyHallFame: From the HHOF Archives - the legendary Scotty Bowman shows off his championship ring collection. https://t.co/m78LfCkTFI
p1573
aVRT @FondyCards: Congratulations to the Warbirds who were victorious in their home opener!   Way to go girls! https://t.co/mRzZJzeENd
p1574
aVRT @DMichalkiewicz: Good luck @FDLWARBIRDS as they host Lakeshore Lightening tonight at Blue Line! #fondypride
p1575
aVRT @FDLWARBIRDS: 8th ranked Warbirds will take on Lakeshore Lightning tomorrow in Fond du Lac. Puck drops at 730pm. Come cheer us on!
p1576
aV@RheaButcher Take Your Eye Off The Puck by @wyshynski
p1577
aVRT @EdmontonOilers: You can't keep him. #EDMvsARI https://t.co/X1IRDyDnqb
p1578
aVRT @daveshumka: You wouldn't mock someone for being physically ill, so don't mock someone for being mentally ill.
p1579
aVRT @CoachJamie_G: @knashty2 I see your #skilldrillTuesday and raise you a #skilldrillThursday with more scoring in tight and crashing the n\u2026
p1580
aVRT @FdLSports: The Fond du Lac co-op girls hockey team started its season with a bang this weekend. https://t.co/a4gKadgpiE
p1581
aVRT @DMichalkiewicz: Congrats @FDLWARBIRDS as they win the Early Bird Tourney in Waupun with a record of 3-0 - out scoring their opponents 2\u2026
p1582
aVRT @MNHockeyMag: Guess which @WCHA_MHockey team is now 11-2-1 overall??? @BSUBeaversMHKY https://t.co/5WqvSAvhrJ #WCHA https://t.co/MttSnjm\u2026
p1583
aVRT @FDLWARBIRDS: GAMEDAY!  8th ranked Warbirds will host Stoughton in Waupun tonight! Puck drops at 5:30pm! Come cheer us on!
p1584
aVRT @FondyFBCoach: How much more data do we need? Athletes, go compete in multiple sports! https://t.co/bDyU62ZQY9
p1585
aVRT @WCHA_MHockey: .@BSUBeaversMHKY Tops @MavHockey In Overtime, 2-1. Nate Arentz nets game-winner at 1:37 of OT for BSU.\u000a#WCHA Recap: https\u2026
p1586
aVRT @torydyck: At least the Vikings aren't the biggest disaster in Washington right now #MINvsWAS
p1587
aVRT @LiveTheDreamWHL: Six Reasons Why You Need to Dump the Puck in More https://t.co/oPPAoxrVTL @hockeycoach14 https://t.co/DjODaAxbsc
p1588
aV@pescami you should also speak with @1DanMyers. He's one of the best Midwest minds I know. Also, a great hockey writer. #goBeavers
p1589
aV@pescami I love your show. I've lived in the Midwest almost all my life. I just don't think you get it. I would love to talk to you about it
p1590
aV@1DanMyers yeah... We all know what happened. #GoBeavers #BemidjiState
p1591
aV@1DanMyers sure, sure. That means the refs left and any points by players won't go on the stat sheet, right?
p1592
aV@1DanMyers Go Beavers #BemidjiState
p1593
aV@acornssupport I'm not acting emotionally. The market likes stability and we are now in an unstable time. I may reinvest into the dip. Maybe
p1594
aV@acorns I'm sorry. I pulled my money tonight. It sucks that this election might ruin your business.
p1595
aVRT @myregularface: giant captains, tiny captains. https://t.co/enovlwQn2c
p1596
aVRT @wiaawi: Boys &amp; Girls Hockey teams are hitting the ice today for their 1st practices of the season! Good luck to all teams! \U0001f3d2 #wiaahocke\u2026
p1597
aVRT @PAiraudi: HOCKEY SEASON STARTS MONDAY\U0001f3d2
p1598
aV@RheaButcher I'm a Vikings fan. I understand the impulse.
p1599
aVRT @mnwild: Granny with the PPG! #BUFvsMIN https://t.co/fBwuBAoQ2R
p1600
aVThat 1948 Cleveland logo was SOOOOO awful. #postseason #fox
p1601
aVI'd be pretty shocked if cowboy Joe West didn't factor into this game controversially. #postseason #FoxSports
p1602
aVRT @Hrbie14: 29 years ago was a good night. 29 years ago tomorrow night was a GREAT night\U0001f44d\U0001f3fd
p1603
aVRT @MU_Mens_Hockey: It's officially game week, as we open the season on the road this Friday night at 7pm @ SNC! #RollBlue #SabreNation #Co\u2026
p1604
aVRT @Buccigross: 1st place in the WCHA and 4-0 Bemidji St at 3-0 North Dakota tonight in Grand Forks. https://t.co/jg4IVqit71
p1605
aV@BSUBeavers https://t.co/EHDp7MZJWX
p1606
aV@JesseThorn @Jordan_Morris
p1607
aVRT @ParkerHageman: 25 years ago today...Ron Gant was clearly out. https://t.co/elRY8EXJ0a
p1608
aV@WCHA_MHockey @BSUBeaversMHKY no worries. Go Beavers!
p1609
aV@WCHA_MHockey @BSUBeavers @mtuhky @BSUBeaversMHKY @HockeyLSSU @MavHockey Isn't Bitzer a goalie?
p1610
aV@1DanMyers how long until media starts getting after Austin Mathews for not having enough passion?
p1611
aVRT @Tedbelisle: Great hire for Cedar Rapids! @Ben_K9er will do great things for Cedar Rapids. Talented young coach. https://t.co/ZgJujdoiPl
p1612
aVRT @Sports_Greats: To uncover your true potential you must first find your own limits and then you have to have the courage to blow past th\u2026
p1613
aV@torydyck sir, your time was up seven hours ago. Why are you still here?
p1614
aV@torydyck who, in your opinion, is to blame for Harrison Smith dropping that easy pick 6? You have two minutes.
p1615
aVRT @torydyck: Can someone please ask them things people actually care about, like what they think of the Vikings 5-0 start.
p1616
aVRT @Edzo16: Solid effort from our guys this weekend. Great way to start the year. Stay hungry. #RollBeavs https://t.co/0gvNZK4qgw
p1617
aV@JesseWAVYTV @TheTweetOfGod you said the same thing about the Vikings #SKOL
p1618
aVRT @WCHA_WHockey: Senior Goaltender Brittni Mowat's 31 Saves Backbone @BSUBeaversWHKY To 2-0 Win Over @GopherWHockey.\u000a#WCHA Recap: https://\u2026
p1619
aVRT @BemidjiState: Thinking about college? Apply for FREE to #BemidjiState or @NTCMN during entire month of October. Learn more today! https\u2026
p1620
aVRT @MandyLeveille29: I donut understand why people think goalies are weird. https://t.co/AXInQhWNcl
p1621
aV@torydyck Shannon Stewart plays women's hockey in Germany now?!?!?!? https://t.co/IFT8QN61v3
p1622
aVRT @elbrendano: @RandBallsStu Clearly. https://t.co/VPtIyPTqfr
p1623
aVRT @RandBallsStu: https://t.co/z9l5xCEMSM
p1624
aVRT @BSUBeavers: #BeaverTerritory has expanded again! The more the merrier. https://t.co/c0HD4TzPVM
p1625
aVRT @AaronGleeman: We're in extra innings of an elimination playoff game and the pitchers are Francisco Liriano and Brian Duensing. Being a\u2026
p1626
aVRT @LiveTheDreamWHL: Today's tip ... https://t.co/apdFeGsotU
p1627
aVRT @bessnasty35: @BSUBeaversWHKY Stella sending love and her game face as you start the new season! Good luck! Go Beavers!! https://t.co/2k\u2026
p1628
aV@JesseWAVYTV @TheTweetOfGod @DidTheSixersWin what do you know about what God hates? #caps
p1629
aVRT @NHL: Remember kids, hands take practice. #WCH2016 https://t.co/paeZAecqzn
p1630
aV@MATrueblood if you were to start a West Wing reboot, wouldn't the plot be Sam Seaborn running for president? Who would the VP be?
p1631
aV@chrisgeidner @BuzzFeedBen @csmcdaniel @BuzzFeedNews wouldn't that lead to a loophole for all personal medical decisions?
p1632
aV@JesseWAVYTV #SKOL #nextmanup
p1633
aV@JesseWAVYTV oh yeah, it was deemed successful. Next man up. #skol
p1634
aV@JesseWAVYTV @TheTweetOfGod did I miss something new?
p1635
aV@torydyck https://t.co/PXaMg00b7l
p1636
aV@HumannTouch nothing about that image seems out of place.
p1637
aVRT @BemidjiState: #BemidjiState makes @usnews list of 10 most-affordable schools for out-of-state students: https://t.co/TwoUJKK1XL https:/\u2026
p1638
aVRT @JesseWAVYTV: When you have barbershop quartet practice but have to beat the 49ers first #Panthers #NFL https://t.co/TRPX0YVaD7
p1639
aV@ParkerHageman he also flexes his wrist more on the change up.
p1640
aVRT @BemidjiState: #BemidjiState makes @usnews list of 10 most-affordable schools for out-of-state students: https://t.co/TwoUJKK1XL https:/\u2026
p1641
aV@myregularface puppeteers are amazing.
p1642
aV@myregularface this doesn't make any sense. Was this in a video game?
p1643
aV@1DanMyers #sticktohockeyDAN this is fun!
p1644
aV@ParkerHageman how many pitches per at bat is he getting?
p1645
aV@pescami @wkamaubell @danharmon @1DanMyers is the Trump campaign just a political version of The Producers?
p1646
aV@netflix @hulu @amazon one of you guys needs to pick up @larrywilmore and his @nightlyshow crew. Quickly.
p1647
aV@1DanMyers sounds like games at the Metrodome in our youth.
p1648
aVRT @BemidjiState: #BemidjiState hockey alum Joel Otto is Hockey Hall of Fame team inductee: https://t.co/KhDiDVmfsl
p1649
aV@hodgman just realized I sent that as if we were having an actual conversation. I'm listening to the Divan Judgement episode of #jjho
p1650
aV@hodgman I have a solution. Unpaid buzz marketing alert. We have this in our house. \u000ahttps://t.co/JvrJUo9tXa
p1651
aVRT @AaronGleeman: GF is now crying while watching the tape-delayed women's gymnastics that she already watched live. I only sometimes cry w\u2026
p1652
aVRT @LiveTheDreamWHL: Mental Training: 'What about negative self-talk, how do we control that?' https://t.co/hX2SDz1tIp @coachnye https://t.\u2026
p1653
aVRT @RyanLizza: @NormOrnstein I was just in Colorado
p1654
aVRT @BSUBeavers: .@BSUBeaversWHKY Steph Anderson vying for USA Hockey roster spot @ National Festival Aug. 8 https://t.co/uFa74HJFyI https:/\u2026
p1655
aVRT @ParkerHageman: This is just another way adults celebrate a home run. https://t.co/XHm1bbv2BK
p1656
aVRT @LiveTheDreamWHL: "Negative thoughts are among the biggest contributors to performance anxiety..." @coachnye https://t.co/ay3Xtm0fzH htt\u2026
p1657
aV#fifteens5k https://t.co/sUaN4Z0tNP
p1658
aV@FDLWARBIRDS  https://t.co/l8rhw32tn5
p1659
aVRT @ParkerHageman: Miguel Sano plants a kiss on the ball before firing to first for the final out. Make baseball fun AND romantic again htt\u2026
p1660
aV@TwinsGeek something something shouldn't throw stones.
p1661
aVRT @anwperkins: Anxiety doesn't discriminate... https://t.co/6XsyyOz4xa
p1662
aV@ParkerHageman sincere procedural question: how DOES it work?
p1663
aV@ParkerHageman @AaronGleeman wasn't included because they specifically didn't want a "lovable curmudgeon"
p1664
aVhttps://t.co/WSOGTm57tZ
p1665
aV@1DanMyers it's really a Mekhi vs. Michelle argument at this point. Al is out.
p1666
aV@1DanMyers well that certainly complicates things.
p1667
aV@1DanMyers come on man, Weird Al Theory of the world. That's just science.
p1668
aV@JesseWAVYTV oops, my bad. Thought that was Jamie Benn.
p1669
aV@hodgman https://t.co/H4h94Hs4Fs
p1670
aVRT @thecoachtube: #BESTSPEECHEVER West Virginia Head Coach Bill Stewart - Leave No Doubt Speech 2008 #RIPCoachStew https://t.co/kTLjWPeCnn
p1671
aV@daninicholson72 Harvard is merely the @BemidjiState of the east.
p1672
aVRT @daninicholson72: A man saw my BSU shirt at Valleyfair &amp; asked me, "Do they still call that the Harvard of the North?" &amp; I said, "Yes th\u2026
p1673
aVRT @LetsPlay_Hockey: Hockey Doc Rob LaPrade (@thekneedoc) on early-season conditioning \u000ahttps://t.co/Y41Fhk43qo https://t.co/p9CFyEoG6z
p1674
aV@PaulCharchian what do you think of Darius Jackson as the 47th pick in a dynasty league rookie draft?
p1675
aV@JesseWAVYTV  https://t.co/ucKdXXmbvX
p1676
aV@JesseThorn done. Welcome to the squad.
p1677
aVRT @thecoachtube: #RIPPatSummitt Greatest Women's Coach of all Time https://t.co/vZJN1wPerL
p1678
aVRT @LiveTheDreamWHL: "It never gets easier.  You just get better." #MondayMotivation #GetBetter https://t.co/owuid6fRNW
p1679
aVRT @FondyFBCoach: This defines our 'Win Forever' philosophy. #HAMMER https://t.co/zWRwnq6sMB
p1680
aVRT @LiveTheDreamWHL: A great article from The Player's Tribune. "Meet My Squad", by @aRigs33 @usahockey member https://t.co/G5R3oGpPpe http\u2026
p1681
aV@1DanMyers completely agree. They have/had a chance to put him in a role that would showcase his talents and create a market.
p1682
aV@MeganOMullally @Nick_Offerman Madrid Mates! https://t.co/I9DZpAupzG
p1683
aV@Nick_Offerman Mr Offerman I am currently honeymooning with my new wife in Madrid. We're going to be in Barcelona tomorrow. Any suggestions?
p1684
aVRT @usahockey: VIDEO | Go behind the scenes at the U.S. Women's National Team Off-Ice Training Camp.\u000ahttps://t.co/bi42t6GTe2
p1685
aV@AaronGleeman if Buxton ends up having a career comparable to Kenny Lofton, should Twins fans be happy or ecstatic?
p1686
aV@FDLWARBIRDS always hold onto your stick. Burns owes 10 push ups. https://t.co/Pee0iAeQPw
p1687
aV@thelnino22 during my honeymoon we will have two days to spend in Switzerland. Where should we spend them?
p1688
aVRT @Tedbelisle: Congrats to Chris! Former Beaver Captain. Was an absolute warrior for us. Will be a very good coach. https://t.co/bFBbeaStOF
p1689
aVRT @ParkerHageman: Nearly forgot to wish @Hrbie14 a happy birthday. #RonGantWasClearlyOut https://t.co/elRY8EXJ0a
p1690
aV@FDLWARBIRDS this is the offseason. How long until we're back in the hockey grind? https://t.co/UXq30AG637
p1691
aV@usahockey my @NBCSports app on my Apple TV isn't showing the game as available. How can I watch the game?
p1692
aVRT @FDLWARBIRDS: 3 Warbird finalists at the Northeast Wisconsin Sports Awards tonight!(Kendalynn,Kylee,Becca and Coach) https://t.co/YqowtS\u2026
p1693
aVRT @Twins: Don't forget to RT the tweet below \u2b07\ufe0f by 9pm CT to enter to win 2 tix + bobbleheads for #StarWars Night on 5/19!\u000a\u000ahttps://t.co/4\u2026
p1694
aVRT @WiPrepHockey: TW Girls signup to end May 5 #wiaahockey https://t.co/yWoTIHN4PH
p1695
aV@TwinsGeek how close is Chargois?
p1696
aVRT @IIHFHockey: Korea puts high hopes on new goalie @MattDalton8660, who had a great debut at Division IA. https://t.co/ertFUDYxXH https://\u2026
p1697
aV@mnwild  https://t.co/aCnqTJTPJr
p1698
aVRT @NickGriffin37: @mnwild Time to change the goal song. Let's Go Crazy by Prince should be the only thing we hear after a Wild Goal!  Make\u2026
p1699
aVRT @jimmyjohns: $1 subs at Jimmy John's from 11:00am-3:00pm on April 21st, RT to save a life. \U0001f60b #JJDollarSubDay
p1700
aVRT @Twins: And now we've got 4 tickets to TONIGHT'S game in our newest space, CATCH. Retweet to win them! https://t.co/Uyjzua6Yz3
p1701
aV@PJHughes45 now the chinstrap has to go. Worked with the long hair, looks dorky without.
p1702
aVRT @LiveTheDreamWHL: 5 Deal-Breakers For Scouts https://t.co/e45eA8CdUQ By: @tfhockey https://t.co/UmPMnyUe3E
p1703
aVRT @ParkerHageman: https://t.co/SXI9oiYNkI
p1704
aVRT @BSUBeavers: Former @BSUMHockey player &amp; @BemidjiState grad Lt. Gen. Waldhauser gets new orders from @POTUS. #ProudToB https://t.co/tv5b\u2026
p1705
aVRT @LiveTheDreamWHL: 3 Tips From 3 College Hockey Coaches https://t.co/rW9wLpPHAb by: @tfhockey https://t.co/1UMo8Wrlfh
p1706
aVRT @Proactivecoach: https://t.co/wh8Csd7g24
p1707
aVRT @LiveTheDreamWHL: We were all here at one point or another. https://t.co/ys18megfiW
p1708
aVRT @LiveTheDreamWHL: Why You Need A New Stick https://t.co/yMUreLtCo8 By: @tfhockey https://t.co/y332KmLjSB
p1709
aVRT @IIHFHockey: HIGHLIGHTS: After Gavrilova had given Russia the lead, Canada reacted with six 2nd-period goals at #WomensWorlds.\u000ahttps://t\u2026
p1710
aVRT @IIHFHockey: CZECH THIS OUT! Recently promoted Czech team beats Switzerland 3-1 at #WomensWorlds, two goals from Tereza Vanisova.\u000ahttps:\u2026
p1711
aVRT @IIHFHockey: WATCH USA's 2-1 edging of Finland. Americans, who had 51 shots on goal, needed quite some persistence and patience.\u000ahttps:/\u2026
p1712
aVRT @usahockey: The #USWNT edges Canada, 3-1, to open the 2016 IIHF Women's World Championship: https://t.co/Q49eDYUOcM #WWC2016 https://t.c\u2026
p1713
aV@Buccigross any chance we see a Forrest green and White #CawlidgeHawkey hat (Bemidji State University, michigan state)?
p1714
aVRT @FDLWARBIRDS: Congrats to junior Kylee Dyni as she also made the Wisconsin NIT team that will be playing in Plymouth,MN April 21-24th.
p1715
aV@AaronGleeman oddly enough, the Twins Daily article today seemed to make a similar point.
p1716
aV@1DanMyers love it!
p1717
aVRT @1DanMyers: Darren Smith started to feel it a little bit. Meanwhile, Ferris is in classic Bemidji State lockdown mode.
p1718
aV@AaronGleeman pure baseless speculation?
p1719
aV@AaronGleeman is it just me or is Park a better fielder than Mauer?
p1720
aV@Russostrib any chance Tuch signs and joins after the college season?
p1721
aVRT @FDLWARBIRDS: Congrats to juniors Kylee Dyni and Rebecca Binder for making the Pittsburgh Showcase Tournament Team. It will be played Ap\u2026
p1722
aVRT @LiveTheDreamWHL: \u201cI could barely stand up on skates while playing in a boys\u2019 league. I was the only girl ..." https://t.co/QC2gmlXG6r h\u2026
p1723
aVRT @BemidjiState: Calling all #FutureBeavers! Make time for a quick, great read with a little advice... https://t.co/6A95H7daBN https://t.c\u2026
p1724
aV@torydyck  https://t.co/ByCx4iYdRk
p1725
aVCome on... https://t.co/MMYDKMYFEA
p1726
aV@IPCBemidjiState @BemidjiState one of the best things I ever did with my life was to go on Eurospring.
p1727
aV@JesseThorn thank you!
p1728
aV@JesseThorn hey Jesse, current low level doner. Do I need to upgrade to get new doner only content?
p1729
aVRT @LiveTheDreamWHL: Championship teams are built on being prepared, playing unselfishly, and being held accountable. https://t.co/DKiiHHqw\u2026
p1730
aVRT @BSUBeavers: #TBT to March 14, 2009 and Matt Read's OT goal to beat Robert Morris &amp; punch BSU\u2019s ticket to the NCAA Tournament. https://t\u2026
p1731
aVRT @JesseThorn: Big thanks to @iTunesPodcasts for featuring @Bullseye this week! https://t.co/XJmrmicAsD
p1732
aVRT @molbeav55: Thank you guys for a great season and i miss you already https://t.co/HFzdn1OaHT
p1733
aV@1DanMyers pay should be higher.
p1734
aV@1DanMyers make the position a desirable one. The recruiting of on ice officials is abysmal. The continued training is lackluster and the
p1735
aV@1DanMyers I think we can all point out the surface  problems which are just symptoms of a greater illness. To make better refs, you need to
p1736
aV@1DanMyers couldn't agree with you more. The good ones know that.
p1737
aV@1DanMyers because now you're getting the refs with the thickest skin rather than the highest skill at the top.
p1738
aV@1DanMyers officials. I wish they would pay refs more at every level in order to recruit more people into this profession of attrition
p1739
aV@1DanMyers refs get it from all angles. It's a trash job and I'm not sure why anyone would do it. I'm as guilty as any coach of barking at
p1740
aV@1DanMyers reset is pushed again.
p1741
aV@1DanMyers at the same time, barking from players and coaches goes up. Then borderline plays go unpenalized and quality goes down until the
p1742
aV@1DanMyers referee quality is such a cyclical thing. Higher ups need to keep them accountable. When there is a crackdown, quality goes up.
p1743
aV@1DanMyers feels like a rant by an NHL writer circa 1996.
p1744
aVRT @FDLWARBIRDS: Jessie Vetter Award Finalist: Rebecca Binder https://t.co/qrzzN8IMUi
p1745
aVRT @FDLWARBIRDS: All State Honorable Mention: Kendalynn Acheson,Kylee Dyni,Rebecca Binder. Coach of the Year: Duane Woeshnick https://t.co/\u2026
p1746
aV@JesseThorn explodo
p1747
aVHas anyone ever noticed that 70's Conway Twitty and @Nick_Offerman are never in the same room? https://t.co/Ho4HO4AA5a
p1748
aVRT @fondygirlsoccer: New ab workout? https://t.co/aRo0CmQt2N
p1749
aVRT @BeaverWoHockey: It's game day in Bemidji! #playoffs #beaversvsbulldogs #gobeavers https://t.co/6qM3613feG
p1750
aV@1DanMyers this is turning into your "Back and to the left" moment.
p1751
aVRT @DMichalkiewicz: Good luck @FDLWARBIRDS as they take on Bay Area in the WIAA Sectional Semi-Finals tonight at the Blue Line Center @ 7:3\u2026
p1752
aVRT @FondyDance: Good luck tonight @FDLWARBIRDS !
p1753
aVRT @LetsPlay_Hockey: Eastview HS forward / U.S. Under-18 Team hero Natalie Snodgrass will make the "Let's Play Hockey" call at tonight's #m\u2026
p1754
aVRT @RadioPlusInfo: @FDLWARBIRDS vs @bayareaicebears \u000aWATCH tonite @ https://t.co/fT4KVHGO6K #rpsports https://t.co/Tw6urcACyZ
p1755
aVRT @FDLWARBIRDS: @WiPrepHockey  Congrats to our goalie Rebecca Binder for being one of the 5 finalists for the Jesse Vetter Award!
p1756
aVI get and respect Cheap Trick but couldn't we have gotten The Hold Steady, a Replacements reunion or, I don't know... Prince #StadiumSeries
p1757
aVRT @DeejBTNL: Connor McDavid #tbt long before the spotlight working on his craft at #BTNL @EdmontonOilers @OilersNation @BarDown https://t.\u2026
p1758
aVRT @myregularface: Read goal https://t.co/aIn1FaQfRC
p1759
aV@1DanMyers nice fringe benefit.
p1760
aVRT @BSUBeavers: @BSUMHockey looks for the sweep tonight at the Sanford Center. #GoGreen! https://t.co/QMCMKix7Ap
p1761
aVRT @thow15: This is the time of year where when your HS hockey team wins they are the greatest. When they lose, there's 1,000 excuses. Just\u2026
p1762
aVRT @FDLWARBIRDS: Warbirds will face Bay Area on Tuesday night at 730pm in FDL!
p1763
aVRT @fondy_hockey: It's game time! Let's go fondy! https://t.co/wip1WNMEv8
p1764
aVRT @DMichalkiewicz: Congrats @FDLWARBIRDS - 4-0 victory over Appleton United! Moving on to the next round! #fondypride
p1765
aVRT @FDLWARBIRDS: Final: Warbirds 4 Appleton 0! With the win the Warbirds advance to the sectional semi final game Tuesday night in FDL. Tim\u2026
p1766
aVRT @FDLWARBIRDS: WIAA Playoffs:The Warbirds will take on Appleton tomorrow night in the regional final! Puck drops at 530pm in FDL! Come ch\u2026
p1767
aVRT @Buccigross: Trevor Moore could have scored his 2nd. He passed it. That's why hockey people love hockey https://t.co/60RXKEZtF9
p1768
aVRT @DMichalkiewicz: Good luck @FDLWARBIRDS as they travel to Hudson tonight and New Richmond tomorrow! #fondypride
p1769
aV@1DanMyers hey Dan, could you follow back so I can DM you?
p1770
aVRT @DMichalkiewicz: Eastern Shores 2nd Team All Conference Team. #fondypride https://t.co/1SgiTlIA62
p1771
aVRT @DMichalkiewicz: Eastern Shores Honorable Mention All Conference Team. #fondypride https://t.co/JmYa32L4FP
p1772
aVRT @FDLWARBIRDS: Warbirds Honorable Mention All Conference: Miranda Zipp (F) Callie Tighe (F) Drew Deanovich (D) https://t.co/Bu4cQurymg
p1773
aVRT @FDLWARBIRDS: Warbirds 2nd Team All Conference: Kendalynn Acheson (F) Kylee Dyni (D) Rebecca Binder (G) https://t.co/Rpft0HKwlt
p1774
aVRT @coachjennjo: Great post @Proactivecoach! @Fondybball- Awesome top ten for the last few weeks of regular season! #fondypride https://t.c\u2026
p1775
aVRT @BSUBeavers: [WHockey] FINAL - No. 7 @BeaverWoHockey defeats SCSU, 4-1 and secures home ice in the #WCHA Playoffs for the first time in \u2026
p1776
aV@JesseThorn how do you feel about Paul Evans shoes? Did you check out Donnie Trumpet?
p1777
aVRT @LetsPlay_Hockey: Senior Goalie of the Year finalist: Lauren Bench (Burnsville)\u000a8-17-1, 2.78, .908, 2 SO\u000aCollege: BSU\u000a@lauren_bench http\u2026
p1778
aVRT @WCHA_WHockey: We are proud to honor, support and celebrate National Girls and Women in Sports Day! #NGWSD #growthegame #WCHA https://t.\u2026
p1779
aVRT @BemidjiState: \u2026amateurs. https://t.co/X40ICdziqH
p1780
aVRT @fondy_hockey: Fondy takes on @OshkoshHawks tonight in the first game of the conference tournament! 5:30 at blueline! #bethere
p1781
aVRT @WadeBatesKFIZ: @FDLWARBIRDS also takes on Bay Area tonight at the Blue Line at 6pm in Rink B
p1782
aVRT @FDLWARBIRDS: Warbirds will face Bay Area in the semi-finals of the conference tourney tomorrow in FDL. Puck drops at 6pm on Rink B. Com\u2026
p1783
aV@FDLWARBIRDS  https://t.co/XwQicIVwQQ
p1784
aVRT @WiPH_Scores: Girls Varsity Hockey: Fond du Lac Co-Op Warbirds (3) at Appleton United (1) - FINAL https://t.co/sjzeA3niiy
p1785
aVRT @FDLWARBIRDS: Final: Warbirds 4 Appleton 1 Record now stands at 16-2-2. Warbirds will be the 2 seed for the conference tournament and ho\u2026
p1786
aVRT @FDLWARBIRDS: We also got our 1st place plague tonight for winning the holiday tournament back in December! https://t.co/luljOQXB0v
p1787
aVRT @BSUMHockey: #GoBeavs win. Face SCSU tomorrow for #NSCC final. #BSU #GoGreen https://t.co/BADKRACEBA
p1788
aVRT @DMichalkiewicz: Great work, Ladies! #fondypride  https://t.co/Lb4NxPoJ6H
p1789
aVRT @DMichalkiewicz: Great win, Ladies! #fondypride  https://t.co/2Dox6O9FNz
p1790
aVRT @FDLWARBIRDS: Final: Warbirds 2 Bay Area 1. Record improves to 15-2-2
p1791
aVRT @BemidjiSports: HOCKEY: @BeaverWoHockey's Huber making her presence known in front of the net and elsewhere https://t.co/jcHzg254Fr http\u2026
p1792
aVRT @BSUBeavers: This #TBT speaks for itself. Defense of the title starts at Xcel Energy Center vs. Minnesota Saturday at 4 p.m. https://t.c\u2026
p1793
aV#BellLetsTalk
p1794
aVRT @BSUMHockey: #BellLetsTaIk
p1795
aVRT @RapidCityRush: The hockey heavens gained an angel. Our deepest condolences go out to the Jarvis family. You'll be missed, Blaine! https\u2026
p1796
aV@JesseThorn album by Chance the Rapper and trumpeter Nico Segal
p1797
aVRT @myregularface: Don Cherry out at sea https://t.co/mcQrzGYe3N
p1798
aVRT @WiPH_Scores: Girls Varsity Hockey: Fond du Lac Co-Op Warbirds (1) at Arrowhead Warhawks (0) - FINAL https://t.co/yPksGszBez
p1799
aV@1DanMyers that's why they call you the Minnesota Miracle Man.
p1800
aV@JesseThorn just curious: what did you think about Donnie Trumpet and the Social Experiment?
p1801
aVRT @BSUBeavers: @BeaverWoHockey sweep! #GoGreen https://t.co/NAr6rSrMzg
p1802
aVRT @FDLWARBIRDS: Final: Warbirds 1 Arrowhead 0 Record now stands at 14-1-2
p1803
aVRT @BSUBeavers: @BeaverWoHockey goes for the road sweep in Duluth. #GoGreen https://t.co/YBuQW9La12
p1804
aVRT @DMichalkiewicz: Good luck @FDLWARBIRDS as they travel to Arrowhead today! #fondypride
p1805
aVRT @FDLWARBIRDS: Warbirds are back on the road tomorrow at Arrowhead. Puck drops at 315pm VAR &amp; 515pm VR! Currently both teams are tied in \u2026
p1806
aVRT @FDLWARBIRDS: Final: Warbirds 6 Waupaca 1
p1807
aVRT @FDLWARBIRDS: With the tie on Friday night the Warbirds are currently #4. They are back on the road Thursday night at Waupaca! https://t\u2026
p1808
aVRT @WiPrepHockey: The current Top Ten is the deepest in WIAA girls hockey history. The days of the Top 4 and then everybody else are over...
p1809
aVRT @EVHSAthletics: Good luck to EV Boys and Girls Hockey teams as they take on Apple Valley in a Varsity Doubleheader at AVSA! Girls at noo\u2026
p1810
aVRT @FDLWARBIRDS: Come watch #2 ranked Warbirds tonight vs Middleton in Fond du Lac! VAR 7pm VR 9pm. It's senior and youth night as well! Ri\u2026
p1811
aVRT @RadioPlusInfo: @FDLWARBIRDS vs @madisonlynx hit the ice @ 7. WATCH it @ https://t.co/b0lcjheb60 and see your tweets w/ #rpsports https:\u2026
p1812
aVRT @WadeBatesKFIZ: Free Shirt Friday salutes the #2 ranked @FDLWARBIRDS hockey!  Tonight its "Future Warbird Night" at Blue Line at 7pm htt\u2026
p1813
aVRT @DMichalkiewicz: Great job guys! #fondypride  https://t.co/Gq6RffKcuM
p1814
aVRT @sam_olesonFDL: This week's Senior Spotlight features Warbirds girls hockey's Kendalynn Acheson. My story: https://t.co/6B4XXfZMR2 https\u2026
p1815
aVRT @2112hockey: Brendan Cook leads Series A in Italy with 48 points in 29 GP\u000a\u000a@C00K18 @PerryBergson @BSUMHockey @RittnerBuam https://t.co/E\u2026
p1816
aVRT @FDLWARBIRDS: Fond du Lac's Kendalynn Acheson https://t.co/UxsxavlBHB
p1817
aVRT @FDLWARBIRDS: Warbirds last regular season home game will be this Friday in FDL vs Middleton at 7pm. It will also be senior/youth night.\u2026
p1818
aVRT @FDLWARBIRDS: Warbirds currently ranked #2 in the state! https://t.co/CiNG6kBsfR
p1819
aVRT @BSUBeavers: @BeaverWoHockey remained at No. 6 in the latest @USCHO poll. POLL: https://t.co/sH404uKQMg https://t.co/nAR6cbRfnl
p1820
aVRT @FDLWARBIRDS: Final: Warbirds 8 Brookfield 2
p1821
aV@WiPH_Scores Warbirds 8 glaciers 2
p1822
aVRT @FDLWARBIRDS: The 3rd ranked Warbirds are back in the road tomorrow vs Brookfield! Puck drops at 4:30pm at The Ponds of Brookfield!
p1823
aV@pescami Ray Lewis: https://t.co/PP83sAbDEg. Jamal Anderson: https://t.co/KcutzdRSmS
p1824
aV@pescami he did a dance as a tribute to his friends back home. Similar but different. Taking a knee into OT? What was Denny Green thinking?
p1825
aV@pescami I think I actually have you this time: Jamal Anderson, not Ray Lewis, did the dirty bird. 1998. F-ing Gary Anderson...
p1826
aVRT @FDLWARBIRDS: With the 4 wins last week the Warbirds are currently ranked 3rd in the state! https://t.co/orxG6yN1VG
p1827
aVRT @MLB: When you realize the weekend\u2019s over \u2026 https://t.co/RgGqtr0h8o
p1828
aVRT @WiPH_Scores: Girls Varsity Hockey: Fond du Lac Co-Op Warbirds (4) at Central Wisconsin Storm (2) - FINAL https://t.co/4D7Ouvr5Mq
p1829
aVRT @Tedbelisle: I can't help but smile watching Brad Hunt on the top of a power play in the NHL! #Oilers #Bomb
p1830
aVRT @DMichalkiewicz: Congratulations @FDLWARBIRDS on their 4-2 victory over DC Everest today! #fondypride
p1831
aVRT @FDLWARBIRDS: Warbirds beat #2 ranked Central Wisconsin 4-2 today!
p1832
aVRT @FDLWARBIRDS: 6th ranked Warbirds will head on the road Saturday to face 2nd ranked Central Wisconsin. Varsity 2pm VR 4pm.  Greenheck Ic\u2026
p1833
aVRT @fondy_hockey: Congrats girl! #fondypride https://t.co/Q6As1ZnOm5
p1834
aVRT @FDLWARBIRDS: Chippewa Fall Tournament Champions! https://t.co/sxFI5e6grb
p1835
aVRT @FDLWARBIRDS: Warbirds win all 3 games of the  Chippewa Falls Holiday Tournament with a 4-2 win over Rock County this morning. Record im\u2026
p1836
aV@hardwick  https://t.co/yM2tXZJGJb
p1837
aVRT @FDLWARBIRDS: Warbirds win both games today! 6-3 vs Chippewa Falls and 4-3 vs 10th ranked Eau Claire. Record now stands at 9-1-1.
p1838
aVRT @BSUBeavers: Good luck in your 2015-16 NHL debut, Brad Hunt. #BeaverNation backs the @EdmontonOilers #OnceaBeaverAlwaysABeaver https://t\u2026
p1839
aVRT @FDLWARBIRDS: Warbirds back on the road again tomorrow vs Lakeshore Lightning-Ozaukee Ice Center-Varsity-11am-VR-1pm!!
p1840
aV@pescami You sly dog.
p1841
aV@pescami forgiveness, please.
p1842
aV@pescami yea, realized how asinine I was after the tweet. Tried to delete. The Internet is unforgiving.
p1843
a.