(lp0
V@nessaphelan @Axne4Congress @aconnolpocod2 @DeidreDeJear @GannonforIowa @FredHubbell @AGIowa @RobSandIA Thank you!!
p1
aV@annierelias @maureenjohnson Me too!
p2
aVRT @NathanLerner: -When Obama and the Democrats controlled Congress they passed the largest overhaul &amp; expansion of America's healthcare sy\u2026
p3
aVRT @ThePlumLineGS: It is legal for people to present themselves at the border and apply for asylum in the United States. \u000a\u000aIt is outrageous\u2026
p4
aVRT @ACLU: FACT: It IS legal under US and international law to present yourself at the border and seek asylum. https://t.co/Xw0q36IcDm
p5
aV@evolutionarypsy Or pregnancy? Great insurance option...
p6
aVRT @WhenWeAllVote: \U0001f6a8 If you live in these states, make sure you register to vote by tomorrow, October 9:\u000a\u000aAZ\u000aAR\u000aFL\u000aGA\u000aIN\u000aKY\u000aMI\u000aMS\u000aNM\u000aOH\u000aPA\u2026
p7
aV@HintMama Or try a local farmer\u2019s market!
p8
aVRT @delaneytarr: Safety Rules for Men:\u000a1. Do not sexually assault women https://t.co/3Y9XyBdPdi
p9
aVExactly https://t.co/8tHbp3GmL3
p10
aVRT @ValerieJarrett: Every. https://t.co/H4rUOztDHx
p11
aVRT @ksausville: Hi, suburban mom of boys here. I\u2019m more horrified that they\u2019ll get the impression from society that doing shit like this is\u2026
p12
aVRT @Amy_Siskind: ICE plans to deport Francis Anwana, a 48 year-old who is deaf and has cognitive disabilities, back to Nigeria. His visa wa\u2026
p13
aVRT @MSNBC: "It's just a shameful failure of leadership. Republicans decided the didn't want to embarrass the administration and therefore t\u2026
p14
aVRT @jaketapper: Wherein the president dismisses the official government of Puerto Rico death count from the 2017 hurricanes and their after\u2026
p15
aVRT @Alyssa_Milano: Oh my God. Bwahahahahahahahahahahahahahahahahahaha! Who are you? Let\u2019s be besties! https://t.co/C0fdnBXNdF
p16
aV@AdyBarkan That would be amazing!
p17
aVRT @GhostPanther: What a tiny, tiny man. https://t.co/OoRALZkVH7
p18
aVRT @SenFeinstein: 98% of Brett Kavanaugh\u2019s White House record remains hidden from the public. \u000a\u000aMore than 85% of his White House record rem\u2026
p19
aVRT @TVietor08: It's so rare to hear an answer this clear and honest and from the heart that it made my jaw drop. Check out @BetoORourke and\u2026
p20
aV@Lin_Manuel This made my morning!
p21
aVRT @davidaxelrod: Everyone says the @realDonaldTrump WH is like reality TV.  But it feels more like the Jerry Springer Show, with unsympath\u2026
p22
aVRT @SenFeinstein: 99% of Elana Kagan's White House records were made public before her nomination hearing.\u000a\u000a0.08% of Brett Kavanaugh's reco\u2026
p23
aVRT @RMFifthCircuit: This is a hobby horse of mine, so apologies. But - most NFL players aren't rich. They make less than a fancy lawyer for\u2026
p24
aVRT @danpfeiffer: It seems like the President\u2019s deputy campaign manager testifying under oath about crimes he committed with the President\u2019s\u2026
p25
aVRT @SRuhle: While Attorney General Jeff Sessions chants \u201cLOCK HER UP\u201d\u000aLet\u2019s remember-\u000aBenghazi investigation 4yrs- NO INDICTMENTS\u000aClinton e\u2026
p26
aVRT @richardmarx: I misspoke. I meant to say I \u201cwouldn\u2019t\u201d be right here waiting for you.
p27
aVRT @chrislhayes: If only there was some alternative to family detention. Wait: There is one! A successful case management pilot program tha\u2026
p28
aVRT @JoyAnnReid: Up to 6 in 10 eligible Americans don\u2019t vote in midterms. They are often young, female or POC. Some are blocked by suppressi\u2026
p29
aVRT @chrislhayes: Since the president is lying about this, I'll reiterate that we obtained internal CBP documents that show that ****91%****\u2026
p30
aVRT @jeanguerre: DHS Secretary Kirstjen Nielsen just said DHS isn't separating families who "legitimately" enter country through a port of e\u2026
p31
aVRT @crampell: This is false. The @ACLU case challenging Trump policy includes as plaintiffs families that have been separated despite prese\u2026
p32
aV@annierelias Sick.
p33
aVIf you are represented by a republican senator urge them to support this bill! https://t.co/oKFv35qBWP
p34
aVRT @chrislhayes: I want to laugh at this but it\u2019s too enraging. Everyone in the WH right now is doing the same, btw https://t.co/9ytTJGxfbX
p35
aVRT @mehdirhasan: Spare a thought today for all those who claimed:\u000a1) \u2018there\u2019s no point in voting\u2019\u000a2) \u2018Clinton and Trump are as bad as each\u2026
p36
aVRT @ErikaAndiola: My mother was a victim of domestic violence. We had to cross the border to be safe so that my mom, my siblings and I coul\u2026
p37
aVRT @frankrichny: Another excoriating must read from perhaps the best writer of all the GOP NeverTrumpers @TheRickWilson https://t.co/I2yDDM\u2026
p38
aV@TVietor08 @BetoORourke $50 from Chicago. We need gun reform and won\u2019t get it unless we vote them out!
p39
aV@cameron_kasky Thank you for everything you do, I am hopeful your generation will force a change so my young sons w\u2026 https://t.co/gAyzSYewRE
p40
aV@MileyCyrus Well done Miley!
p41
aV@GirlMobile @soulcycle @MomsDemand Wish I could be ther. Sending support from the Midwest !
p42
aVUgh... https://t.co/XTLDY78Pkf
p43
aVRT @Alyssa_Milano: \u201cI just start kissing them. It's like a magnet. Just kiss. I don't even wait. And when you're a star, they let you do it\u2026
p44
aV@JordanPeele @delaneytarr Congratulations! Your move was awesome and amazing. Had me yelling at the screen, loved it!!
p45
aV@AlexShibutani Yes!!
p46
aV@wcruz73 @AttitudeMag @albinokid Love you both!  Perfect casting for the sci-if geek/musical theater fan.
p47
aVRT @joshgad: Yep https://t.co/aeApFZzGNs
p48
aV@williamlegate @BeauWillimon Done! Thank you for all you are doing!!
p49
aV@cameron_kasky We\u2019re with you! So inspired by you and your classmates. Keep up the fight!!
p50
aV@Alyssa_Milano And me, so inspired by what you are doing!  #Imwiththem
p51
aVRT @innocence: There's an @amazon wish list for #MalcolmAlexander, freed after 38 years in prison for a crime he didn't commit for those wi\u2026
p52
aVThey are heartless... https://t.co/f5xlU13XF0
p53
aVRT @NOW1SOLAR: As a solar company, we are devastated to learn Trump has imposed a 30% tariff on solar panels virtually killing the solar in\u2026
p54
aVRT @jimbatz: Since taking office the sun has risen in the east and sets in the west. All credit to me! https://t.co/odxiHP4SrN
p55
a.