(lp0
V@cooleyy_ Hey, sorry just seeing this now. I don't use Twitter at all really so I don't have the app and don't get\u2026 https://t.co/pUwP3Lylg2
p1
aV@cooleyy_ Like I said, it's a bit strange. I'm just some random person who @HiltonHotels emailed your personal info\u2026 https://t.co/PzqdoNPCyO
p2
aV@cooleyy_ This is a strange tweet to send, but has @HiltonHotels or the Hilton Garden Inn - Downtown Dallas reached\u2026 https://t.co/T0JGLlICRc
p3
a.