(lp0
VRT @davidhogg111: Saying children are worth more than guns should not be an unpopular opinion.
p1
aVRT @meeshfitz: Happy birthday @JeffProbst \U0001f483\U0001f3fb You really are the backbone of #Survivor. Here\u2019s a picture of both of our favorite moments in\u2026
p2
aVRT @ElectProject: 28 states + DC surpassed their 2014 total #earlyvote:\u000a\u000aAZ, DC, DE, FL, GA, ID, IL, IN, KS, LA, MA, ME, MD, MI, MN, MO, MS\u2026
p3
aVRT @davidhogg111: The only thing that can stop a bad guy with a gun is a good guy with a vote against the NRA.
p4
aVRT @chelseaperetti: Vote like a bunch of school children were shot and a bunch of other children were put into camps indefinitely bc they w\u2026
p5
aVRT @HillaryClinton: High school and college students of voting age are making a plan to march to the polls together next Tuesday. Make sure\u2026
p6
aVRT @voxdotcom: Sen. Hassan introduced a bill that would aim to end surprise ER fees, which she says was inspired by Vox\u2019s database of 1,600\u2026
p7
aVRT @ItsJoshPeck: Vote or shut up.
p8
aVRT @FullFrontalSamB: Think you're smarter than the combined brain and star power of @KeeganMKey and @PiperPerabo? Find out by downloading #\u2026
p9
aVRT @staceyabrams: When you get out to vote on November 6th, STAY IN LINE until your ballot is cast and your voice is heard. A better Georgi\u2026
p10
aVJudge rules against Brian Kemp over Georgia voting restrictions days before gubernatorial election #StaceyAbrams https://t.co/cuJmk3loMo
p11
aVRT @chrissyteigen: This is literally just a graph proving people had to google your dumbass to figure out who you are https://t.co/xpUkyB8N\u2026
p12
aVRT @gabscuzzi: HOPE IS NOT A STRATEGY! So don\u2019t HOPE that our country moves in a better direction, VOTE so that it does!! \u27a1\ufe0fhttps://t.co/XD\u2026
p13
aVRT @teamabrams: .@Oprah is knocking on doors for @staceyabrams, @SarahRiggsAmico, and @GeorgiaDemocrat today \u2014 because all of us must do ou\u2026
p14
aVRT @AndrewGillum: If you go vote, we will win.
p15
aVhttps://t.co/uyuJmlETQS\u000a#Vote #GOTV
p16
aVRT @SnoopDogg: For all the young folks out there ur future will depend on this election \U0001f4af the youth movement cannot be stopped !! Join the\u2026
p17
aVRT @MikeHudema: Pretty accurate. #ActOnClimate #HappyHalloween #Halloween2018 #scariestcostume https://t.co/laUyrfTCNK
p18
aVRT @BarackObama: Not sure who and what you can vote for? Head over to https://t.co/SHxg6ael0O to look up your state, learn who's running to\u2026
p19
aVRT @AyannaPressley: Don't boo, vote! Make a plan to vote on Nov 6. or even better - vote early now! Find your early voting locations here:\u2026
p20
aVRT @BillGates: We need the world\u2019s brightest minds working on preventing the worst effects of climate change. I\u2019m placing my bets in five k\u2026
p21
aVRT @BillGates: In my home state, climate change is on the ballot. Here\u2019s why I\u2019m voting @Yeson1631 and why I\u2019m encouraging my fellow Washin\u2026
p22
aVRT @mishacollins: Historically, over 1 out of 2 Americans can\u2019t solve this simple math problem. Can you? https://t.co/tWemND5IXR https://t.\u2026
p23
aVRT @TucsonPeck: + only 25% of CO2 emissions drop came from switch from coal to gas, and gas industry methane emissions have made the switch\u2026
p24
aVRT @brianschatz: Stock market plunging, people\u2019s healthcare is being threatened, deficits of a trillion a year, tax cuts a ripoff, and lots\u2026
p25
aVRT @AyannaPressley: To be clear, it was not a misspeak. https://t.co/bEgn78M9SP
p26
aVRT @ClimateReality: We're with actor @PatinkinMandy on this one: Your vote is your voice. Make sure to use it in these #Midterms2018 to hel\u2026
p27
aVRT @ChrisPappasNH: This morning I joined @HRC and LGBTQ leaders from around the state who I\u2019m proud to be on the ballot with on November 6t\u2026
p28
aVRT @FullFrontalSamB: Even as the Trump Administration tries to legislate them out of existence, LGBTQ folx are running for office in droves\u2026
p29
aVRenewable energy is ready to overtake fossil fuels. Will we let it? #ClimateChange #keepitintheground https://t.co/b9CFNLyq3n via @slate
p30
aVRT @ACampaNajjar: INSPIRING LISTEN: A Republican Hunter voter called our office to say he\u2019s going to vote for me! Why? Not despite Hunter\u2019s\u2026
p31
aVRT @jessicalewis89: Natalie, can I have your jacket?\u000a\u000aNatalie?.....\u000a\u000aNatalie?.....\u000a\u000aNatalie?.....\u000a\u000a#Survivor #RHAP #SurvivorDavidVsGoliath\u2026
p32
aVRT @Sister_District: #WhyStatesMatter\u000aBecause state laws have a huge impact on daily life.\u000a\u000a- SDP co-founder @gaby__goldstein in @Rewire_Ne\u2026
p33
aV@AngelinaCardona https://t.co/JkQef7iXTl
p34
aVRT @WinslowLewis: Hey Y'all! Been following an extremely timely project I felt was worth sharing. @Enviro_Voter is a group looking to mobil\u2026
p35
aVRT @Brian_Scally: Natalie showing up to the next all star season to slay your faves #Survivor https://t.co/4idk3LX8sJ
p36
aVRT @KassMcQ: We\u2019ve all heard it at least 481 times but the moral of this story is: Take all your things to tribal every time because everyo\u2026
p37
aV@survivorcbs DO WHAT NATALIE SAYS!
p38
aVRT @melgotserved: #Survivor https://t.co/T8hMnJ29CG
p39
aVElizabeth hunts squirrels w slingshots? . . . Wtf?\u000a#survivor
p40
aVRT @NewYorkStateAG: #BREAKING: We just filed a lawsuit alleging that Exxon defrauded investors regarding the financial risks the company fa\u2026
p41
aVAlready proudly voted for Elizabeth Warren, Maura Healey and Katherine Clakre! #EarlyVoting #Vote #Massachusetts https://t.co/r0w2vednO9
p42
aV@exxonmobil https://t.co/cGn5O8Zvf6
p43
aVRT @marykateand_: If you don\u2019t want to be peer pressured to vote you should not talk to me for the next 13 days.
p44
aVRT @MikeHudema: These cheaper, safer and smaller wind turbines produce 10 times more power than traditional ones. \u000a\u000aWe have the solutions.\u2026
p45
aVRT @HannahLilNessen: #Survivor Tribal-\u000a\u000aProbst: Time to vote.\u000a\u000aTribe: "The urn is kinda far"\u000a"I don't know enough info to vote"\u000a"Does my vo\u2026
p46
aVRT @MikeHudema: China installs enough #solar to cover a football pitch once an hour every single day.\u000a\u000aWe have solutions to the #climate cr\u2026
p47
aV"The main challenge is defeating the juggernaut that is the fossil fuel industry. . .The only way that we will defe\u2026 https://t.co/G2Iox73GsN
p48
aVRT @KassMcQ: This is why new player seasons are the best. #BigMovesDay11 #Survivor
p49
aVNatalia: "If i go home tonight guns blazing I'll be happy"\u000aAlso Natalia: *gets voted out and is super unhappy*\u000a#Survivor
p50
aVRT @Brian_Scally: Natalie Cole will not be the fourth person voted out (thanks to Bi quitting) #Survivor https://t.co/QGJ4R4XqSH
p51
aVRT @gordonholmes: OK Twitter, I need help coming up with a tagline for this. @chubicki @TheRealMorrison #Survivor #survivordavidvsgoliath h\u2026
p52
aVRT @Brian_Scally: Natalie Cole will also not be the fifth person voted out #Survivor https://t.co/FMJe2PIB41
p53
aVRT @jessicalewis89: Diving into #Survivor Wednesday like . . . https://t.co/TOwhxNpaFR
p54
aVRT @marty_walsh: That\u2019s the promise of a Resilient Boston. That's the past, present, and future of our city. That\u2019s what I know we can do t\u2026
p55
aVRT @TheDemocrats: Voice actress @tarastrong\u2014known for her voice in shows like Rugrats, The Powerpuff Girls, and Fairly Oddparents\u2014has an im\u2026
p56
aVRT @NYCMayor: Their "agenda" is to save our planet. If we don't act quickly and decisively on climate change, we're going to leave behind a\u2026
p57
aVA Technology to Reverse Climate Change https://t.co/7rC4KNJE1g via @YouTube
p58
aVRT @ClimateReality: Together we can turn this around \U0001f4aa https://t.co/bHaOv0xy5Q
p59
aVRT @gabscuzzi: I registered to vote today as a brand new Virginia resident!!! \U0001f917\U0001f917\U0001f917 Worth the DMV torture.
p60
aVRT @jonfavs: This entire election depends on people showing up to vote who don\u2019t normally vote in midterms. \u000a\u000aMake a plan to vote, find som\u2026
p61
aVRT @Pink: Kanye west is the biggest piece of shit on earth. Quote me.
p62
aVRT @RichBrooks350: This is great news. Another city taking #FossilFree action and divesting from fossil fuels, joining others like New York\u2026
p63
aVRT @NYCMayor: \u201cA group of scientists convened by the United Nations to guide world leaders describes a world of worsening food shortages an\u2026
p64
aVhttps://t.co/ymPGhBuYAM\u000a#ClimateActionNow #GOTV
p65
aVRT @MarkRuffalo: This is awesome. If you're a student and want to help make a difference in the #divestment movement on your campus and bey\u2026
p66
aV@ClimateReality Just signed up to join a climate reality chapter in boston area. I want to do my part
p67
aV@voxdotcom @UofCalifornia @jvn, you should do a #gettingcurious about this! Have @msanjayan as a guest!
p68
aVRT @elizabethforma: Everyone needs to make their voice heard in this election, and that starts with registering to vote. Take care of it be\u2026
p69
aVRT @elizabethforma: Climate change is a clear and present danger \u2013 but we\u2019re NOT helpless. I\u2019ve got a new bill to fight back. @algore calls\u2026
p70
aVRT @BriceIzyah: Yesssssss my queen aka Grandamutha Natalie has made it another day Yasss queeen #Survivor  #SurvivorDavidvsGoliath https://\u2026
p71
aV@stephenfishbach "I'm a Yelp reviewer and if you don't give me 10% off you get 3 stars"
p72
aVRT @stephenfishbach: #survivor https://t.co/L0Vivhubqd
p73
aVRT @voxdotcom: Scientists have been warning us about climate change for decades. What will it take for the rest of society to listen? (with\u2026
p74
aVRT @TheOnion: \u2018Can Anyone Hear Me?\u2019 Shout Terrified Climate Scientists Frantically Waving Arms As Passerbys Walk Straight Through Them http\u2026
p75
aVRT @Ryan__Kaiser: Waiting for #Survivor o\u2019clock https://t.co/TOUYLQhJwI
p76
aVhttps://t.co/FRYO3eZKww
p77
aVRT @BriceIzyah: Shhhmmmmoooooooood \U0001f60e \U0001f478\U0001f3fd who\u2019s ready to #Survivor tomorrow okuuuur #SurvivorDavidvsGoliath grannndmutha Natalie \U0001f923\U0001f62b https://t\u2026
p78
aVRT @aparnapkin: everyone who thinks climate change is a hoax, who exactly do you think benefits from decreasing pollution? Big Everyone?
p79
aVhttps://t.co/AUX5imcyAs
p80
aVRT @realityreacts: The BB Fandom\u000a\u000a#BB20 https://t.co/3Vl7WiwAv7
p81
aVRT @gabscuzzi: *the wind blows*\u000aMe: You\u2019re voting me out aren\u2019t you
p82
aVRT @Brian_Scally: Natalie Cole will not be the second person voted out #Survivor https://t.co/owyJDYv8dk
p83
aV@josenanigans @survivorcbs This is really awesome
p84
aVRT @josenanigans: The #Survivor 37 Premiere was something special, it reignited my love for drawing and so I decided to honor the Great Pat\u2026
p85
aVRT @littleesther: if you were mugged would it ever be relevant if someone else looked at the person who mugged you and said "well they didn\u2026
p86
aVRT @amdeeeeeee: HEY TYLER REMEMBER WHEN YOU SAID YOU DIDNT NEED BAYLEIGHS VOTE #bb20 https://t.co/m3SpN92dbi
p87
aVThese are the best final questions they could come up with? \U0001f611 #BB20
p88
aVRT @AndyHerren: I like this final HoH much better than \u201cGuess What Each Juror Said.\u201d This is actually a competition, not a crapshoot! #BB20
p89
aVRT @andreaboehlke: Thoroughbreds is cool, but have you ever heard of Stealth R Us? #Survivor
p90
aVRT @JeffProbst: I know I'm not very active on social media of late but I'd love to hear your reactions tonight, so please share! I'll be wa\u2026
p91
aVRT @Arpwel: https://t.co/nzX3Y5U0mJ
p92
aVRT @arisacox: Who's watching the #Survivor Premiere tonight??? YOU KNOW I AM. And if you're a fan of the game you'll want to tune into @etc\u2026
p93
aVRT @Ryan__Kaiser: RIP Davids. #Survivor https://t.co/9Zc2kwE0LG
p94
aVRT @Sarahchadwickk: The youth heading to the polls on November 6th https://t.co/PPYmFgoZuh
p95
aVRT @jodiwincheski: Survivor open calls are listed on https://t.co/7aNOt1Bk34.  Go to one of them and make us some great videos.  We want to\u2026
p96
aVRT @GlobalTV: #JulieChenMoonves #BB20 https://t.co/Wt1IGhRzvz
p97
aVRT @arisacox: Jury House &gt; Actual House #BB20 https://t.co/aY46DyhOza
p98
aVRT @AndyHerren: America's Favorite Player does not mean best player, it means favorite. They can be different. My favorite player of the se\u2026
p99
aVRT @kaitcoaching: Haleigh for AFP #BB20
p100
aVRT @LianaBoraas: Goodbye hunky beefcake. I'll miss you. #BB20 #anallice https://t.co/sTHQs0uHHJ
p101
aVRT @kaitcoaching: Guyssss I know what Brett was doing but he was the last entertaining one in that house let a girl live jeeeeez
p102
aVRT @AndyHerren: The best houseguest of the season has the best BB comic because OF COURSE SHE DOES. #BB20 https://t.co/9aoZyCFM8j
p103
aV@MikeyBeau *drive bys
p104
aVRT @kaitcoaching: HALEIGH https://t.co/3IsZdY5P6z
p105
aVRT @SurvivorQuotesX: Randomly meeting another #Survivor super fan in person. https://t.co/I3zcFXVrv3
p106
aVRT @kaitcoaching: No offense L6 I love y\u2019all but you\u2019re not fun tv. The few moments of Jury House and the reuniting between Scottie, bay, r\u2026
p107
aVThis veto competition is trash #BB20 this episode is so boring!!
p108
aVRT @kaitcoaching: Sisters!!!!! #bb20 @TylerCrispen2 https://t.co/TO49JcWbKs
p109
aVRT @eric_banal: Let us not forget who the OG Crazy Rich Asian was... https://t.co/T2Q5liYgQP
p110
aVRT @gleambutera: \u2764\ufe0f\U0001f9e1\U0001f49b\U0001f49a\U0001f499\U0001f49c\U0001f496@kimpetras https://t.co/E4u8zReD4B
p111
aVRT @arisacox: If I hear that duck idiom ONE MORE TIME #BB20 https://t.co/A8zff5HKsR
p112
aVRT @kimpetras: Me af https://t.co/J9Rpde6Hvl
p113
aVRT @eorlins: December 2015 tweet by Michael Cohen. Michael Cohen is going to plead guilty at 4pm today. Enjoy your free room &amp; board, buddy\u2026
p114
aVRT @kelly_clarkson: I almost didn\u2019t respond 2 this because hate doesn\u2019t deserve a spotlight but u know what, truth does, &amp; the truth is tha\u2026
p115
aVRT @TheOnion: Melania Trump: \u2018My Fat Piece-Of-Shit Husband Who Should Go Kill Himself Needs To Stop Bullying People Online\u2019 https://t.co/e1\u2026
p116
aVRT @TheOnion: Law School Applications Increase Upon Realization That Any Fucking Idiot Can Be Lawyer https://t.co/dgOlfleI3O https://t.co/K\u2026
p117
aVRT @ArmstrongTaran: #BB20 https://t.co/EntjxXeD4X
p118
aVRT @JeffProbst: https://t.co/EtlxjEX3WP
p119
aVRT @RealityRecaps: So this is happening... #bb20 https://t.co/oBAqVK3eGB
p120
aVRT @kaitcoaching: After catching up on all of @robcesternino RHAP, it\u2019s safe to say I\u2019m highly obsessed.
p121
aVRT @GlobalTV: LMAO ROCKSTAR \U0001f602 #BB20 https://t.co/5Wgf00UAkL
p122
aVRT @poeboston: Wednesday Is The Deadline To Register If You Want To Vote In The Mass. Primaries https://t.co/7YroOe4FvH via @WBUR &gt; #bospol\u2026
p123
aVRT @hashtagfiggy: "Go where you think you'd land on a tribe." What do we think...... True or False? @survivorcbs https://t.co/4tqDFlSrWG
p124
aVRT @RandyBailey1720: Sam is to #BB20 like Brandon Hantz is to #Survivor
p125
aVRT @BigBrother__USA: Haleigh has changed into a Swaggy C shirt https://t.co/wRN7uHhhHt
p126
aVRT @kaitcoaching: Me watching today\u2019s house meeting https://t.co/h69oG9Av3d
p127
aVRT @JanellePierzina: Hayleigh did it!!! \U0001f389 This is seriously the best season ever!!! #BB20 https://t.co/achTipMZ1E
p128
aVRT @MissyElliott: I just found out I have a FUNKY WHITE SISTER\U0001f633\U0001f629\U0001f602\U0001f923 forreal doe\U0001f602\U0001f923&amp; she brought her home girl with her from da hood that keep\u2026
p129
aVRT @thehill: JUST IN: YouTube permanently bans Alex Jones https://t.co/GvpOXqBnX3 https://t.co/VNv8fEWU5p
p130
aVRT @jinnydraws: Everyone needs to watch @KimsConvenience on Netflix \u000aIt's wholesome, it's relatable, the cast is amazing, hmu if y'all ever\u2026
p131
aVRT @melbrown0: Actual footage of Brett spelling all the words wrong \u000a#bb20 https://t.co/VzfyMNEAmY
p132
aVRT @claraansleigh: Everyone in the house when Sam announced her idea about the hacker comp #bb20 https://t.co/b4dp5Iln8i
p133
aVRT @RingelsteinME: Senator Collins to me: \u201cI do not... approve judges because of their personal beliefs.\u201d\u000a\u000aMy personal belief is that histo\u2026
p134
aVRT @JaclynCorin: Currently: NRA Headquarters in Fairfax, VA. https://t.co/mnUjbcbgUY
p135
aVRT @SirajAHashmi: *LeBron James opens school for struggling families*\u000aTRUMP: https://t.co/fSqRXH9DEE
p136
aVRT @ashleyn1cole: Black ppl: they\u2019ve appropriated our music, our fashion, our slang is their any thing white ppl won\u2019t try to take from us?\u2026
p137
aVRT @Acosta: Hannity is a propagandist for profit, peddling lies every night. He says he\u2019s just a talk show host, not a journalist. But he\u2019s\u2026
p138
aVRT @GlobalTV: The most painful 30 seconds of TV you'll watch this week. #BB20 https://t.co/VJcWRxKHvY
p139
aVRT @robcesternino: Rachel on tonight's eviction #bb20 https://t.co/9TJe9FJOp9
p140
aVRT @ArmstrongTaran: "Oh, you're in hysterics? Time for a pop quiz! GIVE ME ANSWERS!" #BB20
p141
aV@mattliguori "I NEED NAMES, RACHEL!!" like damn
p142
aVFOUTE is my favorite alliance but they get blindsided EVERY WEEK and it is HILARIOUS! #BB20 https://t.co/pSRR12CYPu
p143
aV@bb_spicoli How did you make this so fast?! You're doing the lord's work
p144
aV@ArmstrongTaran I am rooting for her, but for letting the secret slip: https://t.co/dNtTISwYRu
p145
aVRT @08Jayhawk: Who\u2019s excited to see Swaggy C meeting Bayleigh\u2019s parents #BB20 https://t.co/thSLMg4GZB
p146
aVRT @davidhogg111: \u201cThe NRA admitted in a recent court filing that it\u2019s hurting financially thanks to activism by the teenage survivors of t\u2026
p147
aVRT @danidONAT0: Ever since Nicole left, I don\u2019t know who to root for. #bb20 https://t.co/7mlVg8TAXG
p148
aVRT @cameron_kasky: Great news.  https://t.co/Xzu4n4yG2Z
p149
aV@jean_yoon just saw this on my Netflix a few days ago. . .  and I've already almost finished both seasons!!
p150
aVRT @JordanUhl: "I mean, at the end of the day what really is 'crime?'" https://t.co/hGu6nVOEGW
p151
aVRT @daniel_shelley: Everyone needs The O.C. in their Life @EricSteinTweets @robcesternino #SummerofStein #BB20 https://t.co/xHZrqlt5Wz
p152
aVRT @MichelleObama: .@BarackObama and I are so proud of @KingJames and @IPROMISESchool. Kids in Akron and across the US are lucky to have yo\u2026
p153
aVRT @AprilDRyan: Horrid!  The press is now in fear of their safety because @realDonaldTrump has targeted us and continues to do it!!!!! http\u2026
p154
aVRT @MichaelAvenatti: This is what we have been saying for months and also why our cases are so important. We WILL proceed in a court of law\u2026
p155
aVRT @TheOnion: Giuliani Insists Breaking The Law Not A Crime https://t.co/8PHZTZyCyw https://t.co/3NLZJwijDV
p156
aVRT @JaclynCorin: Our Roswell townhall is PACKED! \u000a\u000aWe have our main house, 2 overflow rooms, AND people watching through the window from ou\u2026
p157
aVRT @robcesternino: Wishing a very happy birthday today to the #Survivor QUEEN, @SandraDTwine! https://t.co/bPpLFucX98
p158
aVRT @BettyBowers: Don\u2019t be fooled by the Orwellian-named \u201cReligious Liberty Task Force\u201d and its favorite gimmick #ReligiousFreedom. They are\u2026
p159
aVRT @MichaelAvenatti: Do remember in years past when you wanted your son or daughter to look up to the President of the United States as a r\u2026
p160
aV@AndyHerren almost 24-hours kaitlyn free. https://t.co/oyTuFGhgcB
p161
aVRT @MichaelAvenatti: .@RudyGiuliani I saw your interview last night with @ChrisCuomo. Thank you! You are the best lawyer we have working fo\u2026
p162
aVRT @abrahamianskull: IM SCREAMING #BB20 https://t.co/9RjbGIEe6e
p163
aVRT @jonlovett: Rudy: My client\u2019s long-time lawyer and confidante is not credible because he has spent so many years lying on behalf of my c\u2026
p164
aVRT @StephenAtHome: It's odd that Jim Jordan is running for House Speaker, seeing as how he's known for keeping his mouth shut.
p165
aVRT @GlobalTV: when the puzzle has more than 3 pieces #BB20 https://t.co/rh0c1wl6Ph
p166
aVRT @_jwlw_: This was literally me throughout the entirety of that 2 minutes &amp; 30 secs #BB20 https://t.co/TWmmjWWjdP
p167
aVRT @AmanAdwin: THAT BITCH COULD ALIGN EVERYBODY AND THEY MAMA\u2019S CHAKRAS BUT SHE COULD PUSH ONE PUZZEL PIECE INSIDE THE OTHER?! #BB20
p168
aV@ArmstrongTaran question: when stuff happens on the live feeds on Thursday does it ever make it into the Thursday e\u2026 https://t.co/v0ovBki2OU
p169
aVRT @SallyQYates: While the absurd threat to impeach Rod Rosenstein will undoubtedly fail, using the Department of Justice as a prop for pol\u2026
p170
aVRT @MichaelAvenatti: .@seanhannity - why are continuing to duck me and refuse to have me on your show? I thought you were one of the bigges\u2026
p171
aV@LianaBoraas I love that 2 people answered BONK to that question
p172
aVRT @robcesternino: Sam has a point about the young women in the #BB20 house setting women's empowerment back by hanging on these guys! http\u2026
p173
aVRT @ItsCoreyTho: When Sam is capable of making Kaitlyn the voice of reason in a conversation #BB20 https://t.co/AqD8akYu6h
p174
aVRT @jennyautumn: i am here for the editors dragging sam. fuck outta here with your internal misogynistic bullshit byeeee #bb20
p175
aVRT @_SJPeace_: Because an Afghan was being deported on her flight to Istanbul, activist Elin Ersson refused to sit down. What happens in th\u2026
p176
aVMA Pride! #Massachusetts \u000ahttps://t.co/DtE1zlFE4a
p177
aVRT @RepAdamSchiff: As former prosecutor, 3 things notable about Cohen tape:\u000a\u000a1) Clear Giuliani was untruthful when he said Trump didn\u2019t kno\u2026
p178
aVRT @jvn: This admin separated families, imprisons people for minor marijuana offenses &amp; gets rich while doing it, yet he still chants \u201clock\u2026
p179
aVRT @Whitless256: That moment when you finally realize that turning on your alliance has consequences.  #BB20 https://t.co/SbzKGcjYIG
p180
aVRT @JulianCastro: Don\u2019t waste a minute of your time being daunted that @realDonaldTrump has a base of diehard supporters. So did Richard Ni\u2026
p181
aVRT @bbclipshow: Rockstar pots &amp; pans https://t.co/UrcZ388PhO
p182
aVRT @CSGV: With the heat coming down on the @NRA from #MariaButina trial. https://t.co/GG1DyEWwfv
p183
aVRT @iamwandasykes: Ya know...at first I wanted a female President.  Then I thought another black President would be good, but now I just wa\u2026
p184
aVRT @GlobalTV: She should have seen this coming. #BB20 https://t.co/eyoIOBzh7H
p185
aVRT @TVtater: Number of unanimous eviction votes so far on #BB20: ZERO https://t.co/JVnRCLbkCD
p186
aVRT @JanellePierzina: On her daughters birthday! How dare he?!? The fuckkkk drag him Rockstar #BB20 https://t.co/GEjbV8Ut8a
p187
aVRT @OddreyM: That\u2019s disgusting!!! How dare you make a move against me on Arbor Day! The audacity!!! #bb20 https://t.co/tz91Hiwzo0
p188
aVRT @bigbrotherjas: me trying to watch young sheldon while waiting for big brother to come on https://t.co/qNODwjWHKu
p189
aVRT @hstrong_: on her daughter's BIRTHDAY OF ALL DAYS #bb20
p190
aVRT @AmanAdwin: ANGIE ROCKSTAR IS #BB20
p191
aVRT @AmanAdwin: Yo these houseguests are shouting out everything! Friends, family, banking pins, socials. #BB20
p192
aV@kaitlynscrystal \U0001f602\U0001f923
p193
aVI hate wasting time on the HG's friends and family segments #BB20 https://t.co/iufXmpra2x
p194
aVRT @ArmstrongTaran: "Not even my boyfriend." #BB20 https://t.co/Ki78wH6bP8
p195
aV@danidONAT0  https://t.co/PzQHVKtmqX
p196
aV@perksofbeingHC He mocked kaitlyn by pretending to have a vision https://t.co/yHmPeMgGvN
p197
aV@DavidBloomberg But he offended the community of "metaphysical practitioners"!
p198
aV@hayleys_bb She's tv gold
p199
aV@hayleys_bb As a non live-feeder i needed the true story! Tysm
p200
aV@OneLuckyGay "ARE YOU CONFUSED THAT I SEE COLORS?!" \U0001f914
p201
aVRT @bigbrother_2K18: Meryl Streep has three boyfriends in Mama Mia, and Kaitlyn has three boyfriends in #BB20. A coincidence? I think not..\u2026
p202
aVRT @PPAdvocacyMA: BREAKING: The MA House just voted to wipe archaic, unconstitutional laws off the books, making clear the right to safe, l\u2026
p203
aVRT @zachbraff: https://t.co/eYghY7glPj
p204
aVRT @Comey: This Republican Congress has proven incapable of fulfilling the Founders\u2019 design that \u201cAmbition must ... counteract ambition.\u201d A\u2026
p205
aVRT @RepAdamSchiff: I would say that I completely believe President Trump misspoke and that he has full faith and confidence in the members\u2026
p206
aVRT @TIME: Arnold Schwarzenegger was not impressed by Trump's meeting with Putin https://t.co/NOdl0HXZKl https://t.co/SflX62uK7E
p207
aVRT @Dictionarycom: Quisling: A person who betrays his or her own country by aiding an invading enemy, often serving later in a puppet gover\u2026
p208
aVRT @ChrisPappasNH: Trump refuses to confront Putin about his attack on America, undermines NATO, and calls the EU a \u2018foe.\u2019 The President is\u2026
p209
aV\U0001f44f\U0001f44f\U0001f44f\U0001f44f\U0001f44f\U0001f44f https://t.co/L24ELZdfsU
p210
aVRT @TeamPelosi: If Donald Trump failed to stand up to Putin in front of the press, what makes you think Kevin McCarthy, Mitch McConnell and\u2026
p211
aVRT @SenWarren: Once again, @realDonaldTrump takes to the international stage to embarrass America, undermine our institutions, weaken our a\u2026
p212
aVRT @JaneyGodley: If nothing else in my life ( and I\u2019ve lived plenty trust me) this will be one of my favourite moments- and photos #trumppr\u2026
p213
aV@Noah_Sayed529 @robcesternino Bothering me too! It's a play
p214
aVRT @bb19yas: Level 6 trying to find ways to blame Rockstar for everything \u000a#BB20 https://t.co/WXf35FBF2t
p215
aVRT @HillaryClinton: Great World Cup. Question for President Trump as he meets Putin: Do you know which team you play for?
p216
aVRT @Dictionarycom: Witch hunt: An intensive effort to discover and expose disloyalty, subversion, dishonesty, or the like.\u000a\u000aWitch-hunt: To\u2026
p217
aVRT @AprilDRyan: I support the WHCA Sstatement  against @realdonaldtrump attack on CNN, NBC and The Sun! https://t.co/zXCyF9v5vQ
p218
aVRT @zachmjonas: NH voters turn out against #HB1264. @GovChrisSununu keep your promise and veto this bill - elections should be free and fai\u2026
p219
aVRT @ItsCoreyTho: Me after Scottie evicted Swaggy: TRASH. UNLOYAL. CANCELLED.  DISGUSTED. MINION. HOPE HE GOES NEXT. \u000a\u000aMe 4 hours later afte\u2026
p220
aV@SteveScalise  https://t.co/CZ04Rx0m5H
p221
aV@ArmstrongTaran Pray for rockstar
p222
aVRT @JanellePierzina: Vote Bayleigh! Get her trending! #BB20 \U0001f64f\U0001f3fb
p223
aVSwaggy checking his nails while kaitlyn and tyler say goodbye LOL #bb20 https://t.co/M9gCHqqIJX
p224
aVMe @ swaggy's speech #BB20 https://t.co/TB5CjTrrhs
p225
aVRT @robcesternino: Coming soon to CBS:  Young Kaitlin #BB20
p226
aVRT @HRC: Thank you @RepKClark for denouncing the harmful Aderholt amendment. This legislation will do nothing but provide child welfare org\u2026
p227
aVRT @Ocasio2018: As dark as times may seem, we have a tremendous opportunity in front of us.\u000a\u000aFolks are voting like never before. Primaries\u2026
p228
aVRT @RepAdamSchiff: GOP leadership at the Strzok hearing demonstrating again that there is no water they will not carry, no character they w\u2026
p229
aV@RyanHillMI "You need your medication!" At the end \U0001f923
p230
aVRT @Joelenbach: @billyeichner One more... https://t.co/YfFw4sR5TR
p231
aVRT @ABC: FBI Agent Peter Strzok applauded by Democratic members of House Oversight Committee after passionate response to Rep. Trey Gowdy,\u2026
p232
aVRT @ForeseenJc: Look at this photograph....#BB20 https://t.co/W1fjjgpeJB
p233
aVRT @kathygriffin: Go fuck yourself https://t.co/qrlgxM6LGL
p234
aVRT @nowthisnews: Celebrities are reading this heart-wrenching letter to amplify the voice of one mother whose child was taken from her at t\u2026
p235
aVRT @thehill: NEW POLL: Americans rank Obama as the best president in their lifetime https://t.co/lC9rqJGMCc https://t.co/VrySvQqDY6
p236
aVRT @krassenstein: BREAKING:  Gov. Andrew Cuomo has announced he will sign an Executive Order to force all insurers in New York to cover ove\u2026
p237
aVRT @Ocasio2018: The fact that #ScotusPick Kavanuaugh believes that a President cannot be indicted is an automatic disqualification from Sup\u2026
p238
aVRT @sandraleesbian: ok WHO let these ladies snap so hard https://t.co/4QqmyR6y4v
p239
aVRT @goldengateblond: mood https://t.co/MrXG8ZsrRM
p240
aVRT @CoryBooker: The fact that Kavanaugh believes that a President should not be subject to civil litigation or criminal investigation while\u2026
p241
aVRT @FullFrontalSamB: Ugh, so sick of this Democratic scare tactic of repeating what the president actually said. https://t.co/DSci1UcrYa
p242
aVRT @homeisarealsong: it\u2019s midnight and i\u2019m tired so i made this https://t.co/Joh59j4qxk
p243
aVRT @JunDishes: Why can\u2019t @CBSBigBrother just leave the game alone? Why do they have to manipulate outcomes using these public voting scheme\u2026
p244
aVRT @davidhogg111: For the first time in almost two decades, the NRA is viewed unfavorably by a majority of Americans. Conversely, 66 percen\u2026
p245
aVRT @majtague: \U0001f3b6 Turning looks\u000aStunting pretty \u000aI\u2019m the bitch from New Donk City https://t.co/7UEGsVEscH
p246
aVRT @Alyssa_Milano: Why would I go on a \u201cshow\u201d that spews an agenda I don\u2019t believe in? Why would I give NRATV publicity and ratings? These\u2026
p247
aVRT @ZackBornstein: OMG LOL, my 4-year-old just put down her Legos and said, "99% of Trump voters are seeing economic downturn, but still su\u2026
p248
aVRT @lcmoser: We are the majority, and we need to act like it. https://t.co/7sAQhMrv0A
p249
aV@realityblurred That's concerning. What if survivor starts casting more like bb?! \U0001f631
p250
aVRT @Ocasio2018: With respect to the Senator, strong, clear advocacy for working class Americans isn\u2019t just for the Bronx.\u000a\u000aSen. Sanders won\u2026
p251
aVRT @_iskrenost: #DragRaceFinale https://t.co/CIZ72yzPgZ
p252
aV@alexkidwell I hope she lasts a long time.  I love the editing they do around her auras and energies. Hilarious
p253
aV@itsmelissaaa What do you mean?! The super computer crashed! We saw it with our own eyes! #Techtacular
p254
aV"I'm sweating like a nun in a cucumber patch" -Sam #bb20
p255
aVSam for America's favorite #BB20
p256
aVRT @RepAdamSchiff: McConnell held a Supreme Court seat open for a year, insisting no Justice be confirmed in an election year without voter\u2026
p257
aVRT @MichaelAvenatti: The winner of the 2020 election will most likely have the opportunity to appoint 2 SCOTUS Justices, if not 3. If Mr. T\u2026
p258
aVRT @chelseaperetti: Rape, harassment &amp; assault are often approached as \u201cwomans issues\u201d where boys and men are sidelined as silent victims.\u2026
p259
aVRT @thehill: Rhode Island lawmakers pass bill banning Trump from ballot unless he releases tax returns https://t.co/LAX96slr61 https://t.co\u2026
p260
aVRT @michelleisawolf: Even weaker: sending her in your place. https://t.co/cYAVrPCcmv
p261
aVRT @davidhogg111: Got 59 people registered to vote today in Minneapolis pride! With @ArieyannaWilli1 and @AMarch4OurLives https://t.co/OdyK\u2026
p262
aVRT @MichaelAvenatti: \u201cPhony stories of sadness and grief\u201d?!?!?!?! Why doesn\u2019t Mr. Trump show some guts &amp; join me for the next 5 mother clie\u2026
p263
aVRT @FullFrontalSamB: President Trump designed the system that kidnapped migrant children and held them hostage, but no artist works alone:\u2026
p264
aVRT @iamwandasykes: BITCH PLEASE!  You sorry ass father is the one who started the family separation.  He abused children!  And as for value\u2026
p265
aVRT @MichaelAvenatti: We are now representing whistleblowers within ICE, outside contractors, etc. They have reached out to us to provide us\u2026
p266
aVRT @SteveSchmidtSES: 29 years and nine months ago I registered to vote and became a member of The Republican Party which was founded in 185\u2026
p267
aVRT @SenKamalaHarris: It's time for Secretary Nielsen to resign. The government should be in the business of keeping families together, not\u2026
p268
aVRT @ACLU: BREAKING: The court rules that Kansas' documentary proof-of-citizenship law, which disenfranchised thousands of eligible voters,\u2026
p269
aVRT @MichaelAvenatti: Stephen Miller: Congrats, the separation policy that you sold to your boss Mr. Trump will result in images that will c\u2026
p270
aVRT @MichaelAvenatti: It does not matter who started the family separation policy. Even if it was @BarackObama (it wasn't), Trump has consis\u2026
p271
aVRT @NancyPelosi: The @HouseGOP immigration proposal is simply unworthy of America. The fact that the President himself won\u2019t sign it (becau\u2026
p272
aVRT @chrissyteigen: happy birthday, @realDonaldTrump https://t.co/BWEgRAcdPX
p273
aVRT @SenKamalaHarris: We have a bill to stop the Trump Administration's zero-tolerance policy of ripping children away from their parents. I\u2026
p274
aVRT @ALT_uscis: If you are still supporting Trump and his administration as of today: https://t.co/Hx1FyoMfOe
p275
aVRT @AprilDRyan: What we do know is @PressSec has had a lot credibility issues of late and is having a terrible time with the press.  So let\u2026
p276
aVhttps://t.co/FUv7TycwhZ
p277
aVRT @netflix: brb changing my name to Netflib
p278
aVRT @jvn: When you accuse someone of something you have three fingers pointing back at you re: Donald calling Justin weak &amp; making misleadin\u2026
p279
aVRT @jenzhuscott: This picture is trending in Chinese social media right now. https://t.co/enAu8PesPk
p280
aV@RedmondSurvivor @survivorcbs  https://t.co/58566HEnot
p281
aVRT @RepAdamSchiff: #NetNeutrality protections end today because House Republicans refused to act. Congress still has the power to restore a\u2026
p282
aVRT @davidhogg111: The young people will win https://t.co/t0b7oH3bSq
p283
aV@realityblurred I was willing to accept the returning players but the return of redemption?!?! I'm disappointed https://t.co/KlZbUmayLl
p284
aVRT @RepAdamSchiff: Separating children from their parents as a \u201cdeterrent\u201d is a deliberate cruelty. Pretending the law requires it is cowar\u2026
p285
aVRT @gilbertjasono: Well I\u2019m convinced https://t.co/CGZBfc8ZU8
p286
aVRT @axios: The students of March for Our Lives, including survivors of the Parkland high school shooting, today will announce a 60-day, 20-\u2026
p287
aV@RuPaulsDragRace can the Fab5 of @QueerEye be the subjects of next season's drag makeover episode please??
p288
aVRT @ambertamblyn: Good morning. Samantha Bee is a national treasure and one of the only exemplifications women have of anger in this countr\u2026
p289
aV@AMikeBloomType Sandra Diaz Twine's "i don't know about thaaat!"
p290
aVRT @sally_field: I like Samantha Bee a lot, but she is flat wrong to call Ivanka a cunt. \u000a\u000aCunts are powerful, beautiful, nurturing and hon\u2026
p291
aVRT @billyeichner: Honestly I think Samantha Bee was being generous.
p292
aV@thehill  https://t.co/d2CldtmQ9G
p293
aVRT @RacismDog: Woof woof woof woof woof woof woof woof woof woof woof woof woof woof https://t.co/uw14TPUUJu
p294
aVRT @lcmoser: One thing that\u2019s great about no longer being a candidate is being able to retweet this. https://t.co/7nMsv7aqbd
p295
aVBig Brother U.S. needs to be canceled and CBS should do BB Celebrity Edition ONLY https://t.co/zXcXdwX0OZ
p296
aV@AndyHerren That 1 like
p297
aVRT @AnnaKendrick47: When you are awake at 4:30 in the morning for no GD reason and you check Twitter to find that (on the day you need her\u2026
p298
aVRT @SanofiUS: People of all races, religions and nationalities work at Sanofi every day to improve the lives of people around the world. Wh\u2026
p299
aVRT @AprilDRyan: Now I am sure the makers of Ambien are not happy with @therealroseanne ! Girl just stop and go to a retreat somewhere for a\u2026
p300
aVRT @TheOnion: ABC Criticized For Unrealistic Portrayal Of Racists Actually Facing Consequences https://t.co/9iwCMwlx4u https://t.co/UFYybSk\u2026
p301
aV@KaitMarieox  https://t.co/M1FWcEIRSq
p302
aVRT @JacksonLeeTX18: I kneel in honor of the first amendment. I kneel because the flag is a symbol of freedom.\u000a\u000a#TakeAKnee\u000a#FreeSpeech \u000a#BeT\u2026
p303
aVAfter hearing #RoseanneCancelled https://t.co/Yu2t0JuCKj
p304
aVRT @zblay: y'all wanted a white working-class family sitcom when Bob's Burgers was here for you all along smh https://t.co/h8uQS1L9Ua
p305
aVRT @wkamaubell: So @ABCNetwork, does this Roseanne hole in the schedule mean we can finally get that pulled Colin Kaepernick @blackishabc e\u2026
p306
aVRT @KrangTNelson: if you\u2019re thinking abt writing a \u201croseanne is being silenced for her conservative views\u201d take plz consider the fact that\u2026
p307
aVRT @billyeichner: #FireRoseanne and fuck your nostalgia. Go work on Mad About You if you're so damn nostalgic.
p308
aVRT @iamwandasykes: I will not be returning to @RoseanneOnABC.
p309
aV@RedmondSurvivor  https://t.co/PYZUAlARiy
p310
aVRT @davidfrum: Many people question this president, but it\u2019s no small achievement to write the grossest, most inappropriate, most self-flat\u2026
p311
aVRT @goldengateblond: starting the lord\u2019s day off right https://t.co/lXe4uUjOuU
p312
aVRT @JimCarrey: 1500 innocent children ripped from their mothers\u2019 arms at our border. Lost in Trump\u2019s \u201csystem\u201d. Give us your tired, your poo\u2026
p313
aVRT @RepAdamSchiff: It begins by seeding the ground with a falsehood: "They spied on the Trump campaign." It's then promoted by the Presiden\u2026
p314
aVRT @MichaelAvenatti: Dazed &amp; Confused Giuliani and Mr. Trump\u2019s fabricated \u201cspygate\u201d will be the ruse they use to deceive the American peopl\u2026
p315
aV@OneLuckyGay listening to LFC on survivor finale.  100% agree with your assessment of laurel's lack of moves. I lov\u2026 https://t.co/BYdLE1ngVk
p316
aVRT @donathanhurley: Life. Made. @Sia  - I thank you from the bottom of my heart. As a fan, it was SUCH A DREAM to get to meet you. You are\u2026
p317
aVRT @TheRealChrissyH: I think I forever cursed the F4 challenge winner to 2nd place \U0001f631\u000a#SurvivorGhostIsland \U0001f47b\U0001f334\u000a#sayitisntso
p318
aVRT @HannahLilNessen: Jeff to little girl: THE PRESSURE IS ON. ONE BAD DECISION CAN HAUNT YOU THE REST OF YOUR LIFE.\u000a#Survivor
p319
aVOmg #CBS got a sia wrangler to prevent her from hijacking the #survivor reunion again.  SAD! #GhostIsland
p320
aV#survivor Laurel (for the 3rd time in a row): now's my chance to make a big move!\u000aViewers: finally!\u000aLaurel: https://t.co/GunGaijWjE
p321
aVRT @RepAdamSchiff: There\u2019s a reason why this is the most scandal-plagued Administration in modern history. When you combine an unethical Pr\u2026
p322
aV@OneLuckyGay The only all-star i want to see: https://t.co/zKW86BL64b
p323
aVRT @SurvivorQuotesX: Bouncing into finale week like.... #Survivor #SurvivorGhostIsland https://t.co/XoY3vh6OV8
p324
aVRT @carvellwallace: two weeks ago today a white woman tried to call the police on about 8 black folks barbecuing. Today in that same spot t\u2026
p325
aV\U0001f602 https://t.co/6ND1pmWr8q via @theonion
p326
aVRT @StormyDaniels: We didn't have a "conversation". You paid for pic&amp; took a pic. You said my attorney was great. I agreed&amp;said he knows it\u2026
p327
aVRT @RandyBailey1720: I wish I had embarrassed myself by stalking a girl on #BigBrother... then quit #Survivor Gabon on day 9... then got vo\u2026
p328
aVRT @Neil_McNeil: Mama Ru... I don't feel so good https://t.co/bpLhxyPtRs
p329
aVRT @DonnieTheCon: @williamlegate Here is another picture of him... https://t.co/dohjWCcx6e
p330
aVRT @shannonrwatts: Interviewer: \u201cWas there a part of you that was like, \u2018This could not happen at my school?\u2019\u201d\u000a\u000aSanta Fe High School studen\u2026
p331
aVRT @billyeichner: Forget your thoughts and prayers. You've been praying since Columbine. YOUR PRAYERS DON'T WORK. Can the rest of us ration\u2026
p332
aVRT @MichaelAvenatti: The sheer panic of @foxnews and others is on full display. They know my client and I are a real and present danger to\u2026
p333
aVRT @RealDonaldTrFan: When I called all immigrants "Animals," Fake News Media DID NOT REPORT that I was ONLY trying to dehumanize them so ev\u2026
p334
aVRT @MichaelAvenatti: This is getting too easy. What an absolute train wreck this guy is. EVERY time!!! #Embarrassment #TimeForPasture #Daze\u2026
p335
aVRT @billyeichner: I hear a blue wave coming to crush you you fucking fascists https://t.co/TjNQPjbrTC
p336
aVRT @IGIF_: Angela reminds me of kramer. \U0001f602\U0001f923 #Survivor https://t.co/c4LQ6OPQ2k
p337
aV@survivorcbs every survivor viewer when Laurel loses the game to Dom or Wendell: https://t.co/BKc3SmGF5y
p338
aVRT @themaxburns: RUDY BROUGHT NOTES https://t.co/r31yyjnh71
p339
aVRT @CORINSANITY: Just once more, let me say something. I DONT FUCKING CARE IF YOU\u2019RE IN A RELATIONSHIP, IF IT DIDNT AIR.  No one gives a fu\u2026
p340
aVRT @MarleeMatlin: Yanni or Laurel? Don't ask me. I can't hear sh*t
p341
aV@DavidBloomberg I would love this! But the edit is making it seem like laurel would not go along \U0001f625
p342
aVRT @HannahLilNessen: Jeff: Unbelievable. Angela and Donathon, there are not that many pieces to this puzzle. I mean come on. So simple. Lik\u2026
p343
aV"This secret vote steal has been maturing on ghost island for 6 days," #Survivor #GhostIsland #lameadvantage
p344
aVRT @RepKClark: In the 21st century, access to a free and open internet isn\u2019t a privilege, it\u2019s a right. Join the fight to save #NetNeutrali\u2026
p345
aVRT @MichaelAvenatti: Mr. Trump\u2019s disclosure today conclusively proves that the American people were deceived by Mr. Cohen, Mr. Trump, Mr. S\u2026
p346
aVRT @RepAdamSchiff: The American people have made clear they want a free and open internet, without fast lanes and slow lanes. \u000a\u000aIt\u2019s time f\u2026
p347
aVRT @mitchellmoffit: My favorite player on this season of Survivor https://t.co/8qkNoM1Dss
p348
aV@Gizmodo @williamlegate \U0001f602
p349
aVRT @TheRickyDavila: After my friends at the @ACLU help to free a mom who was detained by ICE-Gestapo for 3 months, she had a tearful reunio\u2026
p350
aVRT @jessphoenix2018: Between now &amp; Weds, call your Senator &amp; Representative. Thank them if they're voting to repeal the FCC rules. If they\u2026
p351
aVRT @Alyssa_Milano: There\u2019s been a lot of progress in the last 90 days since the tragedy in Parkland. \u000a\u000aA thread that the @NRA doesn\u2019t want\u2026
p352
aVRT @The_UnSilent_: This will never get old. \u000a\u000aI \u2764\ufe0fyou Internet.  https://t.co/2PTqsVs0D1
p353
aVRT @jessphoenix2018: Comments like this reveal the urgent need for scientists in government. Climate and weather are two different things.\u2026
p354
aVRT @roseysoho: @CORINSANITY Me whenever I hear of a show being brought back that isn\u2019t Happy Endings: https://t.co/UckCGH7hgD
p355
aVRT @SenWarren: Today, Senate Democrats are moving to force a vote on @SenMarkey\u2019s resolution to save #NetNeutrality. We only need #OneMoreV\u2026
p356
aVRT @samstein: Something fishy here.\u000a\u000aNovartis paid Cohen $100k-a-month to do\u2026. nothing. \u000a\u000aThe company paid its actual lobbying firms $12,00\u2026
p357
aVRT @donathanhurley: It just felt nice to put \u201cNaviti Strong\u201d in a corner - for once!
p358
aVRT @HannahLilNessen: Dom: The ladies were left back at camp. We don't know what they did. They could have talked strategy. They could have\u2026
p359
aV@DavidBloomberg Laurel must've told Wendell and Dom again
p360
aV@hashtagfiggy She probably tattled again
p361
aV@ErikReichenb4ch  https://t.co/J4Qq0Eesns
p362
aVRT @ErikReichenb4ch: Girls conniving. Wendell has my old immunity necklace. Black widows are somewhere, spinning webs. A laugh from Cirie e\u2026
p363
aVkellyn is so annoying! #survivor
p364
aVRT @MichaelAvenatti: WOW. Evidently, the personal attorney to Mr. Trump (NOT a lobbying firm) was actively soliciting clients and trying to\u2026
p365
aVRT @MichaelAvenatti: Priceless = Watching all of the companies that sent money to the LLC slush fund come up with different alleged reasons\u2026
p366
aVRT @JRosenworcel: This document is historic.\u000a\u000aIt's the discharge petition filed today in the Senate to force a vote to overturn the @FCC de\u2026
p367
aVRT @cameron_kasky: https://t.co/idm0ly0bu4
p368
aVRT @billyeichner: Once you're done reading about Roseanne anal sex-shaming, Stormy Daniels calling her a twat and DJ Khaled not eating puss\u2026
p369
aVRT @MichaelAvenatti: Rudy Giuliani - the only \u201cambulance\u201d I have ever chased in my career is the one you are driving right now in a despera\u2026
p370
aVRT @FullFrontalSamB: It\u2019s not an insult, it\u2019s her job description. #SamanthaBee https://t.co/BvdAgc8ZhN
p371
aVRT @kgrohh: Anyone: \u201cHi-\u201c\u000a\u000aMe: \u201cARE YOU REGISTERED TO VOTE AT YOUR CURRENT ADDRESS\u201d https://t.co/2BnA5KlafK
p372
aV@stephenfishbach @DaltonRoss I don't like that we only have the choice between the two finalists. @SandraDTwine sho\u2026 https://t.co/9HVXCPhiHi
p373
aVRT @ACLU: For the Vice President to call someone held in contempt of court for unconstitutional racial profiling a \u201ctireless champion\u201d of t\u2026
p374
aVRT @FullFrontalSamB: See @michelleisawolf, this is how you tell a non-offensive joke that everyone likes. https://t.co/JCQ3ii1h7H
p375
aVI just watched @michelleisawolf's #WHCD remarks and i was laughing out loud.  I loved it
p376
aVRT @jimmykimmel: Dear "the media" - @michelleisawolf was FUNNY.  Hire a juggler next year.
p377
aV@survivorcbs @JeffProbst They knew he was a quitter and they invited him back anyway. . . . https://t.co/oJM9J4KvqN
p378
aVRT @BettyBowers: FIRST RULE OF COMEDY: Don't do this. https://t.co/Xgub1Zeb4s
p379
aVRT @lcmoser: This guy is writing my ads for me! https://t.co/UNWq4RK0Ws
p380
aVRT @RandyBailey1720: As a #survivor alumnus, it disgusts me seeing the cast of #SurvivorGhostIsland getting along so well.  If you play the\u2026
p381
aVThanks @BretLaBelle @AdamScottKlein @hamm0481 @jessicalewis89 for meeting with us at #RHAP! \U0001f525\U0001f334 https://t.co/emDCAD5Nal
p382
aVRT @survivorcbs: Sip, sip. \U0001f440  #Survivor https://t.co/7BJyupy279
p383
aV@DavidBloomberg Please be Kellyn.  She's always targeting my faves! https://t.co/t8NZms6uPh
p384
aV@AMikeBloomType Production needs you for ghost island 2
p385
aV@stephenfishbach Please be right!!
p386
aVRT @HannahLilNessen: "Donathan is not part of this"\u000a"Donathan can not win this challenge"\u000a"You can choose anyone but Donathan"\u000a"Donathan, y\u2026
p387
aVRT @billyeichner: Please, please, please let me never turn into a person who needs publicity so badly that I endorse racism, misogyny, homo\u2026
p388
aVRT @MassAGO: It's not too late to stop the FCC and save #NetNeutrality. We're taking a stand to protect the internet and the free exchange\u2026
p389
aVRT @ErikReichenb4ch: If you aren't on the #Survivor sub @reddit you're missing out on incredible memes by Scooby and the Gang. \U0001f47b #SurvivorG\u2026
p390
aVEvery lyft/uber driver I've met looks 90% more like a serial killer in their profile photo than in real life.
p391
aVRT @jonfavs: 19 witches indicted\u000a5 witch guilty pleas https://t.co/wenBXDXdQ7
p392
aVRT @SenKamalaHarris: I\u2019m part of a group of 39 senators and 131 representatives calling on Scott Pruitt to resign. This is the most Senator\u2026
p393
aVRT @ArmstrongTaran: Angela to Michael all over this episode. #Survivor https://t.co/KV4c7MjiKy
p394
aVRT @perksofbeingHC: \u201cI\u2019m probably only going to play Surivvor once\u201d a very rare perspective from a Survivor contestant #SurvivorGhostIsland
p395
aVRT @jessicalewis89: "He's high every time." Jeff Probst\u000a#Survivor #WhyXLost https://t.co/08O8JWBzxv
p396
aVRT @BriceIzyah: I think I got my freakiest freak \U0001f602\U0001f602\U0001f602\U0001f602\U0001f602\U0001f602 deep throat \U0001f62b\U0001f62b\U0001f62b\U0001f62b\U0001f62b #Survivor #SurvivorGhostIsland
p397
aVRT @nowthisnews: Confused about midterm elections? Let @YaraShahidi explain why your vote is even more important this year #Eighteenx18 htt\u2026
p398
aVRT @mishacollins: Breaking: Michael Cohen\u2019s fourth client revealed... https://t.co/n5xLljS81s
p399
aVRT @HoarseWisperer: Stormy Daniels is just KILLING Trump at the media game. https://t.co/swyDQkPGHD
p400
aVRT @jessphoenix2018: I, for one, will not shed a tear if @seanhannity goes down like a lead balloon. His brand of insidious mudslinging has\u2026
p401
aVRT @voxdotcom: A judge has rejected President Trump and Michael Cohen's attempt to block investigators from reviewing evidence seized in FB\u2026
p402
aVRT @RepKClark: Surprising no one, #ScottPruitt's irresponsible and wasteful spending at the @EPA violated federal law. Another day focused\u2026
p403
aVRT @MikeDrucker: Fox News: Where every vacation is sudden and mandatory
p404
aVRT @FullFrontalSamB: He watches ONE Beyonce performance... https://t.co/ootEIPS8bw
p405
aVRT @HamillHimself: Only YOU can make this happen. \U0001f91e\u000a#TwitterTest https://t.co/aBPUo3PvWS
p406
aVRT @notcapnamerica: White people: watch the Starbucks arrest video.  See the white folks arguing with the police and asking why two innocen\u2026
p407
aVRT @TheMichaelaB: The purposeful ambiguity of \u201cthis,\u201d \u201cthese matters,\u201d and \u201cincidents\u201d is disgusting. Since @Starbucks won\u2019t, I apologize t\u2026
p408
aVRT @cmclymer: Sarah Sanders wanted really badly to have a dramatic photo of the decision to bomb Syria. It didn't work out so well. A play\u2026
p409
aV@PEIHGEE I would say Lit is the new Dope but I think Lit has probably already been replaced and I'm not aware
p410
aVRT @survivorcbs: No words needed. #Survivor https://t.co/Fkh0uifqXw
p411
aVRT @laurenduca: Paul Ryan will forever be remembered for his spineless complicity in Donald Trump's continued degradation of our democracy,\u2026
p412
aVRT @gordonholmes: Eleven-person alliance? What could go wrong? #Survivor
p413
aV@melgotserved I wanted to like her but she's just the worst from a viewer perspective
p414
aVRT @melgotserved: There's a Domenick and Chris war, and Kellyn's here trying to get rid of another Malolo. C'MON. #Survivor
p415
aV@melgotserved That was so frustrating!!
p416
aVKellyn still wants to just vote out malolos. This is why i am not a fan of her.  LEAVE LIBBY ALONE! #Survivor #SurvivorGhostIsland
p417
aVRT @JeffYoung: tfw you aren't being grilled by the Senate Judiciary Committee https://t.co/0gbOmDtJq8
p418
aVRT @ShaunKing: Paul Ryan is a coward.\u000a\u000aOnce hailed for having a big heart, he's shown no sign of it when this country needed it. His distri\u2026
p419
aVRT @andreaboehlke: Happy #Survivor merge day! It\u2019s overwhelming to all come together on the same beach and strategize. just remember to sta\u2026
p420
aVRT @JoyAnnReid: Payl Ryan will be remembered in history for two things: ramming through a tax cut that served none but the wealthy (like hi\u2026
p421
aVRT @davestei: So much winning! https://t.co/L2m46X7pLX
p422
aVRT @alliewach: grow up ashley https://t.co/knM0geqoBa
p423
aVRT @HannahLilNessen: Roommate: Where did my 20 bucks go? It was just on the table.\u000aMe: https://t.co/zBluU3r8jt
p424
aVRT @FullFrontalSamB: I don\u2019t take normal #NationalLibraryWeek photos... https://t.co/ZFvtGQ8erT
p425
aVRT @AliPlumb: I unironically love this joke. https://t.co/TsiR719dIG
p426
aVRT @ACLU: We still strongly feel that the White House should stop lying about voter fraud. https://t.co/TACb1Bzjkc
p427
aVRT @MattxRed: Rick Scott signed nothing in regards to gun reform after Pulse.\u000a\u000a612 days later. Parkland happens. \u000a\u000aDid he say anything abou\u2026
p428
aVRT @nowthisnews: BREAKING: A federal judge just declared that the AR-15 and other assault weapons fall outside the scope of the Second Amen\u2026
p429
aVRT @jimmykimmel: Dear @SeanHannity thx for the trip down Man Show memory lane. The idea that YOU'd call ANYONE a \u201cpervert\u201d while slobbering\u2026
p430
aVRT @MassAGO: #BREAKING Court upholds our enforcement of the Massachusetts assault weapons ban. Declares that the AR-15 and other assault we\u2026
p431
aVRT @chelseahandler: Small victories... Today, Boston-The US District Court\u2019s rejection today of a challenge to Massachusetts\u2019 Assault Weapo\u2026
p432
aVRT @AyeshaASiddiqi: Bob\u2019s Burgers is already the excellent family comedy about a working class white family that people keep trying to prai\u2026
p433
aVRT @jimmykimmel: Don't worry - just keep tweeting - you'll get back on top!  (or does Trump prefer you on bottom?)  Either way, keep your c\u2026
p434
aVRT @andreaboehlke: If you                         Then you\u000adon\u2019t love                  don\u2019t deserve \u000ame at my                   me at my h\u2026
p435
aV@Pevenly1  https://t.co/Dw2LWl1ETs
p436
aVRT @JimCarrey: I looked on Trivago. The cheapest room in Washington is a youth hostel with bunkbeds at $81 a night. The $50 room Scott Prui\u2026
p437
aVRT @TheDemCoalition: This is awesome. Hours after Oklahoma State Rep. @kmcdugle posted a mansplaining video scolding teachers for \u201cthe way\u2026
p438
aVRT @AriFerarri: "This is la Casa de Charmin. It has been living on ghost Island for the past 13 years and slowly gaining power. It can now\u2026
p439
aVRT @davidhogg111: Definitely did not say that.\u000a\u000aWe endorse policy not people. https://t.co/wukfY4XAKE
p440
aVRT @WillFromAmerica: Since idols this season keep getting bigger, I'd like Yau-Man's stolen car to come back as an idol so it's impossible\u2026
p441
aVRT @RoarksTweets: Michael finds James\u2019 idol: \u201cwell this will be impossible to hide on my person\u201d\u000aWendell finds Erik\u2019s necklace: \u201chold my be\u2026
p442
aVRT @andreaboehlke: lol we know the stick wasn\u2019t on ghost island gaining power for 10 years #survivor but okay fine i\u2019ll bite
p443
aV@DaltonRoss They should've inserted Wendell's scene into the last episode.  It was so boring.  Tonight is much better
p444
aVRT @survivoraddict8: #SurvivorGhostIsland #survivor https://t.co/GVtOWqipdB
p445
aVRT @melgotserved: "This stick has been living on Ghost Island for ten years" #Survivor https://t.co/qXDx6DandU
p446
aVRT @jennyautumn: finally the fucking stick!!! \U0001f64c\U0001f3fb #survivor
p447
aVRT @kimpetras: Me waiting for the next video to come out https://t.co/IA4KrZUHK3
p448
aVRT @SenSanders: Hearing what\u2019s on the minds of young people in Memphis before we march for #MLK50. https://t.co/51fpJg89Js
p449
aVRT @MattxRed: March For Our Lives (2018) https://t.co/Rzva4Pcyon
p450
aVRT @Sarahchadwickk: OMG https://t.co/1s0Ii7zhlf
p451
aVRT @chrissyteigen: I don\u2019t want to brag but tonight we made a dinner that could easily be mistaken for chili\u2019s https://t.co/0m7RqYqpJ6
p452
aVMA represent! https://t.co/W4m8RZ3GkD
p453
aV@realityblurred @magicalelves @nicolebyer Please tell me it's been renewed. 6 eps was not enough!
p454
aVRT @DanRather: News anchors looking into camera and reading a script handed down by a corporate overlord, words meant to obscure the truth\u2026
p455
aVRT @Sarahchadwickk: .@marcorubio https://t.co/yxuXCRGCiE
p456
aVRT @runtrimom: #SurvivorGhostIsland \U0001f606\U0001f9e1\U0001f9e1\U0001f9e1 https://t.co/OrZDYEcFlk
p457
aVRT @HamillHimself: I hate our President BECAUSE I love our country. https://t.co/VYnPjGoruV
p458
aVRT @BayerUS: We have stopped advertising on Laura Ingraham and we have no plans to resume any time in the future.
p459
aVRT @Sarahchadwickk: I\u2019ve been working very closely with the company that designed the 1.05 price tags for the March and we are excited to a\u2026
p460
aVRT @voxdotcom: Teens are leading the movement to end gun violence in America.\u000a\u000aThey also smoke less, drink less and fight less than older g\u2026
p461
aVRT @BettyBowers: If ever asked for a perfect example of an accusation that is projection, play this vid of Sinclair Broadcast Group crisis\u2026
p462
aVRT @DavidYankovich: Here is my unpopular opinion- Disney sucks. \u000aThey are one of the worst companies to work for, they treat people like sh\u2026
p463
aVRT @joncoopertweets: Pressure is mounting on @FoxNews to fire @IngrahamAngle, as at least 16 sponsors have announced they'll stop future ad\u2026
p464
aVRT @eorlins: THANK YOU TO: @Nutrish, @TripAdvisor, and @Wayfair, who have all announced they are removing their advertisements from @Ingrah\u2026
p465
aVSo glad i don't have to switch by insurance company now! https://t.co/lfcq8abLwv
p466
aVRT @samicappa: #Survivor - Season 36, Ghost Island\u000aThe Sixth Boot: James Lim\u000a\u000a@survivorcbs @JamesLimSays https://t.co/fF79NK6g97
p467
aV@joshnathankazis Does she not have a publicist or anyone else to tell her this was a bad idea??
p468
aVRT @joshnathankazis: throwback thursday https://t.co/PBlSF7uCE8
p469
aVRT @caroline_oreo: The girl Flo Rida sings about in Low was wearing apple bottom jeans, boots with the fur, baggy sweatpants, AND reeboks w\u2026
p470
aVRT @MassAGO: #BREAKING Massachusetts and @AGSchneiderman beat Exxon in federal court. Judge ridicules company's claims against our investig\u2026
p471
aVRT @davidhogg111: Focus less on fear and more on facts. Then we can save lives in this country together.
p472
aVRT @Sarahchadwickk: Wow, your show must really be struggling if a teenagers rejection to a college is your headline. https://t.co/UCCiqlxPxV
p473
aVRT @Alyssa_Milano: Hey, Laura! I\u2019m not sure why you have such animosity for David, but maybe just scream into a pillow instead of publicly\u2026
p474
aV@melgotserved This week and last were both duds
p475
aVAnother lame tribal. #SurvivorGhostIsland
p476
aVRT @HannahLilNessen: Jeff: You may never win as a tribe. I may never like you. Everyone may hate you. It is what it is.\u000a#Survivor
p477
aV@KingDarnell_32 Omg i didn't even notice until this tweet
p478
aVRT @melgotserved: Weird. No one ever calls another player Shambo 2.0. #Survivor
p479
aV@jessicalewis89 \U0001f91e
p480
aVRT @FullFrontalSamB: Thanks! We're pleased, too! #GreatAmericanPuertoRico https://t.co/z82w59N47t
p481
aVRT @jptrib1: Donald Trump ranked worst president in US history by nearly 200 political scientists https://t.co/hgoOgvhOs4 via @YahooNews
p482
aVRT @JaclynCorin: Spoiler alert: If you put your mind to something, you\u2019ll get it done - no matter your age. https://t.co/wlD2ANHyZU
p483
aVRT @Sarahchadwickk: https://t.co/g6y1EXTTY7
p484
aV@donathanhurley @davidguetta @Sia Get Sia to crash another live Survivor reunion!
p485
aVRT @donathanhurley: OH MY LOVE DON\u2019T STOP BURNIN\u2019, GONNA SEND THEM UP IN FLAMES \U0001f525\U0001f525\U0001f525\U0001f483\U0001f483\U0001f57a\U0001f57a\U0001f57a\U0001f3b5\U0001f3b5\U0001f3b5 @davidguetta @sia I needed this song right now!\u2026
p486
aVRT @JaclynCorin: 96 deaths by firearm every day is not what I call great. https://t.co/pLP6HiqlDG
p487
aVRT @jonsoltz: Enough said. #VetsVsTheNRA #MarchForOurLives https://t.co/9lLTgGrNbd
p488
aVRT @Emma4Change: Real Quick: my speech today was abt 6 mins &amp; 30 secs, including both my speech and my silence. The fact that people think\u2026
p489
aVRT @ParisHilton: Marvel: "Infinity War is the most ambitious crossover event in history." \u000a\u000aMe: https://t.co/4rxIDOccu6
p490
aVRT @BarackObama: Michelle and I are so inspired by all the young people who made today\u2019s marches happen. Keep at it. You\u2019re leading us forw\u2026
p491
aVRT @HannahLilNessen: One day, each one of these kids is going to replace every member of Congress who holds an A rating from the NRA. #Marc\u2026
p492
aVRT @Emma4Change: I have absolutely no words... Thank you not only for your service but for standing with us as we #MarchForOurLives tomorro\u2026
p493
aVRT @thehill: Woman admits she was paid to make fake conspiracy videos about Parkland sheriff https://t.co/ODNRBxnjMa https://t.co/ajhlxogqC5
p494
aVRT @Jennife45516132: I absolutely love it #EnoughisEnough #MarchForOurLives https://t.co/VN6ZZXotRy
p495
aVRT @CREWcrew: Ben Carson\u2019s defense that he let his wife pick out the $31,000 dining set only raises more questions: why is she making decis\u2026
p496
aVRT @ACLU: If you're marching in DC this weekend, here's what you should know. #MarchForOurLives https://t.co/1FhBIKGD7G
p497
aVRT @Azniac: Marvel: 'Infinity War is the most ambitious crossover event in history'\u000a\u000ame: https://t.co/IHouxs8yp7
p498
aVRT @Ryan__Kaiser: How the hell did Desiree keep her eyes open during this? #Survivor https://t.co/dqOngPPn3O
p499
aV@BillyGiese @runtrimom Ali Elliott\u000aMari takahashi\u000aFrancesca Hogi
p500
aV@JoyAnnReid  https://t.co/5mED6u6SRU
p501
aV@RedmondSurvivor Here's hoping for a returner season as good as heroes vs villains https://t.co/oFnXjhxHAj
p502
aVRT @realityblurred: CBS confirmed the #Survivor Ghost Island finale will be May 23, and the usual three hours.
p503
aV@Peach time to step up the #PeachMadness game for #100BeaverStreet the competition is heating up!
p504
aVYay now Stephanie can get whatever advantage Kellyn didn't want! #survivor
p505
aVRT @rupbot: There's a lot of back stabbing in this 46.
p506
aVRT @AMarch4OurLives: We see these lawmakers representing the NRA, and not their constituents. We see our \u201cleaders\u201d making excuses and refus\u2026
p507
aVRT @yashar: Former Congresswoman Gabby Giffords' PAC @GiffordsCourage is running ads against Paul Ryan and using Trump's own words to attac\u2026
p508
aV@JacobDerwin I was wondering the same thing!
p509
aVRT @MassAGO: Met with some of the bravest young leaders in America, the students from Parkland. On their behalf, and on behalf of all those\u2026
p510
aV@Peach helping #100BeaverStreet  win with some more #PeachMadness tweets https://t.co/L7EOJjbsCX
p511
aVRT @StormyDaniels: Technically I didn't sleep with the POTUS 12 years ago. There was no sleeping (hehe) and he was just a goofy reality TV\u2026
p512
aVRT @HannahLilNessen: Coming to terms with the fact that my celebrity doppelgnger is Weird Al was the first step in accepting myself
p513
aV@DaltonRoss YES! Everyone should retire after 3 tries (except for Cirie Fields who should just be thrown in every 5\u2026 https://t.co/nThjx5kLQ8
p514
aV@Peach one last #peachmadness tweet before the round ends.  I want #100BeaverStreet to survive!
p515
aV@Peach I may be the only one following the #PeachMadness bracket more closely than actual March Madness #100BeaverStreet
p516
aVI'm proud of my state representative \U0001f44f https://t.co/LOYG4zlbD7
p517
aVRT @EW: John Oliver's gay bunny 'Marlon Bundo' book is now No. 1 on Amazon https://t.co/DLszemmy8r
p518
aVRT @gilbertjasono: THE RIGHT: Liberals are sensitive snowflakes who need safe spaces!!\u000a\u000aALSO THE RIGHT: https://t.co/zPBjn7ODqw
p519
aVRT @JimCarrey: I\u2019m dumping my @facebook stock and deleting my page because @facebook profited from Russian interference in our elections an\u2026
p520
aV@ErikReichenb4ch I've wanted to #DeleteFacebook for a while,  but i love how easy it is to login to other apps thro\u2026 https://t.co/RecChyTgYR
p521
aVFootage of me waiting for a meeting to end so I can eat @Peach #PeachMadness #100BeaverStreet https://t.co/vjeuD03051
p522
aVRT @melgotserved: "Infinity War is the most ambitious crossover event in history." https://t.co/2caCkZuePz
p523
aV@Peach me on #PeachMadness competition for #100BeaverStreet. I want that free peach! https://t.co/xZdkZy60b2
p524
aV@Peach Crushing the competition for #100BeaverStreet #PeachMadness
p525
aVRT @JimCarrey: This is the portrait of a so-called Christian whose only purpose in life is to lie for the wicked. Monstrous! https://t.co/M\u2026
p526
aVRT @Sarahchadwickk: There is officially a march on every continent!
p527
aVRT @davidhogg111: Realize that the one thing that the NRA is counting on is for us to forget about this and move on. We're  NOT going to un\u2026
p528
aVRT @RepAdamSchiff: The President, through his lawyer, called on DOJ to end Mueller probe. Obstruction of justice is no less a threat to our\u2026
p529
aVRT @mariah_june: https://t.co/cMWfrQufrR
p530
aVRT @stonecold2050: https://t.co/Pg9ADv0hV3
p531
aVRT @HannahLilNessen: WHAT A LIE YOUNG CHAP #Survivor
p532
aVRT @melgotserved: WHAT A STELLAR LIE. #Survivor
p533
aV@jennyautumn Oops
p534
aVRT @ethansaslater: Proud of our company. #nationalwalkout https://t.co/VNjosE57Pu
p535
aVBased on the random "and Bradley was cocky" included in the "previously on" section,  I think Bradley is going toni\u2026 https://t.co/nxEIbMDCVO
p536
aV@jennyautumn  https://t.co/jyjmLwMmXy
p537
aV@DavidBloomberg @domenick_abbate He says after he's already told 3 people
p538
aVRT @nytimes: Breaking News: The Democrat Conor Lamb has an insurmountable lead in a Pennsylvania House race in Trump country. We\u2019re calling\u2026
p539
aVRT @HannahLilNessen: And the ghost of @TheMichaelaB 's boobs will now be shown as a flashback during this #Survivor challenge
p540
aV@Sarahchadwickk Props to #Nikelodeon !
p541
aVCan this please be the last season we see the lame #legacyadvantage on #survivor ?! https://t.co/6C0ppK4WAK
p542
aVRT @sarahmcgbeauty: A drag queen dressed as Elsa just single-handedly freed a stuck police wagon from a blizzard in the middle of March. If\u2026
p543
aVRT @DriebergenBen: TFW you wake up and know Survivor is on tonight!! https://t.co/DWbuVEZWGE
p544
aVRT @FullFrontalSamB: To all the kids walking out of school today, you are the change we want to see. Thank you. #NationalWalkoutDay
p545
aV@AynRandPaulRyan Last few precincts are killing me
p546
aV@DaltonRoss best: heroes v villains\u000aworst: worlds apart
p547
aVRT @NancyPelosi: With @SpeakerRyan's blessing, @HouseGOP has abandoned their oath to support/defend the Constitution &amp; protect Americans. T\u2026
p548
aVRT @KathleenClyde: On Friday, I testified to the U.S. Commission on Civil Rights Ohio Advisory Committee about the state of voting rights i\u2026
p549
aV@MikeyBeau Daylight savings time is the best!
p550
aVRT @meeshfitz: The key to a healthy, balanced life is avoiding all social media during Survivor season.
p551
aVRT @ksbechto: "Oh hey girlfriend! (who has a baby) Of COURSE I wasn't talking about YOUR baby!" .... a text I sent 47 times tonight #surviv\u2026
p552
aVRT @perksofbeingHC: My parents always ask me while I\u2019m ranting and screaming at the tv: \u201cWhy do you even watch, if it makes you so angry?\u201d\u2026
p553
aV#Survivor is only an hour long but then I have to spend the next hour looking at all the tweets I missed. #Ghostisland
p554
aV@alexkidwell But don't they now gain 2 allies in Angela and Chris? Now they're in a majority until next swap
p555
aV@stephenfishbach @roundhoward Did I miss how Maololo's target landed on Morgan our did they not explain? Why not Dom or Wendell?
p556
aVRT @HaymakerHattie: Arguably wouldn\u2019t be the worst tribe name we\u2019ve ever had on #Survivor https://t.co/PH65VJie8W
p557
aVThat immunity puzzle on #Survivor https://t.co/fZYm3f8RnL
p558
aVRT @JamesLimSays: Survivor Math 101: With a 10-8 minority, the odds that Malolo got 5-4 minorities on both new tribes was 40%. #Survivor #T\u2026
p559
aV@arisacox @GlobalTV @BigBrotherCA Is there any way for Americans to watch live?!
p560
aVRT @cameron_kasky: It\u2019s funny when people use the \u201cyour feelings don\u2019t matter when the facts are right here\u201d rhetoric and then complain tha\u2026
p561
aVRT @sarahchad_: "To every spokeswoman with an hourglass who uses free speech to alter and undermine what our flag represents...Your Time is\u2026
p562
aVRT @HayesBrown: you, a fool: acknowledges subpoena, answers questions behind closed doors\u000a\u000asam nunberg, a genius: ignores subpoena, answers\u2026
p563
aV@MikeyBeau Both are pretty bad tbh
p564
aVRT @davidhogg111: So #dishonestdonald How many times have you used tax payer dollars to go to play golf while our kids keep dying?
p565
aVRT @meeshfitz: If you aren\u2019t on the side of protecting children then you\u2019re on the fucking wrong side #GunControlNow
p566
aVRT @CNN: Actress Jennifer Lawrence says she's going to spend a year away from movie sets to help get young people engaged with politics htt\u2026
p567
aVRT @sarahchad_: I just want to thank companies who have cut their ties with the NRA. Thank you for caring and thank you for being on the ri\u2026
p568
aVRT @Emma4Change: You know what matters here? People Keep Dying. Until Politicians care more about People than they do about Money, random a\u2026
p569
aVRT @cameron_kasky: This is amazing. \u000a\u000aThank you @lyft. #NEVERAGAIN #MarchForOurLives https://t.co/viD19fXQnC
p570
aVRT @TeamPelosi: RT if you agree: Jared Kushner should be removed from the White House immediately. It's preposterous that he's even there t\u2026
p571
aV@BettyBowers #BoycottGeorgia
p572
aVRT @SandraDTwine: #NewProfilePic https://t.co/1IaVyyaFAE
p573
aVRT @josh_walker1: \u201cDid your idol come with a note?\u201d #Survivor https://t.co/LJQUDgV8En
p574
aV@JeffProbst  https://t.co/2wDP2MzoNY
p575
aVRT @JeffProbst: #survivorfans I want to say thank you for making the premiere of Survivor: Ghost Island the MOST WATCHED SHOW of the entire\u2026
p576
aV@helloross @colbertlateshow Thank you
p577
aVRT @helloross: No shade, but Omarosa is mistaken. This convo was not about the Dreamers (we discussed that at another time). This convo was\u2026
p578
aV@ucantdothat121 Lol it looked like donathan ate the #GhostIsland rations for the entire season.  Next person there will starve!
p579
aV@OneLuckyGay Gonzalez would've done it!!
p580
aV@JeffProbst Jay from millennial v gen X
p581
aVRT @laurenduca: It is beyond insulting to treat Hope Hicks as a victim, as if being a young woman negates the potential for total agency. S\u2026
p582
aVRT @gordonholmes: Survivor 37: People Pretending Not to Be Law Students vs. Parents Who Want to Show Their Kids That Anything Is Possible #\u2026
p583
aV@JamesLim0317 I'm glad it wasn't you!
p584
aVHoly hell that's a lot of rice donothan got on #GhostIsland! #survivor
p585
aVRT @andreaboehlke: so far i\u2019m liking my edit on #SurvivorGhostIsland, it seems pretty accurate. but let\u2019s see what happens
p586
aVRT @RepKClark: Oh I see. When the NRA uses its money to tell you how to vote it's how things work around here. When people trying to keep k\u2026
p587
aVRT @DICKS: At the same time, we implore our elected officials to enact common sense gun reform and pass the following regulations: https://\u2026
p588
aVRT @window2wahl: Is it just me or should #Survivor premiere day be a national holiday!?\u000a\u000aGood luck to the cast and welcome to the #Survivor\u2026
p589
aVRT @aubrybracco: If social frenzy is an indicator, Survivor 36 will be one hell of a season. Usually I\u2019d be a sap &amp; say something about enj\u2026
p590
aVRT @SenSanders: The Parkland students went through an unbelievably traumatic experience. But because they are prepared not just to mourn, b\u2026
p591
aVRT @BetoORourke: "Beto O'Rourke is giving Ted Cruz a run for his money" RT to share this breaking news from CNN https://t.co/QsyVUFswNI
p592
aVRT @JaclynCorin: #WHATIF https://t.co/wpUsRVzevG
p593
aVRT @theKenCole: What if we got rid of Monday and just started with Tuesday...?\u000aFor those of you struggling, remember.\u000aSpring officially sta\u2026
p594
aVThe jury already voted so WE DON'T CARE #CBBUS #BBCeleb
p595
aV@alexkidwell I'm surprised Julie hasn't called for backup
p596
aVRT @lashtweets: Prediction: none of these people ever speak again #cbbus #bbceleb
p597
aVRT @lashtweets: Guys I\u2019m living for these fake twitter feuds  #cbbus #bbceleb
p598
aVRT @BetoORourke: Beto O\u2019Rourke\u000aLast NRA rating: F\u000aTotal NRA contributions: $0\u000ahttps://t.co/PGtWuzzZ2t
p599
aVRT @evilhag: https://t.co/YYCDdkAU4l
p600
aVRT @krassenstein: The following companies have cut ties with the NRA over the last 24 hours. \u000a\u000a- Enterprise\u000a- Wyndham\u000a- Metlife\u000a- Hertz\u000a- B\u2026
p601
aVRT @laurenlapkus: Why can't we???? https://t.co/VgwlBSeXjj
p602
aVRT @goldengateblond: Watching Wayne LaPierre run scared from kids and claim the backing of 5 million members reminded me of this bit of bri\u2026
p603
aV@PEIHGEE @realDonaldTrump problem: guns. Solution: guns? https://t.co/hkhZLGX0ow
p604
aVRT @CzarIito: Here is a summary of the CNN Townhall with Marco Rubio https://t.co/J6pb36aYlV
p605
aVRT @TheRealDratch: I love how people are saying these kids are actors. Have you *seen* a high school play?
p606
aVRT @HaileyWheelgun: Always a good idea to turn off location services when you're pretending to be a southern Republican. https://t.co/el0h7\u2026
p607
aVRT @samstein: Oh well https://t.co/gdCFecl5J3
p608
aVRT @JennyWilsonUT: So why did you accept it today?\u000a\u000ahttps://t.co/aE6NdMd1nW
p609
aV@mattliguori Same! How is it that I find myself rooting for her sometimes?! #CBBUS
p610
aV@AndyHerren But Brandi gets to stay so I'm ok with it #CBBUS https://t.co/YzdLM62oWK
p611
aVUgh just evict Metta please #CBBUS
p612
aVRT @JoyAnnReid: Parkland student: Politicians accepting NRA money are against shooting victims https://t.co/AXce8CMLno
p613
aVRT @ItsMiri: https://t.co/eGfbEJ2Irm
p614
aVRT @JoyAnnReid: Apparently @foxandfriends did not enjoy my latest @thedailybeast column, but I hope you will. It's titled: A President's Da\u2026
p615
aVRT @IronStache: .@realDonaldTrump hires \u201cthe best people.\u201d https://t.co/1dmIEvxoGy
p616
aVRT @RepJoeKennedy: On May 4, 2017, all of these men gleefully celebrated passing a bill that would have taken mental health care from milli\u2026
p617
aVRT @RepAdamSchiff: Mueller's indictment reaffirms what the Intelligence Community concluded, what our investigation has borne out, and what\u2026
p618
aVRT @RepAdamSchiff: No, Mr. President. The Special Counsel\u2019s indictment states no conclusion on issue of collusion or electoral impact of Ru\u2026
p619
aVRT @TheOnion: \u2018No Way To Prevent This,\u2019 Says Only Nation Where This Regularly Happens https://t.co/AiYGBQLaGW https://t.co/Zr0X8qcDqJ
p620
aVRT @CJPatruno: https://t.co/jbJBUOG9nw
p621
aVRT @MassAGO: Ignore those telling you that we can't stop the next mass shooting. We can. \u000a\u000aStrong gun laws save lives.\u000a \u000aAssault weapon ban\u2026
p622
aVRT @StephenKing: The 2nd Amendment extremists will never be swayed from their hardline position. The only way to enact sane gun regs is at\u2026
p623
aVRT @chelseahandler: Paul Ryan should be ashamed of himself. \u201cLet\u2019s not have a knee-jerk reaction..?\u201d Youve never had a knee-jerk reaction t\u2026
p624
aV@eorlins do you love that your shocked jury member facial expression is in the commercials for Ghost Island?
p625
aVRT @eorlins: Happy Valentine\u2019s Day! #itsafuckingstick https://t.co/Hkf0O1T1Df https://t.co/qU7ZlMYZcd
p626
aVRT @nowthisnews: This woman was physically dragged from the microphone after announcing how much money West Virginia\u2019s politicians get from\u2026
p627
aVRT @RepAdamSchiff: Mr. President, what you call \u201cpolitical\u201d are actually called facts, and your concern for sources and methods would be mo\u2026
p628
aV@tedlieu @realDonaldTrump "Many adults and teens routinely read more pages" lol
p629
aV@CORINSANITY  https://t.co/9iCaNiVa5P
p630
aVKeshia with the 2012 Obama shirt during the omarosa w.h. scene!! #BBCeleb #CBBUS
p631
aVRT @jennmcallister: Is your child texting about tide pods? Know the signs:\u000a \u000aWYD: Where\u2019s Your Detergent\u000aWTF: Want Tide Fast\u000aLOL: Load Of L\u2026
p632
aVOmg I hate that I'm agreeing with omarosa #CBBUS don't take a Deal when your opponent is about to fall
p633
aVRT @AndyHerren: I screamed when Jodi showed up. SCREAMED.\u000a\u000aJodi &gt; Jody\u000a\u000a#CBBUS #BBCeleb
p634
aV@AndyHerren Wtf really?! I assumed it was like a mechanical sprinkler
p635
aVRT @BBFeedsFairy: Brandi "I like the funny one" cut to Marissa saying meow meow meow meow to an apple #cbbus
p636
aVRT @SurvivingTribal: Can't wait for #Survivor Bro Code vs. Hoe Code vs. No Code. #CBBUS #BBCeleb
p637
aVI love how Brandi is sipping  wine every time she is on screen #CBBUS
p638
aV@lashtweets Did you hear? The world doesn't know she's a SUPER FAN! \U0001f602
p639
aV@melgotserved I want to use the opposite of what CBS wants us to use lol
p640
aVRT @mothershade: IM ACTUALLY SCREAMING, BRANDI IS GOING TO BE GOLD \U0001f62b\U0001f62b\U0001f62b\U0001f62b\U0001f62b\U0001f62b #CBBUS https://t.co/SAnHmcAFAW
p641
aVRT @BetoORourke: Both parties are guilty. The point is we need a non-partisan, non-politician redistricting commission that outright ends t\u2026
p642
aVRT @tarastrong: Today\u2019s #BlueWave2018 giveaway. Screenshot your donation below to ANY #BlueWaveFav $50. Follow back. $100. 2 autographs of\u2026
p643
aVRT @SenDuckworth: We don't live in a dictatorship or a monarchy. I swore an oath\u2014in the military and in the Senate\u2014to preserve, protect and\u2026
p644
aV@ConorLambPA Join me in supporting Conor Lamb via @actblue https://t.co/zJ5nnrAh1i
p645
aVRT @ConorLambPA: "Republicans have reason for alarm. In January, America First Action...quietly conducted a poll that found Saccone with a\u2026
p646
aVRT @RepAdamSchiff: Mr. President, I see you\u2019ve had a busy morning of \u201cExecutive Time.\u201d Instead of tweeting false smears, the American peopl\u2026
p647
aV@realityblurred Seeing Kelly Clarkson on my tv was my favorite part of the super bowl
p648
aVRT @IronStache: Moments ago, @PRyan deleted this tweet after we told him just how out of touch he was. Show Paul Ryan what you think of his\u2026
p649
aV@shannonrwatts @NRA this is the best one \U0001f44f
p650
aVRT @Comey: That\u2019s it? Dishonest and misleading memo wrecked the House intel committee, destroyed trust with Intelligence Community, damaged\u2026
p651
aVOpinion | The Nunes memo is out. It's a joke and a sham. https://t.co/4sYp4IjbbT
p652
aVRT @RepAdamSchiff: No, Mr. President it\u2019s worse than that. The country\u2019s top elected leader has agreed to selectively and misleadingly rele\u2026
p653
aVRT @chelseahandler: This is the man @IronStache who is going to unseat @SpeakerRyan. This is an Iron worker, veteran, father, son, who care\u2026
p654
aV@Comey \U0001f44f\U0001f44f\U0001f44f
p655
aVRT @Comey: All should appreciate the FBI speaking up. I wish more of our leaders would. But take heart: American history shows that, in the\u2026
p656
aVRT @survivorcbs: One castaway\u2019s curse is another castaway\u2019s treasure on this season of #Survivor. Who do you think has what it takes to sur\u2026
p657
aVRT @RepAdamSchiff: The FBI confirms that the memo contains \u201cmaterial omissions of fact\u201d that \u201cfundamentally impact\u201d its accuracy. Nunes use\u2026
p658
aVMy favorite @SenSanders snapchat https://t.co/rTBfI92zsS
p659
aVRT @nowthisnews: \u2018I\u2019m gonna be sent back to a country that I\u2019ve never been to and I\u2019m gonna lose every opportunity that I have.\u2019 \u000a\u000aThis is\u2026
p660
aVRT @pattonoswalt: Trump using heartbroken families and actual heroes of conscience to get applause for his horrifying, cowardly policies is\u2026
p661
aVRT @FullFrontalSamB: We are correct in assuming "new" = "pee" and "documents" = "tape", yes? \U0001f64f\u000ahttps://t.co/kmuuiIT5wR
p662
aVRT @kalpenn: I have always loved America but to have Trump appointees like you bring a hate group to meetings kills it. Some of us love our\u2026
p663
aVRT @BriceIzyah: Wait Omarosa is on #CelebrityBigBrother \U0001f602\U0001f602\U0001f602 https://t.co/18wxl9bj24
p664
aVRT @andreaboehlke: Julie if I\u2019m the \U0001f334 I need to know SOON! gotta pack and stuff https://t.co/ZBYusyj9Nl
p665
aVRT @chelseahandler: On Monday, February 12th, Karla Bigham and Melissa Wagner are running for State House and State Senate seats in Minneso\u2026
p666
aVRT @amjoyshow: .@ChelseaHandler and @EmilysList work together to elect women https://t.co/x6GmV29mVL via @amjoyshow
p667
aV@JoyAnnReid I'm always curious about the kind of women who marry people with attitudes like this \U0001f914
p668
aV@SurvivorCentral Wow! Glad I got my ticket right away.  Never been to a live show before. \U0001f60e
p669
aV@SurvivorCentral @BretLaBelle That's crazy! I Wonder what the capacity is?
p670
aVBought my ticket to Live Know It All's in Boston as soon as I heard about it via @BretLaBelle 's Instagram. Thanks, Bret!
p671
aVRT @staceyabrams: Despite bipartisan, popular support for a #CleanDREAMAct, the Trump-Miller plan would instead gut our legal immigration s\u2026
p672
aVRT @laurenlapkus: i just learned that jeopardy tapes 5 shows in a day! these winners are just changing outfits! i'm impressed- they need to\u2026
p673
aVRT @Comey: Russia threat should unite us, not divide us: \u201cIt\u2019s not about Republicans or Democrats. They\u2019re coming after America, which I ho\u2026
p674
aVRT @ACLU_Mass: \u201c[Many states] made the decision that criminalizing marijuana is a smokescreen for prosecuting people of color at disparate\u2026
p675
aV@RobMRosenberg  https://t.co/CpcrzIEmp5
p676
aV@staceyabrams It's your time! #FlipItBlue https://t.co/vm8E8ZUJ6x
p677
aVRT @Comey: Good to read reports of people standing up for what they believe in. \u201cThe ultimate measure of a man is not where he stands in mo\u2026
p678
aVRT @jessphoenix2018: We're also going to ruin everything else of his in November, since he's doing his best to ruin our democracy. #FlipItB\u2026
p679
aVRT @eorlins: You know what\u2019s trending #1 worldwide?? #TrumpShutdown!! Don\u2019t you DARE try to blame the Democrats for this. \u000a\u000aKeep in mind, N\u2026
p680
aVRT @chelseahandler: .@emilyslist endorsed FOUR pro-choice Democratic women this week. Now they've endorsed 28 women for the House \u2014 includi\u2026
p681
aVRT @JustinGuarini: If the President hadn't taken that complex mental health assessment, which he scored perfectly on, this statement would\u2026
p682
aVRT @lcmoser: RT if you love you \U0001f495 some @Alyssa_Milano \U0001f525 https://t.co/2ApoOFsVRg
p683
aVRT @staceyabrams: Getting ready to go on stage with fellow speakers @Alyssa_Milano and @StaciFox in Atlanta! #PowerToThePollsGA #WomenMarch\u2026
p684
aVRT @Alyssa_Milano: This woman is everything. She reflects the intelligence and diversity of our beautiful country. This is @staceyabrams, t\u2026
p685
aVRT @StephenAtHome: Let he who is without a fetish for being spanked by a porn star with a magazine featuring you on the cover &amp; then ask a\u2026
p686
aVRT @JoyAnnReid: Mitch McConnell is a brazen, craven man. He literally is saying the brown kids aren't worth it. He is attempting to codify\u2026
p687
aVRT @RepBarbaraLee: It\u2019s looking increasingly likely that President Trump will shut down the federal gov\u2019t on Jan 20th \u2013 which also happens\u2026
p688
aVRT @renato_mariotti: Mitch McConnell is literally holding two groups of Americans hostage, telling Democrats they have to pick between defu\u2026
p689
aVRT @Alyssa_Milano: Who's shutdown is this?\u000aThe "party in power," that's who.\u000aPERIOD.\u000a#Trumpshutdown\u000a#GOPshutdown \u000ahttps://t.co/ZtjaSikfeQ h\u2026
p690
aVRT @BettyBowers: The Party of Life: "Look at all the kids we'll kill if you don't let Trump have his immigration tantrum!" #MarchforLife ht\u2026
p691
aVRT @FullFrontalSamB: Nice to see Mitch McConnell literally using the same strategy as the Joker at the end of \u201cThe Dark Knight.\u201d\u000ahttps://t.\u2026
p692
aVRT @jayhulings: Republicans have both houses of Congress and the White House and they STILL can\u2019t manage to keep the government open. This\u2026
p693
aV@JoyAnnReid  https://t.co/7muZ2tZOAH
p694
aV@robcesternino @TheRealChrissyH What great news for my Friday workday!
p695
aV@BettyWho Already love #IgnoreMe on my first listen \U0001f60d
p696
aVRT @SenKamalaHarris: It\u2019s a false choice to say we can\u2019t fund the government, protect Dreamers, and reauthorize CHIP. We can and should do\u2026
p697
aVRT @jessphoenix2018: This isn't good enough, Steve. This is a band-aid when CPR is what's needed. Don't act like a 4 week stopgap is a cure\u2026
p698
aVRT @JoyAnnReid: Question for Trumpists: why exactly is it OK with you that your president is demanding that congress pass a bill making Ame\u2026
p699
aVRT @shondarhimes: Just in case you\u2019re wondering how to dismiss foolishness: https://t.co/ErvHKPsFF4
p700
aVRT @chrissyteigen: All of us are wondering that over here. It\u2019s almost like he....lied?? https://t.co/BnYcJqxWu3
p701
aVRT @chrissyteigen: https://t.co/3wxAxXqh6D
p702
aVRT @FullFrontalSamB: It's 5:00pm. Do you know where your fake awards are?
p703
aVRT @tribranchvo: they're these weird nutrition bars my mom uses to lose weight @realDonaldTrump https://t.co/XYlKTSoYE4
p704
aVRT @SenBooker: Astonishing. The head of the department overseeing immigration enforcement has admitted, under oath, that she has not met wi\u2026
p705
aVRT @FullFrontalSamB: Kamala Harris with the receipts \U0001f525 https://t.co/ewGdDLdAsI
p706
aVRT @chrissyteigen: The entire principle of this should be fought - an NDA to stay quiet about this serial monster with over 140 accusers, b\u2026
p707
aVRT @Alyssa_Milano: This morning, on #MLKDay, our president tweeted the phrase \u201cAmerica First\u201d. I would like to draw your attention to a pho\u2026
p708
aVRT @lcmoser: What you voted for when you voted for Trump. https://t.co/50bFetsZUs
p709
aVRT @Alyssa_Milano: #NetNeutrality Update: The Senate's push to overrule the FCC now has 50 votes, Democrats say. \u000a\u000a1 vote shy of the 51 req\u2026
p710
aV@FullFrontalSamB serving up hot #MLKDay tweets today \U0001f44c\U0001f525
p711
aVRT @jemelehill: Me, watching people who criticized Colin Kaepernick for his nonviolent protest post MLK quotes today https://t.co/6C0BWKcTXO
p712
aVRT @FullFrontalSamB: Three months ago, you walked out of an event in disgust because of a non-violent protest by black athletes.\u000ahttps://t.\u2026
p713
aVRT @chrissyteigen: trump became president the same year people started eating tide pods
p714
aVRT @IronStache: .@SpeakerRyan promised he'd attend yesterday's Martin Luther King Jr. Breakfast at St. Paul's Baptist Church in Racine, but\u2026
p715
aVIt took 87 tries but I finally beat #Pandemic
p716
aVRT @JoyAnnReid: One more thing: Donald Trump grew up in what is literally THE most Caribbean borough in New York: Queens. He and his father\u2026
p717
aVRT @MassAGO: Opening up our coast to drilling will devastate our state\u2019s commercial fishing industry and our environment. \u000a\u000aIf Florida is g\u2026
p718
aV@nickiadanza Phoebe was robbed
p719
aV@kharyp @JoyAnnReid "should come as no surprise to any American but should be embarrassing to every American." Exactly.
p720
aV@kylagrace @CBSThisMorning Every morning before work! \U0001f60e
p721
aVWhoever picks the music for @CBSThisMorning is a genius.  Playing "The Tide is High" by Blondie while talking about\u2026 https://t.co/AVb04jbosd
p722
aV@BrandonUSA3 @staceyabrams @iamsambee I just watched this episode and now am following @staceyabrams
p723
aVRT @Alyssa_Milano: "We have a chance to do what's right."\u000a\u000aDREAMers' lives are at risk without #DACA, but we can all do something about it.\u2026
p724
aV@FullFrontalSamB #FullFrontalForever
p725
aVI'm excited for this https://t.co/kF3d2DbjKE
p726
aVRT @SenFeinstein: The Trump administration is supporting Ohio's law to purge voters from the rolls. The Justice Department should NOT be wo\u2026
p727
aVgood idea https://t.co/2IhLAipEiW
p728
aVRT @Alyssa_Milano: Just a quick tweet to say thank you. \u000a\u000aThank you for supporting the efforts of those trying to make a difference. \u000a\u000aThan\u2026
p729
aVRT @tribranchvo: There\u2019s a special place in hell for:\u000a\u000a1. Trump\u000a2. Mitch McConnell\u000a3. That stone lion thingy in Mario Odyssey
p730
aVRT @jessphoenix2018: THREAD: Ok, I'm fed up with how pervasive the modern GOP's anti-healthcare rhetoric is. So many people have bought int\u2026
p731
aVRT @matthewamiller: One thing that comes through in the Simpson transcript is that Chris Steele cares a lot more about U.S. national securi\u2026
p732
aVRT @RepWillBailey: Senator Diane Feinstein has bigger balls than all the men in the GOP combined.
p733
aVRT @ACLU: We\u2019ve sued Joe Arpaio for denying women prisoners access to abortion, for victimizing people with disabilities, and for racially\u2026
p734
aVRT @SarahEMcBride: I'm seeing a lot of Republicans post pictures of Oprah interacting with Harvey Weinstein as proof that she's unqualified\u2026
p735
aVRT @zachbraff: Robbed. https://t.co/JkBqKqMwBq
p736
aVRT @jessphoenix2018: New campaign video! It's time to #RiseUp with #TeamJess in 2018. \u000aRT, RT, RT. We can do this together!\u000a\u000a#SundayMotivat\u2026
p737
aVRT @mindykaling: Hahahahahaha https://t.co/9BfapDD6IQ
p738
aVRT @imnottayediggs: After all these hissy fits I never want to hear anyone ever say that a woman is too emotionally unstable to be presiden\u2026
p739
aV@SaysHummingbird \U0001f602
p740
aVRT @Jake_Vig: True story: I was once mugged, and the bullet was stopped by the \u201cFrom Justin to Kelly\u201d DVD case I was carrying close to my h\u2026
p741
aVRT @netflix: please stop calling our customer service hotline to ask if we have The Gorilla Channel
p742
aVRT @StephenAtHome: One of the most surprising parts of "Fire and Fury" is how Donald Trump accidentally started a national book club.
p743
aVRT @SarahKSilverman: Laura Moser for TX https://t.co/HQMSzZDXOw
p744
aVRT @SenMarkey: We\u2019re up to 29! @SenKamalaHarris just signed on to my effort to reverse the repeal of #NetNeutrality rules! We only need 30\u2026
p745
aVRT @JustinGuarini: The next idiot that tells me to "stick to acting" should be forced to watch From Justin to Kelly until they agree I shou\u2026
p746
aVRT @Boston_Calling: Don't miss out on Early Bird tickets. RT to enter to win two VIP passes to #BostonCalling! https://t.co/zhKqZwgl5q http\u2026
p747
aVRT @MClyburnFCC: Text of the @FCC majority\u2019s #NetNeutrality repeal has finally been released. Took almost 6,000 words for me to detail all\u2026
p748
aVRT @FullFrontalSamB: Ok, send us your "Why Trump appeared on video in the WH press room instead of just walking down the hallway" conspirac\u2026
p749
aVRT @lcmoser: I've rarely seen a headline with more to love than this one. \u000a\u000ahttps://t.co/8uvU8nu4Fo
p750
aVRT @BettyBowers: 2017 DONALD J. TRUMP: "I hire all the best people."\u000a\u000a2018 DONALD J. TRUMP: "Everyone I hired were incompetent liars."
p751
aV@notjustjon @OneLuckyGay Lol true.  But it found her LOVE \u2764\u2764\u2764\u000aJK
p752
aV@notjustjon @OneLuckyGay The flirting was annoying but aligning with bananas is probably excellent for her game
p753
aVRT @DerekMilman: Photo of the decade: Doug Jones being sworn in, while his openly gay son QUIETLY DISINTEGRATES THE SOUL OF MIKE PENCE. htt\u2026
p754
aV@OneLuckyGay I'm assuming the "celebrities" will all be washed up hasbeens that actually need money.
p755
aV@JeffFlake Trash
p756
aVRT @bustle: Utah Sen. Orrin Hatch is retiring. This woman wants to replace him https://t.co/9Gwui7xxAf
p757
aVRT @Alyssa_Milano: #dreamactnow https://t.co/lvOC8mwGsO
p758
aVRT @chelseahandler: The news today is awesome. The constant verification of how dump and uninterested in govt. this president is is going t\u2026
p759
aVRT @CoryBooker: Trump's Voter Fraud Commission was an offense, based on a lie, blatantly seeking to suppress votes. \u000a\u000aI introduced a bill t\u2026
p760
aVRT @JennyWilsonUT: Can we hit 25K followers today? Something tells me this team can do it. This #Senate seat belongs to the people of Utah\u2014\u2026
p761
aVRT @MClyburnFCC: https://t.co/Avy6XSdF6v
p762
aVRT @chrissyteigen: Excited to host the red carpet LIVE at \u201cThe Most Dishonest and Corrupt Media Awards\u201d!!! Be sure to tune in!!
p763
aVRT @ACLU: Florida disenfranchises almost 1.5 million of its citizens\u2014 more than 11 states\u2019 populations. https://t.co/zwNs1T7NJI
p764
aVRT @lcmoser: Why does the map of Congressional districts look like it could have been drawn by my five-year-old daughter? A brief primer on\u2026
p765
aVRT @ACLU_Mass: True. https://t.co/90gdR9Lsyr
p766
aVRT @tedlieu: Thank you @realDonaldTrump for enforcing the Airline Safety &amp; FAA Extension Act of 2010 passed by Democrats and signed by Pres\u2026
p767
aVJust got my membership card from the @ACLU!
p768
aVRT @aubrybracco: Hey, 2017. You were a game changer, but I\u2019m on to 2018. See ya never. Happy New Year! https://t.co/5gedshCmxx
p769
aVRT @VINNYGUADAGNINO: @realDonaldTrump I think climate change is more complex than global warming will make it hotter. It has to do with dis\u2026
p770
aVRT @Alyssa_Milano: 10/14/14 https://t.co/vRqxaWYmxZ
p771
aVRT @Trollin_Trump: Here's a few of @realDonaldTrump actual first year presidential records: \u000a\u000a1) Most days vacationing\u000a2) Most games of gol\u2026
p772
aVRT @chelseahandler: Stop resigning republicans, without saying why. You aren\u2019t making any stand by resigning and not saying anything. You c\u2026
p773
aVRT @MClyburnFCC: No matter how high the tide, the hope and promise of #NetNeutrality remains. Happy Holidays!\U0001f384 https://t.co/9hMS5lVOhC
p774
aVRT @Alyssa_Milano: https://t.co/Lvgn60oaYl
p775
aVRT @MassAGO: Why did the DPU decide to give Eversource shareholders a raise at the expense of every electric customer in Massachusetts? We\u2019\u2026
p776
aVRT @tribranchvo: Nikki Haley: \u201cI will be taking names of countries that disagree with Trump.\u201d\u000a\u000aThe world: https://t.co/4X2lvaXr7n
p777
aV@Mikel_Jollett @NTonSurvivor Starting to?
p778
aVI didn't even know I was an #Eminem fan, but #Revival is LIT
p779
aVRT @AndyHerren: Roy Moore: "Yo God u up I need u."\u000a\u000aGod: https://t.co/ocEwxxdt4j
p780
aVRT @AndyHerren: Who deserves to win Survivor: Heroes vs Healers vs Hustlers?
p781
aVRT @SenBooker: Just so we're clear on where the American people stand \u2013 our office has received over 54,000 letters on Republican tax refor\u2026
p782
aVRT @JoyAnnReid: Every Republican who votes for the #GOPTaxBill should be asked these 5 questions by every journalist and constituent:\u000a1. Wh\u2026
p783
aVI'm watching! #SaveNetNeutrality https://t.co/SW03uOil0l
p784
aVRT @RepKClark: Republicans are handing the biggest tax gift in modern history to the richest and most powerful. Millions of middle class fa\u2026
p785
aVRT @NBCNightlyNews: DNC Sec. and Baltimore Mayor Stephanie Rawlings-Blake returns to the lectern after forgetting to gavel in #DNCinPHL. ht\u2026
p786
aVRT @gamblor5555: LOL I can't believe I remembered this movie, but it fits so well. #FamousMelaniaTrumpQuotes https://t.co/TU228bCXZs
p787
aVRT @thecamboucher: "the krusty krab pizza is the pizza for you and me."\u000a\u000a#FamousMelaniaTrumpQuotes https://t.co/v6ilWmA0aE
p788
aVhttps://t.co/wOvbFMRJRH https://t.co/BWlhI5OXyb
p789
aVRT @russellhantz: Like I keep saying there is a "flaw" in this game..The best player does NOT always win @JeffProbst #SurvivorKaohRong #Sur\u2026
p790
aVClinton: "I hear your question but i choose to ignore it and replace it with my own" #DemDebate
p791
aVRT @MikeyBeau: So excited for Barbershop 3, but I can't be the only person upset it's not Barbershop 3D.
p792
aVRT @robcesternino: While I was in New York, I stopped by #peopleNow to see @andreaboehlke and talk to the latest #Survivor castoff   https:\u2026
p793
aVRT @aubrybracco: If he had looked over in tribal, Nick would have seen I was secretly communicating in his language. #BlueSteel https://t.c\u2026
p794
aVWas that a mouse or a giant cockroach I walked in on in the bathroom at 3am? Either way, I guess I should've knocked first. #lifeinsqualor
p795
aVfiguring out twitter
p796
a.