(lp0
VToday is the day to talk about gun control reform. https://t.co/dnBIyvLSnS
p1
aVToday is the day to talk about gun control reform. https://t.co/dnBIyvLSnS
p2
aVRT @ddiamond: Mass shooters\u2019 recent targets when killing innocent Americans\u000a\u000a- a grocery store\u000a- a synagogue\u000a- and now a yoga studio\u000a\u000ahttps\u2026
p3
aVRT @KING5Seattle: Two people were fatally wounded at a yoga studio in Tallahassee before the Scott Beierle, 40, turned the gun on himself.\u2026
p4
aVToday is the day to talk about gun control reform. https://t.co/dnBIyvLSnS
p5
aVToday is the day to talk about gun control reform. https://t.co/dnBIyvLSnS
p6
aVToday is the day to talk about gun control reform. https://t.co/dnBIyvLSnS
p7
aVToday is the day to talk about gun control reform. https://t.co/dnBIyvLSnS
p8
aVToday is the day to talk about gun control reform. https://t.co/dnBIyvLSnS
p9
aVRT @schoolwalkoutUS: Today, a student was shot and killed at Butler High School - yet classes went on. Imagine what it feels like to be tol\u2026
p10
aVToday is the day to talk about gun control reform. https://t.co/dnBIyvLSnS
p11
aVToday is the day to talk about gun control reform. https://t.co/dnBIyvLSnS
p12
aVToday is the day to talk about gun control reform. https://t.co/dnBIyvLSnS
p13
aVToday is the day to talk about gun control reform. https://t.co/dnBIyvLSnS
p14
aVToday is the day to talk about gun control reform. https://t.co/dnBIyvLSnS
p15
aVToday is the day to talk about gun control reform. https://t.co/dnBIyvLSnS
p16
aVToday is the day to talk about gun control reform. https://t.co/dnBIyvLSnS
p17
aVToday is the day to talk about gun control reform. https://t.co/dnBIyvLSnS
p18
aVToday is the day to talk about gun control reform. https://t.co/dnBIyvLSnS
p19
aVToday is the day to talk about gun control reform. https://t.co/dnBIyvLSnS
p20
aVToday is the day to talk about gun control reform. https://t.co/dnBIyvLSnS
p21
aVToday is the day to talk about gun control reform. https://t.co/dnBIyvLSnS
p22
aVToday is the day to talk about gun control reform. https://t.co/dnBIyvLSnS
p23
aVToday is the day to talk about gun control reform. https://t.co/dnBIyvLSnS
p24
aVToday is the day to talk about gun control reform. https://t.co/dnBIyvLSnS
p25
aVToday is the day to talk about gun control reform. https://t.co/dnBIyvLSnS
p26
aVRT @SusanHeagney: @AlexMohajer @JuddApatow @Greg_Palast If you find you\u2019ve been purged , as I was in 2016, 1: ask for provisional ballot an\u2026
p27
aVToday is the day to talk about gun control reform. https://t.co/dnBIyvLSnS
p28
aVToday is the day to talk about gun control reform. https://t.co/dnBIyvLSnS
p29
aVToday is the day to talk about gun control reform. https://t.co/dnBIyvLSnS
p30
aVToday is the day to talk about gun control reform. https://t.co/dnBIyvLSnS
p31
aVToday is the day to talk about gun control reform. https://t.co/dnBIyvLSnS
p32
aVToday is the day to talk about gun control reform. https://t.co/dnBIyvLSnS
p33
aVToday is the day to talk about gun control reform. https://t.co/dnBIyvLSnS
p34
aVToday is the day to talk about gun control reform. https://t.co/dnBIyvLSnS
p35
aVToday is the day to talk about gun control reform. https://t.co/dnBIyvLSnS
p36
aVToday is the day to talk about gun control reform. https://t.co/dnBIyvLSnS
p37
aVToday is the day to talk about gun control reform. https://t.co/dnBIyvLSnS
p38
aVToday is the day to talk about gun control reform. https://t.co/dnBIyvLSnS
p39
aVToday is the day to talk about gun control reform. https://t.co/dnBIyvLSnS
p40
aVToday is the day to talk about gun control reform. https://t.co/dnBIyvLSnS
p41
aVToday is the day to talk about gun control reform. https://t.co/dnBIyvLSnS
p42
aVRT @Redistrict: To Dems who can\u2019t believe what they\u2019re watching, remember: a majority of the Senate now represents 18% of the population &amp;\u2026
p43
aVRT @JohnFeinblatt: Huge news out of Harrisburg -- the PA House just passed a law to keep guns away from domestic abusers. Kudos to all of t\u2026
p44
aVRT @americamag: While we previously endorsed the nomination of Judge Kavanaugh on the basis of his legal credentials and his reputation as\u2026
p45
aVToday is the day to talk about gun control reform. https://t.co/dnBIyvLSnS
p46
aVToday is the day to talk about gun control reform. https://t.co/dnBIyvLSnS
p47
aVA letter to the U.S. Senate from survivors: Oppose Brett Kavanaugh https://t.co/vZ9s39JjnO
p48
aVToday is the day to talk about gun control reform. https://t.co/dnBIyvugZi
p49
aVToday is the day to talk about gun control reform. https://t.co/dnBIyvLSnS
p50
aVToday is the day to talk about gun control reform. https://t.co/dnBIyvLSnS
p51
aVToday is the day to talk about gun control reform. https://t.co/dnBIyvLSnS
p52
aVRT @riotwomennn: Why don't women report sexual assault?\u000a\u000aAnchorage air traffic controller offered a woman a ride, kidnapped her, threatened\u2026
p53
aVToday is the day to talk about gun control reform. https://t.co/dnBIyvLSnS
p54
aVRT @katelynnulrich: It is worth nothing that I cannot begin to express the terror on the faces of children who fled the scene. Their parent\u2026
p55
aVRT @katelynnulrich: Syracuse Police confirm this to be a mass shooting at Midland Avenue. They say it\u2019s too early into the investigation to\u2026
p56
aVToday is the day to talk about gun control reform. https://t.co/dnBIyvLSnS
p57
aV\u26a1\ufe0f \u201cLone suspect in custody after Maryland warehouse shooting\u201d\u000a\u000ahttps://t.co/ENwUH9X8xE
p58
aVRT @RonniePhilly: Once again, evidence that women are most in peril when they attempt to end a relationship with a man. And God help anyone\u2026
p59
aVRT @Harford_Sheriff: We can confirm there was a shooting in the area of Spesutia Road and Perryman Road.  Multiple victims.  The situation\u2026
p60
aVToday is the day to talk about gun control reform. https://t.co/dnBIyvLSnS
p61
aVToday is the day to talk about gun control reform. https://t.co/dnBIyvLSnS
p62
aVRT @AndrewRusseth: A button from 1991 in the collection of the National Museum of African American History and Culture in Washington, D.C.\u2026
p63
aVToday is the day to talk about gun control reform. https://t.co/dnBIyvLSnS
p64
aVToday is the day to talk about gun control reform. https://t.co/dnBIyvLSnS
p65
aVToday is the day to talk about gun control reform. https://t.co/dnBIyvLSnS
p66
aVToday is the day to talk about gun control reform. https://t.co/dnBIyvLSnS
p67
aVToday is the day to talk about gun control reform. https://t.co/dnBIyvLSnS
p68
aVToday is the day to talk about gun control reform. https://t.co/dnBIyvLSnS
p69
aVRT @NBCNews: Researchers examined FBI data on nearly 250 "active shooter" incidents in the U.S. since 2000. Almost 900 people were wounded\u2026
p70
aVToday is the day to talk about gun control reform. https://t.co/dnBIyvLSnS
p71
aVToday is the day to talk about gun control reform. https://t.co/dnBIyvLSnS
p72
aVRT @christoq: Crowdfunding campaign to pressure Susan Collins to vote no on Brett Kavanaugh tops $800,000\u000a\u000aThe campaign is called \u201cEither S\u2026
p73
aVToday is the day to talk about gun control reform. https://t.co/dnBIyvLSnS
p74
aVToday is the day to talk about gun control reform. https://t.co/dnBIyvLSnS
p75
aVToday is the day to talk about gun control reform. https://t.co/dnBIyvLSnS
p76
aVToday is the day to talk about gun control reform. https://t.co/dnBIyvLSnS
p77
aVRT @Alyssa_Milano: Patriots! Let\u2019s show @CoryBooker our appreciation by getting this to trend!\u000a\u000a#IStandwithBooker
p78
aVToday is the day to talk about gun control reform. https://t.co/dnBIyvLSnS
p79
aVRT @peterdaou: Let's face the truth, REPUBLICANS HAVE BROKEN AMERICAN DEMOCRACY.\u000a\u000aThey stole a #SupremeCourt seat and are stacking the cour\u2026
p80
aVRT @shannonrwatts: Another armed man in America fatally shoots his wife and the mother of his children - this time in Texas. Michelle Derig\u2026
p81
aVRT @nowthisnews: Levi\u2019s is taking a huge stand against gun violence https://t.co/pAUOxfMg3a
p82
aVToday is the day to talk about gun control reform. https://t.co/dnBIyvLSnS
p83
aVToday is the day to talk about gun control reform. https://t.co/dnBIyvLSnS
p84
aVToday is the day to talk about gun control reform. https://t.co/dnBIyvLSnS
p85
aVToday is the day to talk about gun control reform. https://t.co/dnBIyvLSnS
p86
aVToday is the day to talk about gun control reform. https://t.co/dnBIyvLSnS
p87
aVRT @TopRopeTravis: Reminder: Under the advisement of the NRA, Trump rolled back the Obama-era regulations that prevented mentally-ill perso\u2026
p88
aVRT @DaveVescio: BREAKING NEWS: Jacksonville video game shooter David Katz had 26 police callouts to his family home, was hospitalized TWICE\u2026
p89
aVToday is the day to talk about gun control reform. https://t.co/dnBIyvLSnS
p90
aVToday is the day to talk about gun control reform. https://t.co/dnBIyvLSnS
p91
aVToday is the day to talk about gun control reform. https://t.co/dnBIyvLSnS
p92
aVRT @CNN: Gun-related homicides and suicides kill more people than war, according to a study https://t.co/7FbypECrPV https://t.co/W8TASiHtz6
p93
aVToday is the day to talk about gun control reform. https://t.co/dnBIyvLSnS
p94
aVRT @rolandscahill: You go to school- you're shot and killed\u000aYou go to church- you're shot and killed\u000aYou go to a concert- you're shot and k\u2026
p95
aVRT @davidhogg111: .@marcorubio  \u000a\u000aHow many mass shootings in your state will it take for you to do something?
p96
aVRT @HuffPostPol: Jacksonville city council member Reginald Gaffney responds to the fatal shooting in his city by saying, \u201cThe real issue we\u2026
p97
aVRT @SenBobCasey: Majority Leader McConnell and Speaker Ryan control what comes to the floor in the Senate and House. They\u2019ve repeatedly sto\u2026
p98
aVhttps://t.co/bu3waSlBdC
p99
aVToday is the day to talk about gun control reform. https://t.co/dnBIyvLSnS
p100
aVToday is the day to talk about gun control reform. https://t.co/dnBIyvLSnS
p101
aVRT @SenatorLeahy: I keep demanding Kavanaugh\u2019s FULL record because it will reveal if he lied to me under oath in 2006\u2014whether he is fit to\u2026
p102
aVToday is the day to talk about gun control reform. https://t.co/dnBIyvLSnS
p103
aV@benjaminwittes A paper shredder
p104
aVRT @billyeichner: This is awesome. Thanks @lyft! https://t.co/193mx9vDHM
p105
aVToday is the day to talk about gun control reform. https://t.co/dnBIyvLSnS
p106
aVRT @patrickgaspard: The President of the US needs political distractions to turn our gaze away from his criminal cabal, and so he\u2019s attacki\u2026
p107
aVRT @ChrisMurphyCT: Spread the word - \u000a\u000aThe Dept of Ed funding bill is on the floor right now and I\u2019m introducing a last minute emergency am\u2026
p108
aVRT @Will_Bunch: Here's my column from last month about Reality Winner, questioning why she's getting the longest sentence for a leaker in h\u2026
p109
aVRT @SenMarkey: I will not take a meeting with Brett Kavanaugh. He has been nominated by someone implicated, and all but named as a co-consp\u2026
p110
aVRT @JordanUhl: After mass shootings, the victims' families beg for sensible gun reform but Republicans say the tragedy shouldn't be politic\u2026
p111
aVRT @Bradybuzz: Outrageous: Secretary of Education @BetsyDeVosED is considering a dangerous and reckless proposal to divert scarce funds fro\u2026
p112
aVRT @CandaceToddLV: It\u2019s the 8th day of the school year &amp; I just received a call from my daughters high school informing me they arrested a\u2026
p113
aVToday is the day to talk about gun control reform. https://t.co/dnBIyvLSnS
p114
aVRT @NPR: The cyber-attackers created a fake login page as part of an attempt to gather usernames and passwords, according to a DNC official\u2026
p115
aVRT @MittRomney: The events of the last 24 hours confirm that conduct by highly-placed individuals was both dishonorable and illegal. Also c\u2026
p116
aVRT @briantylercohen: \u201cImpeachment is about cleansing the office. Impeachment is about restoring honor and integrity to the office.\u201d\u000a-Lindse\u2026
p117
aVRT @RepJeffries: Why should an un-indicted co-conspirator (and apparent crime family boss) make a lifetime appointment to the Supreme Court\u2026
p118
aVRT @samstein: Guys, as we digest Trump telling Fox &amp; Friends that he only knew about the payments "later on,\u201d please try and recall a few w\u2026
p119
aVRT @nowthisnews: For an illegitimate 'witch hunt,' they sure have found, indicted, and convicted a lot of witches https://t.co/Lp9qe2X2lx
p120
aVToday is the day to talk about gun control reform. https://t.co/dnBIyvLSnS
p121
aVRT @KimsMom3: Kimberly didn\u2019t have her back pack on her in the art room. She was shot four times in her stomach. Four times. Let that sink\u2026
p122
aVToday is the day to talk about gun control reform. https://t.co/dnBIyvLSnS
p123
aVToday is the day to talk about gun control reform. https://t.co/dnBIyvLSnS
p124
aVToday is the day to talk about gun control reform. https://t.co/dnBIyvLSnS
p125
aVToday is the day to talk about gun control reform. https://t.co/dnBIyvLSnS
p126
aVToday is the day to talk about gun control reform. https://t.co/dnBIyvLSnS
p127
aVToday is the day to talk about gun control reform. https://t.co/dnBIyvLSnS
p128
aVToday is the day to talk about gun control reform. https://t.co/dnBIyvLSnS
p129
aVToday is the day to talk about gun control reform. https://t.co/dnBIyvLSnS
p130
aVToday is the day to talk about gun control reform. https://t.co/dnBIyvLSnS
p131
aVToday is the day to talk about gun control reform. https://t.co/dnBIyvLSnS
p132
aVToday is the day to talk about gun control reform. https://t.co/dnBIyvLSnS
p133
aVToday is the day to talk about gun control reform. https://t.co/dnBIyvLSnS
p134
aVToday is the day to talk about gun control reform. https://t.co/dnBIyvLSnS
p135
aVRT @KevinMKruse: Have you considered adding a new rule against users who harass the parents of dead kindergartners so much that they have t\u2026
p136
aVToday is the day to talk about gun control reform. https://t.co/dnBIyvLSnS
p137
aVToday is the day to talk about gun control reform. https://t.co/dnBIyvLSnS
p138
aVToday is the day to talk about gun control reform. https://t.co/dnBIyvLSnS
p139
aVToday is the day to talk about gun control reform. https://t.co/dnBIyvLSnS
p140
aVToday is the day to talk about gun control reform. https://t.co/dnBIyvLSnS
p141
aVToday is the day to talk about gun control reform. https://t.co/dnBIyvLSnS
p142
aVRT @jvn: The founding fathers definitely didn\u2019t think about 3D printers or gun shows with absolutely no back ground checks, isn\u2019t the 2nd a\u2026
p143
aVToday is the day to talk about gun control reform. https://t.co/dnBIyvLSnS
p144
aVToday is the day to talk about gun control reform. https://t.co/dnBIyvLSnS
p145
aVToday is the day to talk about gun control reform. https://t.co/dnBIyvLSnS
p146
aVToday is the day to talk about gun control reform. https://t.co/dnBIyvLSnS
p147
aVToday is the day to talk about gun control reform. https://t.co/dnBIyvLSnS
p148
aVToday is the day to talk about gun control reform. https://t.co/dnBIyvLSnS
p149
aVRT @RepSwalwell: Every day in America a woman is killed by an abuser\u2019s gun. Let\u2019s end that. Today, I introduced the #NoGunsForAbusers Act t\u2026
p150
aVToday is the day to talk about gun control reform. https://t.co/dnBIyvLSnS
p151
aVRT @Bradybuzz: As suspected, the gun used in Toronto's deadly mass shooting on Sunday has been traced back to the United States. Our countr\u2026
p152
aVToday is the day to talk about gun control reform. https://t.co/dnBIyvLSnS
p153
aVToday is the day to talk about gun control reform. https://t.co/dnBIyvLSnS
p154
aVPppo
p155
aVToday is the day to talk about gun control reform. https://t.co/dnBIyvLSnS
p156
aVToday is the day to talk about gun control reform. https://t.co/dnBIyvLSnS
p157
aVToday is the day to talk about gun control reform. https://t.co/dnBIyvLSnS
p158
aVToday is the day to talk about gun control reform. https://t.co/dnBIyvLSnS
p159
aVToday is the day to talk about gun control reform. https://t.co/dnBIyvLSnS
p160
aVToday is the day to talk about gun control reform. https://t.co/dnBIyvLSnS
p161
aVToday is the day to talk about gun control reform. https://t.co/dnBIyvLSnS
p162
aVRT @RepSwalwell: The House Intel Committee had a chance to interview Maria Butina, the Russian intel officer charged for working to create\u2026
p163
aVRT @benjaminwittes: Boom!\u000ahttps://t.co/qVf0JsSKpX https://t.co/RQnm1f0CNW
p164
aVRT @JohnBrennan: Donald Trump\u2019s press conference performance in Helsinki rises to &amp; exceeds the threshold of \u201chigh crimes &amp; misdemeanors.\u201d\u2026
p165
aVToday is the day to talk about gun control reform. https://t.co/dnBIyvLSnS
p166
aV#treasonsummit https://t.co/529HVhdkox
p167
aVRT @votevets: The question now is:\u000a\u000a@BenSasse what are you going to DO?\u000a@JeffFlake what are you going to DO?\u000a@marcorubio what are you going\u2026
p168
aVJust watched this. \U0001f92f https://t.co/wfBG97Rcff
p169
aVToday is the day to talk about gun control reform. https://t.co/dnBIyvLSnS
p170
aVToday is the day to talk about gun control reform. https://t.co/dnBIyvLSnS
p171
aVToday is the day to talk about gun control reform. https://t.co/dnBIyvLSnS
p172
aVRT @benjaminwittes: BOOOMMM!!!!\u000ahttps://t.co/yvZPgFTlOs https://t.co/s4uuaCMV0m
p173
aV@DavidCornDC I learned today that dentists don\u2019t actually need to hear responses to questions b/c they are experts\u2026 https://t.co/arRhpdhJnJ
p174
aVRT @atrupar: .@RepRaskin points out that Strzok also bashed Democrats and Bernie Sanders in his texts: "You can still insult government off\u2026
p175
aV@RepRaskin Thank you for calling out this lunacy through your line of questioning on the \u201cdeep state GOP conspiracy\u201d.
p176
aVRT @Dictionarycom: Parasite: An organism that lives on or in an organism of another species, known as the host, from the body of which it o\u2026
p177
aVToday is the day to talk about gun control reform. https://t.co/dnBIyvLSnS
p178
aVToday is the day to talk about gun control reform. https://t.co/dnBIyvLSnS
p179
aVToday is the day to talk about gun control reform. https://t.co/dnBIyvLSnS
p180
aVToday is the day to talk about gun control reform. https://t.co/dnBIyvLSnS
p181
aVToday is the day to talk about gun control reform. https://t.co/dnBIyvLSnS
p182
aVToday is the day to talk about gun control reform. https://t.co/dnBIyvLSnS
p183
aVToday is the day to talk about gun control reform. https://t.co/dnBIyvLSnS
p184
aVToday is the day to talk about gun control reform. https://t.co/dnBIyvLSnS
p185
aVToday is the day to talk about gun control reform. https://t.co/dnBIyvLSnS
p186
aVToday is the day to talk about gun control reform. https://t.co/dnBIyvLSnS
p187
aVToday is the day to talk about gun control reform. https://t.co/dnBIyvLSnS
p188
aVToday is the day to talk about gun control reform. https://t.co/dnBIyvLSnS
p189
aVToday is the day to talk about gun control reform. https://t.co/dnBIyvLSnS
p190
aVToday is the day to talk about gun control reform. https://t.co/dnBIyvLSnS
p191
aVToday is the day to talk about gun control reform. https://t.co/dnBIyvLSnS
p192
aVRT @SenWarren: Mitch McConnell should follow the Mitch McConnell rule. Let the American people have a say when women\u2019s health and equal rig\u2026
p193
aVToday is the day to talk about gun control reform. https://t.co/dnBIyvLSnS
p194
aVToday is the day to talk about gun control reform. https://t.co/dnBIyvLSnS
p195
aVToday is the day to talk about gun control reform. https://t.co/dnBIyvLSnS
p196
aVJust posted a photo @ Sensoji Temple Asakusa Kannon-Do https://t.co/f9wmUgZDOz
p197
aVToday is the day to talk about gun control reform. https://t.co/dnBIyvLSnS
p198
aVToday is the day to talk about gun control reform. https://t.co/dnBIyvLSnS
p199
aVToday is the day to talk about gun control reform. https://t.co/dnBIyvLSnS
p200
aVToday is the day to talk about gun control reform. https://t.co/dnBIyvLSnS
p201
aVRT @tedlieu: Trump retreats because his family separation policy was evil, and because of you. Your outrage &amp; activism beat @realDonaldTrum\u2026
p202
aVToday is the day to talk about gun control reform. https://t.co/dnBIyvLSnS
p203
aVJust posted a photo @ Kyoto, Japan https://t.co/ecIY5O3fdv
p204
aVRT @Bradybuzz: America owns 40 percent of the world\u2019s guns, more than any other country, and we have one of the highest rates of gun violen\u2026
p205
aVToday is the day to talk about gun control reform. https://t.co/dnBIyvLSnS
p206
aVToday is the day to talk about gun control reform. https://t.co/dnBIyvLSnS
p207
aVToday is the day to talk about gun control reform. https://t.co/dnBIyvLSnS
p208
aVJust posted a photo @ The Rail Park https://t.co/HosbMeKsg2
p209
aVToday is the day to talk about gun control reform. https://t.co/dnBIyvLSnS
p210
aVJust posted a photo https://t.co/ZXMBroq3QN
p211
aVJust posted a photo @ Shimizu, Shizuoka https://t.co/lk815k559p
p212
aVToday is the day to talk about gun control reform. https://t.co/dnBIyvLSnS
p213
aVRT @Bradybuzz: Last year in Boston, about half of all guns traced by police had out-of-state origins. This isn't unusual for a state like M\u2026
p214
aVGetting around to posting photos of Japan... @\u2026 https://t.co/Ni6yfJRqyM
p215
aVToday is the day to talk about gun control reform. https://t.co/dnBIyvLSnS
p216
aVToday is the day to talk about gun control reform. https://t.co/dnBIyvLSnS
p217
aVToday is the day to talk about gun control reform. https://t.co/dnBIyvLSnS
p218
aVToday is the day to talk about gun control reform. https://t.co/dnBIyvLSnS
p219
aVToday is the day to talk about gun control reform. https://t.co/dnBIyvLSnS
p220
aVThis handsome boy is ready to be adopted\u2026 https://t.co/1CF7i2bEtf
p221
aVToday is the day to talk about gun control reform. https://t.co/dnBIyvLSnS
p222
aVToday is the day to talk about gun control reform. https://t.co/dnBIyvLSnS
p223
aVToday is the day to talk about gun control reform. https://t.co/dnBIyvLSnS
p224
aVToday is the day to talk about gun control reform. https://t.co/dnBIyvLSnS
p225
aV@carolecadwalla Oh shit
p226
aVToday is the day to talk about gun control reform. https://t.co/dnBIyvLSnS
p227
aVToday is the day to talk about gun control reform. https://t.co/dnBIyvLSnS
p228
aVToday is the day to talk about gun control reform. https://t.co/dnBIyvLSnS
p229
aVToday is the day to talk about gun control reform. https://t.co/dnBIyvLSnS
p230
aVToday is the day to talk about gun control reform. https://t.co/dnBIyvLSnS
p231
aVToday is the day to talk about gun control reform. https://t.co/dnBIyvLSnS
p232
aVToday is the day to talk about gun control reform. https://t.co/dnBIyvLSnS
p233
aVRT @_naomi_abigail_: H.R.4240- Universal background checks \u000aH.R.5163- Prohibits those convicted of stalking or violent crimes from obtainin\u2026
p234
aVToday is the day to talk about gun control reform. https://t.co/dnBIyvLSnS
p235
aVToday is the day to talk about gun control reform. https://t.co/dnBIyvLSnS
p236
aVToday is the day to talk about gun control reform. https://t.co/dnBIyvLSnS
p237
aVToday is the day to talk about gun control reform. https://t.co/dnBIyvLSnS
p238
aVToday is the day to talk about gun control reform. https://t.co/dnBIyvLSnS
p239
aVToday is the day to talk about gun control reform. https://t.co/dnBIyvLSnS
p240
aVToday is the day to talk about gun control reform. https://t.co/dnBIyvLSnS
p241
aVToday is the day to talk about gun control reform. https://t.co/dnBIyvLSnS
p242
aVToday is the day to talk about gun control reform. https://t.co/dnBIyvLSnS
p243
aVToday is the day to talk about gun control reform. https://t.co/dnBIyvLSnS
p244
aVToday is the day to talk about gun control reform. https://t.co/dnBIyvLSnS
p245
aVRT @thenation: Actually, Guns Do Kill People https://t.co/2nB3OMFSQK
p246
aVToday is the day to talk about gun control reform. https://t.co/dnBIyvLSnS
p247
aVAnother week, another school shooting.  From the time I began tweeting daily about sensible gun reform, we've avera\u2026 https://t.co/v6F4zgsbx4
p248
aVToday is the day to talk about gun control reform. https://t.co/dnBIyvLSnS
p249
aVToday is the day to talk about gun control reform. https://t.co/dnBIyvLSnS
p250
aVToday is the day to talk about gun control reform. https://t.co/dnBIyvLSnS
p251
aVToday is the day to talk about gun control reform. https://t.co/dnBIyvLSnS
p252
aVWatching Trump Tower Cam @CSPAN https://t.co/nB40Jm1pVQ @MichaelAvenatti (clip one)
p253
aVToday is the day to talk about gun control reform. https://t.co/dnBIyvLSnS
p254
aVToday is the day to talk about gun control reform. https://t.co/dnBIyvLSnS
p255
aVToday is the day to talk about gun control reform. https://t.co/dnBIyvLSnS
p256
aVToday is the day to talk about gun control reform. https://t.co/dnBIyvLSnS
p257
aVToday is the day to talk about gun control reform. https://t.co/dnBIyvLSnS
p258
aVToday is the day to talk about gun control reform. https://t.co/dnBIyvLSnS
p259
aVToday is the day to talk about gun control reform. https://t.co/dnBIyvLSnS
p260
aVToday is the day to talk about gun control reform. https://t.co/dnBIyvLSnS
p261
aVToday is the day to talk about gun control reform. https://t.co/dnBIyvLSnS
p262
aVRT @RVAwonk: I wrote about one of the most extensive analyses of right-to-carry laws, which make it easier to obtain concealed carry permit\u2026
p263
aVToday is the day to talk about gun control reform. https://t.co/dnBIyvLSnS
p264
aVRT @aasif: Is anyone else getting random spam phone calls in Chinese?
p265
aVToday is the day to talk about gun control reform. https://t.co/dnBIyvLSnS
p266
aVToday is the day to talk about gun control reform. https://t.co/dnBIyvLSnS
p267
aVRT @Bradybuzz: New bill in New Jersey looks to raise the minimum age for purchasing a rifle or shotgun. --&gt; https://t.co/CvVEalMPFW
p268
aVToday is the day to talk about gun control reform. https://t.co/dnBIyvLSnS
p269
aVRT @Bradybuzz: Massachusetts police chiefs back extreme risk laws, joining law enforcement across the country who have come out in support\u2026
p270
aVToday is the day to talk about gun control reform. https://t.co/dnBIyvLSnS
p271
aVToday is the day to talk about gun control reform. https://t.co/dnBIyvLSnS
p272
aVToday is the day to talk about gun control reform. https://t.co/dnBIyvLSnS
p273
aVToday is the day to talk about gun control reform. https://t.co/dnBIyvLSnS
p274
aVToday is the day to talk about gun control reform. https://t.co/dnBIyvLSnS
p275
aVToday is the day to talk about gun control reform. https://t.co/dnBIyvLSnS
p276
aVToday is the day to talk about gun control reform. https://t.co/dnBIyvLSnS
p277
aVToday is the day to talk about gun control reform. https://t.co/dnBIyvLSnS
p278
aVRT @EdKrassen: Mitch McConnell says he won\u2019t even allow a bill to be voted on, to protect Special Counsel Robert Mueller.  He is silencing\u2026
p279
aVToday is the day to talk about gun control reform. https://t.co/dnBIyvLSnS
p280
aVRT @voxdotcom: 60% of black teens and three-quarters of Latino teens said they were worried about a shooting happening at their school, acc\u2026
p281
aVToday is the day to talk about gun control reform. https://t.co/dnBIyvLSnS
p282
aVToday is the day to talk about gun control reform. https://t.co/dnBIyvLSnS
p283
aVToday is the day to talk about gun control reform. https://t.co/dnBIyvLSnS
p284
aVToday is the day to talk about gun control reform. https://t.co/dnBIyvLSnS
p285
aVToday is the day to talk about gun control reform. https://t.co/dnBIyvLSnS
p286
aV100% agree, Sean Hannity should be fired. #FireHannity @FoxNews https://t.co/jpfvdNHITu
p287
aVToday is the day to talk about gun control reform. https://t.co/dnBIyvLSnS
p288
aVRT @Bradybuzz: Today we remember the 32 people shot and killed at Virginia Tech as well as the numerous others who were impacted by the sho\u2026
p289
aVToday is the day to talk about gun control reform. https://t.co/dnBIyvLSnS
p290
aVToday is the day to talk about gun control reform. https://t.co/dnBIyvLSnS
p291
aVToday is the day to talk about gun control reform. https://t.co/dnBIyvLSnS
p292
aVAn important and shocking story. https://t.co/TOvi8Btcc6
p293
aVToday is the day to talk about gun control reform. https://t.co/dnBIyvLSnS
p294
aVToday is the day to talk about gun control reform. https://t.co/dnBIyvLSnS
p295
aVRT @Evan_McMullin: Our response to Trump\u2019s firing of Rosenstein or Sessions should be just as forceful as it would be if he fired Mueller.\u2026
p296
aVRT @BillKristol: "The [attorney-client] privilege takes flight if the relation is abused. A client who consults an attorney for advice that\u2026
p297
aVToday is the day to talk about gun control reform. https://t.co/dnBIyvLSnS
p298
aV\U0001f644 https://t.co/IY9k4d6JKE
p299
aVRT @EdKrassen: BREAKING: The FBI has raided the offices of Donald Trump\u2019s attorney, Michael D. Cohen. They have seized records including th\u2026
p300
aVRT @nowthisnews: Here's a new one: Local Fox anchors criticized this Black teen for working TOO hard https://t.co/kka8fvgJrj
p301
aVToday is the day to talk about gun control reform. https://t.co/dnBIyvLSnS
p302
aVToday is the day to talk about gun control reform. https://t.co/dnBIyvLSnS
p303
aVRT @NewYorker: An opioid addicted baby is now born every half hour. \u000aThe Sackler family has made billions on the opioid crisis. \u000ahttps://t.\u2026
p304
aVRT @RVAwonk: This is an amazing idea. NJ Gov. Phil Murphy just signed an order that will expose the source of guns that are used in crimes\u2026
p305
aVToday is the day to talk about gun control reform. https://t.co/dnBIyvLSnS
p306
aVToday is the day to talk about gun control reform. https://t.co/dnBIyvLSnS
p307
aVToday is the day to talk about gun control reform. https://t.co/dnBIyvLSnS
p308
aVRT @ACLU: Military troops don't belong at the border. Deploying the military in U.S. communities is a dangerous move and contrary to the fu\u2026
p309
aVToday is the day to talk about gun control reform. https://t.co/dnBIyvLSnS
p310
aVhttps://t.co/qdmI6sZ8SW #EndGunViolence #GunReformNow
p311
aVRT @TwitterMoments: #YouTube shooting update:\u000a\u000a- NBC News reports that the suspect is "a female and she is down"\u000a- Police are continuing to\u2026
p312
aVRT @Mikel_Jollett: CONSERVATIVES: People boycotting Laura Ingraham are denying her her free speech.\u000a\u000aAlso CONSERVATIVES: Boycott the NFL!\u2026
p313
aVRT @Bradybuzz: Police say they have 4 victims that have been transported to hospitals due to gun shot wounds at #YouTube headquarters shoot\u2026
p314
aVRT @shannonrwatts: Franklin: Can you give us an example of a time someone stabbed 500 people - killing 58 - from the 32nd floor of a hotel\u2026
p315
aVToday is the day to talk about gun control reform. https://t.co/dnBIyvugZi
p316
aVToday is the day to talk about gun control reform. https://t.co/dnBIyvLSnS
p317
aVToday is the day to talk about gun control reform. https://t.co/dnBIyvLSnS
p318
aVToday is the day to talk about gun control reform. https://t.co/dnBIyvLSnS
p319
aVToday is the day to talk about gun control reform. https://t.co/dnBIyvLSnS
p320
aVToday is the day to talk about gun control reform. https://t.co/dnBIyvLSnS
p321
aV@itsjasonborne @superdeluxe @tameimpala \u201cI\u2019m wreck-it Ralph\u201d \U0001f923
p322
aVToday is the day to talk about gun control reform. https://t.co/dnBIyvLSnS
p323
aVToday is the day to talk about gun control reform. https://t.co/dnBIyvLSnS
p324
aVToday is the day to talk about gun control reform. https://t.co/dnBIyvLSnS
p325
aVToday is the day to talk about gun control reform. https://t.co/dnBIyvLSnS
p326
aVToday is the day to talk about gun control reform. https://t.co/dnBIyvLSnS
p327
aVToday is the day to talk about gun control reform. https://t.co/G7Rg13JZRt
p328
aVToday is the day to talk about gun control reform. https://t.co/G7Rg13JZRt
p329
aVToday is the day to talk about gun control reform. https://t.co/G7Rg13JZRt
p330
aVToday is the day to talk about gun control reform. https://t.co/G7Rg13JZRt
p331
aVToday is the day to talk about gun control reform. https://t.co/G7Rg13JZRt
p332
aVToday is the day to talk about gun control reform. https://t.co/G7Rg13JZRt
p333
aVToday is the day to talk about gun control reform. https://t.co/G7Rg13JZRt
p334
aVToday is the day to talk about gun control reform. https://t.co/G7Rg13JZRt
p335
aVToday is the day to talk about gun control reform. https://t.co/G7Rg13JZRt
p336
aVRT @TheEconomist: On average 19 American children are shot every day https://t.co/iRZgvLoRHu
p337
aVToday is the day to talk about gun control reform. https://t.co/G7Rg13JZRt
p338
aVToday is the day to talk about gun control reform. https://t.co/G7Rg13JZRt
p339
aVToday is the day to talk about gun control reform. https://t.co/G7Rg13JZRt
p340
aVToday is the day to talk about gun control reform. https://t.co/G7Rg13JZRt
p341
aVToday is the day to talk about gun control reform. https://t.co/G7Rg13JZRt
p342
aVToday is the day to talk about gun control reform. https://t.co/G7Rg13JZRt
p343
aVToday is the day to talk about gun control reform. https://t.co/G7Rg13JZRt
p344
aVToday is the day to talk about gun control reform. https://t.co/G7Rg13JZRt
p345
aVToday is the day to talk about gun control reform. https://t.co/G7Rg13JZRt
p346
aVToday is the day to talk about gun control reform. https://t.co/G7Rg13JZRt
p347
aVToday is the day to talk about gun control reform. https://t.co/G7Rg13JZRt
p348
aVToday is the day to talk about gun control reform. https://t.co/G7Rg13JZRt
p349
aVToday is the day to talk about gun control reform. https://t.co/G7Rg13JZRt
p350
aVToday is the day to talk about gun control reform. https://t.co/G7Rg13JZRt
p351
aVToday is the day to talk about gun control reform. https://t.co/G7Rg13JZRt
p352
aVToday is the day to talk about gun control reform. https://t.co/G7Rg13JZRt
p353
aVToday is the day to talk about gun control reform. https://t.co/G7Rg13JZRt
p354
aVToday is the day to talk about gun control reform. https://t.co/G7Rg13JZRt
p355
aVToday is the day to talk about gun control reform. https://t.co/G7Rg13JZRt
p356
aVToday is the day to talk about gun control reform. https://t.co/G7Rg13JZRt
p357
aVToday is the day to talk about gun control reform. https://t.co/G7Rg13JZRt
p358
aVRT @nowthisnews: \u2018How have we not stopped this after Columbine? \u000a\u000aAfter Sandy Hook?\u000a\u000aI\u2019m sitting with a mother who lost her son,\u000a\u000aand it\u2019s\u2026
p359
aVRT @Bradybuzz: Pay attention. We want solutions. We want action. #StudentsStandUp
p360
aVRT @Bradybuzz: 1) Expand &amp; enhance the background check system to close loopholes that allow 1 in 5 guns to be sold w/o a check\u000a2) Ban assa\u2026
p361
aVToday is the day to talk about gun control reform. https://t.co/G7Rg13JZRt
p362
aVToday is the day to talk about gun control reform. https://t.co/G7Rg13JZRt
p363
aVRT @NicoleK8686: The same people that said 13 and 14 year olds were perfectly mature enough to date Roy Moore are now saying 17 and 18 year\u2026
p364
aVToday is the day to talk about gun control reform. https://t.co/G7Rg13JZRt
p365
aVRT @JoyAnnReid: .@jack @twitter; you know what would be a great addition to @twitter? Adding a way to report users who appear to be bots. T\u2026
p366
aVToday is the day to talk about gun control reform. https://t.co/G7Rg13JZRt
p367
aVToday is the day to talk about gun control reform. https://t.co/G7Rg13JZRt
p368
aVRT @benjaminwittes: BOOM!!!\u000ahttps://t.co/QK0IPoWPdL https://t.co/FqJXxAJcan
p369
aVRT @MrFilmkritik: Black shooter: "We need to militarize the police."\u000aLatino shooter: "We need to close our borders."\u000aMuslim shooter: "We ne\u2026
p370
aVToday is the day to talk about gun control reform. https://t.co/G7Rg141AJ1
p371
aVRT @TheDweck: When a piece of lettuce makes someone sick, we recall all the lettuce
p372
aVToday is the day to talk about gun control reform. https://t.co/G7Rg13JZRt
p373
aVRT @AP: BREAKING: Leader of white nationalist group has confirmed suspect in Florida school shooting was member of his organization.
p374
aVRT @car_nove: I was hiding in a closet for 2 hours. It was about guns. You weren't there, you don't know how it felt. Guns give these disgu\u2026
p375
aVRT @kylegriffin1: Reminder: Trump quietly signed a bill into law last February rolling back an Obama-era regulation that made it harder for\u2026
p376
aVRT @MichaelSkolnik: One shoe bomber tried to blow up a plane and now we are forced to take off our shoes.\u000a\u000a1606 mass shootings since Sandy\u2026
p377
aVRT @JordanUhl: Horrific school shooting in Florida.\u000a\u000aWhat happens next?\u000a\u000a-NRA goes silent\u000a-Politicians tweet "Thoughts &amp; prayers"\u000a-Nothing\u2026
p378
aVRT @AndyRichter: If a by-product of one of our rights is the slaughter of school children, maybe that right needs to be changed.  Not revok\u2026
p379
aVRT @chrislhayes: What possible defense is there of a legal regime where a 19 year old cannot buy a can of beer but can buy a weapon of war?
p380
aVRT @tedlieu: Dear @SpeakerRyan: It's been nearly 1,900 days since 20 children &amp; 7 adults were slaughtered using an assault rifle in Newtown\u2026
p381
aVRT @tedlieu: Definition of complicity: Watching mass shootings like in Florida today and doing nothing. Multiple bills have been introduced\u2026
p382
aVRT @RVAwonk: A reminder that the NRA spent more to elect Trump than any other candidate in history. \u000a\u000aThey poured more money ($30 million)\u2026
p383
aVRT @AndyRichter: Imagine getting on Twitter today to argue with people that nothing needs to change. Imagine using your time today to argue\u2026
p384
aVRT @SenFeinstein: Another mass shooting. Reportedly another AR-15. My bill to ban assault weapons is ready for a vote. How long will we acc\u2026
p385
aVRT @pattonoswalt: Here we are, friends. Not wanting high schoolers to experience gun violence is now \u201cpolitical.\u201d https://t.co/GeS3E1DtzH
p386
aVRT @anthonyjeselnik: Here is the most fucked up thing about the 29th mass shooting of the year: this tweet is a political statement.
p387
aVRT @michaelianblack: The NRA is a terrorist organization. https://t.co/kPekxqiJHv
p388
aVRT @kylegriffin1: Chris Murphy on the Florida school shooting: "Let me just note once again for my colleagues, that this happens nowhere el\u2026
p389
aVToday is the day to talk about gun control reform. https://t.co/G7Rg13JZRt
p390
aVToday is the day to talk about gun control reform. https://t.co/G7Rg13JZRt
p391
aVToday is the day to talk about gun control reform. https://t.co/G7Rg13JZRt
p392
aVToday is the day to talk about gun control reform. https://t.co/G7Rg13JZRt
p393
aVToday is the day to talk about gun control reform. https://t.co/G7Rg13JZRt
p394
aVToday is the day to talk about gun control reform. https://t.co/G7Rg141AJ1
p395
aVRT @matt_mullin: \U0001f3b6 We\u2019re from Philly, f**king Philly\u000aNo one likes us, we don\u2019t care \U0001f3b6\u000a\u000aJason Kelce sings with fans at #EaglesParade\u2026 https:\u2026
p396
aVToday is the day to talk about gun control reform. https://t.co/G7Rg13JZRt
p397
aVToday is the day to talk about gun control reform. https://t.co/G7Rg13JZRt
p398
aVToday is the day to talk about gun control reform. https://t.co/G7Rg13JZRt
p399
aVToday is the day to talk about gun control reform. https://t.co/G7Rg13JZRt
p400
aVRT @TheTweetOfGod: Ha ha ha ha ha ha ha ha ha ha ha ha ha ha ha ha ha ha ha ha ha ha ha ha ha ha ha ha ha ha ha ha ha ha ha ha ha ha ha ha\u2026
p401
aVToday is the day to talk about gun control reform. https://t.co/G7Rg13JZRt
p402
aVToday is the day to talk about gun control reform. https://t.co/G7Rg13JZRt
p403
aVToday is the day to talk about gun control reform. https://t.co/G7Rg13JZRt
p404
aVRT @SenSchumer: Speaker Ryan should immediately remove Rep. Nunes as chair of House Intel committee and rein in the House GOP. #RemoveNunes\u2026
p405
aVToday is the day to talk about gun control reform. https://t.co/G7Rg141AJ1
p406
aVToday is the day to talk about gun control reform. https://t.co/G7Rg13JZRt
p407
aVToday is the day to talk about gun control reform. https://t.co/G7Rg13JZRt
p408
aVToday is the day to talk about gun control reform. https://t.co/G7Rg13JZRt
p409
aVToday is the day to talk about gun control reform. https://t.co/G7Rg13JZRt
p410
aVToday is the day to talk about gun control reform. https://t.co/G7Rg13JZRt
p411
aVToday is the day to talk about gun control reform. https://t.co/G7Rg13JZRt
p412
aVToday is the day to talk about gun control reform. https://t.co/G7Rg13JZRt
p413
aV@roCkerChick @maddow https://t.co/wxF6PDZe9B
p414
aVRT @benjaminwittes: #ReleaseTheMemototheFBI #ReleaseTheMemototheDOJ\u000a#ReleaseTheMemototheSSCI https://t.co/Mp8liMbsuB
p415
aVToday is the day to talk about gun control reform. https://t.co/G7Rg13JZRt
p416
aV@itsjasonborne @jay_mulligan @benjaminwittes This is where we got our baby cannon and highly recommend.
p417
aVToday is the day to talk about gun control reform. https://t.co/G7Rg13JZRt
p418
aVToday is the day to talk about gun control reform. https://t.co/G7Rg13JZRt
p419
aVToday is the day to talk about gun control reform. https://t.co/G7Rg13JZRt
p420
aVBobbie\u2019s Birthday Bash.        The sign says it all. https://t.co/pqiEBLmNXv
p421
aVToday is the day to talk about gun control reform. https://t.co/G7Rg13JZRt
p422
aVToday is the day to talk about gun control reform. https://t.co/G7Rg13JZRt
p423
aVToday is the day to talk about gun control reform. https://t.co/G7Rg13JZRt
p424
aVToday is the day to talk about gun control reform. https://t.co/G7Rg13JZRt
p425
aVToday is the day to talk about gun control reform. https://t.co/G7Rg13JZRt
p426
aVToday is the day to talk about gun control reform. https://t.co/G7Rg13JZRt
p427
aVToday is the day to talk about gun control reform. https://t.co/G7Rg13JZRt
p428
aVToday is the day to talk about gun control reform. https://t.co/G7Rg13JZRt
p429
aVToday is the day to talk about gun control reform. https://t.co/G7Rg13JZRt
p430
aVToday is the day to talk about gun control reform. https://t.co/G7Rg13JZRt
p431
aVToday is the day to talk about gun control reform. https://t.co/G7Rg13JZRt
p432
aVToday is the day to talk about gun control reform. https://t.co/G7Rg13JZRt
p433
aV@scaryjokes what\u2019s up with them dawgs?
p434
aVToday is the day to talk about gun control reform. https://t.co/G7Rg13JZRt
p435
aVToday is the day to talk about gun control reform. https://t.co/G7Rg13JZRt
p436
aVJust posted a photo https://t.co/4mgtXBoAk6
p437
aVToday is the day to talk about gun control reform. https://t.co/G7Rg13JZRt
p438
aVRT @HamillHimself: Congratulations, sir! This dignified, statesman-like tweet is the perfect way to counter the book's narrative that you'r\u2026
p439
aVToday is the day to talk about gun control reform. https://t.co/G7Rg13JZRt
p440
aVRT @benjaminwittes: Boom!! \u000ahttps://t.co/oc34onUd58 https://t.co/vCCHt1QTDT
p441
aVToday is the day to talk about gun control reform. https://t.co/G7Rg13JZRt
p442
aVToday is the day to talk about gun control reform. https://t.co/G7Rg13JZRt
p443
aVToday is the day to talk about gun control reform. https://t.co/G7Rg13JZRt
p444
aVToday is the day to talk about gun control reform. https://t.co/G7Rg13JZRt
p445
aVToday is the day to talk about gun control reform. https://t.co/G7Rg13JZRt
p446
aVToday is the day to talk about gun control reform. https://t.co/G7Rg13JZRt
p447
aVToday is the day to talk about gun control reform. https://t.co/G7Rg13JZRt
p448
aVRT @capitalweather: U.S. to be coldest region in world relative to normal over next week.  Please note rest of world will be much warmer th\u2026
p449
aVToday is the day to talk about gun control reform. https://t.co/G7Rg13JZRt
p450
aVToday is the day to talk about gun control reform. https://t.co/G7Rg13JZRt
p451
aVToday is the day to talk about gun control reform. https://t.co/G7Rg13JZRt
p452
aVToday is the day to talk about gun control reform. https://t.co/G7Rg13JZRt
p453
aVToday is the day to talk about gun control reform. https://t.co/G7Rg13JZRt
p454
aVRT @Amy_Siskind: Prepare to have your head explode: internal FCC documents released under the FOIA show the rationale used for rescinding n\u2026
p455
aVToday is the day to talk about gun control reform. https://t.co/G7Rg13JZRt
p456
aVToday is the day to talk about gun control reform. https://t.co/G7Rg13JZRt
p457
aVToday is the day to talk about gun control reform. https://t.co/G7Rg13JZRt
p458
aVToday is the day to talk about gun control reform. https://t.co/G7Rg13JZRt
p459
aVToday is the day to talk about gun control reform. https://t.co/G7Rg13JZRt
p460
aVToday is the day to talk about gun control reform. https://t.co/G7Rg13JZRt
p461
aVToday is the day to talk about gun control reform. https://t.co/G7Rg13JZRt
p462
aVToday is the day to talk about gun control reform. https://t.co/G7Rg13JZRt
p463
aVRT @MikeLevinCA: Members of Congress who settled sexual harassment claims with taxpayer money need to be revealed and resign.\u000a\u000aThey also ne\u2026
p464
aVToday is the day to talk about gun control reform. https://t.co/G7Rg13JZRt
p465
aVToday is the day to talk about gun control reform. https://t.co/G7Rg13JZRt
p466
aVRT @moxillia: The vote was 3-2 in favor of repealing #NetNeutrality \u000a\u000aThis will go to court like it has multiple times in the past. There's\u2026
p467
aVRT @SenSanders: This is an egregious attack on our democracy. The end of #NetNeutrality protections means that the internet will be for sal\u2026
p468
aVRT @StaciaRR: I was once on a elevator alone with @realDonaldTrump (&amp; a man w/him) at Madison Square Gardens. He was aggressive &amp; told me I\u2026
p469
aVRT @SenGillibrand: Ten years ago, @TaranaBurke created the #MeToo movement to tell young women of color who had survived sexual assault tha\u2026
p470
aVRT @leonardocarella: If yesterday's Alabama Senate race had been a House election, the Republicans, who got *fewer* votes, would have won 6\u2026
p471
aVRT @AGSchneiderman: #BREAKING: My office has now identified 2 million fake comments on #netneutrality that were submitted to the @FCC using\u2026
p472
aVRT @SenSchumer: RT if you think Alabama\u2019s new Senator should get a vote on the #GOPTaxScam
p473
aVRT @JoshShapiroPA: JUST IN: 18 Attorneys General call on @FCC to delay vote to end #NetNeutrality until we complete investigation into the\u2026
p474
aVToday is the day to talk about gun control reform. https://t.co/G7Rg13JZRt
p475
aVRT @GDouglasJones: Thank you ALABAMA!!
p476
aVToday is the day to talk about gun control reform. https://t.co/G7Rg13JZRt
p477
aVToday is the day to talk about gun control reform. https://t.co/G7Rg13JZRt
p478
aVToday is the day to talk about gun control reform. https://t.co/G7Rg13JZRt
p479
aVToday is the day to talk about gun control reform. https://t.co/G7Rg13JZRt
p480
aVToday is the day to talk about gun control reform. https://t.co/G7Rg13JZRt
p481
aVToday is the day to talk about gun control reform. https://t.co/G7Rg141AJ1
p482
aVToday is the day to talk about gun control reform. https://t.co/G7Rg13JZRt
p483
aVToday is the day to talk about gun control reform. https://t.co/G7Rg13JZRt
p484
aVToday is the day to talk about gun control reform. https://t.co/G7Rg13JZRt
p485
aVRT @SethAbramson: Mueller can put Dowd under oath and ask if he wrote every word of that tweet. Dowd's press releases\u2014if that's what the tw\u2026
p486
aVRT @Comey: \u201cI want the American people to know this truth: The FBI is honest. The FBI is strong. And the FBI is, and always will be, indepe\u2026
p487
aVToday is the day to talk about gun control reform. https://t.co/G7Rg13JZRt
p488
aVRT @SenFeinstein: UPDATE: Republicans rejected our motion to adjourn until Monday so senators could read the bill they just introduced.\u000a \u000aR\u2026
p489
aVToday is the day to talk about gun control reform. https://t.co/G7Rg13JZRt
p490
aVRT @RepMaxineWaters: Lock him up, lock him up, lock him up, lock him up.
p491
aVRT @TomSteyer: You know what to do --&gt; https://t.co/KvyrqQS5Tt https://t.co/lULBwQ253E
p492
aVRT @SenFeinstein: BREAKING: Republicans now say they have the votes to pass their dangerous tax bill. The vote could happen later today or\u2026
p493
aVToday is the day to talk about gun control reform. https://t.co/G7Rg13JZRt
p494
aVRT @Marmel: To do today:\u000a1) Fight #GOPTaxScam\u000a2) Defend Mueller on #TrumpRussia\u000a3) Fight for #NetNeutrality \u000a4) Support @GDouglasJones vs D\u2026
p495
aVRT @benjaminwittes: BOOM!!!\u000ahttps://t.co/YKKEzZRqhW https://t.co/hkoWVqMe1w
p496
aVToday is the day to talk about gun control reform. https://t.co/G7Rg13JZRt
p497
aVToday is the day to talk about gun control reform. https://t.co/G7Rg13JZRt
p498
aVToday is the day to talk about gun control reform. https://t.co/G7Rg13JZRt
p499
aVRT @Mikel_Jollett: Just so we\u2019re clear,\u000a\u000aProject Veritas PAID someone to PRETEND she was RAPED in order to discredit women who actually wer\u2026
p500
aVRT @washingtonpost: A woman approached The Post with dramatic \u2014 and false \u2014 tale about Roy Moore. She appears to be part of undercover stin\u2026
p501
aVRT @JoyAnnReid: By the by, "Project Veritas," the right wing group that appears to have tried to catfish the @washingtonpost is using @amaz\u2026
p502
aVToday is the day to talk about gun control reform. https://t.co/G7Rg13JZRt
p503
aVToday is the day to talk about gun control reform. https://t.co/G7Rg13JZRt
p504
aVToday is the day to talk about gun control reform. https://t.co/G7Rg13JZRt
p505
aVToday is the day to talk about gun control reform. https://t.co/G7Rg13JZRt
p506
aVToday is the day to talk about gun control reform. https://t.co/G7Rg13JZRt
p507
aVToday is the day to talk about gun control reform. https://t.co/G7Rg13JZRt
p508
aVRT @AGSchneiderman: @FCC @AjitPaiFCC This misuse of identity by the 100,000s should concern everyone\u200a\u2014\u200aregardless of party or position on #\u2026
p509
aVRT @AGSchneiderman: @FCC We reached out for assistance to multiple top FCC officials, including @AjitPaiFCC, three successive acting FCC Ge\u2026
p510
aVRT @RVAwonk: Holy crap. Hundreds of thousands of fake &amp; stolen identities were used to hijack the FCC's public comment period on #NetNeutra\u2026
p511
aVRT @SenSanders: Once again, the Trump administration sides with big money and against democracy. If this passes, the internet and its free\u2026
p512
aVRT @andizeisler: This is why net neutrality is a big fucking deal. https://t.co/1MZRRjpGN8
p513
aVI'm with @netflix. \u201cThe core rules of no blocking, no discrimination, and transparency have worked to create an eco\u2026 https://t.co/O9aa5hEJcW
p514
aVRT @SenBlumenthal: I stand with millions of American consumers, innovators, and entrepreneurs against @AjitPaiFCC\u2019s plot to gut #NetNeutral\u2026
p515
aVRT @fawfulfan: @AjitPaiFCC @WSJopinion By \u201clight-touch framework\u201d you mean the arrangement that allowed Comcast to legally blackball Netfli\u2026
p516
aVRT @billprady: Without #NetNeutrality your ISP can:\u000a\u000a1.  Charge you extra to reach certain websites.\u000a\u000a2.  Slow down streaming services like\u2026
p517
aVToday is the day to talk about gun control reform. https://t.co/G7Rg13JZRt
p518
aVRT @TomSteyer: We are live in Times Square, and the count is on. Please sign our petition today at https://t.co/KvyrqQS5Tt. https://t.co/yF\u2026
p519
aVRT @ddiamond: It's been 50 days since more than 500 people were killed or wounded by one gunman in Las Vegas. Congress has done nothing in\u2026
p520
aVToday is the day to talk about gun control reform. https://t.co/G7Rg13JZRt
p521
aVToday is the day to talk about gun control reform. https://t.co/G7Rg13JZRt
p522
aVToday is the day to talk about gun control reform. https://t.co/G7Rg13JZRt
p523
aVRT @cmMcConnaughy: Introduced Wed: bill requiring repayment of Pell Grant if student doesn't finish their degree. Pell Grants go to most ec\u2026
p524
aVToday is the day to talk about gun control reform. https://t.co/G7Rg13JZRt
p525
aVToday is the day to talk about gun control reform. https://t.co/G7Rg13JZRt
p526
aVToday is the day to talk about gun control reform. https://t.co/G7Rg13JZRt
p527
aVToday is the day to talk about gun control reform. https://t.co/G7Rg13JZRt
p528
aVToday is the day to talk about gun control reform. https://t.co/G7Rg13JZRt
p529
aVRT @jamminmamad: #fireHannity @ELOQUII @novartis @EntyvioUSA @Experian_US @Extenzeofficial @FanDuel @AstraZenecaUS @Febreze_Fresh Stop adve\u2026
p530
aVToday is the day to talk about gun control reform. https://t.co/G7Rg13JZRt
p531
aVRT @SenJohnMcCain: There's nothing "America First" about taking the word of KGB colonel over US intelligence community. There's no "princip\u2026
p532
aVToday is the day to talk about gun control reform. https://t.co/G7Rg13JZRt
p533
aVRT @perlmutations: The GOP would like us to believe that grabbing pussy is ok. That touching a 14 yr old\u2019s vagina is ok. That there is no d\u2026
p534
aVRT @RepAdamSchiff: \u201c[Putin] said he didn't meddle. I asked him again. You can only ask so many times. And I believe... I think he is very i\u2026
p535
aVRT @benjaminwittes: #BelieveOurIC
p536
aVToday is the day to talk about gun control reform. https://t.co/G7Rg13JZRt
p537
aVRT @AriBerman: 1st black woman elected mayor of Charlotte\u000a\u000a1st trans state legislator elected in VA\u000a\u000a2nd black Lt Gov elected in VA since R\u2026
p538
aVRT @TomSteyer: Trump threatens our Constitution, our freedoms, and our lives. It\u2019s time to begin impeachment proceedings. Join us. https://\u2026
p539
aVTrump is a dangerous president, we #NeedToImpeach him now! Join me by signing the petition: https://t.co/reqDUzxcEk
p540
aVToday is the day to talk about gun control reform. https://t.co/G7Rg13JZRt
p541
aVToday is the day to talk about gun control laws.
p542
aVToday is the day to talk about gun control reform. https://t.co/G7Rg13JZRt
p543
aVRT @HRC: BREAKING: Danica Roem (@pwcdanica) makes history as #Virginia\u2019s first out #transgender public official! #VaPol https://t.co/9ggC9k\u2026
p544
aV#iVoted https://t.co/6BVQAHPNmX
p545
aVRT @TwitterGov: This #ElectionDay, make sure you Tweet early and often. \u000a\u000aWhen you turn out to vote, Tweet using #iVoted to unlock a specia\u2026
p546
aVRT @michaelianblack: They voted against a committee to study how to prevent future mass shootings. Why? Gun violence is good for the gun bu\u2026
p547
aVToday is the day to talk about gun control laws.
p548
aVRT @timheidecker: https://t.co/4ggQSHYIFT
p549
aVToday is the day to talk about gun control reform. https://t.co/G7Rg13JZRt
p550
aVToday is the day to talk about gun control reform. https://t.co/G7Rg13JZRt
p551
aVRT @MomsDemand: Make no mistake: The gun violence crisis in America IS a guns issue.\u000a\u000a#TexasChurchMassacre https://t.co/UcabGRzpSh
p552
aVToday is the day to talk about gun control.
p553
aVRT @AltStateDpt: In 36 days, 76 Americans have been gunned down in two domestic terror attacks.\u000a\u000aWhy won't @realDonaldTrump use the phrase\u2026
p554
aVRT @SallyQYates: DOJ not a tool for POTUS to use to go after his enemies and protect his friends. Respect rule of law and DOJ professionals\u2026
p555
aVRT @BuzzFeed: A DMV employee dressed up as flash from "Zootopia," and I've honestly never been this happy \u000ahttps://t.co/uUr8d2myHS https://\u2026
p556
aVRT @epicciuto: Wait a minute, everyone! I know why Trump appears scared of that dinosaur! He\u2019s seen it before!! https://t.co/EyexC53P3m
p557
aVRT @SenSchumer: .@realDonaldTrump must not, under any circumstances, interfere with the special counsel\u2019s work in any way.
p558
aVRT @Marmel: Trump: 400K new "followers" over the last few days.\u000aThe bots are lined up and ready to go, folks.\u000aBe prepared.\u000a#MuellerMonday\u2026
p559
aVRT @AndrewDHudson: This is the shit I log on for. https://t.co/5OtwBNDGiu
p560
aVRT @KrangTNelson: congratulations to ICE on neutralizing the grave public safety threat of *checks article* a dying 10 y/o girl https://t.c\u2026
p561
aVRT @jaketapper: Boy it\u2019s almost as if some people knew this was coming so they tried to pour chum in the water to make it dank and murky ht\u2026
p562
aVWhen RussianBots go into overdrive after charges filed \U0001f621 #SignsYoureABadPresident https://t.co/uWqyZXD10b
p563
aVRT @benjaminwittes: This is a very big boom if it\u2019s true, but the story is vey skeletal both in content and in sourcing.\u000ahttps://t.co/oNaWG\u2026
p564
aVRT @RepSwalwell: So far...\u000a\u000a1) Your son\u2019s \u201cClinton/Russia\u201d mtg\u000a\u000a2) \u201cWe can engineer this\u201d email\u000a\u000a3) Your team &amp; Wikileaks\u000a\u000a4) Peter Smith w\u2026
p565
aVRT @SenFeinstein: We must not resume business as usual after the deadliest mass shooting in history. We\u2019re pushing for policies to reduce g\u2026
p566
aVSickening. The money and resources that were spent to detain an ailing child is truly terrifying. https://t.co/R3PqnfuoRL
p567
aVRT @DavidCornDC: Hey Trump voters, yesterday Pence voted to break a Senate tie to pass a bill to stop consumers from mounting class-action\u2026
p568
aVRT @selectedwisdom: Welcome to Hamilton 68 Dashboard Tracking Russian Propaganda - Here's what #Putin wants Americans talking about https:/\u2026
p569
aVRT @benjaminwittes: Boom!\u000ahttps://t.co/tEngV4UnFZ https://t.co/X4Gw3peQ83
p570
aVRT @RepSwalwell: Just a reminder \u2014 because too many GOP leaders prefer we move on \u2014 2 wks ago a gunman killed 58 people. &amp; no action taken.\u2026
p571
aVRT @meganamram: Sometimes it's like, who's responsible: the victims or the person who's responsible?
p572
aVRT @RandyRainbow: My new video is yuuuge. Belieb me. #DesperateCheeto \U0001f3b6 https://t.co/M72thQclxX
p573
aVRT @JoeNBC: Stop. Listen. Understand. \u000aThe president of the United States just said that the guaranteed right to free speech is "disgusting\u2026
p574
aV#wearefsociety #filadelphia @ Philadelphia, Pennsylvania https://t.co/yLPP7qivoi
p575
aVRT @KarraPorter: Nurse Alex says that she doesn\u2019t think this story would have come out without body cam footage. #AlexWubbels #NurseAlex ht\u2026
p576
aV#WeArefsociety https://t.co/LvwqYGS4Zq
p577
aV#WeArefsociety https://t.co/EYYfE93SMD
p578
aVRT @PupsPorn: Retweet if this cutie made you smile! https://t.co/5A9T6SZmBL
p579
aVJust posted a photo @ Hangzhou, China https://t.co/Qo7CztSono
p580
aVRT @SRuhle: If birth control promotes \u201crisky sexual behavior\u201d, do seat belts promote drag racing?
p581
aVRT @LEBassett: Reminder: birth control is not just for pregnancy prevention. It's prescribed for ovarian cysts &amp; other medical problems. It\u2026
p582
aVRT @DennisCalero: I adapted it. https://t.co/iYhARRkT6h
p583
aVRT @SenFeinstein: UPDATE: We now have 38 Senators on our bill to ban devices that allow semi-automatic weapons to mimic illegal automatic w\u2026
p584
aVRT @NancyWonderful: @HaloTheWolf @MSNBC @robreiner @Lawrence @TheView @mitchellreports IF more #guns made us safer ..  U.S. would be the sa\u2026
p585
aVRT @Calebkeeter: https://t.co/0NFjHf3PW2
p586
aVRT @DavidLetternan: Las Vegas shooter Stephen Paddock was NOT a \u201clone wolf\u201d, he was NOT \u201cmentally ill\u201d, he was a TERRORIST. End white privi\u2026
p587
aVRT @TheDailyShow: Tonight at 11/10c, Trevor responds to the tragedy in Las Vegas. https://t.co/zUJFboVe1f
p588
aVRT @jk_rowling: The massacre of schoolchildren in Dunblane led to UK gun law reform, which is why many stunned that there was no US change\u2026
p589
aVRT @davidaxelrod: What about freedom from gun violence, which is epidemic in the U.S.? Or freedom to watch a concert w/out being slaughtere\u2026
p590
aVRT @billmaher: Trump can\u2019t demand that everyone stand for the flag if he colluded with a foreign Gov't to subvert the very democracy that f\u2026
p591
aVRT @olgaNYC1211: Why is @realDonaldTrump stalling on implementing sanctions on Russia, NK, and Iran? It\u2019s been 2 months #TrumpRussia https:\u2026
p592
aVRT @ChuckWendig: Got my 280, so, hey @Twitter: get rid of the Nazis, get rid of the bots, police all the harassment, listen to the victims\u2026
p593
aVRT @ddiamond: BUDGET-CUTTER? \u2014 Price backed a 15% cut to overall agency travel budget while spending on charter jets of his own. https://t.\u2026
p594
aVRT @StephenAtHome: Nick Kroll asked me to post a pic of my awkward stage, but I never had one. So here's me lookin' cool as hell! #PuberMe\u2026
p595
aVRT @SenJohnMcCain: Shipping industry supports #JonesAct b/c it's protectionist. #PuertoRico deserves better than policy decisions driven by\u2026
p596
aVRT @MariaQSanchez: Thanks.  A start to helping provide immediate relief to PR, 3.4 million Americans. https://t.co/KC2UD6GWmZ
p597
aVRT @ConanOBrien: I'm taking the stage at Stand Up for Heroes on Nov 7, but you can help #Give2Veterans now. @Stand4Heroes gets a dollar for\u2026
p598
aVRT @mmfa: Fox's Shep Smith: It's being framed as players attacking the anthem, troops, &amp; the flag....that's not what they're doing and we'r\u2026
p599
aVRT @AP: The Latest:  Senate Republicans offer new health bill. https://t.co/Z8Ap0UK83k
p600
aVRT @samstein: so, there is a new health care bill dropped on Sunday night, that won\u2019t be scored by CBO but will be voted on, on Wednesday?
p601
aVRT @michaelianblack: The other thing we could do is stop pretending football games are patriotic events.
p602
aVRT @davidaxelrod: This...is madness. https://t.co/9vBUidiZpy
p603
aVRT @SarahKSilverman: I'd like to know why. Has she articulated why? Because this sure looks like a piece of shit move. @BetsyDeVosED ?? Exp\u2026
p604
aVRT @Alyssa_Milano: Wow. Just wow. https://t.co/WFyPlGaC8n
p605
aVRT @SenFranken: I am deeply troubled by @FCC\u2019s interest in eliminating rules that protect #netneutrality, which would destroy the internet\u2026
p606
aVRT @AGSchneiderman: It's even worse than we thought. If this passes, more than 2 million NYers will lose coverage. We\u2019ll lose $33B in healt\u2026
p607
aVRT @jonfavs: It does not! Every study, every fact check, every reporter, every organization has recognized it does not. https://t.co/kdFEqC\u2026
p608
aVRT @TheOnion: .@LindseyGrahamSC: "We\u2019re all but certain we have the savagery we need for this measure to move forward.\u201d https://t.co/tODn73\u2026
p609
aVRT @SenFranken: I\u2019m taking to Senate floor to discuss how latest Trumpcare plan would hurt Minnesotans and people across our nation. https:\u2026
p610
aVRT @Timodc: Cobb: I think people in the office are wearing wires &amp; tapping my phone\u000aDowd: Is that guy is taking a picture of us?\u000aCobb: Don'\u2026
p611
aVRT @SenSchumer: This is not a drill. The GOP is back w/ another version of #Trumpcare &amp; it's no better than their last plan. It's worse.
p612
aVRT @thehill: California makes history, passes bill requiring presidential candidates to release tax returns https://t.co/kJhZPax2f6 https:/\u2026
p613
aVRT @Millard_Filmoor: @KeithC1299 @Billbrowder https://t.co/yWONM7Xtsm
p614
aVRT @Billbrowder: Something's cooking in DC on the Global Magnitsky Act https://t.co/1GJDfLLAWP
p615
aVRT @mildredmud: It's been 17 years since we've had 3 hurricanes at the same time.\u000a\u000a2017: After #Harvey, here comes #Irma, #Jose, and #Katia\u2026
p616
aVRT @SenKamalaHarris: .@SenWarren, @SenSanders, and I all agree - health care is a right. Retweet if you agree too.
p617
aVRT @zerobeta: Equifax: you missed a cc payment 3 yrs ago. How irresponsible. Good luck buying a home\u000a\u000aAlso, Equifax: Your SSN's were hacked\u2026
p618
aVRT @SarahKSilverman: https://t.co/IeV5w3YzQR
p619
aVRT @RepJoeKennedy: It's only quiet if we let it be quiet. RT now to make @realDonaldTrump answer for his sabotage. https://t.co/UZLaXIW3pf
p620
aVRT @AGSchneiderman: This language is unacceptable and unenforceable. My staff has already contacted @Equifax to demand that they remove it.\u2026
p621
aVRT @SenFranken: Trump Admin and @BetsyDeVosED appointed former dean from a university that defrauded students to office that investigates h\u2026
p622
aVRT @SymoneDSanders: This is a lie. To be eligible for DACA undocumented young people must have entered the US before their 16th birthday an\u2026
p623
aVRT @RepRobinKelly: #DACA recipients pay nearly $2 BILLION in taxes every year. Still not sure what or if @realDonaldTrump pays.
p624
aVRT @BarackObama: To target hopeful young strivers who grew up here is wrong, because they\u2019ve done nothing wrong. My statement: https://t.co\u2026
p625
aVRT @nowthisnews: Footage shows this nurse being forcefully arrested for following her hospital's rules https://t.co/3oFu3l0tds
p626
aVRT @SykesCharlie: These numbers... devastating. And, in case I didn't mention it, ts a Fox News poll. https://t.co/uFKDZimvjA
p627
aVRT @DavidCornDC: JUST POSTED: Here are Trump's 3 biggest lies about the Russia scandal. Please read and share. https://t.co/oizmuCIhoM
p628
aVRT @thehill: Dan Rather: Trump is "seized with fear" over what special counsel Mueller will find https://t.co/PRKeTQ3L9K https://t.co/q81xo\u2026
p629
aVRT @benjaminwittes: The word, from Alexander Hamilton, 1792. It never gets old. https://t.co/LaJpJeoMD8
p630
aVRT @tribelaw: Listen and retweet. It'd be so great if Trump resettled in his own Moscow Tower. https://t.co/bZ0OxKvu0I
p631
aV@USA_Gunslinger is a comrade bot. https://t.co/g7c7UdIWrM via @Botometer
p632
aVRT @Alyssa_Milano: Why does this unrepentant racist and nationalist still have a job in the White House? #FireGorka https://t.co/TWe7RiwTTq
p633
aVRT @felicia4217: Please share. Help identify who this person is. He is one who inflicted the most damage to my son. Please share. https://t\u2026
p634
aV@Expedia basically no communication by @airchina. Sent DM of rebooking to CA117d- departed 8:30 am. Finally in Hong Kong! Thanks again!!!
p635
aV@Expedia thanks for excellent service! I appreciate your willingness to help sort out our cancelled @airchina flight. Rescheduled now \U0001f44d\U0001f3fb
p636
aV@airchina as if this ordeal couldn't get worse, 5:30 flight cancelled at midnight, and after stuck on plane now stuck in security
p637
aV@airchina your rep told me to call Expedia. Hard to do when your phone battery is almost dead. But hey our luggage is now off the plane
p638
aV@airchina UPDATE, still stuck on plane 7+ hrs &amp; we can't get off plane. Called your US help number &amp; rep told me to call China- I can't 1/2
p639
aV@airchina the flight after us left however.
p640
aV@airchina UPDATE after 7+ hours stuck on the tarmac (unloading once) we are now heading back to terminal (not to our destination)
p641
aV@airchina CA117 was scheduled for 5:30, but we have been removed from flight once, re-boarded, and now on tarmac for 3 hrs &amp; no food. HELP
p642
aVWill do as soon as the sight is back up. https://t.co/dx3a8h4fZZ
p643
aVRT @JWKeady: Once again, @iamjohnoliver has crashed the @FCC website. Check out #gofccyourself.com. Brilliant activism. @HowardStern @rober\u2026
p644
aVSoup Kitchen Cafe on #Yelp: Serving amazing gourmet soups for four years.\u000a\u000aLove this place.  Service is amazing and\u2026 https://t.co/ftJA3g7MeH
p645
aVRT @SenSchumer: The people have spoken. And they've spoken out against #DeVos. Senate GOP needs to listen. https://t.co/5yedlPYJ1l
p646
aVRT @SenBobCasey: .@SenateDems will hold the floor for as long as we can on Monday but we need your help! Tell @SenateGOP that you oppose @B\u2026
p647
aV@SenToomey please oppose @BetsyDeVos' confirmation! #DumpDeVos
p648
aVRT @asherhuey: If you're in PA, OH, or NV get on the phone with your Senator right now. We need only one more Republican. #DumpDeVos
p649
aVRT @mvr20136653: Please do not stop calling your senators on this nomination, this is not finished yet #dumpDevos #DeVosvote https://t.co/5\u2026
p650
aV@SenToomey I will #NeverForget the Syrian families detained at PHL and sent back to Qatar. Please stand up for refugees and denounce the EO.
p651
aVRT @MMFlint: Cheney just changed his mind about meeting the other 3 of us at Comet Pizza, but still a good group. https://t.co/xmQQ7oM9OU
p652
aVRT @hollyotterbein: Asked @SenToomey's spokeswoman for comment on Trump's ban: "Senator Toomey is traveling &amp; I am not going to be able to\u2026
p653
aV@SenToomey I will #NeverForget the Syrian families detained at PHL and sent back to Qatar. Please join other GOP &amp; stand up for refugees.
p654
aVRT @SenWarren: I urge @realDonaldTrump: embrace policies that reflect America\u2019s core values &amp; protect our ntl security. Rescind this execut\u2026
p655
aVRT @SenWarren: Tonight we fight for American values at airports all across this country. I'm at Logan Airport now to say: #nomuslimban #NoB\u2026
p656
aVRT @PhillyMayor: History teaches us dark moments like this occur when we let fear silence our compassion. We must speak out strongly. https\u2026
p657
aVRT @PFTompkins: Now THAT's a take. #AlSmithDinner https://t.co/NFnwLXpYgk
p658
aVRT @funnyordie: This finale is somehow worse than LOST. #debatenight
p659
aVRT @tyleroakley: i've never seen a man say so much &amp; so little at the same time #debate
p660
aVRT @gdeady25: Let's be clear: Pence already governs a state that punishes women for having miscarriages. #PurviPatel #VPDebate
p661
aVRT @HillaryClinton: "We trust American women."\u000a\u000aThank you, @TimKaine. #VPDebate
p662
aVCHINUH?#Debates2016#believeme
p663
aVWinning temperament- division of Tara #Debates2016
p664
aVMajor Tara division- The Donald #Debates2016#believeme
p665
aVThe security aspect of cyber?????#debatenight
p666
aVThe Donald's arithmetic is "semi-exact" #Debates
p667
aVSavoring my leftovers from @satekampar #right2work dinner last night. Delicious! https://t.co/LurfaYAZ6C
p668
aV#right2work @soupkitchencafe @barbacoacart @ Soup Kitchen Cafe https://t.co/4sfeZKtCGy
p669
aVRT @PeteyPlastic: When your grandma dies but you are trying to catch them all... #pokemongo https://t.co/rxfTLuMK0D
p670
aVWhy Anxiety Is The Plague Of The Modern World https://t.co/X5KnoMb5d6
p671
aVRT @juliemurphyarts: Tonight ppl - OMNOMNOM #tacos #dessert #ftw https://t.co/uEGIgEcSfV
p672
aVRT @Sancho_Pistolas: Get well soon, Seor Loaf. https://t.co/93rmqOdLuB
p673
aVRT @AngryBlkManDC: \u201cVoucher Sold Out for this Event\u201d for everything in the DMV. *extends middle finger to @ticketmaster* https://t.co/Ue7mv\u2026
p674
aV@scaryjokes Johnny Brenda's is just down the street from us. You &amp; wifey are welcome to stay at our place! Would love seeing u.
p675
aVBernie rolls like a rockstar. https://t.co/wTZbNrZUFE
p676
aV#PuppyBowlSubaru https://t.co/TUuP7R7Soq
p677
aVRT @TheAVClub: Joel Hodgson is bringing back Mystery Science Theater 3000 https://t.co/8IqHIYjoTA https://t.co/jWPOefFcIH
p678
aV@dominos Placed order-12:30. COLD delivery at 2:15, a half hour after the web said it was delivered. Not using your business again.
p679
aVRT @RealTimers: "If you haven't used up all your heroism on the clock kid, try hashtagging #AliMohammedAlNimr." \u2013 @BillMaher http://t.co/0q\u2026
p680
aVRT @crkmccabe: Name a woman. Literally just name any female. #CNNDebate #GOPDebate http://t.co/rPEhhVQ7W5
p681
aV@scaryjokes  http://t.co/tNZq8WYL5k
p682
aV@scaryjokes Sorry I missed your inebriated FaceTime
p683
aV@scaryjokes Ben brought the scourge of flu into our household.
p684
aVCollege is not a commodity. Stop treating it like one. https://t.co/yqKvYU8Fyf
p685
aVHello@NACADAr2.  Is there a way to post presentations online?  How would I go about that? #Advisorsrock
p686
aVRT @justin_fenton: Updated NYT: Makers of #TheJinxHBO didnt find the damning audio for 2 years http://t.co/nFi2xbWWsH
p687
aV@FishtownLawyer You're tweet was featured in @phillymag http://t.co/r7V5BNzgmU
p688
aV@foodeemike @SoupKitchenCafe That's next month!  We are still trying to figure out how to install cup holders.
p689
aV@sesamestreet awesomeness
p690
aV@foobooz @soupkitchencafe Happy Thanksgiving! We'd like to raise awareness for St.Franciss Inn. Pls donate for Cammie:http://t.co/a4Lsp0CsZz
p691
aVHappy Thanksiving! Ben and I have so much to be thankful for @SoupKitchenCafe http://t.co/T50nWnztGQ
p692
aVRT @lilynicks: @acmestyled @SoupKitchenCafe well done!!
p693
aVRT @acmestyled: Business owners, this is how you do it. Nice job, @soupkitchencafe! http://t.co/zvyBTvizsC
p694
aVRT @scaryjokes: @ethweb it's like my friend @michiamostrano all-ways said: Chicken and biscuits now let's kick this.
p695
aVExcited to be featured in Foobooz.\u000a\u000ahttp://t.co/TkkxbLVrgP
p696
aVWill definitely be recording #Homeland in the future so I can fast forward the Dana story line.
p697
aVOkay, my account was definitely compromised. Ugh
p698
aVSurprisingly amazing margaritas (@ La Cava del Tequila - @waltdisneyworld w/ 3 others) http://t.co/B0LzBY2YpB
p699
aVGreat place to spend a rainy day (@ Mandara Spa) http://t.co/iuC7MtHY0M
p700
aVI'm at Orlando International Airport (MCO) - @mco (Orlando, FL) w/ 48 others http://t.co/dhyqHJoHAJ
p701
aVI'm at Dirty Pierre's (Forest Hills, NY) w/ 2 others http://t.co/8QQoEc0Ybn
p702
aVI'm at Greensgrow Farms (Philadelphia, PA) w/ 4 others http://t.co/EamkOjk37c
p703
aVThanks! @foodeemike   We are lucky to have such talented people in the neighborhood: http://t.co/AFqXdZQ7YN  @SoupKitchenCafe
p704
aVFirst Friday! (@ Soup Kitchen Cafe) http://t.co/n1VE86LuRO
p705
aVRT @NOH8Campaign: Today #Prop8 has its day in front of the Supreme Court. RT if you agree it's time for #MarriageEquality! #NOH8 http:// ...
p706
aVBecause you all really want to know what I'm eating. Nummy momofuko (@ Momofuku Noodle Bar w/ 6 others) [pic]: http://t.co/b9gMSnKURB
p707
aVI'm at 2013 NACADAr2 conference (New Brunswick, NJ) http://t.co/QTVLm4RjJ0
p708
aVDuck liver rillette with caramelized onion and fig was amazing! (@ Due Mari) http://t.co/lFyk0DlvfW
p709
aVRT @AdvisingLAatPSU: Having a great time presenting at #NACADAR2. Looking good and feeling great! Everyone doing ok out there?Hope you a ...
p710
aVLearning about all sorts of handy free tools to facilitate communication with students at the NACADA Regional 2 conference thanks to Amy Be\u2026
p711
aVhttp://t.co/N12ZTQb1\u000a\u000aTweet "I want to dine at #TopChefKitchen with  @OpenTable" any time Wednesday, October 10 thru Friday, October 19.
p712
aVhttp://t.co/FXqmzjSt
p713
aV@YumtownUSA Will you be open at noon?
p714
aVCheck out this charity on Chase Community Giving, and vote to help it share in $5MM in grants! http://t.co/y1vs5GNM #InOnTheGiving
p715
aVI just reached Level 2 of the "Swimmies" badge on @foursquare. I\u2019ve checked in at 5 different water spots! http://t.co/PiVQhrqQ
p716
aVI just reached Level 2 of the "Great Outdoors" badge on @foursquare. I\u2019ve checked in at 5 different outdoor spots! http://t.co/Mx7vDDJN
p717
aVI just ousted @emmaleeradley as the mayor of Not So Secret Dog Park on @foursquare! http://t.co/xLtwQdsD
p718
aVI just unlocked the "Great Outdoors" badge on @foursquare for checking in at outdoor spots! Freedom! http://t.co/EbPbp0qv
p719
aVI just ousted @nicolle_s24 as the mayor of Poolside on @foursquare! http://t.co/VFG3TdjZ
p720
aVI just unlocked the "Swimmies" badge on @foursquare for checking in at water spots! Splish splash! http://t.co/7kXtvC4z
p721
aVRT @STEVEPMP: Physical assault by McDonald's for wearing Digital Eye Glass http://t.co/JoYQ1GlS @McDonalds @McDonaldsCorp Please RETWEET ...
p722
aVDear loyal customers, friends and family, we are a little late to the party, but we could REALLY use your support! Ple\u2026http://t.co/KcR8bpJf
p723
aVFirst Annual WeDoBigThings Scholarship Awards -- http://t.co/Ksf9wrza
p724
aVI just unlocked the "Superstar" badge on @foursquare for checking in to fifty different places! http://t.co/6fZenBoM
p725
aVI'm at Ice Bar At The Intercontinental (Rosemont, IL) http://t.co/s2xEnPY4
p726
aVWhen are you coming back to Temple?  @YumtownUSA (sorry if you get this twice).
p727
aVWhen are you coming back to Temple?
p728
aVI just became the mayor of Best Lunchroom Ever on @foursquare! http://t.co/U0kB5zlz
p729
aVI just unlocked the "Explorer" badge on @foursquare! http://t.co/Sfw3ywXA
p730
aVI just unlocked the "Dog's Best Friend" badge on @foursquare! Raw hide for everyone! http://t.co/09fdx4Sr
p731
aVI just unlocked the "Super User" badge on @foursquare! http://t.co/nkcWAPEc
p732
aVSoup Kitchen Cafe on #Yelp: The new bologna/egg breakfast sandwich is boss! http://t.co/yHHejivg
p733
aVOn Civility and Public Discourse http://t.co/JVuuRY5q via @huffingtonpost
p734
aVI just unlocked the "Local" badge on @foursquare! http://t.co/7SiRUezJ
p735
aVI checked in at Soup Kitchen Cafe (2146 E Susquehanna Ave) on #Yelp http://t.co/aX25PYXu
p736
aVCheck out bulletproof tiger Lo fi set (@ Soup Kitchen) http://t.co/zvq7o5yP
p737
aVI survived rally point d! (@ Liacouras Walk - Temple University) [pic]: http://t.co/kUym2y49
p738
aVI just became the mayor of Not So Secret Dog Park on @foursquare! http://t.co/xLtBnNBN
p739
aVI'm at Not So Secret Dog Park (Philadelphia) http://t.co/15lu4jK6
p740
aVI just became the mayor of Oscars An Ahole on @foursquare! http://t.co/8VUHQxdx
p741
aVI just unlocked the "Bender" badge on @foursquare! http://t.co/VAQMLUzU
p742
aVI'm at Orlando International Airport - Virgin America (Orlando) w/ 4 others http://t.co/lUoP3DRP
p743
aVI just unlocked the "Photogenic" badge on @foursquare! Say cheese! http://t.co/iDiTvqm8
p744
aV@cavadeltequila looking forward to 5 dollar shot
p745
aVI'm at Rose & Crown Pub And Dining Room (World Showcase, Epcot, Walt Disney World, Lake Buena Vista) w/ 2 others http://t.co/s3HP4uXO
p746
aVI just unlocked the "Adventurer" badge on @foursquare! http://t.co/LtZj4KAI
p747
aVI'm at Mexico Pavilion (World Showcase, Epcot, Walt Disney World, Lake Buena Vista) w/ 4 others http://t.co/ykkYGWgp
p748
aVI'm at Disney's All-Star Sports Resort (1701 W Buena Vista Dr., at Walt Disney World, Lake Buena Vista) w/ 11 others http://t.co/t2nv8QzU
p749
aVJames Bond is my Dad, but I still had to wait in line for the Disney Express. No drinks either... http://t.co/xJxLcTN8
p750
aVBeating ben's azz. (@ Food Court) http://t.co/2dpLHc0x
p751
aVI just unlocked the "Crunked" badge on @foursquare! http://t.co/eqOLlFRa
p752
aVWaiting for bags, dawg. (@ Baggage Claim) http://t.co/LGVK59dO
p753
aVI'm hell. D'uh. (@ Hell) [pic]: http://t.co/xlJjJnuG
p754
aVEating queso Loredo and about to down a margarita (@ Gate E11) [pic]: http://t.co/sMg0jbv0
p755
aVSoup Kitchen Cafe on #Yelp: Check out the Soup Kitchen City-Wide Special for Feb. 1st Fri 1/2 meatloaf or veggie or... http://t.co/yHHejivg
p756
aVWIN 2 FREE FLIGHTS! Follow @ CheapTickets and RT this msg to be eligible to win. Vote 4 our next TV ad, too! http://ow.ly/2fhuw #CheapAd
p757
aVI'm confused by these modern times. But one thing I do understand is good soup. Mmmmm.
p758
aV@db2nightshow 1990
p759
aVShow support for democracy in Iran add green overlay to your Twitter avatar with 1-click - http://helpiranelection.com/
p760
aVi'm watching ben kill the infidels and recovering from a late night of rockband
p761
aVlooking forward to eating a bad ass meal and watching a movie about suicide
p762
a.