(lp0
VRT @KevinMKruse: This is outrageous. We've seen absolutely no proof that Roy Moore, Paul Manafort or Rob Porter are in the caravan. https:/\u2026
p1
aV@djkocisi2 @One_Grayman @RBot0 @JohnJamesMI @RudyGiuliani @One_Grayman owned.
p2
aV@JustinFareed is apparently on the civility beat but has refused to condemn a single remark inciting misogyny, hate\u2026 https://t.co/xfma8hnG1r
p3
aVRT @jessalynsays: every campaign staffer in the last week of october: i haven\u2019t slept in months i subsist solely on black coffee and domino\u2026
p4
aVRT @AndrewGillum: As my grandmother used to say \u2014 a hit dog will holler. https://t.co/kC34Ldd0is
p5
aVSolid thread. https://t.co/yB0bRZi0HV
p6
aV@hayleyalex cc @halis_real_life
p7
aV@ashleyfeinberg the Cruz campaign is seeking a digital media director... https://t.co/NoeOPJSaaO
p8
aVTweeting something racist...to own the libs? https://t.co/3913YOdHBN
p9
aVCongressman Dave Brat\u2019s greatest service to this nation was preventing @EricCantor from becoming House Speaker. https://t.co/QRLmJOhAhf
p10
aVRT @baratunde: I believe he will actually physically throw them out. https://t.co/A4v0iS6WDb
p11
aV@jeffreypavlak @LEBassett Oh and remember that time they called  civil rights icon John Lewis the N-word before the ACA vote?
p12
aVRT @LEBassett: Tea Party activists threw a brick through the window of Rep. Louise Slaughter's office, faxed Rep. James Clyburn an image of\u2026
p13
aVAirborne. Vote @Ojeda4congress! https://t.co/lhWNeJCX6k
p14
aVRT @TTDAFLCIO: This is why we proudly advocate for federal transit investments.\u000a\u000aWhen done right, federal transit investments boost local e\u2026
p15
aVThis is impressive. Online fundraising from individual donors and a no corporate pac pledge are critical to reformi\u2026 https://t.co/c2pBkpm6LF
p16
aVRT @mercedeslynz: Just to clear up any confusion: I'm not here to delegitimize men's struggles. I'm just hoping that we can finally start l\u2026
p17
aV@PepeGil_ Pro-Am!
p18
aVWoah if true. \u000a\u000aIt\u2019s as if the NRA was merely a political messaging arm of the Republican Party and not the non-par\u2026 https://t.co/9PRy6yi182
p19
aVLiterally \u2018nobody\u2019 https://t.co/CwsyHT6bsl
p20
aVNah https://t.co/FQtTWt1JP4
p21
aVRT @mattyglesias: What a long and yet fundamentally banal trip it\u2019s been as conservative intellectuals discover that, yeah, a lawless and r\u2026
p22
aVThe reason why GOP messaging is so effective is because it is absent of any and all meaningful context https://t.co/eJSXt3is36
p23
aVI believe Senator Collins believes she cares about survivors of sexual assault. https://t.co/g6Fy9GatnD
p24
aVRT @Susan_Hennessey: It's not that they didn't believe her. It's that they just didn't care.
p25
aV@BenSasse is laughing. @JeffFlake is looking the other way. https://t.co/Ogh8mU7m8Z
p26
aVThis thread \U0001f602 https://t.co/uHy7DqNjRV
p27
aVRT @timothypmurphy: every senator is saying this and, just to be clear, it actually means you don't believe Dr. Ford https://t.co/mjKXw2xCv9
p28
aVI would pay money to see a screenshot of the pre-drafted \u201cNO\u201d statement https://t.co/D9FNmSEWq3
p29
aVRT @royhouseman: Strongly believe @JoeManchinWV is making an egregious mistake with #KavanaughConfirmation. Kavanaugh's record against work\u2026
p30
aVRT @zackbeauchamp: Collins: I believe Christine Ford was assaulted\u000a\u000aAlso Collins: I don't believe believe anything Ford has to say about he\u2026
p31
aV@JeffFlake\u2019s final act of defiance to President Trump https://t.co/kpetYCFMnU
p32
aVScoop guy \U0001f366 https://t.co/JFi5ugjw9b
p33
aV@libbyanelson Costco was selling trees a over a month ago \U0001f602
p34
aVGuess it\u2019s that time of the year when the President of the United States mocks sexual assault survivors as crisis a\u2026 https://t.co/KqgQqIubPW
p35
aVlol https://t.co/WqiLKBsEkQ
p36
aVRT @jbarro: Sasse isn't a centrist. He's a conservative who dislikes Trump. But he hasn't done anything about Trump. And he hasn't been a l\u2026
p37
aVObvious party soldier is obvious https://t.co/2fO9Og1S5X
p38
aVLet's not forget our brothers and sisters at @PASSNational! https://t.co/Gt9FJttPHQ
p39
aV\U0001f525 https://t.co/W0Ilti901v
p40
aV@cjy0ung Hey, at least it was an A-list committee! \U0001f602
p41
aV\u201cknowingly dishonest\u201d https://t.co/DSgTJHbXCi
p42
aVRT @mgallagher822: I feel relieved that @JeffFlake seems to have heard my and @AnaMariaArchil2\u2019s voices in the Senate elevator today. We ab\u2026
p43
aVI can imagine this is also a tough week for aviation lobbyists. https://t.co/1eUQLLFDfj
p44
aVRT @MaketheRoadAct: These two heroes, who confronted @JeffFlake this morning, just changed the course of the Kavanaugh process. We\u2764\ufe0fyou so\u2026
p45
aVThis was so, so moving. https://t.co/XaKiG0r4qH
p46
aVRT @nddemnpl: .@kevincramer\u2019s remarks belittling and insulting women are representative of his character, but they aren\u2019t representative of\u2026
p47
aVAIRBORNE! https://t.co/2wA5KfAVg4
p48
aVYes. https://t.co/bJO8kJv3Nh
p49
aVRT @elizabethforma: We believe her.
p50
aVRT @iswanTheHill: It's not when it involves a female senator and drinking too much, no. https://t.co/fyoa4XecOu
p51
aVJustin starting to tweet like @realDonaldTrump over here... https://t.co/SzhXCpBGyN
p52
aVRT @DomenicoNPR: GOP side attorney, Mitchell: "What do you consider too many beers?"\u000a\u000aKavanaugh: "I don't know, whatever the chart says."
p53
aVI can only imagine this is a very difficult time for Senator Lindsey Graham https://t.co/Ca8ORb5T0o
p54
aVGood tweet. https://t.co/kBBoqpFmk8
p55
aVRT @jbendery: Oh man, Grassley just interrupted the female prosecutor and said to hurry it along. asgasfgadsfasdfadsfasd
p56
aVRT @cam_joseph: I\u2019m sure @ChuckGrassley interrupting @SenFeinstein off the bat will play well.
p57
aVStep aside, @mikiebarb! https://t.co/QENmnh8wu0
p58
aVHell yes. https://t.co/cU5HXgGA0O
p59
aVRT @SenGillibrand: Yes. https://t.co/t16FwlQ5Tq
p60
aV@aterkel Anything else going on this Thursday? \U0001f440
p61
aVRT @AsteadWesley: My kind of petty: Democrat running for House seat in Arizona gets six of his Republican opponent's SIBLINGS to be in an a\u2026
p62
aV@JoePerticone My mother used to tell me \u201cif you can\u2019t tweet something nice then don\u2019t tweet it at all\u201d
p63
aV.@maziehirono does not mince her words. https://t.co/Xhzdp1XFHA
p64
aV@richeisen Team USA's win over Iceland under the leadership of Coach Gordon Bombay
p65
aVMy favorite Senate Judiciary Dem https://t.co/GPzhk030jh
p66
aV@KinjaDeals .@ashleyfeinberg is kinja deals subtweeting trump?
p67
aVIn light of these very serious allegations, I think your profile name could be seen as written in bad taste. \U0001f937\U0001f3fe\u200d\u2642\ufe0f https://t.co/hw9rbO90X9
p68
aVIt\u2019s only Monday https://t.co/nvWQB9YU85
p69
aVRT @markberman: yeah but what are they basing that on other than his history of repeatedly doing exactly that https://t.co/7BRMKsIPa8
p70
aVRT @RepJoeKennedy: This is what your math looks like when you count black or brown lives less than white lives. https://t.co/loYdbF4yLr
p71
aVTo be fair, it's a short walk from his work. https://t.co/sG14NToMA2
p72
aVRT @KirstenDeshler: A university on the rise! UC Santa Barbara has jumped up three spots to the #5 position on the 2019 @usnews listing of\u2026
p73
aV@Fabionsays You tripping bruh \U0001f602
p74
aVRT @Reelpolitik: Ready to go! #TakeItBack https://t.co/9Y74TXsDbE
p75
aVClearly he isn\u2019t running again \U0001f602 https://t.co/lsZKrj19NK
p76
aV@jeffreypavlak Unsurprising response from someone who has accepted money from Tony the Tiger, Count Chocula, and Cap\u2019n Crunch.
p77
aVBill idea: Ban Honey Smacks \U0001f922 https://t.co/O1bApW48O0
p78
aVRT @benwikler: Here's my take on the Woodward book: Brett Kavanaugh is an extremist whose confirmation would end Roe, kill protections for\u2026
p79
aVAgree and very likely the case. https://t.co/RJMgzMg1ko
p80
aVAlcohol dependence? Please don\u2019t tell me those 30 tequila shots were just for him... https://t.co/8W07ifWa39
p81
aVRT @vox_union: Happy Labor Day weekend from the Vox Media Union \u270a
p82
aV"It's a trap!" https://t.co/UduwxWN3Rh
p83
aVRT @Lawrence: Every reporter must now ask @LindseyGrahamSC if he still believes in the standard he set for removing a president in the impe\u2026
p84
aVRT @nprscottsimon: I\u2019ve been wondering all week: can you serve in the new Space Force with bone spurs?
p85
aVRT @SherrodBrown: Numbers like these make it clear who the @GOP's tax scam is helping\u2014and it's certainly not hardworking families. https://\u2026
p86
aVRT @heatherscope: Dems in disarray! https://t.co/Koch2zRBHw
p87
aVRT @seungminkim: Omg @bterris https://t.co/uBDj4fqarQ https://t.co/aL38rhKXMb
p88
aVRT @jdawsey1: To defend the president from charges of racism at the White House podium, Sarah Sanders is talking about the sheer number of\u2026
p89
aVRT @AaronBlake: The press secretary for an American president just REPEATEDLY declined to rule out the possibility that he used the n-word.\u2026
p90
aVRT @BuzzFeedNews: Sarah Huckabee Sanders says she "can't guarantee" President Trump hasn't uttered the n-word on any recordings https://t.c\u2026
p91
aVCan we get @PolitiFact to validate this statement? https://t.co/409fjt50US
p92
aVomg. i'm actually considering going to a @dcunited game https://t.co/T8LFqeTOGv
p93
aV@DFMresearch I see what you did there.
p94
aVWell if the President tweets it, then it must be true? https://t.co/YyW0IWHtxg
p95
aV@TCandell @CrossFitDC @territoryfoods  https://t.co/rzmHzuy83Y
p96
aVRT @MEPFuller: I, for one, will always remember Orrin Hatch sticking up for Merrick Garland. https://t.co/RZ8YJxnUc9
p97
aVLol. Are we really calling the House Speaker who broke the record for the number  of closed rules in a single sessi\u2026 https://t.co/vkL7ERWkn5
p98
aVWow @JustinFareed\u2019s been fixated on ICE lately (see last 15+ tweets). I miss his poll tested platitudes, lack of su\u2026 https://t.co/PAMbudq9no
p99
aVSenate Appropriators be like \U0001f627 https://t.co/oBddz3iBex
p100
aV@libbycwatson I hate it when I get lured into opening links with little to no substance...
p101
aV\u201cCivility\u201d #NVSen https://t.co/Ignr04wRxo
p102
aVRT @JoePerticone: GOP senate candidates embracing bailouts that were prompted by tariffs. \u000a\u000aAh, conservativism. https://t.co/lGuvX9RQvm
p103
aVRT @ddale8: The Iran context is different, but worth recalling: hours after Trump said he'd hit North Korea with "fire and fury" if Kim iss\u2026
p104
aV@ashleyfeinberg .@ashleyfeinberg you will love the last segment
p105
aVAnyone else curious what kind of ALL CAPS tweets Members of Congress will deploy this week? https://t.co/obBThqY4Tn
p106
aVThat wasn't funny. That was frightening. https://t.co/FFIuNPYpk0
p107
aV@senmarcorubio objecting to a controversial nominee only after guaranteeing it could fail is literally the most\u2026 https://t.co/YxEHBdNs7F
p108
aV#solidarity https://t.co/iiPatWtmGs
p109
aVRT @RepAdamSchiff: Sarah Sanders says when Trump said \u201cno\u201d the Russians wouldn\u2019t intervene in 2018, he really meant yes. Apparently it take\u2026
p110
aVRT @sarahdwire: Sarah Sanders says the president was saying "no" to answering the question.\u000a\u000aThe exchange from today:\u000aREPORTER: Is Russia s\u2026
p111
aVRT @MEPFuller: It\u2019s been a long-time coming, but I think today marks the transition of the House Freedom Caucus from an ideological organiz\u2026
p112
aVRT @secupp: Let me get this straight. The big idea today in the WH comms shop was: "Just say you meant to say 'wouldn't'"? No one should be\u2026
p113
aVRT @MatthewNussbaum: It is still remarkable to me that Russia carried out an attack on the United States and congressional Republicans are\u2026
p114
aVRT @marceldirsus: German TV show @heuteshow have replaced Trump with the baby blimp and it's perfect https://t.co/RcDE0juip4
p115
aVRT @SherrodBrown: Right now, we're facing a crisis that has put the pensions of about 1.5 million retirees and active workers at risk. \u000a\u000aI\u2026
p116
aVIts a terrible cereal anyway. https://t.co/TSPegmalc5
p117
aVRT @matthewamiller: Then there\u2019s Jim Jordan, in the news lately for being accused of looking the other way as a team doctor abused wrestler\u2026
p118
aVRT @matthewamiller: One of the other members who attacked Strzok today is Scott DesJarlais, a doctor who had affairs with several of his pa\u2026
p119
aVRT @matthewamiller: Congressman Tom Marino, who gave a reference to help a mobster get a gaming license WHILE he was a US attorney whose of\u2026
p120
aV@halis_real_life @chrisbharrison @Sarah_Elaine14 TFW when you get excited about 30 extra minutes of drama \U0001f602
p121
aV@seangares @leobankel @BangOlufsen @Bose 10/10. I have to second Jaybirds - comfortable foam ear tips + rubber mold\u2026 https://t.co/aFBNi39Mpt
p122
aVRT @SimonMaloy: Scott Pruitt jamming his pockets with EPA cafeteria mayo packets
p123
aVRT @DFMresearch: Well over 80% of American voters support a crew of two on all freight trains (introduced as H.R. 233 and S. 2360). https:/\u2026
p124
aV@halis_real_life @BacheloretteABC @BachParadise \u201cObviously the gym is a big deal.\u201d - me 2020 \U0001f602
p125
aVRT @pkcapitol: You've a valid point, I'm just relaying that McConnell doesn't care one bit if he's a hypocrite. He doesn't. Dems need more\u2026
p126
aVRT @FilmmakerJulie: America to Justice Ginsburg: Just. Keep. Planking. #Scotus https://t.co/FkeARliofp
p127
aVRT @SenGillibrand: In an economy that is rigged in favor of the wealthy and powerful, unions strengthen our communities, raise our wages, a\u2026
p128
aVRT @mattwhouse: Cool compromise guys. https://t.co/3Z1ipbNtmv
p129
aV@NancyMJuarez @JohnWilliamDeo @FarEastTG There is literally TaKorean \U0001f602
p130
aVRT @Ocasio2018: Thank you, @JoeCrowleyNY, for your support and longstanding service to our community.\u000a\u000aI look forward to working towards a\u2026
p131
aVRT @RepBrendanBoyle: The GOP theft of a Supreme Court seat by blocking Merrick Garland is possibly the single most consequential political\u2026
p132
aVRT @rortybomb: Note how naturally @Ocasio2018's message of strong working-class security goes with diversity and racial solidarity. All the\u2026
p133
aVRT @AdamSerwer: Bipartisanship: both parties\u2019 leadership in the House have condemned Waters, neither have condemned Trump for telling her t\u2026
p134
aVRT @Elise_Jordan: A Republican Congressman was convicted of assaulting a reporter. https://t.co/KEq8Dla7iU
p135
aVRT @KatieBoWill: 2018: An anonymous congressman I\u2019ve never seen before just wandered out into the Speaker\u2019s Lobby, looked at @jeremyherb an\u2026
p136
aV!!! https://t.co/cgXhqgTID7
p137
aV@MEPFuller  https://t.co/91GGcQDzYk
p138
aVlol right...\u000a\u000anothing to see here, folks. https://t.co/LnlM3VTRWi
p139
aVRT @BenjySarlin: To summarize: \u000a\u000a-The chairman of a campaign whose unofficial slogan was "Lock her up" is going to jail \u000a\u000a-The campaign adv\u2026
p140
aV@_MackDaddyB More than Karl Malone. GOAT?
p141
aVRT @TinaSmithMN: Excuse me? The mental and moral gymnastics this admin goes through to please the NRA never ceases to shock me. https://t.c\u2026
p142
aVRT @ericgarcetti: Congrats to all of last night\u2019s Democratic winners, especially in #CA\u2019s top swing districts: @Morse4America in #CA04, @TJ\u2026
p143
aVThis is correct person to blame. https://t.co/MKuGWDxSnc
p144
aVDeath by a thousand Senate staff groans. https://t.co/KpiBBSNVhY
p145
aVRT @KinjaDeals: When you don't use the promo code. https://t.co/SmCX3XaK15
p146
aVRT @NPR: In an interview with NBC's Lester Holt last year, Trump said: "When I decided to just do it [fire Comey], I said to myself, I said\u2026
p147
aVRT @maggieNYT: Of course, Donovan didn\u2019t in fact vote for the tax bill https://t.co/hqJcDm1kBS
p148
aVRT @juliehdavis: Depressing sight at Trump rally in Nashville: adorable young boy, probly about my son's age, pointing iPhone at me &amp; other\u2026
p149
aVRT @RosenforNevada: The Trump Administration's policy of separating kids from their parents at the border and ripping families apart is app\u2026
p150
aVRT @maxwelltani: Pretty bored by the lie vs. falsehood debate. Maybe I\u2019m missing the point, but if people haven\u2019t figured out by now that T\u2026
p151
aV@BarberBrenna @cjy0ung @chrismeagher Pic bruh
p152
aV@beccalsteele I really don't know what to say here...
p153
aVRT @JohnBrennan: Senator McConnell &amp; Speaker Ryan: If Mr. Trump continues along this disastrous path, you will bear major responsibility fo\u2026
p154
aVRT @hamiltonnolan: The huge backlash that racist lawyer got makes me extremely proud of NYC. In most of America that guy is just "a local r\u2026
p155
aV@Mr_Negatu You must not subscribe to PoliticoMayo
p156
aVum, @ashleyfeinberg? https://t.co/qyyB0A1gGQ
p157
aVRT @JakeSherman: few realities:\u000a\u2014 Goodlatte isn\u2019t going to pass.\u000a\u2014 there isn\u2019t going to be an immigration compromise signed into law earlie\u2026
p158
aVRT @JakeSherman: 66% of house rs seeking higher office have lost.
p159
aVRT @meredithk27: Att: MacArthur campaign - When you pitch oppo about your opponent's resume, but get it wrong, all you've done is land a lo\u2026
p160
aVRT @ASLRRA: Heavier trucks tend to have a higher center of gravity because the additional weight is typically stacked vertically, and raisi\u2026
p161
aV*insert 3 flame emojis* https://t.co/JEVtD7DPhM
p162
aVRT @RalphSmartUTU: Congratulations to the SMART-TD endorsed candidates. https://t.co/NI6dXotnOq
p163
aVRT @annaleekain: Hey! I wrote an op-ed for @washingtonpost. Please read, share, and then call your Senators. #TIMESUP https://t.co/5QeRhSFn\u2026
p164
aVAbsolutely. Thank you @RepCarbajal for your service to the U.S. Marine Corps and the commitment you bring to suppor\u2026 https://t.co/QGORDsQiuu
p165
aVRT @jonlovett: There was TONS of evidence that this is exactly what would happen before Rubio voted for the tax bill. But he knows that. ht\u2026
p166
aVRT @feministabulous: So glad prominent republicans draw the line at smokey eye but not at nazi.
p167
aVRT @ArthurDelaneyHP: It's Take Your Child To Work Day! A day to pretend that children and work are compatible and that the labor market is\u2026
p168
aV\U0001f440 https://t.co/NmmxR3vB06
p169
aVRT @desiderioDC: Two words: Nomination fatigue. https://t.co/dBEC7j7hmc
p170
aVRT @SethAMandel: Now you know why he calls himself @ComfortablySmug https://t.co/Cq90m0FMOP
p171
aVThat was rough to watch. He would\u2019ve been better off bringing up Hillary\u2019s emails at that point. https://t.co/zq44lEAfIR
p172
aVThanks @wmata. The day I left 30 minutes early to go to work, I arrive nearly 30 minutes late \u000a\u000acc @unsuckdcmetro
p173
aVRT @AshleyRParker: If you were thinking of taking the Metro (@wmata) this morning... don\u2019t. In fact, there is almost always a more pleasant\u2026
p174
aV@TedGreener @BeckyVanDercook Crowley?
p175
aVRT @MEPFuller: Rumor on Capitol Hill is that members will be done for the week by Wednesday night.\u000a\u000aOnly in Congress and in your fifth year\u2026
p176
aVRT @TheAtlantic: The reputed deficit hawk Paul Ryan's true legacy is the greatest peacetime growth in deficit spending in modern American h\u2026
p177
aVRT @christinawilkie: Paul Ryan is retiring and John Boehner is selling pot. Big day for unexpected, but not wholly surprising, news from GO\u2026
p178
aVRT @kelsey_snell: oooooh someone taught Zuckerberg the time honored trick of answering the question you wanted, not the one you were asked.
p179
aVRT @damianpaletta: Speaker Ryan, who gained fame as deficit warrior, leaves with deficit in the worst shape its ever been during a healthy\u2026
p180
aVRT @darth: https://t.co/j7ZvW64ZYj
p181
aVRT @cjy0ung: At this point we can probably all agree that Scott Pruitt is likely cash poor, irrationally paranoid about his security and pr\u2026
p182
aVRT @_jackcorrigan: When your committee's in session but your shirt's on recess @brianschatz @SenateCommerce https://t.co/gXUEVmxDCH
p183
aVRT @DaviSusan: A congressional pay raise. (I\u2019ll be here all week, folks!) https://t.co/JTR9pp4UFe
p184
aVRT @mattwhouse: You can\u2019t vote for the tax bill and Tweet this. You just can\u2019t. https://t.co/FoMCCx8wu9
p185
aVSure but I believe @POTUS is concerned about how much of that is not going toward \u2018concrete\u2019 \U0001f602 https://t.co/smxOeCV89u
p186
aV@meredithk27 @danielmarans Jim Costa is the only one who comes to mind.
p187
aVRT @AshleySchapitl: Case and point: Lois Capps! https://t.co/MvSgNlItFR
p188
aV@BarberBrenna @AshleySchapitl @lexieschapitl @voxdotcom @cjy0ung @chrismeagher YES! Brenna is only jealous cause sh\u2026 https://t.co/CxvkfshQYv
p189
aVRT @TTDAFLCIO: Congratulations @ConorLambPA! Survey data shows that an overwhelming majority of #PA18 voters support two-person train crews\u2026
p190
aVRT @jtdoering: Best wishes to my railroad industry colleagues participating in #RailDay2018. @smartunionworks @SMART_GA_SLB @smartpslb @SMA\u2026
p191
aVRT @IsaacDovere: Yesterday, Ben Sasse blamed whoever Trump was agreeing with for his declaration that guns be seized without due process. T\u2026
p192
aV@AshleySchapitl Not to mention the can of worms this could open for private sector collective bargaining units...
p193
aVRT @SenGillibrand: This is an important time to talk about this WH and whether they value women. Because, consistently, their actions tell\u2026
p194
aVRT @McCormackJohn: These people were okay supporting a credibly accused sexual assaulter, but voting to increase the deficit one-fifth as m\u2026
p195
aVRT @jordainc: GOP senators starting to sound a little frustrated with Rand Paul for forcing a (brief) shutdown for a bill that everyone kno\u2026
p196
aVThis tweet didn't age well. https://t.co/mTgDITWxaL
p197
aVthank you. https://t.co/8uMqgskYpR
p198
aVBut they did tho. https://t.co/yq3J2ZhRhI
p199
aVRT @collinsr: We give these guys too much credit as if they're going to listen to their better angels. Remember all they care about is powe\u2026
p200
aV@collinsr Absolutely, let\u2019s not forget what they did in the NC statehouse only days after they lost the gov electio\u2026 https://t.co/QAKixl93lP
p201
aVRT @MEPFuller: Paul Ryan: A secretary is saving $1.50 a week from the tax bill.\u000a\u000aAlso Paul Ryan: These aren\u2019t crumbs.
p202
aVThank you @SenatorHeitkamp for being a tireless advocate of America's rail workers and your dedication to  ensure o\u2026 https://t.co/yth22awebZ
p203
aVRT @SenatorHeitkamp: Glad to keep moving forward in improving our rail safety standards with the #SafeFreightAct! https://t.co/vmV74PJW4v
p204
aVRT @TTDAFLCIO: When it comes to our transportation system, safety must be a top priority. It\u2019s ludicrous to ask a single person to manage a\u2026
p205
aVRT @seungminkim: Because there are no coincidences in politics, I'll note that a seat on the Fourth Circuit (covers South Carolina) became\u2026
p206
aVRT @RobertWGuy: Having an instant responder (2nd crew member) on a train is a must to help protect public safety when  train mishaps (like\u2026
p207
aVCurious. Where does @RepMcSally stand? #AZSEN https://t.co/EOcUb1wyER
p208
aVtbh I\u2019ve never read much into KFC lore... https://t.co/9GkJGu96S9
p209
aVRT @TTDAFLCIO: According to recent survey of #PA18 voters, 76% of southwestern Pennsylvania residents support #2CrewTrains: https://t.co/J0\u2026
p210
aV@tesswhittlesey @JustinFareed More importantly, who is Congressman SALAD Carbajal? \U0001f957\U0001f602
p211
a.