(lp0
V@WireWheel_io Well deserved!
p1
aVRT @chicagoideas: .@bradkeywell kicking off tonight\u2019s talk: \u201cMy provocation to each of us is perhaps we are all artists, perhaps we all hav\u2026
p2
aV@Iwillleavenow The tragic case of Aaron Swartz
p3
aVBest way to celebrate passing the bar exam: the tasting menu at @VieRestaurant; thanks for a very memorable experie\u2026 https://t.co/YR4S4v4ceH
p4
aV@ShayLovesSports @jongulick Shay &amp; Jon - thanks for your hard work in putting on a great #TwitterU event last night\u2026 https://t.co/k5FSuSeJ5Q
p5
aVRT @alexstamos: Thomas is right, the WSJ is pushing for a norm that would be highly destructive in the long run. https://t.co/S9h3Gf5eVY
p6
aVRT @jtrevorhughes: I expect we will be talking about this a lot in the office tomorrow.\u000a\u000aGoogle opted not to disclose to users its discover\u2026
p7
aVhttps://t.co/kPpbkrCTC1
p8
aVRT @johnpletz: Lisle-based @Endotronix raises $45M to take heart-monitoring device and software to trials in Europe and U.S. https://t.co/7\u2026
p9
aVRT @chrissyfarr: It's official: FDA has cleared Apple's ECG and heart health apps, says Jeff Williams. \u000a\u000aA "de novo clearance" - the first\u2026
p10
aVhttps://t.co/v6KlppjQse
p11
aVRT @timothy_yim: Data #Privacy laws now coming out at the city level: #Chicago pushes for consent &amp; 15 breach notification timeline via @la\u2026
p12
aVRT @bradkeywell: Chicago is a world-class tech city. Hope the #ThinkChicago students enjoyed their visit to @Uptake this morning...Have fun\u2026
p13
aVRT @Endotronix: Could this device save your life? @Endotronix featured in @crainschicago https://t.co/cgLVdjDmvG  #Innovation
p14
aVRT @AnnCavoukian: \u201cFacebook bet against privacy, and they lost, big time.\u201d Great article. https://t.co/l6y0oGnvG5
p15
aVRT @CNNMoney: Uber hires its first chief privacy officer, filling a significant void at the most valuable privately held startup in the US\u2026
p16
aVRT @Scharg: Today the Supreme Court ruled that cell phone location data is constitutionally protected. Great, but everybody should realize\u2026
p17
aVRT @jtrevorhughes: Pressure is building on regulators and lawmakers to take action on privacy in the United States.\u000a\u000aScoop: The White House\u2026
p18
aVRT @omertene: Salesforce CEO Marc @Benioff calls on tech industry to support national US #privacy legislation. https://t.co/1CVy6osyFX
p19
aV@jayedelson @edelsonpc Looking forward to this!
p20
aVRT @AnnCavoukian: Companies that are smart will indeed view #Privacy as as a competitive advantage \u2014 make it a win/win proposition! https:/\u2026
p21
aVRT @jtrevorhughes: #Privacy is becoming the biggest of battlefields for tech titans.   https://t.co/PL6CrSk5fL
p22
aV@SteffiBryson @Uber Thanks for the heads up, Stephanie - a crucial role for a great company!
p23
aV@TomkiesBrittany Thanks for the heads up, Brittany! #TPRM is increasingly important - a fascinating field
p24
aVRT @BBCNews: Google and Facebook accused of breaking GDPR laws https://t.co/r21nBJdRxM
p25
aVRT @MarketMaverik: #HLTH2018 @megtirrell @CNBC "is cost of #genome or clinical utility the barrier"? @fdesouza @illumina "individual #genom\u2026
p26
aV@alvarombedoya Myopic Books!
p27
aVRT @aparmarbb: Data is key to AI but what about privacy - good question posed by Rachel Mercado from @PwCHealth who is moderating the AI pa\u2026
p28
aVInsightful opening remarks re AI in healthcare at #mcinvest - \u201cit\u2019s all about the data\u201d https://t.co/Z3sPveTHJe
p29
aVRT @jtrevorhughes: A must-read for all CEOs.  Staffing for #privacy is no longer a nice-to-have. \u000a\u000ahttps://t.co/RiN9fCu0t0 https://t.co/IdF\u2026
p30
aVInspector General Daniel Levinson addressing the potential of big data in healthcare - fascinating #HCCAci https://t.co/gTuVjZtfqi
p31
aVGreat first day at #HCCAci
p32
aVRT @pflaviw: https://t.co/qgH5z3vyuC exciting move! @JLFlavin1 @Endotronix
p33
aV@RoySnellSCCE @theHCCA @Gerry_Zack Looking forward to attending, Roy! Seems to be a fascinating agenda.
p34
aVRT @RolandHung: .@JulieSBrill - As the courts interpret the GDPR, the GDPR will evolve. #GDPRcompliance #GDPR #GPS18 #IAPP @PrivacyPros
p35
aVRT @dylanmckaynz: Downloaded my facebook data as a ZIP file\u000a\u000aSomehow it has my entire call history with my partner's mum https://t.co/CIRUg\u2026
p36
aVRT @johnpletz: .@TempusLabs raises another $80M from @TRowePrice, others, valuation tops $1B. Headcount tops 400. https://t.co/qYgZExwU7N
p37
aVRT @LoyolaLaw: Just released--#LoyolaChicago is ranked #6 in the country in #healthcare #law by @usnews.  Congrats to our colleagues at the\u2026
p38
aVIn class - had to hastily disguise my yell as a cough when Loyola hit that 3 to win #marchmadness
p39
aVRT @Suntimes: Mayor Rahm Emanuel has a challenger, a young tech guy \u2018who gives a s\u2014,\u2018 @dmihalopoulos writes. https://t.co/sYeaLhuaZf https:\u2026
p40
aV@DrewWhiting really appreciate you presenting to the Business Law Clinic yesterday - fascinating discussion. Thanks again!
p41
aVRegulatory-focused symposium today at @LoyolaLaw https://t.co/nucOzP43le
p42
aVProud to be a part of the Business Law Clinic - this is critical! https://t.co/prqauKT5f7
p43
aVRT @LUCCompliance: Join us this Friday, 2/16 for our annual Compliance Symposium, \u201cWhat is the Role of a Regulation if it is Not Enforced?\u201d\u2026
p44
aVRT @JLFlavin1: Seventeen research and innovation milestones in 2017 | UChicago News https://t.co/ndTONtUteb
p45
aVHappy birthday to @philipglass - thanks for getting me through 3L year
p46
aVRT @JLFlavin1: I enjoyed being interviewed on Chicago Tonight by Carol Marin @wttw to discuss Chicago's Amazon HQ2 opportunity! https://t.c\u2026
p47
aVRT @michael_gilman: Wild story. https://t.co/ujlXshvJZx
p48
aVRT @NotreDame: A photograph of Fr. Ted Hesburgh and Martin Luther King, Jr. linking arms at a 1964 civil rights rally in Chicago is enshrin\u2026
p49
aVRT @alexbarinka: With Dropbox, Spotify and ADT all out of the IPO gate, 2018 could finally be the big tech listings year we've all been wai\u2026
p50
aV@Jessica_Malkin - just started @tferriss \u2018 Tribe of Mentors - thanks again for the recommendation! Looking forward to learning from it
p51
aVRT @danprimack: Medical device tax coming back in 2018 https://t.co/Yhk47el44D
p52
aVRT @MichaelArndt_: Exclusive: @lefkofsky's  Tempus teams with American Society of Clinical Oncology to double its cancer patient database\u2026
p53
aVhttps://t.co/2Weq9mBXwe
p54
aVRT @JLFlavin1: Inspired by @BarackObama vision for Chicago's South Side. Looking forward to partnering on inclusive innovation @polskycente\u2026
p55
aVRT @CrainsChicago: Mega-merger alert: @advocatehealth in talks with Wisconsin system for potential $11B deal. Combination would be 10th lar\u2026
p56
aVRT @CrainsChicago: Meet this year's Crain's 40 under 40. https://t.co/V1u3hSofqY
p57
aVRT @polskycenter: Kicking off the Fall 2017 UChicago Innovation Fund finals  is @JLFlavin1. Four emerging companies will pitch their resear\u2026
p58
aVRT @elonmusk: The Boring Company will compete to fund, build &amp; operate a high-speed Loop connecting Chicago O\u2019Hare Airport to downtown  htt\u2026
p59
aVRT @ChicagoNEXT: #AI and #IoT will shape #vc funding in the Midwest next year -- @Peter_Wilkins @hydeparkangels https://t.co/fBUMPyIrnW htt\u2026
p60
aVRT @danprimack: AT&amp;T basically arguing: If DoJ is blocking us from buying Time Warner, then you need to break up companies like Facebook.
p61
aV@J_Dot_J Don\u2019t like the \u201cfillers\u201d in a lot of preworkouts; 200mg caffeine and a banana is my go to.
p62
aVRT @Mann_Major: Never in American history has technology displaced so few and scared so many. See chart: rate of occupational change (job c\u2026
p63
aVRT @lefkofsky: We are experiencing the greatest paradigm shift of all time. https://t.co/Cj5guaoG7i
p64
aVRT @LynneMarek: Some Chinese investors drop out of bid for Chicago Stock Exchange. Will it's chances of receiving regulatory approval incre\u2026
p65
aVRT @michaelsachaj: Why is #healthcare #tech attracting major #VC dollars? @Peter_Wilkins of @hydeparkangels explains on @Forbes https://t.c\u2026
p66
aVRT @Rick_Zullo: The line between success and failure is razor thin. Never let the highs be too high or the lows be too low, things can chan\u2026
p67
aVRT @TechCrunch: Congress votes to disallow consumers from suing Equifax and other companies with arbitration agreements https://t.co/DsC2eF\u2026
p68
aVGo Irish    \U0001f340 https://t.co/KIak5m2pLT
p69
aV@cluciano7 's Finalist pitch for #ThinkChicago - solutions as brilliant as the backdrop https://t.co/weiy5FobpR
p70
aVInspiring words from @tomalexander19 https://t.co/traYzbLAhs
p71
aV@NoEXCuses___  with some of the most creative ideas behind all of #ThinkChicago's Civic Tech Challenge
p72
aV@ChaseBonhag @cluciano7 Thanks for showing us where the magic happens - awesome tour &amp; a highlight of the day
p73
aV@chicagoideas I think "A Seat at the Table: Finding Equal Footing through Storytelling" will be extremely engaging\u2026 https://t.co/A1ugyWJsXf
p74
aVRT @scollens: Technology can eliminate $1 trillion in heath care costs: @Lefkofsky https://t.co/1FwjkRG0lp via @crainschicago @TempusLabs
p75
aVRT @loganlahive: Could be sign of major shift in tech landscape\u2026 IF fb expansion + AMZN HQ2 in Chicago, it\u2019s indisputably top 3 tech hub. M\u2026
p76
aVThrilled to be a part of this year's class of students selected to attend @chicagoideas through #ThinkChicago this week
p77
aVRT @FortuneMagazine: Top 25 high-tech cities in the world:\u000a25. Washington, DC\u000a24. Barcelona, Spain\u000a23. Copenhagen, Denmark\u000aFull list: https\u2026
p78
aVRT @WSJ: Here's how Domino's Pizza and Dunkin' Donuts persuaded Wall Street to loan them more money\u000ahttps://t.co/bhmkGB8JA3
p79
aVRT @CrainsChicago: Chicago is rolling in venture funding, fueled by a stream of $10 million-plus deals: https://t.co/IF83gcNlSs
p80
aVRT @danprimack: VCs invest record amount into healthcare startups https://t.co/zflzVM2FF7
p81
aVRT @CNierzwicki14: Interesting: some Chicago law firms are opting for using big data in place of the traditional billable hour. https://t.c\u2026
p82
aVTalking #healthcare strategy at @MATTERhealth https://t.co/1E24HMbJkd
p83
aVRT @paulisci: Court rules that RTs = endorsements. https://t.co/fPrlzgdz3q
p84
aVRT @WSJ: The SEC is contemplating how to protect a vast, new database of stock trades from hackers https://t.co/CFljVhiqew
p85
aVRT @darrenrovell: Louisville believes it owes Pitino $11,800. Pitino thinks school owes him $44 million.\u000a\u000aContract language gives Pitino de\u2026
p86
aVRT @Tweed_Thornton: Enjoyed this snapshot of the Chicago Area Hospital Market Share in this @CrainsChicago article from @kschorsch: https:/\u2026
p87
aVRT @LynneMarek: ICYMI: SEC chairman froze agency\u2019s approval of Chicago stock exchange sale  https://t.co/FeUH9xHdj1 via @WSJ
p88
aVInteresting alternative/compliment to @RobinhoodApp https://t.co/tBgLxXezXv
p89
aVRT @LUCCompliance: Congratulations to all the new attorneys from our @LUCCompliance family! https://t.co/TDNM3zoveh
p90
aVContinued growth from @OutcomeHealth - great for Chicago https://t.co/1GNDkog7ol
p91
aVRT @nytimes: Read Trump's tax proposal that includes what would be the most sweeping changes to the tax code in decades https://t.co/9ppD6m\u2026
p92
aVRT @JamesVGrimaldi: This seemed inevitable: Equifax CEO Richard Smith leaves after massive data breach. https://t.co/jewtcDXUSP via @WSJ
p93
aVRT @MarketWatch: President Trump will unveil tax-plan details Wednesday, White House says https://t.co/zwAfjOECgl
p94
aVRT @SCCE: SEC Announces Data Breach https://t.co/pLYRZwMQ4K
p95
aVRT @FogoDataCenters: The Guardian reported Monday that the #Deloitte hack compromised "confidential emails, and ...https://t.co/yQnKvmaDfy\u2026
p96
aVRT @NYTHealth: Bill and Melinda Gates give the world a health report card. You could try harder, it says. https://t.co/6QPNkvZ4In
p97
aVRT @ErkanAYAN2013: #DataBreach - 10 largest in history. Cost to business $8 trillion in 5 years #cybersecurity #cyberattacks v @juniperrese\u2026
p98
a.