(lp0
VRT @JaclynCorin: Young people showin\u2019 up to the polls like... https://t.co/ZYAbTUFclv
p1
aVRT @SteveKerr: I\u2019ve lost count of how many moments of silence we\u2019ve had for mass shooting victims before our games the past few years. Our\u2026
p2
aVRT @schoolwalkoutUS: Let\u2019s prove to the world on November 6 that young people can make change happen. https://t.co/c20zEh9dzg
p3
aVRT @FutureCoalition: This. Is. Why. We're. Voting. \u000a\u000a#WhyWeVote #WalkoutToVote https://t.co/rVBzUcUPtx
p4
aVRT @schoolwalkoutUS: "We can march, we can shout, we can walk out - but the biggest thing that we have to do is we have to vote." \u000a\u2014#Walkou\u2026
p5
aVRT @gwencasten: I just took action on @theactionnet: Start a March For Our Lives local action club. Take action here: https://t.co/8QayJBWF\u2026
p6
aVRT @avzfen: a young black man was LYNCHED.\u000a\u000ayes, in America.\u000ayes, in 2018.\u000ayes, for real.\u000a\u000ano, it wasn\u2019t covered by the media.\u000ano, it\u2019s not\u2026
p7
aVRT @BarackObama: Not sure who and what you can vote for? Head over to https://t.co/SHxg6ael0O to look up your state, learn who's running to\u2026
p8
aVRT @Dan_Fogelman: The end card from tonight's episode. @Everytown #ThisIsUs https://t.co/K88NY3hoAV
p9
aVRT @delaneytarr: It shouldn\u2019t be a radical act to be a woman. \u000a\u000aIt shouldn\u2019t be a radical act to be LGBT. \u000a\u000aIt shouldn\u2019t be a radical act t\u2026
p10
a.