(lp0
VRT @SteveKerr: Please watch this and be reminded of what thoughtful leadership looks and sounds like. Thank you @BetoORourke for giving us\u2026
p1
aVGreat things are happening every day at Cara! https://t.co/hswKF0PVc2
p2
aVRT @marceldirsus: German TV show @heuteshow have replaced Trump with the baby blimp and it's perfect https://t.co/RcDE0juip4
p3
aVRT @John_Kass: Why am I defending Father Mike @MichaelPfleger &amp; St. Sabina for their shutdown of the Dan Ryan? Because people are being sho\u2026
p4
aVGreat 7 minute overview of Cara on PBS!!! https://t.co/zz26npTWLW
p5
aVRT @yaisahagood: Join us May 19th as we honor Tom Owens founder of @CaraChicago. https://t.co/vKs6jScHIs
p6
aVRead this thread to get a better understanding of poverty in America and this administrations misguided efforts to\u2026 https://t.co/bmzKpXTQ1B
p7
aV.@SenDuckworth, Illinois #nonprofits are effective because they focus on #CommunityNotCandidates. We urge NO weaken\u2026 https://t.co/CPGf3SnlzJ
p8
aV.@SenatorDurbin, Illinois #nonprofits are counting on you to maintain the #JohnsonAmendment to keep a clear line be\u2026 https://t.co/ftzzjovuuK
p9
aV@SenDuckworth, Illinois #nonprofits are effective because they focus on #CommunityNotCandidates. We urge NO weakeni\u2026 https://t.co/zhT6HnQgzQ
p10
a.