(lp0
V@JuddLegum @sarahchurchwell Among \u201cAfrican Americans for Trump\u201d he has a 40% approval rating. The other 60% have fi\u2026 https://t.co/XnMTk1a0Do
p1
aVRT @BenjaminEPark: I feel like this video took two years off my life. https://t.co/I2f2VSgjOk
p2
aV@FoxEstacado Awesome! Consider making a suggested list to share w/your likeminded friends, since you\u2019ve done the re\u2026 https://t.co/TbNnbBV4PI
p3
aV@BlackVotersMtr Wow! What an incredible and inspiring movement!
p4
aV@IdahoStatesman @MSDschools If that\u2019s true, these people should be out of jobs.
p5
aV@ThisWeekABC This is a bullshit tweet. The wrongdoing is all Hunter. He\u2019s the one indicted and he\u2019s the one running\u2026 https://t.co/6tOmchxHUD
p6
aV@marcorubio So, you agree then, that constitutional amendments are subject to interpretation and reasonable limitations? Cool.
p7
aV@brianstelter If this doesn't quality as "racist" for you, what would?
p8
aV@AynRandPaulRyan I don't think this was a journalist, just a brave constituent.
p9
aV@postpolitics Another bullshit headline. HE cancelled. Then he lied and said she had cancelled. The TV station has\u2026 https://t.co/7Xi9OnghBK
p10
aV@Variety Uh oh, @justinekuran
p11
aV@stinchfield1776 There's something fundamentally wrong with you as a human being.
p12
aV@wsbtv @BrianKempGA @staceyabrams If Kemp has chosen to do something else with his time, then you should continue f\u2026 https://t.co/CRxiKVddV6
p13
aV@NBCPolitics Why retweet his lie that she cancelled?
p14
aV@nytpolitics Bullshit. Pure bullshit.
p15
aV@JuddLegum @Purina Not a good look to be supporting white nationalism, @Purina. Get your shit together.
p16
aVRT @staceyabrams: "We need to vote for Stacey. Every time I hear her talk, it's like a fire that burns. This is what we need. This is the c\u2026
p17
aV@subaru_usa WTF? How can you possibly justify sponsoring the white nationalist propaganda of FOX? C'mon, do the right thing.
p18
aV@Acosta Only if you have a  judiciary that is willing to uphold it and then an executive branch willing to back down.
p19
aV@Eclectablog Mazel tov to her for winning the title of shittiest possible person in this moment.
p20
aV@LenaEpstein Having a Christian dress up like a rabbi and pray for Jesus to bless republican candidates has got to\u2026 https://t.co/BmOQiUGnGR
p21
aVRT @AoDespair: Eleven Jewish Americans are murdered for being Jews in their house of worship and Mike fucking Pence marks the tragedy by ha\u2026
p22
aV@ABABankers It's way past time to stop funding white nationalism by supporting pigs like Steve King.
p23
aVRT @BetsyRaderOH: I decided to run for Congress, in part, because I couldn't stand by while this administration worked to roll back civil r\u2026
p24
aV@McDonalds It's well past time for you to stop supporting the vile racism of Fox News.
p25
aV@justinekuran I don't believe there are too many people who voted for Trump because they hated Hilary. That's just\u2026 https://t.co/S09UD1Ehtw
p26
aV@revrrlewis Asylum is a legal process....
p27
aV@JuddLegum @LandOLakesInc @LandOLakesKtchn - time to stop supporting white nationalism.
p28
aV@justinekuran Two on SCOTUS....\u000aVery very few of his followers have changed their minds. This election will hinge o\u2026 https://t.co/CnHosj6uOg
p29
aV@JuddLegum Stop funding white nationalism, @ATT
p30
aV@TheRaDR Nine is old enough to know some people are so miserable/angry they want to make others share their pain. E\u2026 https://t.co/ByE9baDwL2
p31
aV@johnlk1980 Observant as in observing Sabbath rules that would prohibit things like television and cell phones. Tha\u2026 https://t.co/8KmFWizW8U
p32
aV@Future_Prof10 @unicornmacaroni @mkjpeters @aj_mirabelle @bryanbehar It's not a political difference. It's a fundam\u2026 https://t.co/9pptosaRzb
p33
aV@joanwalsh I just rage donated to her (again) and I hope others do as well. So sick of assholes like this guy.
p34
aVRT @ElissaSlotkin: My mom, who died in 2011 of ovarian cancer, had breast cancer many years before. When I saw @RepMikeBishop smiling at th\u2026
p35
aV@chrislhayes @RacismDog WTF?
p36
aV@audrey4congress Wow, even for liars who lie all the time, this is beyond. Disgusting. Shame on @RepLaMalfa.
p37
aV@kenolin1 This isn't stupidity,; it's racism purposefully presented to galvanize racist voters, and it's part of st\u2026 https://t.co/04R5souECo
p38
aV@barbwyre75 And yet the whiteness of your skin conveys you benefits in a social structure that prizes whiteness abo\u2026 https://t.co/6lRZcM010h
p39
aV@McFaul Don't kid yourself, it's intentional. What you regard as baggage, they regard as selling point. Feature, not bug.
p40
aV@SGUYBRAY It's this total disconnect, I think bc they never knew a time when they didn't have rights, so they can't\u2026 https://t.co/a3kII7RFHL
p41
aV@SGUYBRAY It's not like it's a secret. They think you're an abomination that should burn in hell, kid, and they leg\u2026 https://t.co/vSRpXs1WhK
p42
aV@SGUYBRAY Gay teen 2016: Trump is pro gay!\u000aMe: He'll use relig liberty to discriminate against you. It'll get very\u2026 https://t.co/hbGmYRpWOy
p43
aV@SGUYBRAY This, a thousand times. I've argued this with some gay teens voting third party too. Also baffled at jewi\u2026 https://t.co/CLHIhkz4fy
p44
aV@AP_Politics @AP An army? WTF is this bullshit?
p45
aVRT @Khanoisseur: This is why Republican lawmakers feared doing healthcare townhalls.  https://t.co/zmywZNXkl0
p46
aVRT @EscapologistFi: Reasons I, a cis woman, am more hurt by your transphobia than I ever have been by any trans person ever:
p47
aV@NYTMetro WTF is wrong with you? "Being able to spout aggressive rhetoric." "Being willing to get physical". You ar\u2026 https://t.co/XHyHkgyCWf
p48
aV@Stephanielex @rubyb @kazweida I literally learned this less than a week ago - the boys told me, after I pulled up\u2026 https://t.co/kyFvNvkjRS
p49
aV@alweaver22 You mean he's going he's going to take the money that people gave him for the specific purpose of him s\u2026 https://t.co/LUL3JYUwTm
p50
aV@BrianKempGA They can't vote by mail, but you know that, of course.
p51
aV@cyberxboyfriend If you are not able to resolve this by election day, go to your polling and ask (demand if you hav\u2026 https://t.co/Lfkyp6hwna
p52
aV@NBCPolitics Verifiable facts, not just claims made by critics. Get your shit together @NBCPolitics
p53
aV@sarahkendzior Yes, yes, and yes.  What is wrong with these people? Why do they feel so powerless to resist being a\u2026 https://t.co/ngH6nWDrqU
p54
aV@NaomiLevinNY It's impressive that you can lie so baldly. And by impressive, I mean utterly sickening.
p55
aV@PBallenger3 @samswey @electricboyo Register as a Republican - they\u2019ll make sure you get your ballot.
p56
aV@CTalmon @PhilBredesen @taylorswift13 As does Blackburn, so that can\u2019t be what you base your decision on. It\u2019s a binary choice.
p57
aV@CherylvTilburg @LuWho2You @shannonrwatts @pixiekat666 @newscatmathis This is the best thing you can do. Without fe\u2026 https://t.co/athwVu4kDu
p58
aV@Evan_McMullin @EcoSexuality Meh, only now \u201cindy\u201d bc GOP stopped being polite about racism, misogyny and greed. You\u2026 https://t.co/JvZm4fgTSk
p59
aV@AshaRangappa_ But he *doesn\u2019t* share most of our values as Democrats. I\u2019m thrilled he shares our core value of dec\u2026 https://t.co/w5rUhqAeah
p60
aVRT @goldengateblond: can\u2019t stop, won\u2019t stop watching this https://t.co/XPXpAe4L6E
p61
aVRT @ChuckModi1: Thought he\u2019d just focus on Kavanaugh. Instead he gave best response on rape culture I\u2019ve ever heard from a man! \u000aI aspire t\u2026
p62
aV@Stephanielex @ladygaga Love.
p63
aV@PeggyMRyals @jonfavs Donate to Beto O\u2019Rourke to oust Ted Cruz.
p64
aV@edwardnelson4tn What upside do you see in making a republican victory in those states more likely? Even if you con\u2026 https://t.co/1xzHbmL1jX
p65
aV@MoveOn Oh FFS - all this accomplishes is to make it easier for republicans to have a bigger margin in the senate w\u2026 https://t.co/0PYxAwksCK
p66
aV@ladolcevitaone @funder @JeffFlake @Sen_JoeManchin What are you babbling about that his life is ruined? He\u2019s got a\u2026 https://t.co/kmTp9WkVrK
p67
aV@mspoint1106 The only part I think you've got wrong is Manchin. Knowing Pence would break the tie in favor of confirmation, he'll vote yes.
p68
aV@jdawsey1 This is a lie. You have an obligation not to repeat this lie without calling it the lie that it is.
p69
aV@benwikler @aravosis This link only gives half of the amount donated to Heitkamp. In small print, you'll find that\u2026 https://t.co/zP37xILgos
p70
aV@LordColdemort And even then it was a totally empty gesture, since he turned right around and vote to effectively k\u2026 https://t.co/L2qEMNbv8T
p71
aV@AriMelber Why didn't any of the democrats challenge him about what evidence he had for claiming the allegations ag\u2026 https://t.co/kylac7MaJn
p72
aVRT @dccc: \u201cCoat rack! Can you see what\u2019s taking the lobster tail so long?\u201d\u000a\u000aRepublicans may claim you\u2019re winning, but their harmful economi\u2026
p73
aV@AmyMcGrathKY No, not a misunderstanding. It's an intentional perversion of history. Don't sugarcoat for them. They\u2026 https://t.co/BU87sEBKos
p74
aV@Alyssa_Milano WH will limit investigation's scope so narrowly it can't add anything. Flake, Murkowski and Collins\u2026 https://t.co/0dWwfMdCep
p75
aV@Alyssa_Milano Nah, still cowardly. If he thinks FBI investigation is warranted, he shouldn't have voted it out of\u2026 https://t.co/PhekkVYqVd
p76
aV@sarahkendzior Clever PR stunt by Flake, but that's it.
p77
aVNot a good look, especially for brands that market themselves primarily to women, @JennyCraig and @Nutrisystem. You\u2026 https://t.co/PFHReDZGSK
p78
aV@tedlieu If there are two guys who admit that they did this to girls during this time and within this same social g\u2026 https://t.co/mmA5Zu6x9f
p79
aV@chick_in_kiev My dog ate an entire chub of Costco salami when I wasn't looking. I only worked out what had happene\u2026 https://t.co/mClWYsv0Vn
p80
aV@nedryun The only fathomable way you'd even glimpse someone w/their pants down in a ladies room is if the door lock\u2026 https://t.co/yqx3z6wedm
p81
aV@DavidAFrench Gang raped by strangers - yeah, that was considered horrible. Getting drunk at a party and being rape\u2026 https://t.co/2AQyqiQsVT
p82
aV@absurdistwords Once watched someone ask another in our group as we parted: "Are you a hugger or fist-bumper?".  Wa\u2026 https://t.co/3HsgFtmIqj
p83
aV@HalpernAlex Canned food drives (in exchange for waived late fees). Voter registration.
p84
aV@HalpernAlex Our local library provides sandwiches and fruit, free for the taking, for anyone who is hungry all yea\u2026 https://t.co/BLdRmA9wGV
p85
aV@tednewgently @jimjamescomey @britnidlc By the way, it wasn't the name or appearance that made me conclude it's a m\u2026 https://t.co/xtKJJBGXmG
p86
aV@tednewgently @jimjamescomey @britnidlc I should be ashamed for objecting to a man telling a woman she can't assess\u2026 https://t.co/XJp6ihN3yw
p87
aV@jimjamescomey @britnidlc Seriously, dude, ask yourself why you feel the right to demand that a woman adopt your po\u2026 https://t.co/TZU1pAVoBi
p88
aV@jimjamescomey @britnidlc Unsurprising hot take from, of course, a man.
p89
aV@KLT79 @Dillards @slpng_giants @Dillards This is not a good look for you. You should fix this.
p90
aV@Stephanielex Can you imagine if he were a SCOTUS nominee? That would be a sight to see, you and me, kicking down t\u2026 https://t.co/3mV8iMLuSz
p91
aV@Stephanielex Today I'd be coming out fist swinging. I know you know that, but I'm saying it anyway.
p92
aV@Stephanielex And because back then we didn't think of it as something reportable, which is why as your friend it n\u2026 https://t.co/DyFEETaJxZ
p93
aV@blakehounshell Few up for election, and figure by the time they are, this is distant memory. Some'll retire then a\u2026 https://t.co/eKG0IB5aaG
p94
aV@Anthonydamian21 There are two things you can do. The first is to live your life to the fullest as your authentic s\u2026 https://t.co/AmFK2epRVT
p95
aVThis thread is so beautifully written. https://t.co/o6cwE2L2KQ
p96
aV@tucker_shaw This might be the most beautiful things I've ever read, though so heartbreaking that I am at a loss fo\u2026 https://t.co/kTBaRGyZbX
p97
aV@Donald_from_HI @Capt_Deez @AshleyLeonard12 @secondhusk @SesameWorkshop Plenty of 5-8 years olds watch Sesame Stree\u2026 https://t.co/0fJaOHJmaP
p98
aV@Lalaxo__ @SesameWorkshop Why is this something that needed clearing up? Their relationship is whatever the viewer\u2026 https://t.co/xNNhwkQOaB
p99
aV@RadioFreeTom @MalcolmNance And what of the other teen - the one who was the victim? Where's your concern for her a\u2026 https://t.co/A7nELERuFW
p100
aV@AP Surely you mean to say that US Border Patrol agent is arrested on suspicion that he is a serial killer of women.
p101
aV@Joeshepherd28 @cheomitII @absurdistwords Also, if you "bop" your kid for every little thing, they absorb it and ca\u2026 https://t.co/UmMV4A6689
p102
aV@Joeshepherd28 @cheomitII @absurdistwords A bop too small to hurt isn't going to do anything but make the kid giggl\u2026 https://t.co/QRqFRSMldS
p103
aV@Joeshepherd28 @absurdistwords Better yet, say "Ow, that hurt me. Teeth are for chewing food, not biting people." N\u2026 https://t.co/DkPnsuVAgs
p104
aV@Joeshepherd28 @absurdistwords Or the baby thinks "hitting must be ok, since the person I am learning from just did\u2026 https://t.co/IDCr2Q8hrM
p105
aV@absurdistwords Proponents of spanking can't seem to understand that investing a tiny bit more effort early and con\u2026 https://t.co/ozZvSIjo71
p106
aV@absurdistwords Depressing this guy thinks a toddler fathoms why the person they trust, adore and depend on just hi\u2026 https://t.co/mVKWR9CJKL
p107
aV@pops60okc @uppittynegress @Mighty_Icon @fabalasays @perilous @absurdistwords Spanking is not quicker at all. All s\u2026 https://t.co/JK8eBl3TFy
p108
aV@CBSNews Why should obey the verbal commands of someone breaking into his home with a gun???? From his perspective,\u2026 https://t.co/6lAJKEua7F
p109
aV@deray Someone shows up at your house, demands entry with gun pointed and shouts to raise your hands....sounds like\u2026 https://t.co/7EVbsylFW3
p110
aV@E_Skillsiam @JSCearbhaill @_makaylaanne__ There's always that one person who recognizes that this was amusing up u\u2026 https://t.co/E4JvLVReSk
p111
aV@amyjccuddy @MsPackyetti @deray and @absurdistwords
p112
aV@RebeccaforReal So your argument against Mandela Barnes is that he supports the first amendment? That seems odd, bu\u2026 https://t.co/qHpQadpeY7
p113
aV@Du_mmor @deray His intention is meaningless. He had no business putting his hand there. We don\u2019t care whether you\u2026 https://t.co/xw7mLjUQ4e
p114
aV@Du_mmor @deray That you believe our objecting to a man putting his hand on a woman\u2019s breast w/out her consent is u\u2026 https://t.co/MtZGGfszXC
p115
aV@Du_mmor @deray No. Its absolutely NOT on her. It\u2019s an inappropriate way to put an arm around a woman. Period. Keep\u2026 https://t.co/FzFqIUabWE
p116
aV@Du_mmor @deray If your dick was located where her boob was and that was you up there, you wouldn\u2019t be at unclear a\u2026 https://t.co/C4Tf4hUvHN
p117
aV@Du_mmor @deray Yeah, we do think that, because men are brazen that way-it\u2019s often their defense (would I do that i\u2026 https://t.co/cL5ino7Bpf
p118
aV@HairyMcFairy Try being Lisa - everyone thinks they\u2019re the  first to ask where the cult jam is.
p119
aV@ananavarro Impressive revisionist feel good history.
p120
aV@CBSNews FFS, they are protesting police brutality, not the anthem. The anthem is the forum for the protest, not the object of it.
p121
aV@kipaimara @dianelyssa Have you checked to see if your public library offers audiobooks? Most do and they are free.\u2026 https://t.co/YYQBtzEjzS
p122
aV@frakincaprica White person post about systemic racism. Great! But when a POC points out that POC have understood t\u2026 https://t.co/TiwezjxvTE
p123
aV@frakincaprica It\u2019s not ever the responsibility of POC to comfort white people about their role, whether perceived\u2026 https://t.co/ul3s8wb3pt
p124
aV@frakincaprica It\u2019s also great for white people to reflect on the notion that what is for them a new revelation is\u2026 https://t.co/BUoJVnxS8q
p125
aV@olgaNYC1211 That assumes that family members are fearful of prosecution. They aren't. They know they'll be pardone\u2026 https://t.co/u7Gq9aaygv
p126
aV@peterkrupa @claytoff This exchange is fascinating by itself. He's just pointing out to you how one feature of the\u2026 https://t.co/c6BpztVmgL
p127
aV@eclecticbrotha Why's it so hard to believe that evil can have fabulous hair and excellent fashion sense? If she we\u2026 https://t.co/9dJDDIfCFO
p128
aV@thedailybeast @carlsonmargaret WTF is this bullshit? If she wanted to "resist" she'd divorce him. FFS, stop infant\u2026 https://t.co/cE9Yq94Lcd
p129
aV@Shakestweetz Not gullible. Complicit.
p130
aV@vapemyworld No, you have that exactly backwards. Willful ignorance means you refuse to receive or believe informat\u2026 https://t.co/oTUTkl8lXZ
p131
aV@dpothedream You either vote for the candidate that will let children out of the cages they've been locked in, or y\u2026 https://t.co/poBg9hxaSU
p132
aV@bbalamugunth @ajplus No, at the end of the day you want people to call the police if they have a reasonable belief\u2026 https://t.co/5QyEnnLCsc
p133
aV@OurSharedSky @aravosis Whether humans have flourished or not depends largely on which humans you are referring to.\u2026 https://t.co/zLBOFcTu3W
p134
aV@OurSharedSky @aravosis Oh FFS. Americas has made both wonderful and terrible contributions. The question is whethe\u2026 https://t.co/n5tqci6ds4
p135
aV@nhannahjones Literally just made this point to someone arguing that the US is great, relative to other countries,\u2026 https://t.co/RWORUPCT0P
p136
aV@KeeblerElves This is the first competent thing you\u2019ve done as Attorney General. Well done!
p137
aV@aravosis Actually, I've decided you're right. We totally are great, as long as we don't consider any areas where w\u2026 https://t.co/cTQ2btPJnc
p138
aV@aravosis Your casual disregard of all non-white, non-colonizing countries is pretty astounding and, frankly, itsel\u2026 https://t.co/Gv3cGulArF
p139
aV@aravosis I hate to break it to you, but in many ways, America has indeed had a uniquely bad history. We've enjoyed\u2026 https://t.co/jB9vbMS9e3
p140
aV@aravosis The problem with MAGA isn't that it implies that America isn't now great. The offensiveness is that it im\u2026 https://t.co/XRlflozeLl
p141
aV@aravosis Meh. America actually hasn't been so great for large swaths of people. Straight white Christian males? Gr\u2026 https://t.co/ruBulGdrOL
p142
aV@Paralegal617 Lemme guess - the dictionary definition is as deep as you\u2019ve ever dived into race and social justice.
p143
aV@jboyd302 @BravenakBlog @Paralegal617 Nope. Racism has power structure as a necessary component. People from all di\u2026 https://t.co/Rs12RzsfhS
p144
aV@NishkaK @roseannebyrne No, the way you cover up atrocity is to pretend that it's an anomaly, limited in scope, as\u2026 https://t.co/nUfMw5inBg
p145
aV@AngryBlackLady She keeps hitting what I think surely must be bottom, and yet somehow goes lower. I might be impres\u2026 https://t.co/kjqwIgt990
p146
aV@patina626 Martina, are you under the impression that it makes you look smart? It doesn't; it just makes you look l\u2026 https://t.co/5HU980BKH7
p147
aV@_celia_bedelia_ @Amy_Siskind This, a thousand times over. Plus the blocking of anyone who did anything short of fa\u2026 https://t.co/BaHwL42Vkm
p148
aV@Amy_Siskind Yet you blocked me for commenting how absurd it to characterize AngryBlackLady as part of a disinforma\u2026 https://t.co/ghCEPlAx5T
p149
aV@IronStache Oh FFS, you aren't really going to now go with playground name-calling are you? Knock that shit off.
p150
aV@pamwallace @AngryBlackLady What you're looking for here is to feel better and be seen as a good person. Wrong plac\u2026 https://t.co/DnGht3DMbb
p151
aV@pamwallace @AngryBlackLady Sigh. BW think WW are racist b/c (1) almost half are, or are willing to vote for it (2)\u2026 https://t.co/j9tNsE0ko5
p152
aV@pamwallace @AngryBlackLady Racism isn't about individual intent. It's about effect. If a WW wants to assume a posi\u2026 https://t.co/vdyMWHEUn5
p153
aV@pamwallace @AngryBlackLady The issue underlying the disagreement was largely about race -  Amy's statements re: Ob\u2026 https://t.co/fMVPmoBPVq
p154
aV@AngryBlackLady @Amy_Siskind I'm with you overall, @AngryBlackLady, but this tweet is is not fair or accurate. He s\u2026 https://t.co/znPtFbIcoQ
p155
aV@JeffFlake And so you are going to do......nothing, as per usual. Asshole.
p156
aV@mevrouwadvocaat @TalbertSwan @BevAzevedo No, no and no. This is such a white person response, to believe that the\u2026 https://t.co/nzkdQWkgLQ
p157
aV@GilmoreGlenda What? She had no idea how mean white men with power could be? What a load of garbage! She knew exact\u2026 https://t.co/4fIW91GEOm
p158
aV@margaretcox2299 @skynetesq @BravenakBlog @JNTMGR @Roon17Stephanie @MimiLeroch @Girlsday312 And....there it is. Rac\u2026 https://t.co/bSsRur2i6b
p159
aV@margaretcox2299 @DavidofSeattle @BravenakBlog @JNTMGR @Roon17Stephanie @MimiLeroch @Girlsday312 Your theory is bas\u2026 https://t.co/GczklDaFVd
p160
aV@margaretcox2299 @DavidofSeattle @BravenakBlog @JNTMGR @Roon17Stephanie @MimiLeroch @Girlsday312 Nope again. The qu\u2026 https://t.co/i3Ca4NzJkF
p161
aV@margaretcox2299 @BravenakBlog @JNTMGR @Roon17Stephanie @MimiLeroch @Girlsday312 The focus on the color of your ski\u2026 https://t.co/gI8GD4DSaI
p162
aV@margaretcox2299 @DavidofSeattle @BravenakBlog @JNTMGR @Roon17Stephanie @MimiLeroch @Girlsday312 Marge, I know it\u2019s\u2026 https://t.co/85K2Jb8vOg
p163
aV@margaretcox2299 @BravenakBlog @JNTMGR @Roon17Stephanie @MimiLeroch @Girlsday312 And this is your whiteness demonst\u2026 https://t.co/eUzkOwaIpz
p164
aV@margaretcox2299 @Girlsday312 @BravenakBlog Real talk, from one white woman to another: Your personal belief that a\u2026 https://t.co/xxonOHEoW6
p165
aV@rjgstone @profmusgrave Kids do rate on \u201ceasy\u201d classes, but they will also rave about professors that they found to\u2026 https://t.co/QHQgCD0lHc
p166
aV@rjgstone @profmusgrave Choose professors who are genuinely enthusiastic about their expertise and who are great le\u2026 https://t.co/QgYUq2ysap
p167
aV@Patrickesque Gotta love how they throw in there that the husband is a supporter of the Trump administration, as if\u2026 https://t.co/DvFi10urp3
p168
aV@glamelegance @Acosta Stop perpetuating her narrative that they were about her appearance. They were never about he\u2026 https://t.co/VRaKpbwFxs
p169
aV@tribelaw All of them.
p170
aV@studentactivism One aspect of motivating non-voters is pointing out what happens when people don\u2019t vote. Those who\u2026 https://t.co/8lJshzRB1O
p171
aV@studentactivism No, it won\u2019t have any effect on protest or third party voters who either regret or don\u2019t, but it m\u2026 https://t.co/d71Fk8ZgDJ
p172
aV@tlorynp @absurdistwords Ah, so you aren\u2019t actually trying to understand these concepts. You\u2019re just trolling. Bye.
p173
aV@tlorynp @absurdistwords You do care, which is why you keep proclaiming yourself to be someone who doesn\u2019t see colo\u2026 https://t.co/tspnF5Bm2U
p174
aV@tlorynp @absurdistwords Let go of your need to be seen as a good person. Your feelings and intentions are not rele\u2026 https://t.co/ekQzKitBiC
p175
aV@tlorynp @absurdistwords And yet you still benefit. That\u2019s what whiteness is. That\u2019s why when he says \u201cwhite people\u2026 https://t.co/w1ZZMwxLvM
p176
aV@tlorynp @absurdistwords Wait, you think it\u2019s insulting for someone to point out to you that you are white? Why? Yo\u2026 https://t.co/JU9FbCTcyx
p177
aV@tlorynp @absurdistwords It\u2019s simply an observation that as, white people, we experience the world differently  tha\u2026 https://t.co/69TNvPWQu2
p178
aV@j_raines12 @Alexa11_Webb @LaurenEnchanted @godesosa That you extend the assumption that what would work just fine\u2026 https://t.co/YzDHbWnvGf
p179
aV@j_raines12 @Alexa11_Webb @LaurenEnchanted @godesosa No. You assume that a person of color could do this same thing\u2026 https://t.co/b3qDL5eVb4
p180
aV@j_raines12 Privilege and racism aren't individual dynamics. They're societal and organizational. Characterizing pr\u2026 https://t.co/Z6BZFcEBLu
p181
aV@j_raines12 You are confusing individual privilege and white privilege. An individual might not have particularly h\u2026 https://t.co/nPB12HIwWC
p182
aV@Comixgrrl @OmMamacita10 @ybbkaren @TheLoyalO Concentration of liberal voters in a small number of blue states - a\u2026 https://t.co/75kDyk4Rs4
p183
aV@Comixgrrl @OmMamacita10 @ybbkaren @TheLoyalO My reply wasn\u2019t specific to midterms &amp; also cited equal representatio\u2026 https://t.co/2Zqc1ghRAL
p184
aV@Comixgrrl @OmMamacita10 @ybbkaren @TheLoyalO The electoral college and the equal representation of senators per st\u2026 https://t.co/z3oxYzrY6A
p185
aV@mr_numbers You know what we call the people who abhorred nazi policy but went along with it anyway because it bene\u2026 https://t.co/YSCvcbcLr5
p186
aV@mr_numbers Her \u201cown reasons\u201d included being ok with his racism, sexism, homophobia, vitriol towards immigrants and\u2026 https://t.co/Ej5YIno627
p187
aV@SallyAlbright @BravenakBlog Are you seriously just now figuring this out?
p188
aV@elliemaea Ellen, how about you direct your righteous anger to the majority of white people who enabled this fucker\u2026 https://t.co/Go9sr4MDKE
p189
aV@eveewing I feel this way about senior discounts. Not that I begrudge seniors a discount (I don\u2019t), but I\u2019d have lo\u2026 https://t.co/Ej9PdcD8sl
p190
aV@landobaggins @BravenakBlog Same!
p191
aV@MeghanMcCain Fuck you. Your father hasn't done jack shit to stop this. He's gone along with Trump every single ste\u2026 https://t.co/TCePfrDoTd
p192
aV@JeffFlake Good thing you haven't enabled him at every step, especially his stacking of the judiciary! Oh, wait...
p193
aV@JustAGurLnSwedn And yet it was used here with specific examples, all male. Let\u2019s stop giving a pass to the erasure.
p194
aV@_reece_8 @Polygon Connecting  the concept of being gay with being an insult is exactly the problem. Stop making th\u2026 https://t.co/gLS3F8F4BZ
p195
aV@tmy66 @Cdiaz4408 @roseybeeme No, this became ugly when someone invaded the privacy of other people for a little bi\u2026 https://t.co/g3qpF3d5RK
p196
aV@juliewilson40 @roseybeeme You don't get why it's creepy AF to eavesdrop on strangers, take their photos and live t\u2026 https://t.co/VYv18bME8G
p197
aVRT @Ocasio2018: For my entire race, I wasn\u2019t \u201cviable\u201d enough for any established groups or people.\u000a\u000aI had all the numbers. We shared the \u201cp\u2026
p198
aV@RepSwalwell @FoxNews We are battling ideology. The misinformation feeds the ideology, but the ideology is what we\u2026 https://t.co/Ggk2bgSAxI
p199
aV@KillerMartinis Making it miserable makes people think twice about working there. That\u2019s powerful, especially if yo\u2026 https://t.co/O1Yb8PsFDj
p200
aV@eat_out_nyc With respect to gender, they are both identically "male". So if we want to distinguish as between the\u2026 https://t.co/pd5SYf7l8u
p201
aV@eat_out_nyc To default then to "male" only when referring to a cis man while requiring a modifier of "trans male"\u2026 https://t.co/WnFTei3wfg
p202
aV@eat_out_nyc Correct, a trans man cannot impregnate anyone. That's an immutable limitation of physical biology (ie,\u2026 https://t.co/9L0ljUAdU5
p203
aV@eat_out_nyc If we want to converse about the experience of of having a different gender than sex, it is useful to\u2026 https://t.co/hHvsbKJxXa
p204
aV@eat_out_nyc A person who is biologically male can indeed be female gendered. They don't "become" female, as you're\u2026 https://t.co/jt3KuKWO0g
p205
aV@eat_out_nyc Alteration/transition has nothing to do with being trans. Trans people do not alter their gender. They\u2026 https://t.co/PYCcBOQRK7
p206
aV@eat_out_nyc Without the term "cis", we were calling people whose gender and sex aligned "normal". But it's not abn\u2026 https://t.co/BxyRhWzlpx
p207
aV@eat_out_nyc No, this is where you are getting mixed up between gender and sex. Your biological sex is determined i\u2026 https://t.co/cCuwUSevhD
p208
aV@eat_out_nyc You're confusing sex and gender. Cis simply refers to someone whose gender matches his or her biologic\u2026 https://t.co/uSP7qMl3Xn
p209
aV@eat_out_nyc Cis people can be male or female. Cis simply describes the state of being comfortable with the gender\u2026 https://t.co/I7qXju2kEU
p210
aV@LupusLostDoctor @bravinneff @Mikel_Jollett @JoeNBC The shape and form of your racism is your support of Trump, who\u2026 https://t.co/Tn40KRPszL
p211
aV@Luke21072924 @JoeyCz @marcorubio Those kids have parents to whom they should be returned. Why are you suggesting t\u2026 https://t.co/UGnguUIipt
p212
aV@mdfkb @Mikel_Jollett If he\u2019s too sick to do his job, he should resign, so our state can elect someone who can. If\u2026 https://t.co/eT4EfsVHeJ
p213
aV@MaryepParker @docrocktex26 @tampagirl19655 @CharlesMBlow This is who we've always been.
p214
aV@justinekuran Fair. Jonah and Danny only hear yanny, I have discovered. It's all very troubling.
p215
aV@justinekuran You're the first person I know personally who hears yanny. I am sure that is meaningful - probably th\u2026 https://t.co/8VKCQoyrJq
p216
aV@justinekuran The first time, it sounded a little jumbled, like it was "yuri" or something, but then as it repeated\u2026 https://t.co/apIW96qkDs
p217
aV@Nic__Johnson @SenJohnMcCain He deserves common decency, which the GOP lacks entirely apparently, but that doesn't\u2026 https://t.co/2XYewyng87
p218
aV@Nic__Johnson @SenJohnMcCain Which he then completely undermined by voting against the individual mandate. C'mon no\u2026 https://t.co/YXLY43MCZi
p219
aV@Nic__Johnson @SenJohnMcCain Too bad his voting record is nothing like his noble words.
p220
aV@povertyscholar This was an excellent thread. I am wondering if you say exactly this to the students who ask you th\u2026 https://t.co/WNTGmdb0zt
p221
aV@Amy_Siskind @SenJohnMcCain I'm so sick of the heroic John McCain narrative. It's not true in the slightest. He mak\u2026 https://t.co/VliOijyDwd
p222
aV@maggieNYT The joke was that the eye make-up is made from the ashes of truth, which, once destroyed, become the lie\u2026 https://t.co/nf8o4eK3F3
p223
aV@morningmika It wasn't a jab at her appearance, it was a jab at her veracity.
p224
aV@Asheswillfall1 Qwhite right, Ashley.
p225
aV@Asheswillfall1 And you've demonstrated your indifference to how others, particularly those in marginalized groups,\u2026 https://t.co/aKkDbHhLUp
p226
aV@Asheswillfall1 That's correct. If you choose to be an asshole, that is indeed your right. You've been given inform\u2026 https://t.co/2PlJcBi5Br
p227
aV@Asheswillfall1 Your attitude that you're entitled to whatever you want is rooted in white supremacy. I get that yo\u2026 https://t.co/SN9svcYazu
p228
aV@Asheswillfall1 @emlas Taking terms that have cultural significance to a minority group and using them cavalierly h\u2026 https://t.co/ARk83kHwXx
p229
aV@Asheswillfall1 @emlas You're still free to use whatever words you want, you just don't get to pretend that you are\u2026 https://t.co/R7udQj592T
p230
aV@KatiForAR Just donated to your campaign, Kati! I am loving your determination and cheering you from across the cou\u2026 https://t.co/Qfi9GI4ejA
p231
aV@DrJoeOjile Time to dump Allman.
p232
aV@kimmaytube Also to perpetuate the notion that white kids are being "reverse" discriminated against in admissions.
p233
aVRT @LatestKruger: We were following a lioness carrying her cub &amp; she was getting really tired. An elephant showed up wanting to help the li\u2026
p234
aVBut, but, why didn't white privilege and the patriarchy work for *my* boy? (sniffles snot from crying so many white\u2026 https://t.co/mM0P8mmLvs
p235
aV@hulu Time to dump @IngrahamAngle, hulu.
p236
aV@Arbys Time to dump @IngrahamAngle ...
p237
a.