(lp0
VRT @NowGoVote2018: The Mayor in JAWS is still the Mayor in JAWS 2. It's important to vote in your local election! \u270a\U0001f3fd\U0001f5f3\ufe0f\U0001f44d\U0001f3fd #ItsOnYou #NowGoVo\u2026
p1
aVSome good news for a change! https://t.co/sl12q3zGt9
p2
aVRT @billmckibben: Comprehensive account of the effort to scrub climate science from public school classrooms. Making kids ignorant is a a k\u2026
p3
aV@EcoValuations @citizensclimate We\u2019ll educate them on Nov. 6!
p4
aVClimate before party! George H. W. Bush's Republican EPA director is endorsing Democrat \u2066@SeanCasten\u2069 in #IL6. If R\u2026 https://t.co/Dzc31PhLhw
p5
aVIf you want Congress to #ActOnClimate, this op-ed is a must-read! And don\u2019t get discouraged... get active.\u2026 https://t.co/ChOUNcdhyr
p6
aVRT @GOP4Integrity: If you care about climate policy and clean energy, then visit this site to see how your candidates feel about protecting\u2026
p7
aVRT @charlesforelle: That waterfront house isn't quite the dream it once was. Here's the next installment of our Price of Climate series. It\u2026
p8
aVRT @johnupton: We're killing everything.\u000a\u000aPopulations of mammals, birds, fish, reptiles and amphibians have declined by an estimated 60 per\u2026
p9
aVHappy Halloween! https://t.co/axwprMUia9
p10
aV@flipthe49th @MikeLevinCA @IndivisibleSDNo https://t.co/JQScwqcAm4
p11
aVBest Way to Fight Climate Change? Put an Honest Price on Carbon #Yeson1631 https://t.co/rCnKuwznj9
p12
aVRT @GOP4Integrity: Persecuting refugees is not only inhumane, but more costly to taxpayers as well. https://t.co/7ZH73YGI3B
p13
aV"We don\u2019t have to believe in reincarnation to fight for a world that we\u2019d actually want to be born into." https://t.co/eATJTn2D2W
p14
aV"For the first 85 percent of my adult life, I was a registered Republican. But I have always voted as an American.\u2026 https://t.co/PoBggGcbJF
p15
aVThank you @MikeLevinCA for putting #climatechange front and center in your campaign! We need more folks like you in\u2026 https://t.co/vmjrGYUvh6
p16
aVCiting Florence, Gov. Cooper of North Carolina orders new measures to fight climate change https://t.co/zuz4Xnx7hd via @abc11_wtvd
p17
aVRT @Survival: President-elect Jair Bolsonaro warns he\u2019s going to rip up the Raposa Serra do Sol Indigenous Reserve.  Local ranchers bitterl\u2026
p18
aV@DrKateMarvel https://t.co/s5J1Jy62UY
p19
aVRT @DoctorVive: This event guarantees that Brazil will do nothing to curb pollution emission and untold acres of the Amazon rainforest will\u2026
p20
aVRT @JPvanYpersele: A dark age is starting in Brazil. The Amazon, its people, and ecosystems will need much help! I don\u2019t see how @UNFCCC CO\u2026
p21
aVRT @BeschlossDC: These are JFK\u2019s last words, written for end of speech he planned to give at Austin, Texas, banquet on the evening of Novem\u2026
p22
aVEvery time Alexa starts pulsing yellow with a notification from the @washingtonpost, I feel like a rat in a Skinner\u2026 https://t.co/2AUpXjDCCL
p23
aV@pbump https://t.co/odo5HrNbe1
p24
aVRT @ddale8: Here is the updated chart of Trump's false claims by week. Look at that right side. https://t.co/fkFd3ELUVf
p25
aVRT @billmckibben: A tragic story that reminds us tragedies happen in slow motion too. Why we fight on  https://t.co/DWw8X0rNNg
p26
aVRT @GOP4Integrity: Putting "country before party" is what every Republican should do in this election. https://t.co/Fj8kGqsAvV
p27
aVOnce again, blame the victim. https://t.co/LA2JWVpLMc
p28
aVRT @MikeHudema: BAM! Using #solar to make solar. This Chinese company is going to make all its #solar panels with #solarpower: https://t.co\u2026
p29
aVWow, "Unite or Die" turning up at a place called "Goodwill." Maybe Ben Franklin's ghost is trying to tell us someth\u2026 https://t.co/cWDOlOMOyp
p30
aV@CC_Yale .@Princeton Triangle Club's "Spy School Musical" did a great job of bringing humor to the subject of\u2026 https://t.co/NpzM0OKKu6
p31
aVRT @AlexCKaufman: The scientist who in 1987 proposed a project Shell hoped would help it find new oil to drill as climate change melted Arc\u2026
p32
aVRT @YEARSofLIVING: The government is trying to silence 21 kids hurt by climate change https://t.co/vRI8Jn3Rs4
p33
aVRT @YaleE360: The iconic \u201c100th Meridian,\u201d the North American climate boundary that visibly separates the humid eastern part of the contine\u2026
p34
aVRT @CitizensLobbyCa: The European Parliament just banned single-use plastics https://t.co/yapql9g9qq
p35
aVRT @pattersonbri: This sums things up nicely. https://t.co/3TxKlW6RhO
p36
aVIt\u2019s like he\u2019s looking for his keys, and you want to scream, \u201cTHEY\u2019RE IN YOUR HAND!\u201d https://t.co/VGQHECqw2V
p37
aV@GlennKesslerWP Do you give meta-Pinocchios?
p38
aVRT @nytclimate: To fight global warming, scientists are urging a crash program to suck carbon dioxide out of the atmosphere https://t.co/qT\u2026
p39
aVRT @PostLetters: What\u2019s so bad about having fewer people? https://t.co/zCiELzXbvC
p40
aVRT @Weinsteinlaw: \u201cNationalism is an infantile disease. It is the measles of mankind.\u201d - Albert Einstein https://t.co/eWEPvzghZl
p41
aVRT @JoeNBC: \u201cHis primary rules were: never allow the public to cool off; never admit a fault or wrong; never concede that there may be some\u2026
p42
aVRT @Evan_Rosenfeld: WashEx: Journalist Carl Bernstein said Sunday that President Trump has discussed ways to challenge the results of the m\u2026
p43
aVRT @citizensclimate: Wow! Congressional candidate @GScott4Congress detailed our Carbon Fee &amp; Dividend proposal in a televised debate on @WG\u2026
p44
aVWow, finally a debate where the first question is about #climatechange! Thank you, @jaketapper! #FLGovDebate
p45
aVRT @GlennKesslerWP: Going through Trump speeches to update our database. He tells audiences the opioid bill passed "very little Democrat su\u2026
p46
aVRT @BillGates: In my home state, climate change is on the ballot. Here\u2019s why I\u2019m voting @Yeson1631 and why I\u2019m encouraging my fellow Washin\u2026
p47
aVRT @SierraClub: George R.R. Martin reveals the climate change lesson from Game of Thrones. "Climate change should be the number one priorit\u2026
p48
aVMore evidence of how @realDonaldTrump\u2019s reckless, self-serving rhetoric has damaged our country. Support American j\u2026 https://t.co/GN0ogUz7G9
p49
aVHow Brazil\u2019s Bolsonaro threatens the planet - The Washington Post https://t.co/GsxCtX5bNb
p50
aVRT @SeanCasten: "The ultimate tragedy is not the oppression and cruelty by the bad people but the silence over that by the good people." -\u2026
p51
aVRT @shannonrwatts: BREAKING: The Houston Chronicle, the Texas newspaper that endorsed Romney over Obama and both George Bush Sr and Jr when\u2026
p52
aV\u2066Turning on the Bat-Signal. @GOP4Integrity\u2069 https://t.co/8UG57RvrFF
p53
aVRT @notlarrysabato: This is a real radio ad currently running in Arkansas in support of Republican Congressman French Hill on radio station\u2026
p54
aVRT @kashanacauley: We\u2019re probably going to need a Disney princess who hates fossil fuels.
p55
aV\u201cMr. Bolsonaro has said he would scrap the Environment Ministry... and instead fold it into the Agriculture Ministr\u2026 https://t.co/ZjYP7wUl2l
p56
aV30 pieces of silver. https://t.co/LO3gB91CaP
p57
aVRT @pbump: These are the thoughts for which Jamal Khashoggi was likely murdered. https://t.co/c1fmvSBKCV
p58
aV\u201cFrom March to July, the resting air temperature in your house will gradually increase, thanks to the changing seas\u2026 https://t.co/YmMDRqSUXi
p59
aVRT @ProudResister: I never thought I would see a president call a woman #Horseface.\u000a\u000aI never thought I would see a president conspire with\u2026
p60
aVMY KIND OF CANDIDATE! "I have dedicated my career to fighting climate change and, more specifically, to building pr\u2026 https://t.co/xxX1ETIm1A
p61
aVRT @BarackObama: The last presidential election turned on fewer than 100,000 votes in three states. More people go to Coachella. There\u2019s no\u2026
p62
aVRT @kimber_sean: @SeanAstin @UNFCCC Here's a great article about how mainstream news networks are ignoring climate change (and shouldn't be\u2026
p63
aVRT @hfairfield: Fact check: Trump's recent statements on climate science. https://t.co/DFWL1N5Mm1
p64
aVRT @yeson1631: .@Microsoft endorses #yeson1631! \u000a"After a thorough review, Microsoft is today announcing our support for I-1631.[...] Given\u2026
p65
aVSh*t just got real. https://t.co/Hu3q62S0x5
p66
aVIn an era of climate urgency, we need a carbon tax https://t.co/R9IW3tMpdP via @BostonGlobe
p67
aVJudge Denies Government Motions to Dismiss Youth Climate Case #youthvgov  #TrialoftheCentury https://t.co/aeEz6oC35x via @climatelawnews
p68
aVNot everyone likes insects, but everyone depends on the services they provide. This is ominous news. #ActOnClimate https://t.co/rU1nyLSLlD
p69
aV@MultipleNights @LukeInSoCo @SteveSGoddard @paulkrugman @WhiteHouse @realDonaldTrump (Face palm) Thanks for the correction!!
p70
aVNow we just have to use the right kind of concrete. https://t.co/EkfKz3OEIO via @CNNMoney
p71
aVThe third little pig said, \u201cI believe the planet\u2019s getting warmer and the storms are getting stronger." He built hi\u2026 https://t.co/Wn7pR3tcyp
p72
aVFossil fuel companies get to reap all the profits from fuels that cause #climatedisruption, while the public pays a\u2026 https://t.co/KQT5FStAQi
p73
aVRT @thehill: Flake: Republicans are going in the wrong direction on climate change https://t.co/EQXv7lXgL1 https://t.co/tujEidBmPY
p74
aVNordhaus on a carbon tax: \u201cIt\u2019s not much more difficult to implement than a gasoline tax...\u201d\u000a\u000aInterviewer: \u201cBut gas\u2026 https://t.co/9kt1irb02d
p75
aVI think the result of the 2016 presidential election is pretty convincing evidence of a multiverse... It\u2019s a dirty\u2026 https://t.co/wpuctABzeU
p76
aVToday I learned from an undergrad that only 14% of Princeton students voted in the last midterm. He said they're ho\u2026 https://t.co/BrVsGivB3Z
p77
aVRT @NiskanenCenter: The American right seems to enjoy constantly pitting the economy against the environment. But Nobel laureate William No\u2026
p78
aVRT @RepJoeKennedy: If this is your first time seeing this graph, you have friends who haven\u2019t seen it yet. Share far and wide. h/t @zessoul\u2026
p79
aVI hope @MrTrashWheel has a good alibi. https://t.co/XlCQULbjjE
p80
aVRT @catcherinthesty: @benshapiro "Unlimited breadsticks! THAT IS PHYSICALLY IMPOSSIBLE!" I scream slapping the plate out of the waiter's ha\u2026
p81
aVFun experiment. Perform the following substitutions:\u000a\u000a"newsrooms" -&gt; "government"\u000a"advertising revenue" -&gt; "campaig\u2026 https://t.co/GLLA55HyyB
p82
aVRT @kathygriffin: I've decided to release the voicemail Trump left for me the day the infamous photo was released. It took me some time to\u2026
p83
aV@ClimateOpp @MichaelEMann @AllanMargolin @EnvDefenseFund I can\u2019t tell if this is sarcasm or the title of a @WSJ editorial.
p84
aV@GOP4Integrity @MaElviraSalazar @RepCurbelo I am so looking forward to the day when Republicans and Democrats regul\u2026 https://t.co/CV4C9a5N4G
p85
aVThe @WSJ Editorial Board praises an openly homophobic, misogynistic presidential candidate who believes in torture\u2026 https://t.co/B03xSz24gg
p86
aVRT @TantrumBook: As an indie publisher, we don't have a PR budget or big distribution. \u000a\u000aBut we do have you guys.\u000a\u000aIf you know this book, a\u2026
p87
aVIf you're wondering what you can do to fight climate change, one big step you can take is to see whether you live i\u2026 https://t.co/rLEbWij2Jt
p88
aVRT @tveitdal: Cartoon of the day: Climate Change denial https://t.co/0LLWgn9Bo1
p89
aV@GeoffDembicki @VICE Great to hear that! We definitely we won't solve this problem without hope. Thanks for spreadi\u2026 https://t.co/Q4lGyyd5er
p90
aV@GeoffDembicki @VICE I hope so! But on the other hand, there's this: "The IPCC projections... do not include feedba\u2026 https://t.co/1B50c80Hyp
p91
aVRT @billmckibben: Next month would be the right month to remember that Rick Scott banned Florida officials from talking about climate chang\u2026
p92
aVThe press needs to do a better job of bringing climate disruption to the fore, especially in election years. Politi\u2026 https://t.co/4CkMIF1ACF
p93
aVRead the transcripts to the 2016 presidential debates. Only one question in THREE debates even came close to questi\u2026 https://t.co/TIuvyieKlZ
p94
aVWhen future generations are displaced and starving from climate disruption, do you think they will be grateful we s\u2026 https://t.co/XLs5ELQZVR
p95
aVThank you @TomTolesToons and @Sulliview for pointing out the role of the press! #ClimateChange is the greatest thre\u2026 https://t.co/G40YfLnDG4
p96
aVRT @Sulliview: The planet is on a fast path to destruction. The media must cover this like it\u2019s the only story that matters. ... My column\u2026
p97
aV\u201cPerhaps the most important thing the public can do right now is seek out and support candidates who take this thre\u2026 https://t.co/UWBHCa8hCT
p98
aVThe plan would tax emissions and return the money to Americans through what\u2019s called a \u201ccarbon dividend\u201d of up to $\u2026 https://t.co/PGeERIIue5
p99
aVRT @LukeEvslin: "The single most important thing Americans can do within the next month would be to vote in this upcoming election and to v\u2026
p100
aVClimate change is a challenge like WWII was a challenge. Except Germany is the good guy, the French are fighting li\u2026 https://t.co/whvJN7HHlq
p101
aV@MichaelEMann https://t.co/Xrat3bKbTS
p102
aVRT @MichaelEMann: This is not binary, F\u2019d/Not F\u2019d. It\u2019s a matter of HOW F\u2019d. We have a great amount of control over that. We can still aver\u2026
p103
aVRT @NobelPrize: Laureate William Nordhaus\u2019 research shows that the most efficient remedy for problems caused by greenhouse gas emissions is\u2026
p104
aVWhy Half a Degree of Global Warming Is a Big Deal  via @NYTimes https://t.co/3dF43GS61d
p105
aV\u201c\u2018A price on carbon is central to prompt mitigation,\u2019 the report concludes.\u201d Yup! #PutAPriceOnIt #yeson1631 https://t.co/kkCNe2RACj
p106
aVIt\u2019s long past time to put a price on carbon pollution. In November, vote like the world depends on it. Because it\u2026 https://t.co/0IvbBSQ03J
p107
aVRT @DeFede: This ad is just stunning. Both savage and brilliant at the same time.\u000a\u000aDear young people, "Don't Vote"\u000a https://t.co/YytJ4IpGQW\u2026
p108
aVHate and intolerance are what's threatening our country, not the Spanish language. Brava, Ms. Trent! https://t.co/GmbbHdrkh7
p109
aVMembers of our military are willing to sacrifice their LIVES for our country. Members of Congress should remember t\u2026 https://t.co/wNrGZHHxyX
p110
aVRT @NAACP_LDF: The @washingtonpost  has not opposed a nominee since 1987, liberal or conservative. #StopKavanaugh \u000a\u000ahttps://t.co/Brx6WhZpPB
p111
aVRT @RepCurbelo: Like I tell colleagues all the time, help me fight #climatechange now or I\u2019ll come run in your district when my constituent\u2026
p112
aVRT @nytopinion: 650+ law professors (and counting) believe Brett Kavanaugh lacks the judicial temperament to be approved to the Supreme Cou\u2026
p113
aVRT @YEARSofLIVING: Big oil and other polluters have well-paid lobbyists who shell out millions of dollars to protect their interests. So wh\u2026
p114
aVThe @WSJ has a great new series about the price of climate change. I hope their Editorial Board will read it.\u2026 https://t.co/Y9Ugi7uIx8
p115
aVRT @KaitlinCurtice: Women:\u000aRT if you\u2019ve ever walked through a parking lot with your keys between your fingers or pretended to talk on the p\u2026
p116
aV@ed_hawkins I think you started something... https://t.co/WGX03DWSCf
p117
aVWhen we're overweight, diet &amp; exercise is hard, and it's easy to down a pint of Ben &amp; Jerry's in despair. We need a\u2026 https://t.co/lTh6BN9SDv
p118
aVThe @JeffFlake / @ChrisCoons compromise on #Kavanaugh shows why we need more bipartisanship in this country. These\u2026 https://t.co/K1BPtHLvkV
p119
aVGreat analysis by @UCSUSA on this exciting ballot measure. Polluters should pay for the damage they are doing.\u2026 https://t.co/YivxnTCmGr
p120
aV@JeffFlake Thank you for putting country before party. There is still hope for our democracy while there are member\u2026 https://t.co/6jmSwquBFz
p121
aVRT @e_v_reed: Global mean sea level, inspired by the @ed_hawkins temperature spiral, updated with the past year's satellite data.  No surpr\u2026
p122
aVRT @citizensclimate: .@RepRooney (R-FL) just introduced a resolution on #sealevelrise! He rightly calls the issue an "urgent concern" to co\u2026
p123
aVAnalysis | Mark Judge\u2019s book validates Christine Blasey Ford\u2019s timeline of the alleged Kavanaugh assault https://t.co/jMSAkkZ1Rr
p124
aVYou know it's bad when sea lions start throwing octopuses out of the harbor. #NoAcidificationWithoutRepresentation\u2026 https://t.co/jELPtzssdf
p125
aVRT @citizensclimate: How can cities figure out their carbon emissions? Well, they can Google it. #climate @yayitsrob https://t.co/HZm2fDzNqz
p126
aV"So true." https://t.co/GCdhO3xHIw
p127
aVRT @JessLangerman: Thank you, @GOP4Integrity, for your work!  @SpeakerRyan @SenateMajLdr @JRubinBlogger @maddow @Lawrence - Please take not\u2026
p128
aVI'm guessing bubbling lakes are great for boiling frogs. #ActOnClimate https://t.co/pjSaMhEjjL
p129
aVSomeone introduce them to Javanka. Please. https://t.co/XBOovT6pnx
p130
aVRT @petridishes: this used to be a humor column before I became a tangled fog of pulsating rage https://t.co/Zu8yvz0S3z
p131
aVHarrison Ford: "Stop giving power to people who don't believe in science" https://t.co/Gk8CMGvrFL via @YouTube
p132
aVSo the person who could deny women the right to an abortion may also be guilty of attempting to rape a 15-year-old\u2026 https://t.co/jubyOBk44Z
p133
aVAn Insurance Executive Explains Why We Need a Carbon Tax https://t.co/gPBGqJAsKR
p134
aVstorm surge + hog farms = sh*tstorm? We reap what we sow. Cows and pigs produce methane, contributing to\u2026 https://t.co/TCcMZFkDbF
p135
aVRT @ClimateCentral: Today, our story, Sea Level Rise and the Fate of Coastal Cities, is featured as the top item on @googleearth Voyager we\u2026
p136
aVRT @ClimateCentral: This story vividly illustrates the existential long-term stakes faced by low-lying cities depending upon the climate, e\u2026
p137
aVPoll finds support for business-backed carbon tax plan https://t.co/GQsgymgwCb
p138
aVRT @citizensclimate: In a piece for @FortuneMagazine today, former Chair of the Federal Reserve Janet Yellen argues for pricing carbon and\u2026
p139
aVThank you, @RepBrianFitz. If the Republican Party and Democratic Party don't work together on #climatechange, we'll\u2026 https://t.co/DwRp7FjL4e
p140
aVTruth will out. https://t.co/N7TksaUPiE
p141
aVRT @Mikel_Jollett: If you\u2019re burning your Nikes to \u201csupport veterans\u201d instead of GIVING them to homeless veterans whose health care Trump d\u2026
p142
aVHas anyone else noticed that @realBobWoodward's book will be published on Patriot Day? https://t.co/J1JUzDJkdx
p143
aVRT @ValaAfshar: Never confuse kindness as a sign of weakness. https://t.co/exeIPKiCiT
p144
aVMore trees, please. https://t.co/qS2chLqx3s
p145
aV@charles_gaba @aimeemann Can I hire you as my anger translator? https://t.co/vYoggABHim
p146
aVA positive feedback loop scientists have long predicted: melting permafrost will release more CO2 &amp; methane, leadin\u2026 https://t.co/8qWdpAPRtU
p147
aVRT @cnnbrk: Former President Obama on John McCain: "So much of our politics... can seem small and mean and petty \u2014 trafficking in bombast a\u2026
p148
aVThis is a great interactive that shows how much hotter your hometown has gotten, and what the future is predicted t\u2026 https://t.co/tT5wB8PkXl
p149
aVRT @MeghanMcCain: Please read my father's farewell letter to the country he loved so much - \u201cDo not despair of our present difficulties but\u2026
p150
aVJohn McCain was a warrior for the climate, writes @FredKrupp https://t.co/ByVdhnJz3B
p151
aV@RepBrianFitz He put country before party and understood the importance of bipartisanship \u2014 traits which we despera\u2026 https://t.co/DtNLSrG3xZ
p152
aVRT @SenSchumer: The Senate, the United States, and the world are lesser places without John McCain.\u000a \u000aNothing will overcome the loss of Sen\u2026
p153
aV@SenJohnMcCain You are a true American and a hero to our democracy. Thank you for your endless courage and your lif\u2026 https://t.co/kuhAcn6AGC
p154
aVRT @chriscmooney: Sea level rise is eroding home value, and owners might not even know it https://t.co/DJAsFhQOyv https://t.co/lIuyrZMiyb
p155
aV@TheDailyShow @StephenAtHome @iamjohnoliver Remember the Rally to Restore Sanity in 2010? How about a Rally to Rest\u2026 https://t.co/83Vmv9gtUY
p156
aVRT @citizensclimate: Many CCL chapters are meeting tomorrow. Find one near you and learn how you can motivate Congress to put a price on ca\u2026
p157
aVRT @citizensclimate: Like the Ghost of Christmas Yet to Come, this is a fate humanity can avoid if we change our ways now. #climatechange #\u2026
p158
aVWe won\u2019t stop California\u2019s wildfires if we don\u2019t talk about climate change https://t.co/zq21vm7J2J
p159
aV@NatGeoChannel I came for the wildlife. I stayed for the mishaps. Listen to this episode of @ThisAmerLife and conso\u2026 https://t.co/wtScT9TDMK
p160
aVRT @citizensclimate: #Climate Caucus member and Democrat @RepScottPeters  in @nytimes letter: "Beating up on oil companies is cheap applaus\u2026
p161
aVAlways thankful to see the @WSJ reporting on climate change. Great piece by @greg_ip. https://t.co/7xs8VygWBX
p162
aVRT @AFCDividends: From the @washingtonpost ed board: "Put a price on the pollution, and businesses and consumers will change their behavior\u2026
p163
aVGreat op-Ed in the \u2066@WSJ\u2069 by \u2066@FredKrupp\u2069. Nice to finally see a piece in their opinion section that talks about cl\u2026 https://t.co/lZBqXRwJSx
p164
aVRT @RepTedDeutch: The House just passed a terrible anti-climate resolution.\u000a\u000aToo many of my colleagues are putting politics over science, p\u2026
p165
aVRT @MetsUnite: Floored! That\u2019s how I feel to see that @NetZeroMN has used @ed_hawkins warning stripes pattern on their Tesla. A movement wi\u2026
p166
aVClimate change in the United States presented in 123 red, white and blue stripes https://t.co/tJPBhU1nA6
p167
aVRT @LauraKusisto: An incredible new Harvard study finds home prices are rising more slowly in areas that are vulnerable to climate change.\u2026
p168
aVRT @ClimateCentral: Can you guess what America will look like in 10,000 years? A quiz by our @ben_strauss and sea level rise team in @nytim\u2026
p169
aVRT @ClimateCentral: National parks are some of our favorite places on Earth \u2014 but climate change is their biggest challenge #EarthDay https\u2026
p170
aVSorry @uber, I'm switching to @lyft! https://t.co/f5qJwJgJYX
p171
aVThank you @RepJenniffer and @EleanorNorton for joining the #ClimateSolutionsCaucus! https://t.co/sxyRXJwIW2
p172
aVGlad to see the @WSJ covering this story! #ClimateChange has consequences. Thanks for the great reporting\u2026 https://t.co/i33PlBOYw4
p173
aVRT @gksteinhauser: Chopping your hair, no more flushing the toilet. What it\u2019s like to live on 50 l (13.2 gallons) of water a day. -&gt; #Droug\u2026
p174
aVHuman activities are causing the sixth mass extinction in Earth's history, and the @USGS's Biological Survey Unit i\u2026 https://t.co/3CEggqkiKp
p175
aVThe next five years will shape sea level rise for the next 300, study says https://t.co/twQ2xLJhfu
p176
aVRT @citizensclimate: We've stalled too long on #climatechange. We need to #PriceCarbon now. @chriscmooney #PutAPriceOnIt https://t.co/GOvas\u2026
p177
aVAmerica, there's a Tesla floating around in space. We can do this. https://t.co/GiTulK2AXN #UndoYourPart #climate @citizensclimate
p178
aVOne example of the hidden costs of fossil fuels. #ActOnClimate https://t.co/M2MxrumBQw
p179
aVRotten Tomatoes for #climatechange stories? How did I not know about this? @ClimateFdbk https://t.co/QkpydbfdQi via @cjr
p180
aVBOO!!! https://t.co/2NyihbbPHT
p181
aVRT @citizensclimate: We're seeing the same scenario that led to gay marriage being legalized play out with pricing carbon. Nothing can stop\u2026
p182
aVWait. You mean Democrats and Republicans should try to compromise on things? That's crazy talk. @citizensclimate https://t.co/XdweJb6W7D
p183
aVEye-opening op-ed about the collision of climate change and population growth. #DayZero is my birthday. I'll probab\u2026 https://t.co/cF9G2ydNw2
p184
aVRT @kylegriffin1: The American Meteorological Society sends a letter to Trump fact checking his recent remarks on climate change: \u201cUnfortun\u2026
p185
aVRT @SenWhitehouse: We really want the Chinese to control future energy technologies, while we crawl back into the polluter-paid world where\u2026
p186
aVThis is what climate change is about. "Climate alarmist"? Yeah, I think a major city running out of water is kind o\u2026 https://t.co/JlE5fSitUi
p187
aVRT @NASA: What do you get when you have a supermoon, which also happens to be the 2nd full Moon of the month, passing through Earth\u2019s shado\u2026
p188
aVRT @youthvgov: Colorado Supreme Court to Hear Youth-Brought Climate Lawsuit\u000aAgainst Oil and Gas Conservation Commission. Read full press re\u2026
p189
aVHey @Ford, you're in the wrong gear. https://t.co/1zPHL7UtlY via @YouTube
p190
aV@citizensclimate The partisan divide over the carbon tax is all smoke https://t.co/hvaUFRf9h1
p191
aVRT @DanRather: Listen folks, #SCIENCE IS NATIONAL SECURITY. Period. End of story. You can't say you care about the health and safety of thi\u2026
p192
aVCCL Legislative Director Danny Richter reminding us who runs this country... normal people! Let\u2019s ask them to\u2026 https://t.co/KEOdXEsc9p
p193
aVDr. Donald Boesch explaining why we need to #ActOnClimate, at #CCLMidAtlantic regional conference. Future global wa\u2026 https://t.co/0FZ8xV7Rmp
p194
aVRT @citizensclimate: Great news! Bipartisan Climate Solutions Caucus adds 2 members to reach 68! Getting Upton is huge. #climatechange @Ben\u2026
p195
aVRT @guardianeco: In 2017, the oceans were by far the hottest ever recorded | John Abraham https://t.co/3mJcySKfVZ
p196
aVHilarious depiction of why net neutrality is important. https://t.co/Y5txdyQ2Ea via @YouTube @BurgerKing
p197
aVhttps://t.co/VaBIBBm4oi devoted its entire site to climate change today. Here's why. https://t.co/2SUwtyLgJu
p198
aVThank you, https://t.co/MKwcCIHmjN, for teaching people about #climatechange! @weatherchannel https://t.co/TEss7apP4F
p199
aVSo happy to see people in other RGGI states pushing for stronger climate action! #PutAPriceOnIt https://t.co/MUlVgDyGWe via @crainsnewyork
p200
aVYeah, let\u2019s make solar LESS affordable and kill some jobs while we\u2019re at it. Great idea!\u000a\u000aNow let\u2019s find some baby\u2026 https://t.co/QMadfE3RWc
p201
aVRT @NPRinskeep: $12 per month for a checking account?\u000aSome math: \u000aIf you have $1,000 in the account, $12 is 1.2% of it\u2014per month.\u000aMultiply\u2026
p202
aV@citizensclimate Fossil fuel companies are the real abusers of the welfare system https://t.co/prXre1bJvO
p203
aVOpinion | Climate change is hitting African Americans hard. Here\u2019s how Maryland can lead. https://t.co/DtpstKImHL
p204
aVWatching the Senate vote on C-SPAN. The government turns into a pumpkin at midnight.\u000ahttps://t.co/a4xzExjNx3
p205
aVRT @PutAPriceOnItDC: A carbon fee-and-rebate would cut carbon, boost local business, and lift DC families. Now\u2019s the time to #PutAPriceOnIt\u2026
p206
aVRT @citizensclimate: Excellent piece from Zoya @zteirstein at @grist brings encouraging news that the ideological gap on #climatechange is\u2026
p207
aVOpinion | We could save the climate if only we weren\u2019t working so hard not to https://t.co/doOWtsjH5j
p208
aV@citizensclimate A letter in the WSJ I was very happy to read: Revenue-Neutral Carbon Tax Would Be Fair and Effecti\u2026 https://t.co/RyhxAhv8od
p209
aVNearly all members of National Park Service advisory panel resign in frustration https://t.co/hsW956uyE5
p210
aVRT @SenMarkey: If you don\u2019t see your senator\u2019s name, they could be the 51st vote that allows us to pass my CRA to restore a free and open I\u2026
p211
aVHey, it\u2019s Bayley and Foster! A couple familiar faces at the @NatlAquarium. https://t.co/3ZKrAqlioi
p212
aVRT @billmckibben: The Empire State Building is shining green tonight to mark @NYCMayor Bill De Blasio's stunning decision to take on the fo\u2026
p213
aVRT @citizensclimate: Feel like your #climatechange communication would be better with emojis? Your prayers have been answered. @EARTH3R @ye\u2026
p214
aVMicrosoft President backs carbon pricing in Washington State! #PutAPriceOnIt https://t.co/k2W08nnLOI
p215
aVRT @markokloos: I just realized that with the advent of self-driving vehicles, we may soon get country songs where your truck leaves you to\u2026
p216
aVRT @citizensclimate: The Climate Solutions Caucus adds 4 new members! Welcome aboard, @RepSanfordSC, @davidcicilline, @RepDanDonovan, and @\u2026
p217
aVRT @YEARSofLIVING: Massachusetts could become the first state in the USA to put a tax on carbon pollution #WeCanSolveThis #PutAPriceOnIt ht\u2026
p218
aVRT @ClimateCentral: \u201cEat more seasonal plant-based foods and less meat\u201d \U0001f957\u000a\u201cBuy carbon credits when I fly\u201d \u2708\ufe0f\u000a\u201cHave more climate conversatio\u2026
p219
aVBreathe, breathe. (And as @pinkfloyd might add, don't be afraid to care.) https://t.co/rmqHZR15Fo via @vice
p220
aVRT @ClimateCentral: Without big cuts in climate pollution, an unstable Antarctica could double previous sea level rise projections. This ma\u2026
p221
aV@citizensclimate Uh oh. Antarctic Modeling Pushes Up Sea-Level Rise Projections https://t.co/hcEyc4WZ3r via @ClimateCentral
p222
aV@citizensclimate A surge of state carbon pricing proposals are coming, and shifting electoral math mean many may pa\u2026 https://t.co/spE3V4DtQC
p223
aVRT @citizensclimate: Powerful op-ed in the @DailyCaller, written by a Texas conservative. He says @LamarSmithTX21 should "kick the nasty ha\u2026
p224
aV@citizensclimate A Conservative Escape Plan On Climate Change https://t.co/go4MIKHbbO via @dailycaller
p225
aVI'm watching The Two Towers on AMC and realizing how much lobbying Congress to take action on #climatechange is lik\u2026 https://t.co/YHB07m3rHh
p226
aVRT @citizensclimate: Thank you, @RepJimmyPanetta, for speaking up on #climatechange in the House this week. #SolutionsCaucus https://t.co/8\u2026
p227
aVRT @citizensclimate: Thank you, @RepCurbelo, for speaking up on #climatechange in the House this week. #SolutionsCaucus https://t.co/al2qF2\u2026
p228
aVRT @citizensclimate: Thank you, @RepCarbajal, for speaking up on #climatechange in the House this week. #SolutionsCaucus https://t.co/gci1F\u2026
p229
aVRT @citizensclimate: Thank you, @RepTomSuozzi, for speaking up on #climatechange in the House this week. #SolutionsCaucus https://t.co/qxEX\u2026
p230
aVRT @citizensclimate: Thank you, @RepTedDeutch, for speaking up on #climatechange in the House this week. #SolutionsCaucus https://t.co/54Bf\u2026
p231
aVRT @citizensclimate: Thank you, @RepBonamici, for speaking up on #climatechange in the House this week. #SolutionsCaucus https://t.co/3ACwn\u2026
p232
aVRT @citizensclimate: Thank you, @RepJohnFaso, for speaking up on #climatechange in the House this week. #SolutionsCaucus https://t.co/yEinl\u2026
p233
aVRT @citizensclimate: Thank you, @RepMcNerney, for speaking up on #climatechange in the House this week. #SolutionsCaucus https://t.co/ugz39\u2026
p234
aVRT @citizensclimate: Thank you, @RepBrianFitz, for speaking up on #climatechange in the House this week. #SolutionsCaucus https://t.co/JBQz\u2026
p235
aVRT @citizensclimate: Thank you, @RepLipinski, for speaking up on #climatechange in the House this week. #SolutionsCaucus https://t.co/gci1F\u2026
p236
aVRT @Maykuth: Inquirer commentary from @citizensclimate: Impose carbon tax and let the market solve climate change https://t.co/DByObxb4Nc
p237
aV@citizensclimate The E.P.A. vs. the Environment https://t.co/LazO2QTi7v
p238
aV@citizensclimate Where there's political will, there's a way... #PutAPriceOnIt https://t.co/wE2Xz2AaVV
p239
aV@citizensclimate Nice argument in support of a revenue-neutral carbon fee https://t.co/6zBZ6hev3D
p240
aVRT @citizensclimate: The bipartisan #ClimateSolutions Caucus now has 60 members! Welcome aboard, @RepMimiWalters &amp; @RepPeteAguilar! https:/\u2026
p241
aV@citizensclimate States Can Lead the Way on Climate Change https://t.co/5x5BZvvYAX
p242
aVRT @citizensclimate: The bipartisan #ClimateSolutions Caucus now has 58 members! Thanks for joining, @RepJackBergman&amp; @RepStephMurphy! http\u2026
p243
aVRT @citizensclimate: Big news: @LindseyGrahamSC is working with @SenWhitehouse on carbon pricing legislation. #PutAPriceOnIt #climate https\u2026
p244
aV@citizensclimate Republican Senator Endorses Carbon Tax to Fight Climate Change https://t.co/2Q9tUHUlvU
p245
aVRT @cyphonproject: Join us in the cyphonproject/Lobby chat room on Gitter https://t.co/T2FHro16mS via @gitchat
p246
aVThe Jon Snow of climate change is emerging in Congress https://t.co/ZJVjl86sCf
p247
aV@realDonaldTrump defeated @HillaryClinton last November, and a woman now leads the #FreeWorld anyway. #Merkel. Can't stop #worldprogress.
p248
aVRT @LeilaHC: We'll be lobbying Congress on Tuesday. Help us out by calling your members of Congress this Friday! https://t.co/kYCLRH6N5n
p249
aV@citizensclimate https://t.co/s5MyHsiXUm
p250
aV@citizensclimate Exxon Mobil Lends Its Support to a Carbon Tax Proposal https://t.co/6GG2Fswe3B
p251
aVRT @cyphonproject: Is Cyphon another SIEM product?  https://t.co/StczRfebUk
p252
aVWe'll be lobbying Congress on Tuesday. Help us out by calling your members of Congress this Friday! https://t.co/kYCLRH6N5n
p253
aVPower your home with 100% Renewable Energy @cleanchoice. $25 back offer. Click to see how it works: https://t.co/bhdHy27Tej
p254
aVProud to be from Pittsburgh. https://t.co/AsZnkodBdF
p255
aVRT @citizensclimate: RT if you agree it\u2019s time for @POTUS to join other #G7 leaders, businesses &amp; the US public and support the #ParisAgree\u2026
p256
aVRT @citizensclimate: If they can do it... #Climate-threatened Bangladesh to impose carbon tax in June https://t.co/Dm0sk1qBFI via @Reuters\u2026
p257
aVRT @conservationx: #M4TP finalist Terramedics designed Smart Seeds, ingestible sensors that monitor location/health of birds, squirrels htt\u2026
p258
aVRT @citizensclimate: CCL volunteers deliver their message at the #ClimateMarch in DC. @Peoples_Climate #climate #PutAPriceOnIt https://t.co\u2026
p259
aVRT @cyphonproject: Cyphon Release 1.0.0   https://t.co/Nn4Yo6ba6m
p260
aVRT @cyphonproject: Check out #Make4thePlanet featuring @LeilaHC of the @cyphonproject &amp; "The TerraMedics" team on 4/21! https://t.co/6oB84f\u2026
p261
aVA conservative answer to climate change, from George P. Shultz and James A. Baker III  https://t.co/ZtDXzj00v0 via @WSJ
p262
aVRT @Mapbox: Amicus brief opposing Trump immigration order in the Ninth Circuit Court of Appeals is filed! https://t.co/MzC1iTGWiw #builtbyi\u2026
p263
aVMore fun with the Twitter API.
p264
aVEVENT: Data Journalism and Policymaking: A Changing Landscape http://t.co/XjiZrA1E3j via @STIPCommonsLab
p265
aVThe Sinister Side of Google Maps http://t.co/7r169GcodO
p266
aVRunning for President While Cashing in on Fracking? Jeb Bush\u2019s New Venture http://t.co/8N7y5rVBIC
p267
aVHelp make it happen for 'Roba vs The Poachers' - Saving elephants with superhero comics! on @indiegogo http://t.co/UpLuROlAUD
p268
aVThe First Step in Overturning Citizens United http://t.co/7PeDwMhL3S
p269
aVRT @tentree: Happy #WorldEnvironmentDay !\u000aFor every RT, we will plant one tree on your behalf.\u000aGo ahead, start planting!\u000a#tentree http://t.\u2026
p270
aVFacebook takes listening to their customers way too seriously http://t.co/XBqfjVXidI
p271
aVToday as I was driving, I saw a sign that seemed to summarize the #climate path we're on. It said, "No Exit Before Toll." #climatechange
p272
aVRT @MDBiz: Baltimore startup @GetZeroFox partners with Dunbar Armored to offer nonprofits free online #security http://t.co/gVysBGC7Fe
p273
aVRT @DJRotaryRachel: Just washed a carrot so thoroughly that it offered me a part in a film.
p274
aV@EnzOnInfoSec Success!
p275
aVWell it partly worked. Dunbar Armored!
p276
aVTesting the Twitter API with tweets about Dunbar Armored. Fun fun fun!
p277
aVRT @Radiolab: "I am very poorly today and very stupid and hate everybody and everything..." - Charles Darwin http://t.co/0ZMe6OhVzc
p278
aV@EnzOnInfoSec this is really just an Easter egg hunt anyway.
p279
a.