(lp0
VRT @WSJ: "If the country doesn\u2019t get back to listening to each other and cooperating, it\u2019s gonna collapse." Americans across the political\u2026
p1
aVHad a very productive day in AP GoPo working on strategies to tackle the new Argumentative Essay!  Thanks to our gr\u2026 https://t.co/ftZS5fnvpS
p2
aVHad a great day in Chicago for the Constitutional Rights Foundation \u201cEqual Justice under Law\u201d planning session.  Th\u2026 https://t.co/sej7TQuQ7z
p3
aVMichelle Obama explains sweet 'cough drop moment' with George W. Bush at McCain funeral https://t.co/2CalmQ2LDz via\u2026 https://t.co/JvcrxW31e4
p4
aVMueller Investigation \U0001f997\U0001f997Rosenstein Situation \U0001f997\U0001f997...Somebody certainly is happy about that tonight.
p5
aV@YorkAthletics @YorkD205 Great Job indeed! @JoshLaBounty @_mann15_ \u26f3\ufe0f\u2b50\ufe0f
p6
aVLooking forward to celebrating Constitution Day (a few days late) with @sschwinn and @eyohnka tomorrow!  Both are g\u2026 https://t.co/6JSO6p3xIf
p7
aV@LindseyGrahamSC COWARD @LindseyGrahamSC
p8
aVRT @ananavarro: God help us. https://t.co/3qxzJMVbAp
p9
aVWrapped up Unit 1 today by trying out a new instructional strategy \u201cBreakout EDU\u201d (think Escape Room).  It was an o\u2026 https://t.co/IDp6dpxAye
p10
aV@cangelos44 Going to try this out in class this semester...thanks for the inspiration!
p11
aVRT @thehill: Colorado city to vote on lowering voting age to 16 https://t.co/yrLCY3DFuN https://t.co/friyvmSy1g
p12
aVRuth Bader Ginsburg documentary on CNN, simply fascinating! #RBGMovie
p13
aVRT @YDBoysVB: Got half way through this article and uttered "No Way!".  This is one heck of a story!\u000a\u000aThe jaw-dropping story behind an NFL\u2026
p14
aVRT @CNN: This is how Ruth Bader Ginsburg, the oldest sitting Supreme Court Justice, stays in shape. She attributes her long career to her f\u2026
p15
aVA fascinating new Podcast I discovered today on the Washington Post: Retropod.  Great short profiles on historical\u2026 https://t.co/ljGvw5Imvc
p16
aV#Savage https://t.co/XS8z1RlNla
p17
aVRT @AP: Obama eulogizes McCain: 'We come to celebrate an extraordinary man, a warrior, a statesman, a patriot who embodied so much that is\u2026
p18
aVI love the fact that George W. Bush and Michelle Obama are BFF! https://t.co/xGBNwszuKg
p19
aVMaine officials deny PETA request to erect gravestone in memory of lobsters who died in truck crash https://t.co/7e8tGQVaqy #FoxNews
p20
aVBreaking down and analyzing 2 of the required Supreme Court cases in AP GoPo using the \u201cSpeed Dating\u201d instructional\u2026 https://t.co/2XEM5QY0wU
p21
aVRT @jaketapper: The two people who defeated him in his presidential runs \u2014 https://t.co/aOfwiYwiEz
p22
aVA true American Hero.  A gentleman, a truly pragmatic legislator, and one I hope more politicians begin to emulate.\u2026 https://t.co/OURBA9rdb4
p23
aVThis @ChrisCuomo and @KellyannePolls interview on @CNN is an absolute train-wreck.  If she calls him "Christopher"\u2026 https://t.co/Kc8gGByv54
p24
aVRT @nytimes: Here's the front page of The New York Times 8/22/2018. Read our coverage from a long, busy day of news here: https://t.co/StRC\u2026
p25
aVRT @Slate: The Cohen and Manafort news is huge. But what does it mean for Trump? https://t.co/T6xRMao5on https://t.co/IxwpCUaGjA
p26
aVAn amazing, behind the scenes look, at the political landscape...will be watching some clips of this in class, can'\u2026 https://t.co/Gh991SbkTe
p27
aVRT @Reuters: 'Most children are more aware of the benefits and pitfalls of social media than some adults,' first lady Melania Trump said at\u2026
p28
aVRT @YDBoysVB: 1st Day of School is a wrap!  Always a few tweaks every August including a new seating arrangement. Great energy in all of my\u2026
p29
aVAP Summer Institute is a wrap...4 days of great professional development.  The course redesign is great, more rigor\u2026 https://t.co/oFEm0Wgg4v
p30
aVCongrats to this years AP US Government &amp; Politics students who had some record-setting scores!  A record pass rate\u2026 https://t.co/ApaoBeKXjn
p31
aVAwesome day for our Social Studies Awards nominees.  A great lunch with Gov Jeb Bush...and a lot of stories about h\u2026 https://t.co/gHvJXuPHiy
p32
aVShe was a wonderful 1st Lady and represented the White House with total class.  Looking forward to hearing Jeb Bush\u2026 https://t.co/bgsvR5kqbq
p33
aV@realDonaldTrump LOLZ
p34
aVRT @YorkD205: . @YorkD205 students responded to the call for messages of support from Marjory Stoneman Douglas High School. Student Council\u2026
p35
aV@LaBrigadeYork @YHSFCS @YorkD205 Great Job Bart!
p36
aVEnough with politics...what a cute kid! https://t.co/mRG9WnLftG
p37
aVRT @FoxNews: Trump administration plans to privatize International Space Station https://t.co/SGrkA6snFG
p38
aVJust a few snowmen my AP Gov kids made on their day off! President Trump &amp; Senator Rubio #snowday https://t.co/rBfNYqOsvR
p39
aVRT @Acosta: Trump says he is not considering firing Mueller\u000ahttps://t.co/POTg6t6wxk
p40
aVRT @ArlingtonNatl: Thank you to the more than 75k volunteers who braved the cold weather and heavy traffic to help #HonorThem during @Wreat\u2026
p41
aVRT @FoxNews: A sailor meets his child for the first time following the guided-missile cruiser USS Vella Gulf's (CG 72) return to homeport.\u2026
p42
aVRT @MeghanMcCain: Thank you to everyone for their kind words. My father is doing well and we are all looking forward to spending Christmas\u2026
p43
aVRT @NPR: The American Gaming Association estimates that illegal sports betting has grown to $150-billion-a-year market. And cash-starved st\u2026
p44
aVRT @nytpolitics: The victory on tax cuts was only the first step. Conservative leaders say the next target will be cuts to entitlements lik\u2026
p45
aVQuite frankly an uplifting and pretty awesome story! https://t.co/YIiWDMiRC4
p46
aVRT @ElmhurstD205: @YorkD205 honored US Veterans today at its 7th annual all-school assembly. Parent Wes Becton was the featured speaker. St\u2026
p47
aVRT @YorkD205: Veterans' Day assembly! Welcome, veterans! #thisisYork @ErinDeLuga @ElmhurstD205 @Yorkactivities @YorkAthletics https://t.co/\u2026
p48
aVWonderful Friday in the City for the Equal Justice Under Law Workshop.  Just a little brisk outside today!\u2026 https://t.co/AJwcXz4fa0
p49
aVRT @YorkAthletics: IHSA Boys' State Cross Country\u000aStart of the 3A Race.  Good luck to our boys!\u000aGo Dukes!\u000a@YorkD205 https://t.co/1nl3DLl2gO
p50
aV@hbolur7 @YorkD205 @BryanD205 He is definitely an amazing kid and leader at York!
p51
aVRegardless of who your "Team" is, this is what college athletics is all about! https://t.co/UIW09SoUtR
p52
aVRT @TIME: The 'Monopoly man' showed up to Equifax's Senate hearing and it was 'magical' https://t.co/YsWp7mw1ep https://t.co/wiLSJ97IAs
p53
aVRT @CNNPolitics: The EPA plans to propose the repeal of an Obama-era rule meant to curb greenhouse gas emissions https://t.co/jreWZNecWN ht\u2026
p54
aVRT @thehill: JUST IN: Pence leaves NFL game after players kneel during national anthem https://t.co/qLX9Ko22ZK https://t.co/5ZUg35rp4u
p55
aVAwesome day today in AP Government, students working hard collaborating and peer-grading FRQs!  Great team-work and\u2026 https://t.co/5H3j720STi
p56
aVRT @YorkHockey: The boys clean up nice, right?!\u000aHappy Homecoming 2017! @ York Community High School https://t.co/bFC1iZ3rBB
p57
aVRT @Nikki_Tammaru: Interdisciplinary learning for all sophomores at York today! @ElmhurstD205 #igniteD205 @YorkD205 https://t.co/to4cXxE71u
p58
aVRT @elmhurstdoings: Check out our photos from the #Homecoming celebration at @YorkD205 High School\u000ahttps://t.co/fan5UL6Wqq\u000a@ElmhurstD205 #E\u2026
p59
aVRT @thehill: Romney pleads with lawmakers: Put aside controversies, Puerto Rico is on "brink of humanitarian disaster" https://t.co/w2RCA25\u2026
p60
aVRT @thehill: WATCH: Fox Sports host blasts Trump for attacks on NFL players: He doesn't understand freedom https://t.co/tZXFGinBEq https://\u2026
p61
aVHad a full house reviewing for the AP GoPo test on Monday...and it's only 5 hours before the HOCO dance!\u2026 https://t.co/s7gWzxwEzA
p62
aVUnbelievable! https://t.co/E2eFyn5Hbc
p63
aVRT @politico: Analysis: The Electoral College is a national security threat https://t.co/aX9lZ27UNR via @POLITICOMag https://t.co/ZN3pwq2MNs
p64
aVRT @CNNPolitics: President Trump's judicial nominee says transgender children are part of "Satan's plan" https://t.co/OWwUvw3pWu https://t.\u2026
p65
aVRT @foxnewspolitics: .@realDonaldTrump hits back at 'Crooked Hillary,' blames her for North Korea's nuclear progress https://t.co/20yIQaJQNj
p66
aVRT @politico: Melania Trump to condemn bullying at U.N. luncheon https://t.co/MUKtvOFqcS via @RebeccaMorin_ https://t.co/dgCCLme08T
p67
aVHigh School Let Seniors Wear Costumes For Their Student ID\u2019s And Their Pics Just Won The Internet https://t.co/9B7Klcm9CS\u000a\u000aLove it!
p68
aVRT @ElmhurstD205: NATIONAL MERIT SEMIFINALISTS  \u2192 9 York seniors were honored as National Merit Semifinalists. @YorkD205 @ElmhurstD205 http\u2026
p69
aVRT @thehill: NEW: House Republicans remove Trump's most controversial budget cuts from spending bill https://t.co/DwOqPjxnT3 https://t.co/H\u2026
p70
aVRT @nytpolitics: On Washington: Bewildered by That Rarest of Sightings in Washington: Bipartisanship https://t.co/In4mrILFZa
p71
aVGreat Job @AriCohn today.  Thanks for engaging our students! @NicoPerrino is a hard act to follow but you did great. Keep up the good fight!
p72
aVRT @nytpolitics: \u201cHe likes us. He likes me, anyway,\u201d Senator Chuck Schumer was overheard saying on the Senate floor about Trump https://t.c\u2026
p73
aVRT @thehill: JUST IN: Mattis orders military leaders to allow transgender troops to re-enlist https://t.co/xtJGHjGKtv https://t.co/EkoDDSqb\u2026
p74
aVRT @washingtonpost: Judge rules Justice Dept. can\u2019t keep grant money from uncooperative sanctuary cities https://t.co/zQ3uPiFyha
p75
aVRT @politico: Spicer: Life after the White House 'much more relaxed'\u000ahttps://t.co/2cMZ3SPqxy https://t.co/N0KdsL9tuz
p76
aVRT @KevinPoduska: Mr. Ari Cohn from @TheFIREorg exploring free speech with sophomore Dukes! YorkinterD @YorkD205 @ErinDeLuga @DukeSSdept @R\u2026
p77
aVRT @realDonaldTrump: HAPPY 70th BIRTHDAY to the @USAirForce! The American people are eternally grateful. Thank you for keeping America PROU\u2026
p78
aVWhen you ask your 3 AP classes to bring in food for the "Tackle Hunger" Campaign, 24hrs later! #overachievers\u2026 https://t.co/YaNel1UV99
p79
aVTrump Pardons Sheriff Joe Arpaio https://t.co/FVZ1rt0buT\u000a\u000aInteresting to see what happens in Arizona this weekend after this.
p80
aVNothing to see here, move along...move along!
p81
aVRT @nytpolitics: President Trump is set to announce a troop increase in Afghanistan, which he\u2019s long opposed. Watch his speech live: https:\u2026
p82
aVFirst primetime speech by President Trump...what kind of surprises will this one hold?!?
p83
aVRT @voxdotcom: Brietbart might be about to turn on the Trump administration: https://t.co/1O6eIz46CL
p84
aVRT @CNNPolitics: Steve Bannon to Weekly Standard: "The Trump presidency that we fought for, and won, is over" https://t.co/Ygr45N1zkj https\u2026
p85
aVRT @politico: "Conservatives felt they had an ally in Bannon" https://t.co/O5P7IHEkQU https://t.co/oXM3CNkAPJ
p86
aVRT @thehill: JUST IN: Trump supporter arrested after trying to vote twice to \u2018test the system\u2019 https://t.co/4ZDFOHdnYs https://t.co/a62kxGm\u2026
p87
aVRT @RealClearNews: Before Monday gets started, catch up on the campaign news and find out where the candidates will be on Election Day http\u2026
p88
aVIt's not just women and minorities. Donald Trump has a Mormon problem \u2014 and here's how it could cost him https://t.co/Tkx254TDiG
p89
aVRT @KellyannePolls: --- &gt; https://t.co/hE5b2ghYjN
p90
aVRT @mmurraypolitics: No handshake (again)
p91
aVRT @MichaelSteele: GOP at this moment. #debate https://t.co/nD0gc29sWj
p92
aVRT @voxdotcom: The first debate featured an unprepared man repeatedly shouting over a highly prepared woman https://t.co/XFnlgBEfwC
p93
aVRT @voxdotcom: If the debate was your first campaign moment, you\u2019d wonder why the GOP nominated this guy. It\u2019s a good question. https://t.c\u2026
p94
aVLOL, this sums up the Debate\u000a\u000aCNN Launches Manhunt After Lester Holt Vanishes from Debate https://t.co/3F12CYeNPl via @BorowitzReport
p95
aVRT @voxdotcom: Donald Trump once again described America as a crime-ridden hellscape. It\u2019s not. https://t.co/4mdm9rUgUO
p96
aVRT @voxdotcom: Trump wants to recreate New York\u2019s unconstitutional, ineffective stop-and-frisk program https://t.co/rrVOESzv1q
p97
aVRT @FiveThirtyEight: Trump's candidacy has spiked searches for \u201cbigly\u201d on Google. #debatenight https://t.co/Wk36iss0fy
p98
aVRT @HuffPostPol: We're off to a great start here. Are you playing along? #Debates #DebateBingo https://t.co/bxogYXNTis https://t.co/y0m9ETS\u2026
p99
aVRT @alexburnsNYT: Right out of the gate: Trump claim on Ford is false, as @maggieNYT &amp; I detailed yesterday &gt; https://t.co/Ka5pUNzqds
p100
aVRT @bethreinhard: "Donald, it's good to be with you." First fact check of the night?
p101
aVRoad to 270: CNN's new election map @CNNPolitics https://t.co/QjIHPKD49N
p102
aVPoll: Clinton has big lead over Trump among Hispanic voters https://t.co/KGI73LHsgl
p103
aVWhere I grew up!\u000a\u000aCritical counties: Genesee, Michigan, and the 2016 election @CNNPolitics https://t.co/cXsnzNtzxA
p104
aVRT @nytpolitics: Hillary Clinton is struggling to gain traction in Florida, despite her spending there https://t.co/ssfz8bmrzd https://t.co\u2026
p105
aVUuuhhh, OK! https://t.co/xcIlbeAGnx
p106
aVRT @voxdotcom: How Donald Trump gets the media to buy into his narratives: https://t.co/UmCb4yf1Vu
p107
aVRT @nytpolitics: Union Leader of N.H. endorses Gary Johnson over Trump. Publisher on Trump: \u201cThe man is a liar, a bully, a buffoon.\u201d https:\u2026
p108
aVRT @thehill: Libertarian ticket pushes for debate invite in full-page NYT ad https://t.co/tE6kdkbTxo https://t.co/mze3m7u0wj
p109
aVElection Update: Where Polls And Demographics Disagree https://t.co/0YNiBz6K98
p110
aVTrump\u2019s appeal to female voters doesn\u2019t add up https://t.co/kZTHu6mb31
p111
aVAlbom: Anthem protesters may want to look at a calendar https://t.co/4bar1C0QRV via @freep
p112
aVhttps://t.co/FWiByrxyRM
p113
aVRT @FiveThirtyEight: More evidence Gary Johnson/Jill Stein backers are pulling more support away from Clinton than from Trump: https://t.co\u2026
p114
aVTwo of my past AP GoPo students in attendance tonight in Milwaukee on the left.  Pretty cool! https://t.co/UjaL7g7Kgb
p115
aVRT @BuzzFeedPol: Supreme Court Denies North Carolina Request To Enforce Voting Restrictions This Fall https://t.co/c0p5GLa7t4
p116
aVRT @thehill: Rapper vows Trump won\u2019t get shot if he visits Chicago https://t.co/T7RrYG96I9 https://t.co/uHGBkaUnlp
p117
aVRT @politico2016: Meet the 25-year-old siphoning money from @realDonaldTrump https://t.co/MpCshZ5C5q | AP Photo https://t.co/zkMPufttlF
p118
aVInside the Conservative Push for States to Amend the Constitution https://t.co/aCbQ44x614
p119
aVRT @politico: Libertarian candidate Johnson focuses on battleground states in ad blitz https://t.co/5dOIisOA0o | Getty https://t.co/ocNAbjA\u2026
p120
aVRT @PostGraphics: 15 states have new voting restrictions. Is yours one of them? https://t.co/eJkNf4HIkC https://t.co/CaKHuv2QNs
p121
aVRT @MeetThePress: This Sunday on #MTP: We'll take a look at Donald Trump's evolving positions on immigration. Tune in! https://t.co/wDRWEo4\u2026
p122
aVRT @FiveThirtyEight: Has the Clinton campaign been lucky or good? https://t.co/kwdP0BY4NJ  https://t.co/3upj8IJfd7
p123
aVRT @PostGraphics: July update: How much money is behind each campaign? https://t.co/stzZcfTHg5 https://t.co/vhNiLYBQa4
p124
aVRT @thehill: Clinton pulling away from Trump in key battleground state https://t.co/uc7seFtcAd https://t.co/f8vrGDFZ0f
p125
aVRT @nycjim: Trump is gaining ground in national polls. But swing state polls show him far behind. Latest via @FiveThirtyEight. https://t.co\u2026
p126
aVCan't forget the minor parties either!\u000a\u000ahttps://t.co/kcGcQWGtaD
p127
aVPretty good breakdown of the key issues between the parties\u000a\u000ahttps://t.co/JztPkQSEF1
p128
aVRT @WordsOfSarah: I can never unsee this https://t.co/jx0uApPsNM
p129
aVTrump just went from 0 to 100 on Cruz!
p130
aVRT @CNNPolitics: A super PAC pitches GOP donors on its plan to stop @realDonaldTrump https://t.co/JdvrGJMYBW https://t.co/UApKzIGUbL
p131
aVI want that hat! https://t.co/HrUhVPBAi6
p132
aVLOL https://t.co/iQB6Om2ZEE
p133
aVTrump!
p134
aVRT @voxdotcom: Jeb Bush just quit the race. His brother, dad, mother, &amp; money couldn't save his campaign. https://t.co/lJLvyqF2ln https://t\u2026
p135
aVJeb is out!
p136
aVSad day. Regardless of what you think of Scalia's politics, he was a favorite of mine in regards to SCOTUS Justices https://t.co/QemqY2Znj8
p137
aVMarco Rubio meets Robot Rubio https://t.co/QpqUHns4Me
p138
aVRT @politico: Trump congratulates Sanders ... then says the Vermont senator will give away the country https://t.co/jOyhLBs9lN https://t.co\u2026
p139
aVRT @thehill: JUST IN: Rubio blames debate struggles for poor NH finish https://t.co/7khK59H9H6 #NHprimary https://t.co/A0Dd6iJVDn
p140
aVRT @HuffPostPol: John Kasich surprises with second place finish in New Hampshire https://t.co/UCqg7jbUJ3 https://t.co/FSL8V24fqh
p141
aVMarco Rubio's debate performance was bad. Really bad. https://t.co/84F4kMPqkM via @voxdotcom
p142
aVSo scripted and memorized, I cannot BELIEVE he has said it 5 times in this debate. I cringed when he said it again!  https://t.co/VVb3QVB6dA
p143
aVRT @politico: .@realDonaldTrump to @jebbush: "Let me talk. Quiet." https://t.co/GfNO2nBI9T
p144
aVThe latest GOP debate kicked off in the most awkward way https://t.co/TkyC0VCta5 via @HuffPostPol
p145
aVRand Paul is Out! https://t.co/tEBoeAaffo
p146
aVRT @politico: The bar was low for Bush's finish in the Iowa caucus. He failed to clear it anyway. https://t.co/3HU8XemUIq | AP https://t.co\u2026
p147
aVLOL https://t.co/ScSwkvA5hv
p148
aVUnbelievable! https://t.co/bdCOII165H
p149
aVHuckabee is Out! https://t.co/ll37yIMRMR
p150
aVRT @postpolitics: See live, county-by-county Iowa caucus results on our maps here: https://t.co/jTCh51J433 https://t.co/eatCNlZAAW
p151
aVO'Malley is Out! https://t.co/bQGfCj8cF1
p152
aVLOL https://t.co/OIRx9jcMuE
p153
aVRT @katieglueck: This is the "Liberty Van." Woman who drives it uses rear view camera and actually drives it https://t.co/OAveT4JIwp
p154
aVHow Trump Did It https://t.co/UplgJFfzD4
p155
aVRT @politico: What you didn't see on TV: Behind the scenes of the Republican debate https://t.co/X5TWvT4nHP | Getty https://t.co/EipOOtVPzj
p156
aV#yorkshares16
p157
a.