(lp0
VRT @brianschatz: They say Stormy Daniels, you say Medicaid and Medicare. They say MS13, you say economic fairness. They say \u201cmob,\u201d you say\u2026
p1
aVRT @brianschatz: Every time he does something awful, you do something to help Dems win. He tweets, you phone bank. He announces a bad polic\u2026
p2
aVRT @JasonKander: I\u2019m as excited as anyone to see President @BarackObama return to the campaign trail soon, but remember: No one can do this\u2026
p3
aVRT @BarackObama: Today I\u2019m at the University of Illinois to deliver a simple message to young people all over the country: You need to vote\u2026
p4
aVRT @brianschatz: As we discuss the Lebron James tweet it is absolutely essential to remember that children are still separated from their p\u2026
p5
aVRT @brianschatz: I\u2019m glad the President is talking about the NFL again because it gives everyone another chance to consider the fact that H\u2026
p6
aVRT @TFAIndy: We're so looking forward to officially welcoming our 2018 @TeachForAmerica corps members to Indianapolis this week! 38% are pe\u2026
p7
aVHow many more times can school shootings like this happen before we see real substantive change? Students across th\u2026 https://t.co/WK8HbRb8S7
p8
aVRT @voxdotcom: Harley-Davidson took its tax cut, closed a factory, and rewarded shareholders https://t.co/szgbhqH4uC
p9
aVRidiculous that the NFL still seeks to appease those that are more offended by players not standing for the anthem\u2026 https://t.co/c1ey16iZoe
p10
aVRT @samstein: Kind of remarkable that in the last two days two prominent REPUBLICANS have said that their party's signature policy in the T\u2026
p11
aVRT @neiltyson: When did it become okay to be more offended by what someone with no power says than by what someone with power does?
p12
aVRT @Nate_Cohn: Regardless of the exact outcome though, this is just another terrible special election result for the Republicans. Zero excu\u2026
p13
aVProud of my hometown. Policies similar to this shouldn\u2019t be so controversial. Ordinary citizens like my neighbors i\u2026 https://t.co/UbMeBtag1X
p14
aVRT @NancyPelosi: Who wants to tell him? https://t.co/ZIWZvVkMCO
p15
aVRT @NickMiroff: The significance is bigger than \u201cshithole.\u201d The president\u2019s supporters are pushing hard for a \u201cmerit-based\u201d immigration mod\u2026
p16
aVYup can\u2019t think of anything more important or pressing for the president\u2019s administration to focus on rn than calli\u2026 https://t.co/TMDhss0I3U
p17
aVRT @SallyQYates: POTUS on 12/28: \u201cI have the absolute right to do what I want with the Justice Department.\u201d Today he slanders career DOJ pr\u2026
p18
aVRT @JasonKander: GOP willing to pass unpopular tax bill and worsen their terrible standing with the public, because if they don\u2019t, they\u2019ll\u2026
p19
aVFor anyone that thinks that their vote doesn\u2019t matter in an election. https://t.co/IViBaXCUy5
p20
aVRT @abefromanohio: Another mall where Roy Moore isn\u2019t welcome - great work Alabama https://t.co/di0YreMDmg
p21
aVI am glad to see Sen. Franken step down from his seat. Sexual misconduct of any kind is unacceptable and Dems just\u2026 https://t.co/7z7Wx2uvbo
p22
aVRT @CHueyBurns: "Retiring" amid sexual assault allegations while endorsing your son to run for your set is what people just love about poli\u2026
p23
aVRT @JeffMerkley: The deed is done in the Senate, but they still need to merge the House and Senate bills. We have one more chance to stop t\u2026
p24
aVRT @SenatorDurbin: BREAKING: Senate Democrats just tried to get Senate Republicans to adjourn for a few days and take the time to actually\u2026
p25
aVRT @KamalaHarris: The FCC released their plan yesterday to repeal #NetNeutrality. I have confidence that if enough of us come together in t\u2026
p26
aVRT @JeffFlake: Come on, Republicans. Is this who we are? This cannot be who we are. https://t.co/Fp0xnwOdqz
p27
aVRT @SenSchumer: Haven\u2019t these men &amp; women earned the right to call themselves American citizens? It\u2019s time for Congress to pass the #DreamA\u2026
p28
aVRT @gdebenedetti: This is \u000a(A) true\u000a(B) an incredible thing for so many Republican lawmakers to say out loud this week. https://t.co/jTmHzY\u2026
p29
aVRT @jonfavs: Worst news from tonight is that he has 280 now https://t.co/N6efbCDh2p
p30
aVRT @BarackObama: Every election matters - those who show up determine our future. Go vote tomorrow! https://t.co/j1wh8hLamw
p31
aVRT @JoeBiden: These tragedies aren\u2019t inevitable. Don\u2019t let hopelessness win today. We must persist in our efforts to prevent gun violence.
p32
aVSaying "While not at all presidential" is redundant since virtually nothing he has done or said while in office has\u2026 https://t.co/jSaJdFiOyJ
p33
aVIt isn\u2019t difficult to condemn Moore and the fact that only Senator Flake has done so speaks volumes about where the\u2026 https://t.co/duqilpMV46
p34
aVRT @SenatorDurbin: Trump Admin says they focus limited resources on violent criminals. So why did @CustomsBorder agents target &amp; arrest 10\u2026
p35
aVRT @SenBobCasey: This is a sabotage of our health care system by executive order. https://t.co/s6uIsQXxh4
p36
aVRT @BenjySarlin: Melania Trump's office rips "attention seeking" Ivana Trump in a statement because we live in a reality show now https://t\u2026
p37
aVRT @SenatorDurbin: I thought it was Mexico who was supposed to pay for the wall. Now the President tells us it's the Dreamers.
p38
aVRT @CREWcrew: CAN WE JUST MAKE IT THROUGH A WEEKEND WITHOUT THIS ADMINISTRATION ABUSING TAXPAYER DOLLARS WITH JET TRAVEL!? https://t.co/nBE\u2026
p39
aVRT @SenatorDurbin: My statement on the Trump Administration's immigration wishlist https://t.co/PBki8bRy9P
p40
aVBoom roasted https://t.co/HAD0jitJxn
p41
aVTotal snowflake move https://t.co/tXIyTmBY1U
p42
aVRT @ChrisMurphyCT: My op-ed in tomorrow's Washington Post: "Mass shootings are an American problem. There\u2019s an American solution." https://\u2026
p43
aVRT @brianschatz: This is a good reminder that it wasn't always this way, and in 2020 we can have a President who is our leader again. https\u2026
p44
aVRT @kalpenn: Senators are home. Call or show up at their local offices to #StopGrahamCassidy, their awful healthcare repeal bill\u000a\u000ahttps://t\u2026
p45
aVRT @BarackObama: To target hopeful young strivers who grew up here is wrong, because they\u2019ve done nothing wrong. My statement: https://t.co\u2026
p46
aVRT @SenJohnMcCain: .@POTUS's pardon of Joe Arpaio, who illegally profiled Latinos, undermines his claim for the respect of rule of law http\u2026
p47
aVRT @BarstoolNewsN: "Mister President, the news is saying you shouldn't look directly into the sun" \u000a"Who's saying it" \u000a"CNN"\u000aTrump: https:/\u2026
p48
aVRT @SenBobCasey: Rejecting Steve Bannon is just one step, @POTUS must unequivocally condemn and reject the so-called "alt-right" and their\u2026
p49
aVLow key might be a fan of the bachelor in paradise now https://t.co/41UNmViplN
p50
aV@lindsayleiber @BachParadise Lmk!!!
p51
aV@BachParadise @lindsayleiber look at the hashtag...what?
p52
aVWhen POTUS isn't busy defending white supremacists, he is finding ways to make healthcare less affordable for milli\u2026 https://t.co/xIawYb5nCV
p53
aVRT @JuddApatow: Register to vote!!!!  @letamericavote That is how we fix this.
p54
aVThere is only one side here to blame. The actions of white supremacists and neo-nazis are indefensible. https://t.co/VnE9GdmgkE
p55
aVNo WH Chaos? https://t.co/bxlJHj0OTY
p56
aVRT @SenatorDurbin: @SenateGOP While American families sleep tonight, Republicans will vote to take away health insurance from 16 million pe\u2026
p57
aVRT @SenDuckworth: I enjoyed having lunch with our Chicago interns last week and thanking them for all their hard work this summer https://t\u2026
p58
aVRT @LindseyGrahamSC: Simply put, any policy proposal which drives up costs of Corona, tequila, or margaritas is a big-time bad idea. Mucho\u2026
p59
aVRT @scott_m_bennett: Do you support #BennettforSenate?? If so, show off your support with a retweet. #Vote https://t.co/HAihYBWCg5
p60
aVRT @IlliniDemocrats: Early Voting begins TODAY at the Illini Union from 10AM - 6PM! \u000aGO VOTE for the Forward Together ticket! #ImWithHer #T\u2026
p61
aVRT @J_Hizy: #BowlingForBrad #IL10 https://t.co/3dbAZIJAG9
p62
aVRT @Schneider4IL10: BIG NEWS: A new poll shows Brad with a 47%-43% lead over Bob Dold! #IL10 \u000a\u000ahttps://t.co/WJkC83bOSS https://t.co/f4O1il3\u2026
p63
aVViolent video game playing does not necessarily cause people to act violently. It's correlation does not prove causation. #macs101a
p64
aVAs an audience member there is always more than one way to decode meaning from a given form of media #macs101a
p65
aVThe film Miss Representation shows how the media portrays a woman's sexuality and appearance as their sole source of value  #macs101a
p66
aVRepresentation in the media of race and sexual orientation can often be based on stereotypes and not be as accurate as possible #macs101a
p67
aVWhen many firms consolidate or merge to eliminate competition in an industry it threatens democratic goals #macs101a
p68
aVWhen consuming any form of media it is important to remember all the human labor that went into the production process #macs101a
p69
aVIt's crazy to think how what were once revolutionary methods of communication like the telegram are now obsolete #macs101a
p70
a.