(lp0
VPS: #BohemianRhapsody will still be out on Wednesday. Go knock on doors, make phone calls, and GET OUT THE VOTE this weekend.
p1
aVOn behalf of #BohemianRhapsody coming out this weekend, I once again give you a very old video of my uncle playing\u2026 https://t.co/g0CU3njwVh
p2
aVRT @elizabethforma: \U0001f6a8 MASSACHUSETTS: Today is the LAST DAY you can vote early in the 2018 midterm election! Don\u2019t wait another second to ca\u2026
p3
aVListen to Andrea Zuckerman, America! https://t.co/GkkhlUq9JB
p4
aVThat's what girls do. https://t.co/D0LPZdiOQj
p5
aVI've had a banana, apple cider, and candy corn for breakfast. That counts as three fruits and veggies, right? #HappyHalloween
p6
aVRT @elizabethforma: My Republican opponent is proud to have the support of VP Mike Pence, Donald Trump \u201cdirty trickster\u201d Roger Stone, forme\u2026
p7
aVI am declaring the hashtag for tonight's final #masen debate #WCVBDebate. Let's make it so. #mapoli
p8
aVLet's make history. (cc @emilyslist) https://t.co/3XaJqG8QzQ
p9
aVBoston twitter is very concerned about Whitey Bulger. Where is TMZ when you need them?
p10
aVWoohoo to my friends/neighbors at @actblue! https://t.co/IHhC3eEjd8
p11
aVI love this one too! https://t.co/rKMQSaxrrm
p12
aVI love this video so much. https://t.co/S8SDcNouxw
p13
aVYou know, @PearlJam is a good band. https://t.co/TkpamLYjOj
p14
aVDo they still pick up the trash the Monday after a World Series victory in Boston, or is it delayed a day for the holiday? #DamageDone
p15
aVRT @ringer: WALKING INTO WORK IN BOSTON TOMORROW. #RedSox #WorldSeries https://t.co/epNFmKxZRo
p16
aVRT @elizabethforma: Woo-hoo!!!!!!!! Congratulations @RedSox &amp; #RedSox Nation. What a season! We\u2019re so proud of you. #DoDamage
p17
aVI love that dirty water. \u2764\ufe0f\u000a\u000aSo sorry, Dodgers. \U0001f494
p18
aVAs a 1980s Showtime kid, the Magic/Bird rivalry is exactly why I never grew up hating Boston sports teams. Boston/L\u2026 https://t.co/CGpofmQqzB
p19
aVDodgers, Red Sox, I love you guys... but so help me I can't do another 18-inning game during GOTV......
p20
aVSending love to @TyroneGayle's family and friends, and to our friends at the @SenKamalaHarris/@KamalaHarris teams.\u2026 https://t.co/DAo3kVWypL
p21
aVIsn't "Los Angeles Market" just @ElPolloLoco? https://t.co/YJsmz1Xkos
p22
aVOh my God they're from my hometown. I'm going to be sick. https://t.co/Qgafrbidob
p23
aVRemember:\u000aThe Republicans want to cut your health care.\u000aThe Republicans want to cut your health care.\u000aThe Republica\u2026 https://t.co/DAdEVFJoUt
p24
aVMaybe he can\u2019t afford it? \U0001f937\u200d\u2640\ufe0f https://t.co/7QxklES8yq
p25
aVOMG I feel so manipulated by the T-Mobile Vin Scully ad.
p26
aVExcept this: God I wish Vin Scully was calling this game from Fenway.
p27
aVLos Angeles is my hometown. I love the Dodgers.\u000aBoston is my adopted hometown. I love the Red Sox.\u000a\u000aThis will be th\u2026 https://t.co/e59LO7EGSR
p28
aVA Dodger Dog with a side of clam chowder sounds delicious, tbh. https://t.co/OBvz8Hrrie
p29
aVRT @elizabethforma: Massachusetts: Early voting starts TODAY! Don\u2019t miss your chance to make your voice heard in the most important midterm\u2026
p30
aVHappy Early Vote Day, Massachusetts! Proud to cast my vote this morning for @elizabethforma, @jay4ma, @maura_healey\u2026 https://t.co/IBlT2PkX8g
p31
aVRT @elizabethforma: Fired up and ready for #WGBYdebate! https://t.co/pPqAx6FYgR
p32
aVRT @elizabethforma: This is what a grassroots army looks like. #WGBYdebate https://t.co/Udn1Sv70UN
p33
aVOk 413 friends: Can we just officially declare #wgbydebate the hashtag for tonight? #mapoli
p34
aVExactly. https://t.co/QrGqhuvKAo
p35
aVVERY POORLY. https://t.co/Xga6QxEctI
p36
aVRT @msager: My condolences to @laurenm who now has to choose which of her favorites she loves more.
p37
aV@KristenOrthman @sloansharma The best.
p38
aVAnd donate here to @AndrewGillum: https://t.co/y9dH1a6hAW https://t.co/PbajEbejuP
p39
aVDonate here to @staceyabrams: https://t.co/Qtk8yuyrtO https://t.co/0OZGCXeg3L
p40
aVAmerica's best Attorney General @maura_healey! https://t.co/BVAVh5ieFr
p41
aVRT @LiamWBZ: Geoff Diehl\u2019s official Twitter account just retweeted a post that refers to Sen. Elizabeth Warren as a \u201cstupid biotch.\u201d #WBZ h\u2026
p42
aVRT @elizabethforma: Our first debate just ended, and one thing is very clear: If Massachusetts sends my opponent to the Senate this Novembe\u2026
p43
aVRT @elizabethforma: 10/17: @realDonaldTrump says he is too "busy" to visit American soldiers in Iraq and Afghanistan.\u000a\u000a10/18: @realDonaldTr\u2026
p44
aVI deeply dislike this new trend of political groups listing the recipient's name as the sender name. Let's be less spammy, friends.
p45
aVRT @elizabethforma: My family (including Fox News-watchers) sat together and talked about what they think of @realDonaldTrump\u2019s attacks on\u2026
p46
aVThis. https://t.co/mtVnWljxcJ
p47
aVI wasn't cool enough to know the Ellison brothers in high school, but I do remember what superstars they were. This\u2026 https://t.co/Q3bJujoCVf
p48
aVLike seriously, I took an iPhone photo thinking: \u201cShe\u2019s going to be President one day when I\u2019m an old lady. I shoul\u2026 https://t.co/b1qLMemce5
p49
aVOh my goodness.... I was so impressed with Ariella at our Roxbury town hall today that I'd vote for her for Preside\u2026 https://t.co/xG4TYKTVEY
p50
aVYou asked. We delivered. #ImpoliteArrogantWoman #BlahBlahBlah https://t.co/FISow5XlBF
p51
aVPS: If you're not on our email list, I'm judging you... but you can read the full text here: https://t.co/5cOwO99vLW #impolitearrogantwoman
p52
aVAn impolite arrogant woman? Check your inboxes. #impolitearrogantwoman https://t.co/PAd9z0XNXW
p53
aVHey Yankees..... #RedSox #DoDamage https://t.co/E177TbrXFy
p54
aVThis 9th inning feels like a really, really bad election night.  #RedSox
p55
aVRT @elizabethforma: Breaking news: least popular president in modern history can\u2019t come up with new rally material, repeats racist rants. A\u2026
p56
aVRT @elizabethforma: BTW: @sharicedavids is an INCREDIBLE Native American House candidate in Kansas \u2013 and she can win on November 6th. Donat\u2026
p57
aVRT @elizabethforma: Hey @realDonaldTrump, hope you\u2019re having fun at your rally. Too bad you\u2019re the least popular incumbent president in mod\u2026
p58
aVRT @elizabethforma: We won't sit down. We won't shut up. November 6th is just 31 days away. Here we come. https://t.co/p2E75H31zP
p59
aVMany days I'm grateful to have spent the past 9 months escaping @realDonaldTrump's DC. But today my heart breaks no\u2026 https://t.co/3YDgaJdmKp
p60
aVI don't know that I'll live to see the end of October if the @redsox bullpen pitches like that every game. My McDon\u2026 https://t.co/HUu8XTIq1H
p61
aVC'mon Boston... beat the scabs. #DoDamage
p62
aVRT @elizabethforma: The Senate is 1 step away from confirming Brett Kavanaugh \u2013 but we still have a chance to stop him.\u000a\u000aRaise your voice N\u2026
p63
aV"I'm failing with women." -@realDonaldTrump \u000a\u000aFinally, some truth.
p64
aVRT @brianefallon: "The FBI investigation was a sham" -- @SenWarren https://t.co/OJfeXIcTkA
p65
aVOn this #NationalTacoDay, let us remember: we could have had taco trucks on every corner, America. https://t.co/7EI8KDiEUp
p66
aVRT @Sifill_LDF: Question for the day. https://t.co/70THFCjJyV
p67
aVStill haven't received the #PresidentialAlert. So am I off the grid, or did the President put me on the do not save list?
p68
aVOh my the @JasonKander email is raw/beautiful/heartbreaking.
p69
aVRT @TheRoot: Senator Elizabeth Warren believes it's time for federal government to start righting some of the wrongs that itself has caused\u2026
p70
aVRT @elizabethforma: Tick-tock, @realDonaldTrump. Time\u2019s up. November 6 is coming.
p71
aVOne of my bday resolutions was to clean up the 12 years of Twitter accounts I follow to make this site more useful.\u2026 https://t.co/TWxN49d26U
p72
aVRT @elizabethforma: Brett Kavanaugh was allowed to be angry. Dr. Ford wasn\u2019t. Women grow up hearing that being angry makes us unattractive.\u2026
p73
aVRT @elizabethforma: It\u2019s time for women to go to Washington &amp; fix our broken gov't. That includes a woman at the top. Today at a town hall\u2026
p74
a.