(lp0
VGo Robin! Super inspired! Eye of the tiger girlfriend!! \u000a#RobinRunsA1K
p1
aV@FieldYates @MatthewBerryTMR Flex help. Schuster-Smith or Hunter Henry. PPR thx!\U0001f618 #FFNow
p2
aV@HoosierloveAC ESPN News now and switching shortly back to ESPN 2
p3
aVToys R Us Files Bankruptcy As The Holiday Season Fast Approaches https://t.co/kXX1SuJDXp
p4
aVKiss\u2019 Gene Simmons and Paul Stanley Plan to Bring Restaurant Chain to Chicagoland - Eater Chicago https://t.co/gn0NkJdE9M
p5
aVAmazon's Next Crazy Idea: Underwater Warehouses https://t.co/anBqyzBQrF
p6
aVIn support of Musk's high-speed tunnel between Chicago's Loop and O'Hare - Cahill - Crain's Chicago Business https://t.co/Q10qlA0uDQ
p7
aVWalgreens scraps Rite Aid deal, will buy nearly 2,200 stores - Consumer News - Crain's Chicago Business https://t.co/8Wo77ewXja
p8
aVChicago's Wealth Divide https://t.co/tG0SEERNVZ
p9
aVRT @SimonCowell: If you didn\u2019t get the chance to see it or are in another country you can watch it here: https://t.co/9lmOz7dzzB
p10
aVAmazon to buy Whole Foods - Consumer News - Crain's Chicago Business https://t.co/McfOxwQzDb
p11
aVReport: Floyd Mayweather, Conor McGregor finalize fight for Aug. 26 in Las Vegas https://t.co/0gip5slk8B
p12
aVChicago property taxes are about to go way up - Blogs On Politics - Crain's Chicago Business https://t.co/zIwSaqxPhk
p13
aVMarijuana Cultivation Now A Stable Industrial Market Niche, CBRE Reports https://t.co/GTMMeHX20m
p14
aV@amazon unveils new @RomeovilleToday facility https://t.co/3ZFwzmAzHX via @dailyherald
p15
aVTheo Epstein at Yale Class Day: "Choose to keep your heads up" https://t.co/DbHNJMVlWn
p16
aVThe Best Advice From 2017\u2019s Commencement Speeches https://t.co/q62n2rUpFb
p17
aVKellogg Co. To Close Nearly 40 Distribution Centers, Eliminate 1,000 Jobs https://t.co/4fERPU7Sn7
p18
aVWidespread Uncertainty Is Helping Commercial Real Estate https://t.co/UCJZSYdpli
p19
aVBeer It Forward During American Craft Beer Week https://t.co/KlyFTql953
p20
aVJewel agrees to buy 19 stores from Central Grocers | Chicago Sun-Times https://t.co/XJ6475nQMV
p21
aVWine and cheese make you smart and healthy, according to new studies - MarketWatch https://t.co/4kbAvgWvcq
p22
aVSee why Anthony Rizzo (@ARizzo44) is one of @crainschicago #Crain20s: https://t.co/HUrnQWQWQm via @crainschicago
p23
aV20 In Their 20s 2017 - Crain's Chicago Business https://t.co/je0rSyQMhu
p24
aVWill Parking Enter a Brave New World? https://t.co/b3XjbQqcqK via @GlobeStcom
p25
aVhttps://t.co/q9C8mqg08M
p26
aVRT @ufc: DID @MightyMouseUFC JUST THROW A HEAD KICK WHILE ON REIS' BACK?! \u000a\u000a#UFCKansasCity https://t.co/hlb4jQmMPd
p27
aVRT @Forbes: On #NationalBeerDay, 11 things you probably didn't know about America's drink of choice https://t.co/TRPzQ37su4
p28
aVRT @D_Ross3: Sweet dreams @ARizzo44 https://t.co/WCsCOxAYTZ
p29
aVRT @raymondbraun: \u26a1\ufe0f As a community, we must loudly condemn the fake and damaging HB2 "repeal" that hurts LGBTQ people. \u000a\u000ahttps://t.co/EQtF\u2026
p30
aVRT @Cubs: Quite the day on #Cubs Snapchat! \u000a\u000ahttps://t.co/Y7ZCTzZKvB https://t.co/tJMrw68S7M
p31
aVRT @BBCR1: Welcome back @edsheeran! \U0001f44b\u000a\u000aLock in to Radio 1 NOW \U0001f449 https://t.co/48RuyAdouO \u000a\u000a#R1Sheeran https://t.co/iLH17hLBEu
p32
aVRT @NHLBlackhawks: What do you think of @SDarling_33's #WinterClassic mask, @Cubs? https://t.co/5T5xCWol3b
p33
aVSweden Heads The Best Countries For Business For 2017 https://t.co/TDE0xRHS6b
p34
aV5 Commercial Real Estate Trends To Watch In 2017 https://t.co/0zLr1xKAsJ
p35
aV@Stephania_ESPN Flex help please - Half PPR - Michael Thomas, Willie Snead, Malcolm Mitchell, Rob Kelley, or Sammy Watkins?
p36
aVFlex help - Michael Thomas, Rob Kelley, Sammy Watkins or Malcolm Mitchell  - Half PPR #FFNow
p37
aVAmazon just opened a grocery store without a checkout line https://t.co/YTu44JwypI
p38
aVMLB Hot Stove trades: Red Sox reportedly acquire Chris Sale from White Sox https://t.co/ngLvLwbTtX
p39
aVRT @MileyCyrus: RT to save @aarondgibson from elimination now!!! Don't make Mammie cry \u000a#VoiceSaveAaron https://t.co/K8kQIr5gst
p40
aV#VoiceSaveAaron
p41
aV"Ross Launches Solo HR in Final Career Game" via @BleacherReport App: https://t.co/Rw4yr2bsgk
p42
aVVote for this little cutie in the 2016 Gerber Photo Search now!  https://t.co/r25OJ1Raw3
p43
aVRT @Cubs: It's happening. #WorldSeries https://t.co/JS6613RnDu
p44
aVRT @MLB: Three iconic @Cubs #WorldSeries teams: The last to win it, the last to play it, and the one trying again now. https://t.co/Fymzd3z\u2026
p45
aVRT @SportsCenter: THIS JUST IN: Ronda Rousey will return to the octagon to fight Amanda Nunes in UFC 207 on December 30th. https://t.co/8rM\u2026
p46
aV@FantasyWrath13 Thanks!
p47
aVJordan Matthews or Arian Foster PPR flex #FFNow
p48
aVhttps://t.co/Dny5pWSgsr #EllenShow #Adele
p49
aV@scott_pianowski Pretty good-Scherz Bumgarn Smyly Zimm Hammel Quintana Iwak Ventura Velasquez Davis Jansen. 8 team league
p50
aV@scott_pianowski Offered Greinke for Cespedes. OF left: Springer, Braun, Rasmus, Kemp, Bruce, Souza, Yelich. Trade?
p51
aVThe Cure - Friday Im In Love https://t.co/LegZ4gJUNT
p52
aV#thedivasofdrag https://t.co/wIJeAcixLF
p53
aV#thedivasofdrag https://t.co/wbfnOBN8wU
p54
aVJefferson Airplane - White Rabbit (Grace Slick, Woodstock, aug 17 1969) https://t.co/WMlyemXo74
p55
aVRT @Cubs: We feel you, @MuneKawasakiWB. \u201cI don\u2019t want to miss a thing\u201d during this #Cubs #SpringTraining.\u000ahttps://t.co/KpJcuyuUu2
p56
aVThe most truthful song I've heard in all my life, and I'm 35 and marry my partner, Sheri, to this version! \U0001f609 https://t.co/y4izlc9S7T
p57
aV#not sure so Much how this works #http://youtu.be/R_wrDZLc0hk
p58
aVRT @ESPNNFL: Matt Forte is signing with the NY Jets. (via @AdamSchefter) https://t.co/yQCR15zenX
p59
aVPoll: Porn Site Fans Prefer Bernie Sanders, Donald Trump - Breitbart News https://t.co/sRocWfEaXq
p60
aV@danawhite Is it possible to have the color of the round bars on the bottom of the PPV screen changed from white to black so they stand out?
p61
aVRT @coachbaize: I hope Connor Mcgregor rips Nate Diaz in half tonight. Ufc 3,456,488
p62
aV@MattForte22 YOU WILL BE MISSED! I wish CHI could have worked out a deal with you. Best RB of our time!
p63
aV@daverichard Rawls or Woodhead?
p64
aV#houseofblueschicago #boybandreview #jumparoundencore https://t.co/1rlcovUiwb
p65
aVBest graffiti I have ever seen in my 14 years of being able to drink at bars https://t.co/lYXle2gvSK
p66
aVHot Sauce Committee! https://t.co/AvVLZwiYKQ
p67
aVHot Sauce Committee #boybandreview https://t.co/kNTiB1I9Qx
p68
aV@CBSBigBrother @ZingbotOfficial
p69
aV@andersoncooper @ac2live You guys are f-ing hysterical!! #AC2 http://t.co/XpZDtsv2mC
p70
aV@Andy You guys are f-ing hysterical!!! http://t.co/17N5WHyILf
p71
aVRT @chicagobulls: #PauGasol has continued to increase awareness &amp; funds for both local &amp; global charities! RT to VOTE Pau for the #NBACommu\u2026
p72
aVRT @rickygervais: Let's hope there are enough heroes like this guy in the world to balance out the scum before it's too late. http://t.co/i\u2026
p73
aVRT @richardbranson: Who do you think should make the list for the most important thinkers of our time? http://t.co/Oy4LWLfIcv http://t.co/8\u2026
p74
aVRT @BestMotivation2: Smile a little more, regret a little less.
p75
aVRT @Forbes: A job search is above all a networking &amp; people-connecting activity: http://t.co/s0d95mnloo
p76
aV#runrunrun @johnlegend @kelly_clarkson PHENOMENAL DUET ... LISTEN PEOPS!
p77
aV@lizzaard97 #SaturdaySurprise #WhereIsDarling?
p78
aVRT @BestMotivation2: I like conversations where I don't have to think about what to say, it just comes naturally.
p79
aV@IamJoeyCook Bummer!! You had my Tweet! Your style has inspired me to explore jazz!! Good luck to you! #bigJoeyCookFan #MakeAnAlbumSoICanBuy
p80
aVHellz yea!!!!! #Toews #HawksTieThePreds
p81
aVRT @SFGiants: Tonight, we all wear 42. #Jackie42 http://t.co/5UHcjakdfl
p82
aV#SaveJoey
p83
aVOff tomorrow for White Sox home opener!! #letsgowhitesox #noTornado
p84
a.