(lp0
VAWESOME!!# @NSSEO_org @KirkSchoolNSSEO # https://t.co/V8AO5puUo4
p1
aV#FallBack https://t.co/ak8QznOj6v
p2
aVSeriously A-M-A-Z-I-N-G-! https://t.co/HImq3GRkfV
p3
aVWhatever your political position is, voting is social responsibility that all citizens should partake. Find out whe\u2026 https://t.co/bQWnOKiPWY
p4
aVFantastic idea and a great way to show thanks to local businesses! Remember to shop local this holiday season!\u2026 https://t.co/zutxROCnou
p5
aVRT @IndianGroveEdu: IG PARENT NEWSLETTER for November. Be sure to check it out! #iginspires  https://t.co/HnBiPoF9fR
p6
aVGreat Q&amp;A. Thanks for putting this together! https://t.co/qZUQQ9Cbl4
p7
aVRT @BarackObama: We grieve for the Americans murdered in Pittsburgh. All of us have to fight the rise of anti-Semitism and hateful rhetoric\u2026
p8
aVRT @MrsRyan10: RTSD Singing Challenge Cha Cha for a fun Friday brain break! Room 50 nominates @mrsatovitz and @MrsRussoIG and @cbowmana #RT\u2026
p9
aVRT @DanielBiss: Just voted for @JBPritzker and @JulianaforLG. I hope you will too! https://t.co/IS0C613DWu
p10
aVhttps://t.co/0WyzaB6tmG Sign-up to support and celebrate this great organization! https://t.co/ikuQuScrCg
p11
aVSpreading the word! https://t.co/gsNc8aXq51
p12
aVRT @IndianGroveEdu: Donuts with Dad at Indian Grove. What a treat! https://t.co/lH8LQExreD
p13
aVProud of my family! https://t.co/2466E5lyqU
p14
aVRT @hudson_ig: Awesome participation on Walk/Bike to School Day! Thanks to the MP Police for helping us stay safe! Working together for the\u2026
p15
a.