(lp0
VRT @joshtpm: Important to note what happened yesterday. A voter noticed a security flaw in Brian Kemp's computer system, immediately notifi\u2026
p1
aVRT @robreiner: My father is 96 and a half years old. In his long life he has never seen anything like what\u2019s happening to our country. I lo\u2026
p2
aVRT @ClintFalin: PILE OF LEAVES\u000aPILE OF LEAVES\u000aPILE OF LEAVES\u000aPILE OF LEAVES\u000a\u000a                          (dognamedstella on IG) https://t.co/\u2026
p3
aVRT @RayOfLaurel: Entrance to the Yale Law School this morning https://t.co/vRIlGyKRsT
p4
aVRT @Zathras3: I'm out, too.  After more than 40 years, I'm leaving the Republican Party. &lt;thread -- I'm afraid it's a long one.  Sorry.&gt;
p5
aVRT @LUnderwood630: Watch our new video to find out why Lauren Underwood is the best choice for #IL14. Election Day is Nov. 6! https://t.co/\u2026
p6
aVRT @bleedblue46VSG: @jmpalmieri VOTER REGISTRATION DEADLINES! Please RETWEET for all to share!! https://t.co/aFrMLROAF3
p7
aVRT @MarianosMarket: Free Friday Download! Today only, download a digital coupon for Bumble Bee Tuna Pouch, 2.5 oz. varieties. Download your\u2026
p8
aVRT @JulieSLalonde: This beautiful image by Mehreen Kakwan absolutely levelled me. https://t.co/mPwi5Kh4Kk
p9
aVRT @susannecraig: Couldn\u2019t sleep so I went out to Queens to watch the press run of our  tax story. What an amazing rush. https://t.co/UsV8p\u2026
p10
aVRT @MichelleForbes5: Jesus believed the testimony of women and so do we #churchsigns https://t.co/XUOBG74ZOH
p11
aVRT @PSusmilch: If you missed the Kavanaugh hearing today I used state of the art computer technology to make a hyper-accurate representatio\u2026
p12
aVRT @amyklobuchar: I got the polygraph test Dr. Ford took showing truthfulness about her account in the record. To quote a judge: \u201claw enfor\u2026
p13
aVRT @BoKnowsNews: MURKOWSKI and FEINSTEIN huddling in Capitol basement. What are they talking about? https://t.co/ouYjMa7kq4
p14
aVRT @jaketapper: Judge Kavanaugh\u2019s 1982 calendar, submitted to Senate Judiciary Committee https://t.co/VxzMQvgxNE
p15
aVRT @JohnBick4: Wait for it https://t.co/4hsVNqipy1
p16
aVRT @gourdnibler: So dramatic! Dude from the weather channel bracing for his life, as 2 dudes just stroll past. #HurricaneFlorence https://t\u2026
p17
aVRT @aparnapkin: can we amend \u201cboys will be boys\u201d to \u201cpredators will be predators\u201d so we\u2019re not ascribing violent behavior as \u201cnormal\u201d to an\u2026
p18
aVRT @OrrChris: No other journalist has dived as deep on Manafort as @FranklinFoer. Here  he lays out what Manafort may be in a position to t\u2026
p19
aVRT @PresVillain: I KNOW ALL ABOUT "FLIPPING"... #PresidentSupervillain https://t.co/38V4qj8G9e
p20
aVRT @CalliNorton: Alexa, show me the best clip from the Twitter hearing today\u000a\u000a https://t.co/hdSRBeQPzb
p21
aV@AdyBarkan Harlan County USA https://t.co/x6WtaID2WX
p22
aVRT @tweetjaleesa: @realDonaldTrump @Rasmussen_Poll https://t.co/ZNclnOhBGB
p23
aVRT @nancy_mahony: @kramerp33 @brianschatz This guy? https://t.co/B2sBzsGwjE
p24
aVRT @wardahkhalid_: Instead of sharing that perhaps well intentioned but ultimately anti-Arab video of Sen. McCain responding to a racist qu\u2026
p25
aVRT @BetoORourke: Mourning the loss of Senator John McCain. Grateful for his life, and sending strength and love to Cindy and the McCain fam\u2026
p26
aVRT @KatzOnEarth: That time when McCain confronted the woman who said she couldn't trust Obama because he's an "Arab" may be the most tellin\u2026
p27
aVRT @ACLU: Reminder: The consequences of family separation will far out-last this administration.\u000a\u000aWatch one family's reunion after months o\u2026
p28
aVRT @conradhackett: How gerrymandering can change election outcomes, in one chart\u000a\u000ahttps://t.co/cQLC6K9rgM https://t.co/tL7aBnR537
p29
aVRT @conradhackett: Half of all Americans live in the red counties, half live in the orange counties https://t.co/b6eVGg8jXL
p30
aVRT @jayrosen_nyu: Brilliant cartoon, @wuerker https://t.co/TbRx49Ukyb
p31
aVRT @KateAronoff: The scene in Jurassic Park when Newman loses his glasses and then says, "I can afford more glasses" immediately before bei\u2026
p32
aVI\u2019ve been thinking about this eulogy for days. I am really glad that there are people as wonderful as this. https://t.co/xXD0kwpIMn
p33
aVRT @mmfa: On Fox News, Shep Smith's reporting regularly exposes Sean Hannity's lies and propaganda. Here are six minutes of examples: https\u2026
p34
aVRT @brianklaas: Turkey\u2019s despot, Erdogan, faced a criminal investigation in 2013/14. He called it a \u201cdeep state witch hunt,\u201d fired prosecut\u2026
p35
aVRT @IDoTheThinking: Just found this! \u000aThis is a 1950 case-study doc on a white suburb in Pennsylvania dealing with violent controversy over\u2026
p36
aV@mjmiglio @atrupar @thinkprogress Hey, CEO pay has not kept up with the cost of college tuition. No one talks about that. \U0001f60f
p37
aVRT @brianschatz: There is nothing extreme about wanting everyone to have health care and education, preventing the planet from warming up,\u2026
p38
aVRT @rtraister: I wrote a profile of Massachusetts Sen Elizabeth Warren, her exertions on behalf of the left in the time of Trump, her drive\u2026
p39
aVRT @openculture: 20,000 Americans Hold a Pro-Nazi Rally in Madison Square Garden in 1939: Chilling Video Re-Captures a Lost Chapter in US H\u2026
p40
aVRT @voxdotcom: Six in ten Americans support Medicare-for-all. \u000a\u000aAlmost every single rumored 2020 candidate in the Senate has backed Bernie\u2026
p41
aVRT @deray: #ThereseOkoumou. \u201cI went as high as I could.\u201d \u270a\U0001f3fe. https://t.co/AfD7mGGoKC
p42
aVRT @pkcapitol: Late to this: @marycjordan captures viral web videos boosting previously obscure Dem women, raising huge $$$ and getting vis\u2026
p43
aVRT @BillKristol: This ad will air tomorrow morning, July 4th, on selected stations including Fox News, to remind our fellow Americans, Repu\u2026
p44
aVRT @Ocasio2018: Thank you @SRuhle for this excellent breakdown! https://t.co/5xhdlRJqGl
p45
aVRT @gingerthomp1: Grateful to \u2066@NPR\u2069 for sharing one little Salvadoran girl\u2019s story with their vast and  faithful audience.  https://t.co/d\u2026
p46
aVRT @nmeyersohn: The Five Conflicts Driving the Bulk of the World\u2019s Refugee Crisis  https://t.co/84sI3jJsqI
p47
aVRT @silentmoviegifs: @peeto_g Pay Day (1922) https://t.co/4xTqvto1wp
p48
aVRT @BrukDiana: Omg. https://t.co/oeRO4FBVmt
p49
aVRT @jaketapper: Bourdain on \u2066@WTFpod\u2069 in 2011  https://t.co/G64GEt2TYZ
p50
aVRT @andygreenwald: Tony came on my podcast to talk about it all. He was warm, gracious, and fair. Despite a late night flight from India, h\u2026
p51
aVRT @mmfa: Fox News at 9pm vs. Fox News at 3pm https://t.co/4weDsnrsy8
p52
aVRT @FranklinFoer: Here\u2019s my investigative piece about the Russian intelligence asset who Robert Mueller keeps mentioning. https://t.co/fQS9\u2026
p53
aVRT @Lawrence: Trump got paid less than any other NBC star and less than many NBC show runners &amp; writers. https://t.co/GLEZZIAfWp
p54
aVRT @PreetBharara: The President has the right to pardon but the facts are these: D'Souza intentionally broke the law, voluntarily pled guil\u2026
p55
aVRT @askdadblog: @lindaholmes If only there had been some sort of sign that something like this would happen!\u000a\u000ahttps://t.co/P1XScU91jP
p56
aVRT @TVietor08: Punishing children to deter immigration. What an indescribably cruel thing to do via @allinwithchris - https://t.co/MgkhHXJo\u2026
p57
aVRT @AdyBarkan: Prediction:\u000a\u000aThis season, some creative NFL players will find a way to protest white supremacy while standing. https://t.co/\u2026
p58
aVRT @nathanwpyle: https://t.co/BxIuYisDq2
p59
aVRT @waxpancake: Want to see what your Twitter timeline would've looked like 10 years ago today, if you followed all the same people you do\u2026
p60
aVRT @IronStache: My union job gave me health care to pay for checkups and treatment after I was diagnosed with cancer. I don't live for the\u2026
p61
aVRT @Bondcliff2008: Weird how before everyone carried cameras everywhere there were photos of UFOs and Bigfoot and almost no video of people\u2026
p62
aVI think it is time for policy debate now @marcorubio https://t.co/rir6tnLq87
p63
aVRT @B_Ehrenreich: The official poverty rate is about 13%, but a report to be released by United Way today reveals that a full 40% of Americ\u2026
p64
aVRT @MyDaughtersArmy: Oh, Aaron Schlossberg, it must be awful to be accosted by a stranger when you're just trying to work and go about your\u2026
p65
aV@Bourdain Click-bait headline that wasn\u2019t even about: https://t.co/bfVSkCRBjE
p66
aVRT @DerrenBrown: I\u2019ve been a fan of this guy for a while - he makes extraordinary Rube Goldberg machines with a level of wit that elevates\u2026
p67
aVRT @jaketapper: Interesting piece on YA fiction \u2014 @se4realhinton, Cormier, Zindel https://t.co/fsDS5MvnHf
p68
aVRT @staceyNYCDC: All in the last two weeks \U0001f926\U0001f3fe\u200d\u2640\ufe0f\U0001f644 https://t.co/FktUZPjhlS
p69
aVRT @WillD1am: Just overheard Tomi Lahren on Fox News say: "Average Americans don't go home at night &amp; wonder about the Mueller investigatio\u2026
p70
aVRT @thedailybeast: Watch Fox News report on Michael Cohen representing Sean Hannity https://t.co/RkBV3rKQul https://t.co/SaqDfLMF8p
p71
aVRT @leahmcelrath: Fox News reporting on @MichaelCohen212\u2019s third client being @seanhannity is must-see TV:\u000a\u000a\u201cHe stood up and named him as S\u2026
p72
aVRT @theviviakay: Testing a theory: \u000aretweet if you're a white or white-presenting person and you've gone into a Starbucks and just used the\u2026
p73
aVRT @TopherSpiro: \U0001f6a8\U0001f6a8\U0001f6a8 It\u2019s happening. Get ready. We need the most massive demonstration in history. https://t.co/wyFAdOb1Fp
p74
aVRT @TopherSpiro: RSVP in advance here to get notified when nationwide protests are triggered: \u000ahttps://t.co/sqUqvO1nFs
p75
aVRT @krassenstein: In 2016:\u000a70% of 18-29-year-olds DID NOT vote\u000a60% of 30-44-year-olds DID NOT vote\u000aOnly 38% of 45-64 year olds did not vote\u2026
p76
aVRT @nlyons9: @jonfavs  https://t.co/nkgH0NXDII
p77
aVRT @pattonoswalt: If you can, make your depression look like this street. Bleak and rainy but there\u2019s music and art and even comedy hiding\u2026
p78
aVRT @electrolemon: the other day @raesanni tweeted that the trump administration firings list sounded like an animaniacs song and i asked if\u2026
p79
aVRT @jdickerson: This is a great story really well done by Mark Strassmann on a school that is helping parents fight for their rights so the\u2026
p80
aVRT @JaclynCorin: Reply to this tweet with pictures of posters you\u2019ve made for tomorrow!!! \U0001f58d\U0001f44a\U0001f3fc\u2728
p81
aVRT @CynthiaNixon: \u201cWhen I announced yesterday that I\u2019m running for gov, one of Cuomo\u2019s top surrogates dismissed me as an \u201cunqualified lesbi\u2026
p82
aVRT @NorthwesternU: There is a report of a person with a gun in Engelhart Hall at the corner of Emerson Street and Maple Avenue. Evanston an\u2026
p83
aV@tommiecollins @deray He can walk my dog, who won\u2019t let me sleep past 5am.
p84
aVRT @paulkrugman: Mostly I leave the treason and corruption beats to other people. But if Trump's gonna do dumb things on trade, I'm in my e\u2026
p85
aVRT @RobertwRuncie: Why are the Parkland teens so good at this? Their public school prepared them for it.   \u000a https://t.co/YLk84y0YC2 via @s\u2026
p86
aVRT @Emma4Change: Bazaar Magazine was kind enough to offer an opportunity to write an article for them, they're really rocking it on the gun\u2026
p87
aVRT @BuzzFeedNews: Florida shooting survivors announce March For Our Lives on March 24 in support of gun control: "We've been hearing is tha\u2026
p88
aVRT @bonappetit: Weekend projects for ya https://t.co/MPU8wy6zdQ
p89
aVRT @LenaWaithe: I\u2019m doing it again!! Hurry up before showtime says \u201cno more free shit\u201d https://t.co/4s0k3gvz7j
p90
aVRT @rapoportwsj: Anyone who's ever whined that journalists take things "out of context" needs to read this story, which is all *about* cont\u2026
p91
aVRT @johnkruzel: My latest @PolitiFact \u2014&gt; https://t.co/pFJIBr9yvv
p92
aVRT @morninggloria: (sets self on fire) https://t.co/EKOi74G1NK
p93
aVRT @carlbernstein: We may look back on tonight as the Monday Night Slaughter of the administration of justice in the United States.
p94
aVRT @NetworkJunkyz: @chrislhayes @nycsouthpaw It's still TBD via SNL. https://t.co/hbXMMsxukD
p95
aVRT @FranklinFoer: I spent six months reporting this profile of Paul Manafort\u2014which is also a portrait of the Washington he created.  https:\u2026
p96
aVRT @TheStranger: In another era, Lovett or Leave It might sound like some hokey, Capitol Steps\u2013style bullshit. It\u2019s anything but.\u000ahttps://t\u2026
p97
aVRT @ArthurDelaneyHP: This great @WSJ story explains how the tax law actually works. You get a sense of what a sideshow the bonuses are. htt\u2026
p98
aVRT @MattGertz: Shep Smith just totally shattered the Nunes memo narrative his colleagues Fox News have been pushing. https://t.co/JAdkVjQOtA
p99
aVRT @flippable_org: Without voter suppression and gerrymandering, Republicans could never have won their majorities in Congress and the stat\u2026
p100
aVRT @BBerezan: Women's March Whitehorse, Yukon 2018 #womensMarch2018 https://t.co/9L2scY54b5
p101
aVhttps://t.co/xDVWv61XXB
p102
aVRT @KatzOnEarth: Lot of folks, from the alt-right to @RichLowry, think they\u2019re making a great argument in the president\u2019s defense tonight b\u2026
p103
aV@nprmonkeysee Just finished listening to this and a lot of it rang true. By the way, the first couple of years of P\u2026 https://t.co/WzeSMpqaJB
p104
aVRT @robtanchum: now the story of a wealthy family who lost everything and the one white house staff that had no choice but to keep them all\u2026
p105
aVRT @hels: It is a truth universally acknowledged, that a woman in possession of an idea on the internet, must be in want of correction.
p106
aVRT @TylerDinucci: @NateSilver538 Probably one of the few articles I\u2019ve seen recently to do that was this one. Still pales in comparison fro\u2026
p107
aVRT @TheOnion: Earth\u2019s Successful Completion Of Orbit Around Sun Inspires Woman To Reflect On Eating Habits https://t.co/3536iMiKoQ https://\u2026
p108
aVMillions Are Hounded for Debt They Don\u2019t Owe. One Victim Fought Back, With a Vengeance - Bloomberg Businessweek https://t.co/cXE6YA2gUx
p109
aVRT @RoKhanna: In Portugal, with no net neutrality, internet providers are starting to split the net into packages. https://t.co/TlLYGezmv6
p110
aVRT @MaxKriegerVG: ALSO! If you're interested in reading more about the actual design history of The Cheesecake Factory, this article does a\u2026
p111
aVRT @JoyAnnReid: If you\u2019re into it, take the @pewresearch political typology quiz to see where you fall: https://t.co/wjL2bT2q59
p112
aV@AmeliaExplores @EricHolthaus Done
p113
aVRT @benwikler: Friend saw @lisamurkowski at farmer's mkt in Anchorage this Sat. Asked re ACA. She looked him in the eye &amp; said "I will not\u2026
p114
aVRT @ASlavitt: Graham-Cassidy cuts 15% of Medicaid for people with disabilities, 29% for kids in the next 2 decades.\u000a\u000aThat's a lot of people\u2026
p115
aVRT @ASlavitt: BREAKING: Graham Cassidy repeal coverage loss, economic loss &amp; premium increases by state.\u000a\u000aSee your state...\U0001f447 https://t.co/A\u2026
p116
aVRT @jimmykimmel: Billy's helping me write tonight's monologue. I'll give our thoughts on the #GrahamCassidy health "care" bill. @BillCassid\u2026
p117
aVRT @ASlavitt: JUST OUT: Here's a summary of the Graham-Cassidy repeal. Yes, it's that bad.\u000a\u000aSpread far and wide if useful. https://t.co/Z0b\u2026
p118
aV@lenadunham I did exactly that after the Women's March in January!
p119
aVRT @yashar: Sean Hannity just now: "I talked to Julian Assange, he says it's not Russia. I just spoke to @DanaRohrabacher and he believes h\u2026
p120
aVRT @ComfortablySmug: VIDEO: George HW Bush and Ronald Reagan in 1980 debate fighting over who would be more compassionate to children of un\u2026
p121
aVRT @deray: Remember, we have reason to be skeptical of the police. We've seen their power do real harm. https://t.co/3SQDxhTgcU
p122
aVRT @PemberleyDig: Glad you enjoyed it! \U0001f604 For those who haven't watched yet, you can check it out here: https://t.co/UFkCm313UK #EmmaApprove\u2026
p123
aVRT @Chicago_Scanner: Berwyn/Laramie, in the alley
p124
aVRT @Chicago_Scanner: citizen says a few minutes ago they were running e/b north alley foster/laramie
p125
aVRT @thinkprogress: 5 immigration reform proposals that Americans actually support https://t.co/R6DWNseHZw https://t.co/OQhLc70OQL
p126
aVRT @morninggloria: America is an episode of Catfish https://t.co/mYqBCfEWw5
p127
aVRT @jonlovett: Hope everyone reads this piece by @DavidOAtkins on divides within the left. https://t.co/lVpvSGpWNK
p128
aVWhy does it matter if a COUNTY has no insurers in the marketplace? I thought they were by STATE. #AskTopher
p129
aVRT @morninggloria: This is a great read (although to be fair, there's not much improving in the killer kicker McCain prebaked in)  https://\u2026
p130
aVRT @GovHowardDean: I underestimated John McCain and I apologize. He is a maddening Maverick but he came through in the end and did it his w\u2026
p131
aVRT @YoniFreedhoff: Rings true with my experience (&amp; confirmation bias)! Low-carb v low-fat: New research says it doesn\u2019t really matter http\u2026
p132
aV@byJenAMiller @LanceHosey @nprmonkeysee Cute name, cute dog, and oh my god: those ears! Made my day.
p133
aVRT @ruralj: Commentary: The game is not over for @SenateMajLdr Mitch McConnell; here's a pretty good guess about his strategy. https://t.co\u2026
p134
aVRT @ChrisMurphyCT: CBO scored repeal without a replacement - it's a humanitarian disaster of incomprehensible scale. 32M lose insurance. Pr\u2026
p135
aVRT @sarahkliff: House Democrats just introduced a new plan to fix Obamacare.  https://t.co/8byP9KSWKF
p136
aVRT @TopherSpiro: Here's what it might look like: https://t.co/cjbC5nJwNL
p137
aVRT @DannyZuker: I love money and all, but if you think your tax cut is worth people dying because they can't get healthcare, you might be a\u2026
p138
aV@ToddGlass Yep, it worked.
p139
aV@GovHowardDean And the cheese stands alone
p140
aVRT @YoniFreedhoff: Weighty Matters: Forks vs. Feet for Obesity: The Great Debate Part II (Next Week in #Toronto) https://t.co/MuDVXjs0V8
p141
aVRT @cciccone: Dress for the job you want. #widow https://t.co/4dC1Q7GAJy
p142
aVRT @paulkrugman: This still holds up, I think. As a matter of sheer logic, R health care plans have to be disasters https://t.co/OoCG3JmHY4
p143
aVRT @chrislhayes: I am more than a little intrigued by the dateline on this article https://t.co/YqIDqFkv9f
p144
aVRT @NPR: Who are some of your favorite TV moms? #MothersDay\u000ahttps://t.co/gJtveowdDZ
p145
aV@ghweldon Yep
p146
aVRT @sarahcpr: 2016 vs 2017 https://t.co/bbxQdMoLIh
p147
aV@chrislhayes Wasn't the guy from The Big Short doing that at the end of the movie?
p148
aVRT @KenJennings: https://t.co/cxwAwiaq1H
p149
aV#fashion via https://t.co/Ztb4jNkQar https://t.co/a3abnp2MZN
p150
aVRT @mrbenwexler: republicans are the true snowflakes (they're all white, they're cold, and if you put enough of em together they'll shut do\u2026
p151
aV@GilmoreGuysShow You made my day with Nina Simone at the end of the show. Beautiful song! I've been listening to it often since Nov.
p152
aVhttps://t.co/kYrZ0WS1Zs
p153
aVhttps://t.co/2qMepoUCvo
p154
aVhttps://t.co/LqOP2e0mjk
p155
aVhttps://t.co/ixoFfSlmgO
p156
aVBritain\u2019s Economy Was Resilient After \u2018Brexit.\u2019 Its Leaders Learned the Wrong Lesson. https://t.co/vwUdqnECMq
p157
aVI'm playing WordBrain and I've just reached brain size 132! #WordBrain  #words
p158
aVALDI US - Twice-Baked Butternut Squash https://t.co/cl9sLIfFw6
p159
aVI biked 5.76 mi with @mapmyride. Check out my route in Lincolnwood, IL, United States! https://t.co/y48r3PPMy7 #bike #cycling
p160
aVJust finished week 4 day 2 of #C25K with @c25kfree! #everymomentcounts #run #running #health #fitness
p161
aVJust finished week 4 day 1 of #C25K with @c25kfree! #everymomentcounts #run #running #health #fitness
p162
aVJust finished week 6 day 2 of #C25K with @c25kfree! #everymomentcounts #run #running #health #fitness
p163
aVI walked 1.24 mi with @mapmyrun. Check out my route in Flossmoor, IL, United States! http://t.co/ay5R9coFi0 #walk #walking
p164
aVJust finished week 5 day 1 of #C25K with @c25kfree! #everymomentcounts #run #running #health #fitness
p165
aVJust finished week 5 day 1 of #C25K with @c25kfree! #everymomentcounts #run #running #health #fitness
p166
aVJust finished week 4 day 1 of #C25K with @c25kfree! #everymomentcounts #run #running #health #fitness
p167
aVI walked 1.01 mi with @mapmyrun. Check out my route in Lincolnwood, IL, United States! http://t.co/H9xXv9jcu3 #walk #walking
p168
aVI walked 1.46 mi with @mapmyrun. Check out my route in Lincolnwood, IL, United States! http://t.co/GvKhiEhskN #walk #walking
p169
aVI walked 1.99 mi with @mapmyrun. Check out my route in Lincolnwood, IL, United States! http://t.co/0oub0Gg3Jx #walk #walking
p170
aVI walked 1.36 mi with @mapmyrun. Check out my route in Lincolnwood, IL, United States! http://t.co/rR9wYDJMEm #walk #walking
p171
aVRT @garcia4chicago: One of my 1st acts as Mayor will be to go to Springfield &amp; ask the legislature to take action for an #ElectedBoardNow h\u2026
p172
aVI walked 1.13 mi with @mapmyrun. Check out my route in Lincolnwood, IL, United States! http://t.co/fBpcKI0TY2 #walk #walking
p173
aVExactly 6 years ago today! (via http://t.co/m00KmA3K76) http://t.co/oZDBMy0LkH
p174
aVI walked 1.47 mi with @mapmyrun. Check out my route in Lincolnwood, IL, United States! http://t.co/SfEy2cbjQb #walk #walking
p175
aVI walked 1.90 mi with @mapmyrun. Check out my route in Lincolnwood, IL, United States! http://t.co/OYwUzPjewC #walk #walking
p176
aV15 min eliptical http://t.co/C0HbVU8cRg
p177
aV20 min walk / run on treadmill http://t.co/BZlLbbZSca
p178
aVI walked 1.62 mi with @mapmyrun. Check out my route in Lincolnwood, IL, United States! http://t.co/0MMZiT7H43 #walk #walking
p179
aVI walked 1.84 mi with @mapmyrun. Check out my route in Lincolnwood, IL, United States! http://t.co/jMj72uJzKn #walk #walking
p180
aVI walked 1.90 mi with @mapmyrun. Check out my route in Lincolnwood, IL, United States! http://t.co/NfFhqLfv2m #walk #walking
p181
aVHere\u2019s how I played in 2014. How did you play?  #Spotify2014  http://t.co/WaHXUE1Rhm
p182
aV@cheryle66 I think you mean: #nopop
p183
aVTree skirt #doubleduty http://t.co/2TvZeUkwfZ
p184
aVI walked 1.01 mi with @mapmyrun. Check out my route in Lincolnwood, IL, United States! http://t.co/CGSCX7ZfKy #walk #walking
p185
aVRT @ThisAmerChart: What's everyone up to on Thursday? http://t.co/uWesrLll0q
p186
aVI walked 0.27 mi with @mapmyrun. Check out my route in Chicago, IL, United States! http://t.co/hiB1oOVc1j #walk #walking
p187
aV#FIATFitness http://t.co/4wlwvPRP07
p188
aVI vote at Saint Fucking Cornelius Church, where the fuck do you vote? Find out at http://t.co/TFKXyJJyRf
p189
aVThug Kitchen Cookbook Trailer (explicit) http://t.co/yo7OunhDVG
p190
aVRT @MariaLiaCalvo: #IamARepublican because http://t.co/OUXrXTRp9H
p191
aVConvos With My 2-Year-Old - "The Pants - Part II" - EPISODE 7 http://t.co/ZYhpVBeK1y via @youtube
p192
aVConvos With My 2-Year-Old - "The Pants" - EPISODE 6 http://t.co/Fu0b6jw55k via @youtube
p193
aVRT @cesweatherltr: 8/21/14: The No Boundaries group will NOT be canceling tonight\u2019s session, as we can do the Good Form Running clinic indo\u2026
p194
aVJust finished week 3 day 1 of #C25K with @c25kfree! #everymomentcounts #run #running #health #fitness
p195
aVJust finished week 3 day 1 of #C25K with @c25kfree! #everymomentcounts #run #running #health #fitness
p196
aVJust finished week 1 day 2 of #C25K with @c25kfree! #everymomentcounts #run #running #health #fitness
p197
aVJust finished week 1 day 1 of #C25K with @c25kfree! #everymomentcounts #run #running #health #fitness
p198
aV@morninggloria where do I sign?
p199
aV@WesleyLowery It seems like Westboro never follows through on these threats to protest. They just announce that they will to get attention.
p200
aV@thinkprogress When something tragic happens, people are more convinced of what they already believe. "Now, more than ever..."
p201
aV@JaniceUngaro I love border collies but they are too smart! I would not want to be outsmarted by my dog.
p202
aV@grahamclark Queen of All Saints Lip Therapy
p203
aV@KateClinton Marriage "Quality"? I didn't know that was even an option.
p204
aV@5maggiesmiths Have you considered recapping Edith Wharton's Buccaneers? This w/b from McG's era.
p205
aV@5maggiesmiths You mentioned a hermit on the podcast. I think the hermit was from Regency House Party, not Manor House. Your cousin, Aileen
p206
aVRT @TheTweetOfGod: If a tree falls in the forest and no one is there to hear it, it maketh not a damn bit of difference to the tree.
p207
aVRT @nprmonkeysee: Made-up show: BATCH, PLEASE, about a divorcee selling cupcakes out of a pink truck. Her best friend's sexy brother wor ...
p208
aVRT @TheTweetOfGod: No man is poor who has friends. Wait, no, not friends, money.
p209
aVRT @AlisonAgosti: "No, please Margaret, continue. I'd love to hear more about your dumb period." - God
p210
aVRT @ghweldon: Bugs Bunny born 71 yrs. ago today. "I want an indomitable, wise-ass drag queen -- you know, for kids." -- Jack Warner #loo ...
p211
aVhttp://t.co/YVRt2eR
p212
aV@ElinorLipman I am looking forward to your next book and am glad to have the #poemaday to hold me over. #appreciationday
p213
aVRT @ElinorLipman: Newt's speaking at a school today/\u000a& that'll be some session/\u000a"Pro-Family"--again his theme/\u000a& irony's the lesson/ #po ...
p214
aVRT @AlisonAgosti: If you really work at it, you can convince your mom that she's saying almost any word wrong.
p215
aVhttp://t.co/WgXsQ2m\u000aI remember when The SunTimes made the switch. We read the paper everyday in HS journalism class.
p216
aVhttp://t.co/vWY9mEL
p217
aVRT @TheOnion: Dead iPod Remembered As Expensive #OnionMusic http://onion.com/9UOj9W
p218
aVRT @ghweldon: When people say I never deal with my emotions I just pretend they didn't.
p219
aVRT @grahamclark: Man that kid upstairs hates baths! Hates 'em!
p220
aVRT @daveshumka: While this cold has robbed me of my sense of smell, it could not rob me of my ability to create smells. Whoa, I'm super  ...
p221
aVRT @ElinorLipman: Blagojevich, the jury's back: U can't sell seats when fones r tapped.  You're stunned? I'm not. U do annoy.  Is this w ...
p222
aViPod
p223
aVRT @maddow: Anyone else thinking it's inevitable that the Egyptian flag headband is coming to a hipster near you?
p224
aVRT @daveshumka: I just found out that "amused" and "bemused" don't mean the same thing, and I literally don't know how to feel about it.
p225
aVTo Sen. Roland Burris: Health insurance reform can't wait any longer http://bit.ly/IlDEn #hc09 #IL #60630
p226
aVPlease fight for real health care reform that includes a public option.
p227
aVI am signing up for twitter.
p228
a.