(lp0
VRT @masterpiecepbs: Great idea! \U0001f60d #PoldarkPBS https://t.co/nCbQrATpzy
p1
aVRT @TallShipProds: The cast sang this song at our table read/read thru (lead by @dundlejuice who has a wonderful voice!) and everyone got t\u2026
p2
aV@OutlanderCostum Yes, watch Maril\u2019s comments about homespun vs. wool. My family was from Paterson NJ where Hamilton\u2026 https://t.co/tMWImLj62f
p3
aV@TallShipProds @Outlander_STARZ You\u2019ll have to fit one in somewhere - doesn\u2019t Scotland have a hotel with a steam room or sauna near a river?
p4
aV@Lawrence At home in a Chicago suburb, thrilled and delighted. My son was in the crowd. Happy Days!!!
p5
aV@vakellym @Yr_Obt_Svt @Writer_DG Great minds think alike!
p6
aV@Yr_Obt_Svt @Writer_DG #BadBabyBonnet
p7
aV@DebsterPA1 @Writer_DG @Outlander_STARZ @SamHeughan @caitrionambalfe Those saggy pants from the opening scenes will not catch on, however.
p8
aV@donnellylaura1 @Dawn0606 @TheMattBRoberts @TallShipProds @RonDMoore @Outlander_STARZ You have many wonderful thing\u2026 https://t.co/uMlz5Ym0kw
p9
aV@Yr_Obt_Svt @Writer_DG Bird sounds are so local! How wonderful.
p10
aVRT @Comey: VOTE in 2 days: \u201cElections belong to the people. It's their decision. If they decide to turn their back on the fire and burn the\u2026
p11
aV@Beathhigh Fixed it for you! https://t.co/QyYyQvoSnL
p12
aV@Beathhigh Wait, you need a photo with a canted angle!
p13
aV@Outlander_STARZ @STARZ Loved it!
p14
aV@Writer_DG My husband read the first book years before I did, because of its time-travel, action, and adventure ele\u2026 https://t.co/T1D2TPSc3c
p15
aV@billyeichner Don\u2019t ignore - just don\u2019t rely on them. Fortunately no electoral college to worry about this go-round .
p16
aV@Writer_DG Almost never are they the same - true in the newspaper world too. A frequent source of teeth-gnashing.
p17
aV@ChristianBrasso @masterpiecepbs A terrific interview - especially the description of the ahem #footfail demise.
p18
aVRT @ChristianBrasso: I did an interview with @masterpiecepbs, if you wanna read it like #Poldark #PoldarkPBS #cake https://t.co/ksIwdoGF4e
p19
aVRT @CBSNews: WARNING: This video of Congressman John Lewis dancing may make you @Pharrell -level "Happy." \U0001f3b5 \u000a\u000ahttps://t.co/dCkruFhERd https\u2026
p20
aV@AriMelber #candycorntoo Yes! Another candy corn fan.
p21
aVRT @caitrionambalfe: Loved hanging with @JimmyKimmel at @JimmyKimmelLive tonight! #Kimmel #ABC There are only 5 more sleeps till @Outlander\u2026
p22
aVRT @OutlanderOnline: Another NEW Media Pic of @caitrionambalfe on Jimmy Kimmel Live https://t.co/IpwLpcBScW https://t.co/nPzr9yTmjG
p23
aVRT @OutlanderHQ: This!! \U0001f447\U0001f3fb\U0001f447\U0001f3fb\U0001f603 https://t.co/AdBTDgFR78
p24
aV@OutlanderCostum My mother used to darn! Somewhere I may have her darning egg. Had to keep those woolen socks mended!
p25
aV@aj10_17 @Writer_DG Mr. X and Dr. Hill, we are happy to invite you to.... or Dr. Hill and Mr. X, ....
p26
aV@missy_el @RevRichardColes My bad, my bad, my baddest bad.
p27
aV@msalisa315 I loved it!
p28
aV@Writer_DG Had a professor (Paul Fussell), admirable in many ways, who didn\u2019t like \u201cMs.\u201d and called all the women \u201c\u2026 https://t.co/Z23epTrYL3
p29
aVRT @BarackObama: Your vote can decide the health care of millions. Your voice can determine the character of our country. You have power \u2014\u2026
p30
aVRT @KatyTurNBC: Happy Birthday to the best role model and mentor a gal could ask for. I hope it\u2019s filled with lots of love and even more m&amp;\u2026
p31
aVRT @Writer_DG: Um...because I'm Hispanic? \U0001f914  or at least the paternal half of my DNA is... https://t.co/stL0e7ZnzP
p32
aV@RobinPoldark Glad to hear it!!!
p33
aV@jill_millander People are reading too much into chair placement! By the way - those water bottles aren\u2019t exactly h\u2026 https://t.co/SEFLbWdl9z
p34
aVRT @OutlanderOnline: Fave pic of out of all of them! #Outlander #OutlanderPremiere https://t.co/rDqN8j3IlG
p35
aVRT @billyeichner: IF YOU\u2019RE 18 OR OVER AND YOU HAVE TIME TO DRESS UP FOR HALLOWEEN, YOU HAVE TIME TO VOTE.
p36
aV@masterpiecepbs Maybe a candlestick?
p37
aVRT @masterpiecepbs: "To be strong is weakness. Pain should not be avoided... tears must fall." -Ross, trying to comfort Caroline \U0001f622 #Poldark\u2026
p38
aV@letusbkind @Outlander_STARZ @JohnBell @RikRankin @SkeltonSophie @SamHeughan @caitrionambalfe @RonDMoore Say \u201cgalli\u2026 https://t.co/qx8IlFW8zL
p39
aVRT @CassSunstein: President Trump's vicious, hateful rhetoric increases the risk of violence. (Note: It is no rebuttal to this claim to poi\u2026
p40
aV@Outlander_STARZ @SkeltonSophie @RikRankin No! It\u2019s Roger\u2019s fault! Or Jamie\u2019s! Or Bonnet\u2019s!
p41
aVRT @caitrionambalfe: Check mate ! @Outlander_STARZ @SamHeughan #Frasers #Outlander https://t.co/vSJg8o1Jzv
p42
aVRT @OutlanderCostum: https://t.co/l62RfQFwWZ
p43
aVRT @SCADdotedu: The @Outlander_STARZ cast and crew arrived in style, and got the crowd excited for tonight\u2019s Season Four premiere! @SamHeug\u2026
p44
aVRT @LUnderwood630: #TeamUnderwood had an amazing time at the #SycamorePumpkinFestival Parade. Our crew included eagles, multiple President\u2026
p45
aVRT @masterpiecepbs: Reunited and it feels so good! #PoldarkPBS https://t.co/B8mIBKEljC
p46
aV@NBCNews Got my flu shot today! #VaccinesWork
p47
aVRT @OutlanderHome: From @FFASiteTweets https://t.co/PYz4AkMHsO
p48
aVRT @OutlanderHQ: #ScadFilmFestival https://t.co/6z1dcoJVUJ
p49
aVRT @OutlanderCostum: https://t.co/Q2AP5MiRzS
p50
aVRT @OutlanderHQ: That\u2019s ok, we won\u2019t tell! \U0001f60f https://t.co/MppB8xMrS6
p51
aVRT @caitrionambalfe: But what if you only watch reruns and never go to sleep ..!!!???????!!!! #Frasers #Outlander https://t.co/TXmOqWx8VU
p52
aV@LUnderwood630 Go Lauren! You\u2019ve got this! #LUnderwood630 #BlueWave2018
p53
aV@RobinPoldark Is she credited by WaPo?
p54
aVRT @JoyAnnReid: .@CapehartJ and I were talking about how it was one of the most moving presidential moments in recent memory. https://t.co/\u2026
p55
aVRT @KatyTurNBC: Husband: Today\u2019s our anniversary? I thought it was tomorrow. \u000aMe: It\u2019s today. \u000aHusband: really?\u000aMe: I sent you an invite!\u000a(\u2026
p56
aV@JennyBoylan Those of us who love travel writing will never forget Jan Morris!  Everest is only one of the mountains she climbed.
p57
aV@scalzi Lots of love for libraries here! Many libraries are happy to take your suggestions and order books, too - t\u2026 https://t.co/VyJuF09nLz
p58
aVRT @MilekaLincoln: Local veterinarians warn #Hawaii hikers may not be aware of potential heat exhaustion/stroke danger for their dogs, espe\u2026
p59
aVRT @Poldarked: #POLDARK scene S4 Ep5\u000aMonk Adderley and Ross Poldark have an unexpected run in. See an exclusive scene from Episode 5 via @m\u2026
p60
aV@ledfut40 @Yr_Obt_Svt @Writer_DG Work out differently.
p61
aVRT @maddow: Read this on North Dakota -- really, it's worth your time.\u000a\u000aThen tell me why on earth you think the state GOP went out of their\u2026
p62
aVFor #Outlander fans, the emoji is pretty exciting!
p63
aV@OutlanderOnline Just want to try out #Outlander to see if the emoji appears!
p64
aV@RealRonHoward A great actress as well!
p65
aVRT @RikRankin: I loved filming this scene with you @SkeltonSophie. #OutlanderS4 https://t.co/iQx6Vfnjoi
p66
aVRT @Outlander_STARZ: Hey.\u000aWe just wanted to take another look at this emoji.\u000a\u000a#Outlander #Outlander #Outlander #Outlander #Outlander #Outla\u2026
p67
aVRT @OL_America: Thanks for the emojis, #Outlander!  Can't wait to see #TheFrasers in Season 4!!!!!\u2764\ufe0f\u2764\ufe0f\u2764\ufe0f\u2764\ufe0f\u2764\ufe0f https://t.co/J539JV4KB7
p68
aVRT @SamHeughan: Oh shoot!!!! \u000a\u000aWE HAVE AN EMOJII!!!!!!!!!!!!!!?\u000a\u000a#outlander #TheFrasers #HowDoIGetIt
p69
aV@jdickerson Tell us more?
p70
aVRT @DavidSchwimmer: Officers, I swear it wasn't me.\u000aAs you can see, I was in New York.\u000aTo the hardworking Blackpool Police, good luck with\u2026
p71
aV@Writer_DG Your love scenes are considerably more detailed, and a lot more fun.
p72
aV@Writer_DG Something your books and McMurtry\u2019s Lonesome Dove have in common is that they are long, but so engaging\u2026 https://t.co/swX1SgPZfh
p73
aV@kim45607978 @theferocity Oooh that\u2019s my other favorite!!!
p74
aV@theferocity My fave is the two-tone Dior-inspired outfit - tight-waisted jacket over a long skirt.
p75
aV@jdickerson I love that so many people said get a library card! Such a great resource for us all.
p76
aV@JoyAnnReid Aaaaaaccckkkk!
p77
aVRT @MoveOn: Ben and Jerry unveil 7 new ice cream flavors to power progressives to victory in the midterm elections!\u000a\u000a@YoBenCohen @AftabPure\u2026
p78
aV@WSJ You need to add Sketchnoting!
p79
aVRT @_SJPeace_: My heart \u2764\ufe0f\u000a\u000aWatch this little girl try so hard to get Alexa to play her jam #babyshark \u000a\u000aThis is so cute\u000a\u000aRETWEET! https://\u2026
p80
aV@NorgeIan @Writer_DG Sonnet 73!
p81
aV@jdickerson Get a library card. Go to a city council meeting. Register to vote. Find out if your neighborhood has a\u2026 https://t.co/1bPfn2ImNl
p82
aV@SamSykesSwears I feel the same about my big calendar in my little house. Kitchen? Dining room? (Not appetizing, bu\u2026 https://t.co/Z8FLjH9gvf
p83
aV@TimDownie1 @Writer_DG @EricIdle Just saw him a few weeks ago! I\u2019m reading his book.
p84
aV@Writer_DG Yes, it does look dried up, as many have said. Take a pass, but it might be fun just to dissect it!
p85
aV@Writer_DG Rambutan! Similar to a lychee. I\u2019ve had them in Hawaii.
p86
aV@SamSykesSwears @Writer_DG @ohcararara And monsters have to come out of our imaginations - our nightmares - because\u2026 https://t.co/X9PDBuTosd
p87
aVA great video! https://t.co/WZgkYhBWKs
p88
aVRT @BVGSRowing: This note was left on the gate at the water this afternoon. No name or number left but whoever you are, rest assured your r\u2026
p89
aVRT @DebsterPA1: Happy 100th Birthday to one of Literature\u2019s &amp; Television\u2019s most outstanding characters, Claire Elizabeth Beauchamp Randall\u2026
p90
aVDo you think Claire and Jamie need some more #joshuahorowitz marital therapy? I do!  #Happy100Claire
p91
aV@caitrionambalfe Do you think Claire and Jamie need more #joshuahorowitz therapy? I do!
p92
aV@screenscots @OutlawKing @ScotGovFM @sigmafilms @NetflixUK @culturescotgov @CreativeScots @TNLUK @LottoGoodCauses\u2026 https://t.co/BVWaQcYaWT
p93
aVRT @MoveOn: .@YoBenCohen has unveiled the newest flavor of ice cream for #MoveOn endorsed candidate @LUnderwood630!  Our members loved thei\u2026
p94
aVRT @caitrionambalfe: Tick tock, tick tock..... https://t.co/YFmA4i71RW
p95
aVRT @BarackObama: The last presidential election turned on fewer than 100,000 votes in three states. More people go to Coachella. There\u2019s no\u2026
p96
aVRT @caitrionambalfe: Getting closer...... https://t.co/2Yx2EDztxX
p97
aV@djhenshall Read Paul Fussell\u2019s \u201cThe Great War and Modern Memory.\u201d My grad school prof.
p98
aVRT @AntonyDent: The best common app essay I\u2019ve ever read.  https://t.co/lgaKYIh750
p99
aVRT @caitrionambalfe: What ya\u2019ll don\u2019t know is that when Sam is off sick, I regularly don the wig, do the voice and be Jamie !!! (Same appli\u2026
p100
aVRT @LUnderwood630: .@YoBenCohen and @benandjerrys got my ice cream flavor exactly right: Apple pie with peanuts, pecans, a "care"-a-mel swi\u2026
p101
aV@VictoriaSeries False. A series of books by Victoria would already have spawned 1000 dissertations, all named \u201cVictoria\u2019s Secret Novel(s).\u201d
p102
aVRT @Variety: Jenifer Lewis called out Melania Trump, Lindsey Graham and Kanye West in her #PowerofWomen speech (Watch) https://t.co/UObe95a\u2026
p103
aVRT @Outlander_STARZ: Nothing can stop these two. #Outlander https://t.co/IiDihDS05u
p104
aV@JohnBell That kind of memory is a great asset for an actor!!! Well done! #outlanderskills
p105
aVRT @sirensalvage: @JohnBell #schooled Here\u2019s you naming every Country https://t.co/M5AyHhNIZB Next interview The States and their Capitals
p106
aVRT @JohnBell: When you can name all 50 states AND their capitals... #amateurs \U0001f609 https://t.co/GfYgJBLCQb
p107
aVRT @bittynarry: Caitriona is so soft when she talks about Sam https://t.co/0n5p9b97b0
p108
aV@caitrionambalfe You\u2019re going to meet George Washington. Maybe in Bees you\u2019ll meet John Adams and Thomas Jefferson!\u2026 https://t.co/V7pGhwi5oW
p109
aVRT @YoBenCohen: We had an amazing time in Naperville with @MoveOn scooping ice cream to support @LUnderwood630 for Congress #BlueWave -- Wh\u2026
p110
aV@YoBenCohen @MoveOn @LUnderwood630 It was terrific! Thank you for being there.
p111
aVRT @JKCorden: John Lennon was born today. This clip will bring a smile to your face, I promise you that x  https://t.co/3EVkKkdakl
p112
aV@outlanderpod I can\u2019t limit it to one - no doubt the braw pair, Caitriona Balfe and Sam Heughan!
p113
aVRT @ava: Raising my hand to vote for Vardaian and Dashian and Bigelowesque. Where they on the ballot? \u270b\U0001f3fe https://t.co/OZ4BPq2cSa
p114
aV@Writer_DG Now if you had a pizza, you\u2019d be fine.
p115
aV@Writer_DG Good thing you weren\u2019t using Abundance Volumizing or Scalp Benefits!
p116
aVRT @Poldarked: On this day in 1975 the very first episode of TV's original series of  #Poldark  aired on @BBCOne starring @RobinPoldark as\u2026
p117
aVRT @joshuahorowitz: Mesmerizing and horrifying all at the same time. Well done. @caitrionambalfe @SamHeughan https://t.co/JnlBlxQjmz
p118
aV@bearmccreary @Writer_DG A New World with new people.
p119
aV@bearmccreary @Writer_DG Love the Appalachian banjo twang - is this just a smidge slower than the previous Skye Boat song?
p120
aVRT @sammielynne19: The magnificent @EricIdle came and ate dinner at my job last night and meeting him left me speechless https://t.co/umEVQ\u2026
p121
aV#NewProfilePic https://t.co/9uy2coGjF9
p122
aV@Outlander_STARZ @OutlanderHome @SamHeughan @caitrionambalfe Clever wordplay - changing the Shakespearean-Orwellian\u2026 https://t.co/88S7O16E5d
p123
aV@SamHeughan Please - we need more therapy! It\u2019s a monstrous time!
p124
a.