(lp0
V@LinesDen34 @Lines_Principal @LINES_PE Looks like everyone is having a blast ! Thank you chaperones :)
p1
aV@Lines4MG I vote for chasing Vermeer
p2
aV@Lines4MG I can't seem to find the place to vote ? What am I doing wrong ?
p3
aVGo Pack!!!!
p4
aVHave a great weekend @Lines4MG!
p5
a.