(lp0
V@FirestoneAuto I had a battery replaced 1 year ago.  I spent $230 for the battery  My battery is dead now and my ca\u2026 https://t.co/eLPEntRjXS
p1
aV@heathcummingssr I am in a 12 team ppr league.  I need to keep 2: Roethlisberger, C. Palmer, and Mariota?  Thanks!
p2
aV@daverichard I am in a 12 team ppr league.  I need to keep 2: Roethlisberger, C. Palmer, and Mariota?  Thanks!
p3
aV@JameyEisenberg I am in a 12 team ppr league.  I need to keep 2: Roethlisberger, C. Palmer, and Mariota?  Thanks!
p4
aV@MikeFlorioPFT , I'm in PPR 12 team keeper league.  I need to drop either corey davis or alex collins.  Who do I keep? Thx!
p5
aV@heathcummingssr , I'm in PPR 12 team keeper league.  I need to drop either corey davis or alex collins.  Who do I keep? Thx!
p6
aV@daverichard , I'm in PPR 12 team keeper league.  I need to drop either corey davis or alex collins.  Who do I keep? Thx!
p7
aV@JameyEisenberg , I'm in PPR 12 team keeper league.  I need to drop either corey davis or alex collins.  Who do I keep? Thx!
p8
aV@SI_Fantasy Need to drop 1 in a 12-Team PPR "KEEPER" league. Ameer Abdullah, Nelson Agholor, or Christine Michael? Thanks guys!
p9
a.