(lp0
VRT @stephaniew1978: @IllinoisReview @FRCAction hell no!!!   vote roskam!  #VoteRedToSaveAmerica https://t.co/M0E49ZM9qZ
p1
aVTrump and Roskam will END PRO-CHOICE laws. Vote Peter Roskam!! #IL06 https://t.co/3cPXsL2fNl
p2
aVPeter Roskam is the only choice for #concealedcarry advocates in Illinois 6th. The NRA endorses Roskam in #IL06 and\u2026 https://t.co/gFTqgbhW63
p3
aVAgain, he makes a great point! VOTE Roskam in #IL6 to END baby-killing "choice" laws. #MAGA #election #Roskam2018\u2026 https://t.co/YRFuGJwS1k
p4
aVRT @PeterRoskam: This would be a great time for @HillaryClinton to release her emails.
p5
aVRT @PeterRoskam: "How many more times are we going to repeal Obamacare? One more time" #POLITICOTaxReform https://t.co/ljX7tnVP5a
p6
aVRT @PeterRoskam: I'm honored to serve as @WaysandMeansGOP Tax Policy Chairman during the 115th Congress. https://t.co/p5HmfuWpSr
p7
aVRT @PeterRoskam: Thanks to Obamacare, we have fewer choices and higher costs.
p8
aVPeter Roskam and Trump will work to END pro-choice policies. Vote Roskam to Make America Great Again! #il6\u2026 https://t.co/DbetGIpYRH
p9
aVRT @PeterRoskam: I voted to responsible repeal and replace #Obamacare. https://t.co/gWbylAlwQb
p10
aVRT @NWSideTeaParty: @PeterRoskam Thank you for voting to REPEAL OBAMACARE and standing with President Trump! I don't want to pay for pre-ex\u2026
p11
aVRT @NWSideTeaParty: We can send a true #2ndAmendmentRights and #ConcealedCarry advocate to Springfield! Elect Ammie Kessem for the Illinois\u2026
p12
aVRT @RealAmmieKessem: Thank you President Trump! Back the Blue! https://t.co/0aBZ3XCBLB
p13
aVRT @LibertyHangout: We stand with @KaitMarieox and the 2nd amendment. There are no other rights without the right to bear arms. Get your me\u2026
p14
aV@PeterRoskam Thank you for voting to REPEAL OBAMACARE and standing with President Trump! I don't want to pay for pr\u2026 https://t.co/ynAHe0HU7f
p15
aVRT @stopERAagain: The Anti-Family ERA passed in #Illinois with support of GOP @Dan_Brady - who pretends he\u2019s #ProLife.\u000a\u000aWhy does Brady thin\u2026
p16
aVSUPPORT PRESIDENT TRUMP! VOTE ROSKAM! Peter Roskam has voted with our President Trump over 90% of the time. Please\u2026 https://t.co/ULwUDQYTMp
p17
aVWe can send a true #2ndAmendmentRights and #ConcealedCarry advocate to Springfield! Elect Ammie Kessem for the Illi\u2026 https://t.co/B297tNG1Af
p18
aVRT @AndyChatt12: 2nd Amendment \U0001f60e\U0001f1fa\U0001f1f8 https://t.co/FJNWJ2aeUk
p19
aVRT @USAforTrump2020: "We're not going to let people come into our country who are going to destroy our country. And that may or may not be\u2026
p20
aVCalling All TEA PARTY Patriots: Jeffrey LaPorte will work to stop illegals getting free healthcare on our dime. He\u2026 https://t.co/EvVcogRR3m
p21
aVCalling ALL Tea Party Patriots: Jeffrey LaPorte stands with the Tea Party. VOTE LAPORTE in IL 19!\u000a#teaparty\u2026 https://t.co/B62ANUDL7G
p22
aVWe need Jeffrey LaPorte in IL 19! Protect your 2nd Amendment rights! Martwick believes in gun control and must be s\u2026 https://t.co/mikkuWY0cH
p23
aVRT @Tactical_review: I know I do, how about you?\u000a#tactical #ConcealedCarry #handgun https://t.co/cViaj0ft0P
p24
aVRT @NRA: In the end, carrying concealed is about wanting to protect oneself and those closest to him or her. It isn\u2019t about wanting to be i\u2026
p25
aVRT @dogwhisperer94: ICE them down....#DeportThemAll https://t.co/XRtgfjspNP
p26
aVRT @Tactical_review: It's kind of like a life vest. You never think you need one, until you do.\u000a#ConcealedCarry #patriot #2ADefenders https\u2026
p27
aVRT @Tactical_review: Found this in some of my old work, so I had to share it.\u000a#patriot #ConcealedCarry #gunsense #GunControlNever https://t\u2026
p28
aVRT @jihchs: We cannot arm teachers \u000a\u000aIt\u000a   Violates \u000a       The \u000a            Rights \u000a                 Of\u000a                     The\u2026
p29
aVRT @SonyaSone7: @realDonaldTrump Build the Wall! End Chain Migration! End Visa lottery! No Amnesty for Illegal aliens! Deport all Illegals!\u2026
p30
aVRT @JeanneIves: "Ives sees herself as leading a conservative insurrection against the governor." @ILTimes #ILRevolution https://t.co/REYWdk\u2026
p31
aVRT @guncultureworld: Students Who Survived the Florida School Shooting Are Being Coached and Financed By Gun Control Groups To Help Push Th\u2026
p32
aVhttps://t.co/jI4ON3MoD7
p33
aVRT @JeanneIves: To the President and Attorney General Sessions, Rahm Emanuel doesn\u2019t want you here. Bruce Rauner doesn\u2019t want you here. Com\u2026
p34
aV@JeffParkForward Please help us elect a true #2ndAmendment supporter who will work to stop giving free healthcare t\u2026 https://t.co/8hyEMyigfK
p35
aVRT @scrowder: Right on =&gt; Dana Loesch Flawlessly Debunks \u201cGun Free Zones\u201d https://t.co/AHcvLX6i6B https://t.co/5dBSHJSgzR
p36
aVWe can send a true #2ndAmendmentRights and #ConcealedCarry advocate to Springfield! Elect Jeffrey LaPorte for the I\u2026 https://t.co/8tSruA5cej
p37
aVRT @TSydorenko: ILLINOIS RESIDENTS: Early voting has begun... Check out Jeanne Ives for Governor! She got an "A" report card from the NRA..\u2026
p38
aVRT @RealDonaldTrFan: Crazy Georgia teacher who fired gun in school is the perfect example of why we should ALLOW students to carry guns to\u2026
p39
aVRT @USACarry: Concealed Carry in Church and Houses of Worship\u000a\u000ahttps://t.co/BXB2I9y2wV\u000a\u000a#firearms #guns #concealedcarry #ccw #alwayscarry #\u2026
p40
aVRT @IllinoisTea: TOMMORROW! The 7th Annual .@ChicagoTeaParty @IllinoisTea #TAXDAY Rally at @ArcadaTheatre  #ilgop #tcot #teaparty http://t.\u2026
p41
aVJohn Garrido stands with the Tea Party. Vote Garrido today in 45th! #teaparty #concealedcarry #votegarrido #45thward http://t.co/Uv1bXGHk8R
p42
aV@kylehillman Yes, we are working to get a concealed carry advocate &amp; true Conservative on the council in #45thward #votegarrido
p43
aVRT @JohnGarridoIII: Considering conceal carry? Who better to train you than CPD officers with years of experience training officers.   http\u2026
p44
aV.@GladstonePkBiz @JeffParkChamber Please help us elect a Tea Party Patriot for the 45th Ward. #votegarrido #45thWard #jeffpark
p45
aVWe need your help to push us across the finish line. Please join us on April 2 at La Villa. #TeaParty  #VoteGarrido http://t.co/xV74JeAa7G
p46
aV@leahraf @ChicagoKenji Vote Conservative values and 2nd amendment rights in the 45th Ward. Now is our time. #votegarrido #teaparty
p47
aV.@KatherineSpecia Help us get Tea Party representation on council. John Garrido will stand up for #concealedcarry #votegarrido #teaparty
p48
aVRT @IllinoisTea: 7th Annual #Chicago .@IllinoisTea #TeaParty Rally on 4/15/15 from 4-7pm @ArcadaTheatre http://t.co/VklYFm0C6V #tcot #ILGop\u2026
p49
aVRT @2ANow: Carry on Carry Often Carry Everywhere\u000a#2a http://t.co/9h1MmLOTcT
p50
aVRT @surfermom77: @CarmineZozzora: Spine-chilling thoughts and terrifying images. http://t.co/TML7Ae8yGn
p51
aVJohn Garrido (45th Ward) outlines best way for Tea Party to get elected in Chicago: http://t.co/099thaYdgP #votegarrido #TeaParty #45thward
p52
aVRT @TPPatriots: Join us at the @YALiberty Michigan State Convention this Saturday from 9am-7pm! More info: http://t.co/0E6o802Bmt #teaparty
p53
aVRT @Stonewall_77: #TedCruzCampaignSlogans Via @Gud_Bwa_Fon\u000a\u000aTAKE THE CROOKS TO JAIL\u000a\u000a\U0001f1fa\U0001f1f8 #WakeUpAmerica #TedCruz2016 #tcot \U0001f1fa\U0001f1f8\u000a #Hillary http\u2026
p54
aVWe need a gun rights advocate on the city council. Please vote John Garrido in the 45th Ward and stand up for Concealed Carry!! #TeaParty
p55
aVRT @Dansmets19: http://t.co/Zqgnn4eA4p
p56
aVRT @TedCruzForPrez: We don't have to wait for @tedcruz to fulfill promises. He's already been fighting #RedNationRising#tcot http://t.co/qE\u2026
p57
aVRT @sunnyherring1: #Halperin #Bloomberg="#HillaryClinton Running Agnst Self &amp; Kinda LOSING!"!http://t.co/HK1cbYEvPK #Miami #SanFrancisco ht\u2026
p58
aVRT @LindaSuhler: I like my conservatism straight up &amp; UNDILUTED!\u000a\u000a#TedCruz2016\u000a#WakeUpAmerica\u000a\u000a#SisterPatriots\u000a#LNYHBT\u000a#TCOT\u000a#CCOT http://t\u2026
p59
aVRT @Conservative_VW: I am glad to see @SenTedCruz throw his hat into the ring \U0001f44d\U0001f60a\u000a\u000aLiberals are scared\u000a\u000a#TedCruzPutsDemocratsInPanicMode htt\u2026
p60
aVRT @guncultureworld: Idaho's Flurry Of Concealed Weapons Bills Reflects National Gun Trend \u000a\u000ahttp://t.co/CQZ8va2Erq #2A #GunRights http://t\u2026
p61
aV.@EmilyMargosian Please help us get a Tea Party Patriot on the council! Tell your friends to vote John Garrido in 45th Ward! #votegarrido
p62
aVRT @TeaPartyExpress: #MakeDCListen! @tedcruz http://t.co/jtMU6rasEf
p63
aVRT @ScarlettDear1: #Cruz is coming and hell's coming with him! \u000a\u000a\U0001f61c\U0001f4a5\U0001f440BOOM!\U0001f4a5\U0001f440\U0001f61c\u000a\u000a#45\u000a#Cruz2016 \U0001f4a5\U0001f1fa\U0001f1f8\U0001f448\U0001f4a5\u000a\u000a#WakeUpAmerica http://t.co/OduqRn4Sta
p64
aVRT @LindaSuhler: Dems On Cruz Pres Campaign Announcement: 'Sent Shivers Down' Our Spine [GOOD!]\u000ahttp://t.co/xCuBpdW6FG\u000a#TedCruz2016 http://\u2026
p65
aVRT @WhoisJohn_Galt: @now7grandkids here we go.  the fear of Cruz is apparent http://t.co/6mE29BQR0i
p66
aVRT @GunOwners: Meet one of our previous winners!\u000aStay tuned for information regarding GOA's Mother's Day gun give-a-way. #2A http://t.co/MI\u2026
p67
aV.@trelliott @WillCaskey Got Chicago Forward piece in 45th Ward - THANKS! Defeat all Democrats!  #chicagoelection2015 http://t.co/WjluQtOiqz
p68
aVPlease help us elect a True Conservative to the city council in the 45th Ward. #votegarrido #chi2015 #45thward http://t.co/mt1nE6u60Y
p69
aV.@MicheleSingleL We can get a true Conservative on the City Council. Please help us support John Garrido in the 45th! #concealcarry
p70
aVRT @BarneyFranken: #GOPHatesPoorPeople? Nah. More like #DemocratsLovePoorPeople: As in, they want as many of them as possible. #tcot http:/\u2026
p71
aV. @WillCaskey Thank you Chicago Forward for supporting John Garrido in the 45th Ward. Please continue the good work. #votegarrido #TeaParty
p72
aV.@trelliott Thank you Chicago Forward for supporting John Garrido in the 45th Ward. We appreciate all you've done! #votegarrido #TeaParty
p73
aVRT @CSteven: The stuff nightmares are made of. Kevin James on the left excluded. I loved him in King Of Queens and Mall Cop #tcot http://t.\u2026
p74
aVRT @RainierArms: LWRCi SBR!!! Such a beauty!!! http://t.co/zu9zfYS7Pu
p75
aVRT @isurvivalskills: Lewis Machine and Tool MWS #2A #UnitedWeStand #GunPorn http://t.co/S5J1kq6EJa
p76
aVRT @TPPatriots: Sign up now and we'll call you when our tele town hall with @ScottWalker tonight at 8PM EDT! http://t.co/DDzXORyfai http://\u2026
p77
aVRT @CalFreedomMom: He doesn't change positions.\u000a.@SenTedCruz holds firmly to govt according to the #Constitution: http://t.co/P6nfbjppeh ht\u2026
p78
aVRT @MarkLawlessLC: MT @ChuckNellis: From our cold dead hands! #NRA http://t.co/Oyvbtg8st4 #2A #PJNET
p79
aVRT @glennbeck: . @SenTedCruz: I was in IA...Tomorrow, I'm flying to SC. The next day, I'm going to NH. http://t.co/IAeRy0lsVz http://t.co/j\u2026
p80
aV@charliehigher @c99x Please help us get John Garrido on the Chicago City Council from the 45th Ward. #votegarrido #voteteaparty
p81
aVRT @TPPatriots: Celebrate 6 years with us + help raise an unprecedented amount of funding! http://t.co/xwcusQUCF2 #teaparty http://t.co/sph\u2026
p82
aVRT @DineshDSouza: Yes! Wisconsin becomes the 25th state to pass right-to-work legislation outlawing coercion &amp; forced union dues  http://t.\u2026
p83
aVRT @Heritage: 25 States Are Now #RightToWork States - @JamesBSherk http://t.co/YPaqEk0QMO http://t.co/4UlssHNuF2
p84
aVRT @ChristiChat: #WakeUpAmerica\u000a\u000aNO AMERICANS\u000abelieve her LIES!\u000a\u000aWe have multiple emails\u000afrom different servers on\u000aour Devices! \U0001f4f2\U0001f4e7\U0001f4bb\U0001f4f1 http:/\u2026
p85
aVRT @Conservative_VW: Latest Quinnipiac University Poll shows that FoxNews is the most trusted Network\u000a\u000athat's cuz all the rest HIDE NEWS\u203c\ufe0f\u000a\u2026
p86
aVRT @RacingMason13: "@FN_SCAR_FanClub: What FN #SCAR Set Up Is To Your Liking?\u000a#2A #GunRights #GunPorn #Rifle #Molon_Labe http://t.co/0t3n8b\u2026
p87
aVRT @NatlGunRights: Stop the UN Gun Ban! Click below to sign your petition RIGHT NOW!  https://t.co/oVWlsf8xa3
p88
aVRT @NicholasTRyan: Strong showing by @RickSantorum.  See all my grades at http://t.co/BzZJh3ziEN http://t.co/xc2t9QjKmc
p89
aVRT @FoxNews: Show highlights fashionable ways to safely conceal guns http://t.co/fj9iYBmzc0 http://t.co/xtka4eyx1J
p90
aVRT @scrowder: Too many. =&gt; The Top 7 Hillary Clinton Lies That The Liberal Media\u2019s Trying To Hide\u2026 http://t.co/4YbbiFauWL http://t.co/ZhTAo\u2026
p91
aVRT @CalFreedomMom: #BenedictBoehner cuts backroom deal with Nancy Pelosi to pass budget for executive amnesty http://t.co/NqsBXTAIw7 http:/\u2026
p92
aVRT @jjauthor: DemocRAT Paradise! #tcot #WakeUpAmerica @peddoc63 @DrMartyFox @KarenMonsour12 @ericbolling @surfermom77 @ritzy_jewels http://\u2026
p93
aVRT @jimcc66: MT @AZWS: Tyranny - that which is legal for the government but illegal for the citizenry. http://t.co/mbuMZZ1cQm #2A #AR15 #PJ\u2026
p94
aV@Strannik_REB45 Rahm probably thinks no one will take JG seriously because he's GOP. Thanks for supporting the movement Rahm! Heh heh...
p95
aV@Strannik_REB45 Yes, Rahm is a caricature but this entire city gov't is a cesspool. Glad he's spending money on a Republican.
p96
aV@Strannik_REB45 Rahm is supporting us with his Super PACs. Hope it counteracts the big money Arena gets from the union thugs and Liberals.
p97
aV@Strannik_REB45 Social issues are deal breakers for me too and that's why I support JG.
p98
aV@Strannik_REB45 HEY - you should reconsider. We need a real Conservative on the council. Rauner was the first step in IL - More to come!
p99
aV@Strannik_REB45 He was a featured speaker at our event a few years ago. Wish I could find the video, he was good: https://t.co/XxkdCIeM4G
p100
aV@Strannik_REB45 He believes in cutting government as any good Conservative does. That is why the choice is clear: http://t.co/NNpOOhGBhD
p101
aV@Strannik_REB45 \u201c He's prolife, progun, and against gay marriage\u201d http://t.co/hSCc7e7JsT
p102
aV@Strannik_REB45 More than Half &gt; NONE (liberal Arena). John Garrido is with us on cutting gov't, gun rights, preservation of marriage.
p103
aV@mrmurphy11 They will ban all ammo in Chicago if they can. We are trying to get #ConcealedCarry advocate on the city council. #VoteGarrido
p104
aVRT @TPPatriots: Here is @SteveKingIA firing up the liberty-loving patriots outside of #SCOTUS. The time to stop #Obamacare is now! http://t\u2026
p105
aVRT @tedcruz45: #CruzCrew ask YOU to join us\U0001f60e\u000a.@tedcruz45 \U0001f448\U0001f5fd\u000ahttps://t.co/3mhIIR1tj0\u000a\U0001f5fdThank You Patriots\U0001f5fd http://t.co/TRUyXx4qqY
p106
aV@GladstonePkBiz Arena wants a walkable area for the vagrants and criminals. Glad we will have our concealed carry permits! #VoteGarrido
p107
aV@AlderTwit What's goofy is anyone voting for Democrats and their Communist agenda. #RightToWork #ConcealedCarry #VoteGarrido
p108
aVRT @FoxNews: Worth a shot: Former Pennsylvania police officer's vending machines sell ammo. http://t.co/xZ0LAS0c63 http://t.co/g1wtwO77g0
p109
aVRT @FreedomWorks: RT if you support #RightToWork http://t.co/L73AOVyaKz http://t.co/jml3AZAei8
p110
aVRT @MAC_Arms: I liked a @YouTube video from @cbschicago http://t.co/DXCC17SBiz Gun Advocates Call For lifting Ban On Silencers In Illinois
p111
aVRT @GroverOwnedPawn: @1untamedbrain @GRAAmerica which turns into trash sold to lemmings. http://t.co/kpnZ0plY2q
p112
aVRT @TheFix: How to set up your own questionably secure home email system, just like the Clintons. http://t.co/lUeoYk2CwS http://t.co/h8oFLf\u2026
p113
aVRT @nranews: Arkansas: Bill to allow guns at bars, polling places, Capitol - http://t.co/3I8v5iS3L1 #NRA #2A (via @rsvlcourier)
p114
aVRT @chuckwoolery: Democrats Plan To Win Elections With Illegal Alien Votes http://t.co/jZQ6P2B4Si #IBDEditorials via @IBDinvestors
p115
aVRT @EricReedGRAA: Retweet if you agree. @2A_GraphX @Sanchanim @KimberlyPTaylor @PolitiBunny @GRAA_LA @SaharahShae @GlockMagazine #TCOT http\u2026
p116
aVRT @mikandynothem: Andrew Breitbart passed three years ago today. He taught us to stand firm against the liberal machine. #tcot #pjnet http\u2026
p117
aVWe can put a TRUE Tea Party Patriot on Chicago City Council. Vote John Garrido #45thWard #teaparty #VoteGarrido http://t.co/jMkKcLmu6C
p118
aVRT @lsferguson: White House Defends \u2018Common Sense\u2019 AR-15 Ammunition Ban: \u2018Everyone Should Agree\u2019 - Breitbart http://t.co/E7Wv9BjFu9 via @Br\u2026
p119
aVRT @brucesid: @ChuckNellis Fact-checker calls out Obama for saying Keystone \u2018bypasses\u2019 US http://t.co/M1eWAUQAqe
p120
aVRT @nranews: Ohio: Homeowner fatally shoots man kicking in front door - http://t.co/rTza66fVyG #NRA #2A #ArmedCitizen (via @DispatchAlerts)
p121
aVPlease support @JohnGarridoIII - the ONLY 45th Ward candidate who believes in the freedom of concealed carry. #votegarrido  #teaparty
p122
aVRT @CalmCarryNet: Learn all about gun control. Contact us about one on one handgun shooting training. #guns #guncontrol http://t.co/njIwEZX\u2026
p123
aVRT @GRAAmerica: This works for military and civilians too.\u000a\u000aOpinion: 10 reasons why police don\u2019t aim for the legs http://t.co/eToz9OKNKP vi\u2026
p124
aVRT @IllinoisTea: An Army of Breitbarts: Andrew\u2019s Legacy Lives On http://t.co/xhL9XsQ1O2 via @gatewaypundit
p125
aVRT @StandOnLiberty: Would banning firearms reduce murder and suicide? PDF of study: http://t.co/smedPeo8fD @GRAAmerica @NRA @2AFDN #2a #tco\u2026
p126
aVRT @JONEEFRY: Report: Boehner Faces Conservative Coup Over DHS Funding http://t.co/FwcnMw4fWT #Newsmax via @Newsmax_Media
p127
aVRT @charliekirk11: What if Obama declared a war on ISIS like he declared a war on coal jobs republicans and Fox News.
p128
aVRT @GRAAmerica: Awesome\u000a\u000aWest Virginia Senate: The 2nd Amendment Is A Concealed Carry Permit - Breitbart http://t.co/Gh63n6oeid via @Breitb\u2026
p129
aVRT @carryconcealed: Man to argue self-defense in 911 caller's killing; trial starts Monday http://t.co/D46ArV52T2
p130
aVRT @IllinoisTea: WATCH \u2018the GREAT ONE\u2019 Mark Levin RIP into both Democrats AND Republicans at CPAC! [FULL SPEECH!] http://t.co/wPzhg4Fwss
p131
aVRT @KatiePavlich: Milwaukee County Sheriff David Clarke receives the Heston Courage Under Fire Award. Take that, Bloomberg! #CPAC2015 http:\u2026
p132
aVRT @CSteven: One million dollars is being offered for best idea to combat youth violence in Chicago. Here's a solution. https://t.co/mi9JKO\u2026
p133
aVRT @TeamCavuto: White House now describing illegal immigrants as "Americans-in-waiting"?! RETWEET if you're sick of this name game http://t\u2026
p134
aVRT @seanhannity: \u201c@Andhulse1: @seanhannity great cpac interviewing Sean!\u201d Thank u! I met so many wonderful people at CPAC. together, proble\u2026
p135
aVRT @BettinaVLA: Commie FILTH Soros spent $196 Million to destroy free speech &amp; our internet.  #NetNeutrality http://t.co/njRSCf9Syw http://\u2026
p136
aVRT @NatlGunRights: Stop the UN Gun Ban! Click below to sign your petition RIGHT NOW! https://t.co/1AsXyXXtNJ
p137
a.