(lp0
Vcan i get more than 10 followers so that someone will be paying enough attn to me to tell me NOT to start a mash recap podcast
p1
aVbtw @ my 3 followers: i know voting isn't the one and only step to doing good political action but I'm so relieved\u2026 https://t.co/KfNIHgUArw
p2
aVhey @katystoll thanks for the heads up about sean casten! I can't vote where I live now but he's running in my home\u2026 https://t.co/vfhMZFKKAv
p3
aVdropped out of school and ate a whole calzone filled with mac and cheese AND tater tots today. this is what people use twitter for right
p4
aVRT @meakoopa: just discovered some people watched all the movies and didn't even realize Han and Lando used to fuck
p5
aVRT @jaboukie: me, bleeding out from a gunshot wound: help\u000awhite liberal: help has arrived! :) *leans into bullet hole, whispers* love wins
p6
aVimho it's painful to see mainstream media describe the counterprotestors- the victims of recent and deliberate violence- as "agitators"
p7
aVi change my name every 3 months eventually i will be completely unknowable
p8
aVthe first thing duolingo taught me how to say in hebrew was '\u05d0\u05d4\u05d1\u05d4 \u05d1\u05d0\u05d4' which is pretty adorable if I'm understanding it correctly
p9
aVin 2017 let's a) all agree to use precise language and critical thinking and b) get me a gf
p10
aVRT @PhillyCustoms: the realest mother fucker alive https://t.co/qWW0eflqCH
p11
a.