(lp0
VRT @MikeLupica: The guy who murdered 11 people at a synagogue, and the guy who sent the mail bombs, and the guy who shot up a yoga studio i\u2026
p1
aV@TuckerCarlson you are small and sad person. history will forget you.
p2
aV@LindseyGrahamSC no, you were actually a childish jerk. I felt sad for American kids who saw your behavior. don't s\u2026 https://t.co/5RFz6Ug789
p3
aV@HamillHimself this guy is commander in chief of all US forces. would he replace guns with rocks? they are cheaper,\u2026 https://t.co/Uq7L6omAop
p4
aV@CillizzaCNN and trump's gov reports these numbers? the same people who count attendees at inaugurations?
p5
aV@KayColesJames and trump's gov reports these numbers? the same people who count attendees at inaugurations?
p6
aV@IvankaTrump and trump's gov reports these numbers? the same people who count attendees at inaugurations?
p7
aV@LindseyGrahamSC and trump's gov reports these numbers? the same people who count attendees at inaugurations?
p8
aV@HouseGOP @CNBC and trump's gov reports these numbers? the same people who count attendees at inaugurations?
p9
aV@VP @POTUS and trump's gov reports these numbers? the same people who count attendees at inaugurations?
p10
aV@GovMikeHuckabee @realDonaldTrump @POTUS and trump's gov reports these numbers? the same people who count attendees at inaugurations?
p11
aV@WhiteHouse and trump's gov reports these numbers? the same people who count attendees at inaugurations?
p12
aV@realDonaldTrump and trump's gov reports these numbers? the same people who count attendees at inaugurations?
p13
aV@CNN and trump's gov reports these numbers? the same people who count attendees at inaugurations?
p14
aV@WestmonsterUK @realDonaldTrump and trump's gov reports these numbers? the same people who count attendees at inaugurations?
p15
aV@senorrinhatch and trump's gov reports these numbers? the same people who count attendees at inaugurations?
p16
aVRT @ktumulty: Trump\u2019s new ad is profoundly racist. I refuse to link to it.
p17
aV@realDonaldTrump who falls for this stuff? why don't I ever meet them in person?
p18
aVRT @slpng_giants: (((Suddenly))) (((all))) (((of))) (((the))) (((people))) (((who))) (((have))) (((been))) (((doing))) (((this))) (((for)))\u2026
p19
aV@JeffFlake your party, you voted with him.
p20
aV@Estep @nocrazyplz @KumarRaoNYC @nikkihaley @Bakari_Sellers debate team, 5th grade, right?
p21
aV@SpeakerRyan please go away. some of us are trying to raise decent children and you're polluting the effort. you are a terrible role model.
p22
aV@AJentleson this is all on trump and pence. these racial shootings are political. it's not too early to make this a\u2026 https://t.co/aHsp0Zx6vA
p23
aV@VP this is all on trump and pence. these racial shootings are political. it's not too early to make this a politic\u2026 https://t.co/9LzbAby7Uu
p24
aV@realDonaldTrump this is all on trump and pence. these racial shootings are political. it's not too early to make t\u2026 https://t.co/0e0kRnHj28
p25
aV@tedlieu @SpeakerRyan @realDonaldTrump @POTUS this is all on trump and pence. these racial shootings are political.\u2026 https://t.co/P4SP6v5c5h
p26
aV@WalshFreedom @jaketapper this is all on trump and pence. these racial shootings are political. it's not too early\u2026 https://t.co/7bpUrp9dpg
p27
aV@willsommer @slpng_giants this is all on trump and pence. these racial shootings are political. it's not too early\u2026 https://t.co/qtgLKMRVv7
p28
aV@jaketapper this is all on trump and pence. these racial shootings are political. it's not too early to make this a\u2026 https://t.co/bOu8osr7n2
p29
aVRT @ADL_National: UPDATE: Our experts collected background on the shooter in today's vicious #antiSemitic #hate crime, who regularly espous\u2026
p30
aV@JBlackjackP @commamama5 @JGreenblattADL @AnandWrites @IvankaTrump good one bot. and even if you're biological, you're a bot. make sense?
p31
aVRT @keithboykin: Three professionally-trained armed police officers were shot responding to the Tree of Life Synagogue shooting in Pittsbur\u2026
p32
aV@DonaldJTrumpJr @GOPLeader this is like watching 4th graders try to figure out government after reading dictionary\u2026 https://t.co/Xc3mbrmuRq
p33
aV@pbump @CillizzaCNN disgusting. just disgusting.
p34
aV@VP back in the WH you are all having quiet little celebrations, marking another milestone on the march to the conc\u2026 https://t.co/jdT4QEDj4L
p35
aV@floognoodle @pacelattin @VP not conservatives, whatever those are. trump/pence supporters who eat the hate and shit it out in bullets.
p36
aV@W7VOA I knew some jewish folks who supported trump, and I suspected it was because he was anti-muslim. we know now\u2026 https://t.co/M9X8NKG3Z3
p37
aV@realDonaldTrump you created this.
p38
aV@FoxNews probably a false flag, right fox "news"?
p39
aV@PeterRoskam wow, way to take action. ignore the obvious problem but act like you care.
p40
aVRT @7im: going through alleged MAGAbomber's (now suspended) Twitter feed. Aside from the memes, it's amazing how much is just screengrabs o\u2026
p41
aVRT @donlemon: #bombing suspect van. #CNNBomb #cnn https://t.co/OSgehVMjUV
p42
aVRT @TalbertSwan: \u201cTrump\u2019s deporting your illegal cousins today, b*tch.\u201d\u000a\u000a\u201cUgly, tacky, Stinky, skanky b*tch\u201d\u000a\u000a\u201cYou\u2019re ugly, you need a gay\u2026
p43
aV@VP @CNN @SecretService @FBI you stoked this. you are a transparent hypocrite and a terrible role model for America's kids.
p44
aV@willesdenstaff @blakelively @jubileeline @TfL @CoventGdnTube @towerhilltube @71JEP @ashpar11 @d_hammersmith\u2026 https://t.co/t0TH9oxrsH
p45
aVRT @kevinroose: Tons of misinformation about the caravan floating around. This photo of a bloodied police officer has tens of thousands of\u2026
p46
aV@PatrickRuffini you are probably not the person to judge what is normal, then.
p47
aV@NatashaBertrand @AdamParkhomenko @KevinMKruse @MollyJongFast @TVietor08 @SteveKingIA @AP_Politics you mean because\u2026 https://t.co/7egtMWiVTZ
p48
aVRT @RBReich: https://t.co/9Jp0Ipps99
p49
aV@KatrinaPierson #mobsnotslobs
p50
aV@marcorubio you are a soulless puppet. find God, and start behaving as Jesus would.
p51
aV@jaketapper yeesh, snowflake. no surprise they don't specify the significant issue
p52
aV@willesdenstaff Your sign about Eeyore has been shared widely here in the US. Thank you for so powerfully articulat\u2026 https://t.co/9UdYC29KzC
p53
aV@SheriffClarke @nytimes you seem like a warm and caring American, just what the founders had in mind for our societ\u2026 https://t.co/QAaNzyvLf3
p54
aV@charliekirk11 you seem like a coherent, sober military expert. the caravan certainly does move with the stealth of\u2026 https://t.co/t1y2QWvsLD
p55
aV@FoxNews @TuckerCarlson it's amazing so many Americans are willing to jerk their heads and say "duh?" every time yo\u2026 https://t.co/CUjgkM6tyz
p56
aV@newtgingrich oh, I'm sure she's right. someone paid for a caravan to undermine America. you must have fun, actuall\u2026 https://t.co/LtXXdpUBEd
p57
aV@kenolin1 @HillaryClinton @BarackObama so transparent, yet not transparent enough for some. sigh.
p58
aV@pnpnbh @JudiKhan1 @ainsleyearhardt @dbongino @foxandfriends oh my you are lost.
p59
aV@jaketapper can we please not pay attention to this non-priority? this is trivial in the face of what needs to be r\u2026 https://t.co/GUmpcoMQOM
p60
aV@kenolin1 @SenWarren definitely, her ancestry and his reaction aren't really priority issues right now.
p61
aVRT @meganamram: It really says everything that registering people to vote is seen as a partisan act
p62
aV@realDonaldTrump But that would actually BE nepotism, so chants, yeah, probably.....
p63
aV@mattwagenius @JamieForHouseMN angry old white guy. probably watches Captain America over and over again and hates\u2026 https://t.co/wPNeozJ2h7
p64
aV@FoxNews Werner Klemperer played Colonel Klink in hogan's heroes. his dad escaped nazi Germany. hypocrite! turncoat!
p65
aV@ChuckGrassley as a fellow old white man, I ask you to please knock it off. you're giving us all a bad name. contain your sadness and hate.
p66
aVRT @An_Omnist: @mercedeslynz @ACLU @WC4SJ Who wants to see @mercedeslynz perform this on @TheDailyShow and @FullFrontalSamB? RT if you do
p67
aV@mercedeslynz can you pin the lyrics so we can share them?
p68
aV@MarkRuffalo @mercedeslynz hopefully @ChrisEvans sees this
p69
aVRT @mercedeslynz: It's a really scary time for dudes right now. So I wrote a song about it. Go #vote friends!  #TheResistance #1Thing @ACLU\u2026
p70
aV@mercedeslynz @ACLU @WC4SJ this is the protest song we've been waiting for
p71
aV@ryanstruyk @CillizzaCNN sounds good and neutral to me! no problems on the Supreme Court, just move on, nothing to see here.
p72
aV@GovMikeHuckabee @taylorswift13 you have a tiny brain and a tiny worldview. you also lack the self reflective skill\u2026 https://t.co/JgYm33QktM
p73
aV@SpeakerRyan @Transport you are a cretin and a horrible role model for American children.
p74
aV@senatemajldr you are a cretin and a horrible role model for American children.
p75
aV@GovMikeHuckabee you are a horrible role model for American children. shame on you. you can't feel it, but you should.
p76
aV@rebeccaballhaus disgusting scumbag, him and the whole lot. angry, soulless old white guys, mad at the world for no\u2026 https://t.co/lEJ6cFlsG3
p77
aV@kenolin1 this is his most disgusting communication yet. a horrible person.
p78
aV@realDonaldTrump this is beyond disgusting.
p79
aV@BillOReilly go away irrelevant criminal
p80
aVRT @ChrisMurphyCT: One copy of the FBI report. No more than an hour to review it. No ability for any follow up. Then a rushed vote.\u000a\u000aFor 2\u2026
p81
aV@sahluwal @slpng_giants f'in heroic, glad to see this brave woman do the right thing.
p82
aVRT @ChrisEvans: Are you kidding me? Are you kidding me with this? What is the purpose of this? Was there no other vitriol you could spew to\u2026
p83
aV@slpng_giants loved seeing them welcome their own version of trump to the stage at riot fest in chicago a few weeks\u2026 https://t.co/tc1KkWTe30
p84
aV@kylegriffin1 what a tool
p85
aV@CPDAction @senatemajldr @traceyecorder that tool with the beard, shoving the woman. classy. what a man.
p86
aV@CillizzaCNN @Kevinliptakcnn they're useless anyway. just a bunch of spin. waste of time.
p87
aVRT @SamuelLJackson: Funny as hell, but there\u2019s nothing funny about his Lying Fratboy Ass!!! https://t.co/rSHcrMzMUM
p88
aV@RandPaul clear out the executive branch and congress, and start over again. the current tank is too polluted to clean up.
p89
aV@TVietor08 "Today will never be undone but it can be avenged."
p90
aV"Today will never be undone but it can be avenged."
p91
aVRT @anamariecox: Today will never be undone but it can be avenged.
p92
aVRT @kaitlancollins: Sen. Orrin Hatch says it\u2019s too early to say if Ford is credible.\u000a \u000a\u201cI don\u2019t think she\u2019s uncredible. I think she an attr\u2026
p93
aVRT @PeterWStevenson: The look Christine Blasey Ford's lawyers gave each other when Grassley's lawyers said this hearing was scheduled "in c\u2026
p94
aVRT @PeterHamby: A reminder that Mitch McConnell said Al Franken was unfit to serve in the U.S. Senate after a series of he-said-she-said ha\u2026
p95
aVRT @MichaelAvenatti: @realDonaldTrump \u201cFalse accusations?\u201d Like those crimes your fixer Cohen pled to? You are an habitual liar and complet\u2026
p96
aVRT @tedlieu: Want to see another example of state media? Look below. https://t.co/KY4GMsWwZI
p97
aVRT @Toure: The right wants Brett Kavanugh to get another chance because hey, he was just a teenager, but they also believe teenagers like T\u2026
p98
aV@mrddmia this is so transparently false, my 6 year old comes up with better excuses.
p99
aVRT @BettyBowers: Well, surprise! Within minutes of me tweeting about his tweets, @mrddmia, the guy Senator Grassley thinks Dr. Ford should\u2026
p100
aV@jaketapper @CNN why would we believe anything they say? maybe they're all finally too afraid of him to reveal any\u2026 https://t.co/llMmyGKwSv
p101
aVRT @mrbenwexler: Call me crazy, but I think having 17 year-olds worry that any sexual assault they commit now might follow them around for\u2026
p102
aVRT @LevineJonathan: MSNBC just aired this footage from a speech by Judge Kavanaugh at the Columbus School of Law from 2015\u000a\u000a\U0001f440\U0001f440\u000a\u000a"What happe\u2026
p103
aV@proffitt_andrew @GrayMan42 @Michael_Krauza @KevinGrimes2 @kpconservative @XavierUniv @jeffmarkel @slpng_giants\u2026 https://t.co/Gd7pg3kmiC
p104
aVRT @dlippman: .@AndrewRestuccia and I called many of Kavanaugh's 65 female HS acquittances who signed a letter supporting him. After his ac\u2026
p105
aVgotta think a lot of folks evacuating at scientists orders, and looking at shot from the space station, also think\u2026 https://t.co/ruRL0vFujN
p106
aV@Knightcartoons @theheraldsun @usopen sick, shallow and sad.
p107
aVRT @soledadobrien: I really would like all the US companies that support Fox news and this dude to recognize how racist (and against many o\u2026
p108
aVRT @slpng_giants: An open letter to the corporations sponsoring Tucker Carlson Tonight. https://t.co/XksJHOTX95
p109
aVRT @tedlieu: This stunning OpEd in the New York Times by a senior @realDonaldTrump official is a cry for help. It also validates what 3 boo\u2026
p110
aVRT @MikeLevinCA: Retweet if you think Bob Woodward is more truthful than Sarah Huckabee Sanders.
p111
aVRT @davidhogg111: That's Bullshit.  \u000a\u000aThere's video evidence of what happened. \u000a\u000aWhen you tell a lie enough times it becomes propaganda, wh\u2026
p112
aV@tedcruz "grab their pussies". have a nice rally.
p113
aVRT @slpng_giants: UNBELIEVABLE!! NOW THE @NewYorker?? HOW MANY TIMES DO THESE PUBLICATIONS NEED TO DO THIS? STEVE BANNON IS HUMAN CLICKBAIT\u2026
p114
aVRT @jeffjarvis: @NewYorker I hope these fine people reconsider sharing a New Yorker stage with racist, fascist Steve Bannon: @JimCarrey, @d\u2026
p115
aVRT @Alyssa_Milano: It\u2019s super weird to me that @realDonaldTrump has 54 MILLION followers and his tweets rarely get over 20 thousand retweet\u2026
p116
aV@slpng_giants @ReliableSources @CNN Thanks for everything you've done, you'll do great....
p117
aVRT @KamalaHarris: The president is an unindicted co-conspirator in federal crimes and he has nominated someone to the Supreme Court who bel\u2026
p118
aVRT @Alyssa_Milano: Who does this?!\u000a\u000a\u201cSupreme Court nominee Brett Kavanaugh sought to cap 9/11 payouts to victims' families.\u201d \u000a\u000aAdd this to\u2026
p119
aV@ryanawarner77 @realDonaldTrump bot
p120
aVRT @BarackObama: Our statement on the passing of Senator John McCain: https://t.co/3GBjNYxoj5
p121
aV@the_rebel_cato @tedscyn @realDonaldTrump Obama is no longer president so who cares. maybe grover Cleveland was cor\u2026 https://t.co/QpCBQNT4fC
p122
aV@mmfa pretty sure al Capone was a criminal.
p123
aV@spudnickrocket @mmusser @DavidAmerland @devinher @wsredneck @realDonaldTrump @jack bot
p124
aVRT @JackiSchechner: This morning, during his rant about \u201cflipping,\u201d the president of the U.S. admitted he surrounds himself with criminals.\u2026
p125
aVRT @l0vejennaa: Guys I really need your help to RETWEET this! I am showing my students how \u201cfar\u201d anything you post online can be spread! Th\u2026
p126
aV@RealCandaceO I think a lot of us are really upset and pissed about both things. Probably the majority, but that do\u2026 https://t.co/dXqQPci8w2
p127
aVRT @samlucasss: hey i\u2019m a member of mollie\u2019s family and we are not so fucking small-minded that we generalize a whole population based on s\u2026
p128
aVRT @Public_Citizen: If Trump pardons Paul Manafort, 350,000 Americans in more than 900 cities are ready to take to the streets to assert th\u2026
p129
aVRT @RepAdamSchiff: Today, Giuliani added to Orwell\u2019s liturgy:\u000a\u000aWar is Peace. \u000a\u000aSlavery is Freedom. \u000a\u000aIgnorance is Strength. \u000a\u000aTruth isn\u2019t T\u2026
p130
aVRT @GenMhayden: Must read.  In the quiet world of American intelligence, this reads like a list from Cooperstown. https://t.co/Lg17aKB7eO
p131
aVRT @JohnBrennan: This action is part of a broader effort by Mr. Trump to suppress freedom of speech &amp; punish critics.  It should gravely wo\u2026
p132
aV@cwarzel @slpng_giants @oliverdarcy what kind of tool uses a photo of himself with a dangling cigarette? issues.
p133
aVRT @shaunking: This is absolutely infuriating. \u000a\u000aThis sharp young Black boy, clean as ever, gets kicked out of school because he has dreads\u2026
p134
aV@slpng_giants @Twitter So sorry you are subjected to this. The work you are doing is incredible. Proudly wore my sl\u2026 https://t.co/tkeeyYFZeS
p135
aVRT @AynRandPaulRyan: Hey, Nazis, remember when you walked around with your stupid tiki torches chanting "you will not replace us"?\u000a\u000aGuess w\u2026
p136
aVRT @tedlieu: Under our Constitution, the duty of Congress is not to clear the President. The duty of Congress is to be a check and balance\u2026
p137
aVRT @RepAdamSchiff: If the Special Counsel finds the President guilty of criminal conduct and Sessions will not protect Trump, the GOP has a\u2026
p138
aVRT @DanRather: I'd much rather live in a world reflecting the values, philanthropy, and yes intelligence of LeBron James and Don Lemon's in\u2026
p139
aV@NotReallyABear2 @Newseum our soldiers in WWII were part of an outrage mob, I guess.
p140
aVRT @donlemon: Who\u2019s the real dummy? A man who puts kids in classrooms or one who puts kids in cages? #BeBest https://t.co/XO50qVksnR
p141
aV@slpng_giants did you look through "Margaret"'s tweets?  they seem a little trump-OCD, as single-subject as you'd e\u2026 https://t.co/sl1k3JbbCT
p142
aVRT @TheDweck: Anyone who believes in massive global conspiracies has clearly never tried to plan a dinner with more than like three people
p143
aVRT @tedlieu: Dear @SecNielsen: You should read this article. Then you should resign. \u000a\u000aThis trauma would not have happened to the little gi\u2026
p144
aVRT @adamcbest: When you see the #WalkAway hashtag, walk away knowing that it is Russian propaganda. https://t.co/aaQHYF27tj
p145
aVRT @ABC: Director of National Intelligence Dan Coats informed on stage at Aspen Security Forum that the Trump administration has invited Vl\u2026
p146
aVRT @MurrayRGJ: Josh Hader will have a pro career tomorrow but Colin Kaepernick won\u2019t. #America
p147
aV@slpng_giants hell yeah. how would someone pay me to sit in my bedroom &amp; screen shot ads? would I apply online? wou\u2026 https://t.co/3LwIKIrMRl
p148
aVRT @Marketeer2u: And one more thing about @slpng_giants. It is not one person. It is more than 200,000 people across the world. \u000a\u000aWe stand\u2026
p149
aVRT @SallyQYates: Our President today not only chose a tyrant over his own Intel community, he chose Russia\u2019s interests over the country he\u2026
p150
aVRT @JohnBrennan: Donald Trump\u2019s press conference performance in Helsinki rises to &amp; exceeds the threshold of \u201chigh crimes &amp; misdemeanors.\u201d\u2026
p151
aVRT @RepSwalwell: FDR didn\u2019t meet w/ the Japanese after Pearl Harbor. George H.W. Bush didn\u2019t meet w/ Saddam after Iraq invaded Kuwait. And\u2026
p152
aVRT @joncoopertweets: I think today may have been a turning point in #TheResistance. Trump's treasonous betrayal of America was on full disp\u2026
p153
aVRT @SenJohnMcCain: Today\u2019s press conference in #Helsinki was one of the most disgraceful performances by an American president in memory.\u2026
p154
aVAs an American, I'm stunned and ashamed.  #TreasonSummit
p155
aVRT @RepAdamSchiff: President Trump just attacked our intelligence agencies and law enforcement for doing their jobs while standing next to\u2026
p156
aVRT @krassenstein: Just how Hated is President Trump by non-Americans?\u000a\u000aThe UK says that yesterday's protest of Donald Trump was the largest\u2026
p157
aVRT @tedlieu: Dear @realDonaldTrump: You are right the Russian attack occurred under Obama. But the attack was ordered by Putin to help elec\u2026
p158
aVRT @_SJPeace_: Elsa Ortiz was separated from her 8yro son at the border. Then she was deported to Guatemala without him.\u000a\u000aToday, she protes\u2026
p159
aVRT @JohnKerry: My thoughts on President Trump's remarks in Brussels this morning: https://t.co/x0k3k0lOkA
p160
aVRT @Ocasio2018: It\u2019s almost as if... my platform advances policies... that are already proven to work! \U0001f914\u000a\u000a- Social Security (lift the cap)\u2026
p161
aVRT @ObsoleteDogma: People freak out about Richard Spencer, but Tucker Carlson is by far the most influential white nationalist there is htt\u2026
p162
aVRT @TheRickyDavila: Here we go again. An obvious racist man by the name of Adam Bloom called the cops on a neighbor, a Black woman, whilst\u2026
p163
aVRT @mitchellreports: Asked about @NBCNews report that North Korea is expanding nuclear program and commercial satellite evidence of increas\u2026
p164
aVRT @tedlieu: Dear @GovMikeHuckabee: You have no need to worry because your 1 yr old grandson was not ripped away from his parents by the @r\u2026
p165
aVRT @tedlieu: Dear @realDonaldTrump: I will support merit based immigration based on the same standards that allowed your grandfather, who s\u2026
p166
aVRT @tedlieu: Last night at a restaurant in Torrance, CA strangers thanked me for telling the truth. I politely said thank you. Their action\u2026
p167
aVRT @slpng_giants: We currently live in a country where people think it\u2019s totally fine for children to be ripped away from their parents, bu\u2026
p168
aVRT @SenDuckworth: .@SecNielsen is lying. Period. https://t.co/hSdUrb6reu
p169
aVRT @SenFeinstein: UPDATE: The entire Democratic caucus supports our bill to bar children from being taken from their parents at the border.\u2026
p170
aVRT @davidhogg111: Human beings are not illegal \u000aHuman beings are not illegal  \u000aHuman beings are not illegal \u000aHuman beings are not illegal\u2026
p171
aVRT @BarackObama: \u201cLow plastic stool, cheap but delicious noodles, cold Hanoi beer.\u201d This is how I\u2019ll remember Tony. He taught us about food\u2026
p172
aVRT @CharlesPPierce: Sure, I was the first off my my landing craft at Omaha and made it almost three steps into France but it was all worth\u2026
p173
aVRT @ciccmaher: *cough* @NFL *cough* https://t.co/H9SskJ8q4Q
p174
aV@VP @NFL @POTUS This is contrary to every principle this country was founded upon. What is SUPPOSED to unite us is\u2026 https://t.co/76va16SKHY
p175
aVRT @Comey: Dangerous time when our country is led by those who will lie about anything, backed by those who will believe anything, based on\u2026
p176
aVRT @MichaelAvenatti: Hey @foxandfriends - can you spare 15-30 min this week for Mr. Giuliani and I to appear on your show and discuss the i\u2026
p177
aV@KTHopkins No, I imagine there are plenty of fellow smallmindies there in your country with you, people who think b\u2026 https://t.co/wFeFbffzbM
p178
aVRT @ItsMeCathi: James Shaw Jr. is paying for the funeral of each of the four Waffle House shooting victims out of the gofundme monies raise\u2026
p179
aVRT @Emma4Change: The FBI defines a mass shooting as 4 people killed (not including the shooter). Mass shootings occur in churches, in schoo\u2026
p180
aVRT @PaulDEaton52: Fun Fact: most of the bullies attacking these students wouldn\u2019t last one day at the US Army Infantry School. I would know\u2026
p181
aVRT @JuddLegum: FOX NEWS: Teens don't know what they are talking about and should stop weighing in on political issues\u000a\u000aALSO FOX NEWS: https\u2026
p182
aV@slpng_giants Readers bailing on breitbart? \u000ahttps://t.co/6n5yLpG6Tt
p183
aVRT @RobertwRuncie: \u201cBe a nuisance when it counts. Do your part to inform and stimulate the public to join your action.  Be depressed, disco\u2026
p184
aVRT @symantec: Symantec has stopped its discount program with the National Rifle Association.
p185
aVRT @joshgad: Retweet if you are angry and done with the status quo. Retweet if you are done with nonsense bandaid fixes. Retweet if you bel\u2026
p186
aVRT @RepAdamSchiff: Have you seen the new GOP hashtag? It's quite a doozy:\u000a \u000aReleaseTheMemoNoNotThatMemoInTheInterestofFullTransparencyNotTh\u2026
p187
aV@slpng_giants I'm sure you love the NLP and appreciate their supporters as I do, but Bezos needs to keep it up and\u2026 https://t.co/CxswEY8uh5
p188
aVRT @ChrisEvans: Holy shit!!!!! Does this mean I DON\u2019T have to bury 2017 in the back yard?? Thank you, Alabama!!!!
p189
aVRT @slpng_giants: This asshole is still working for you.\u000a\u000ahttps://t.co/PWNDzSBf45 https://t.co/gAZpBQlWmC
p190
aVRT @ChrisEvans: Stay strong, Keaton. Don\u2019t let them make you turn cold. I promise it gets better. While those punks at your school are deci\u2026
p191
aV@slpng_giants Nazis are an "inconvenience"?
p192
aVRT @slpng_giants: The only reason Bannon even exists is because every time he says something, every news outlet prints a headline that says\u2026
p193
aVRT @pattonoswalt: Democrats have forced Rep. John Conyers to step down. Good to see them doing the right thing. I'm sure the GOP would do t\u2026
p194
aVRT @slpng_giants: Congrats, @SIRIUSXM! \u000a\u000aNow YOU\u2019RE the platform for the alt-right! https://t.co/kAXc34nShk
p195
aVRT @slpng_giants: Well, where else was he going to go? He was kicked out of the mall. https://t.co/uZL6bJ2Ug3
p196
aVRT @slpng_giants: .@facebook, this is advertising malpractice, pure and simple. Dozens of your advertisers have reported this same issue fo\u2026
p197
aVRT @slpng_giants: CONFIRMED: @Sur_La_Table has blocked Breitbart from their media buy! Many thanks! https://t.co/koyd8KRTv4
p198
aVRT @slpng_giants: Read it and weep. \U0001f447 https://t.co/6zqzthmqjP
p199
aVRT @slpng_giants: CONFIRMED: This is big! @LinkedIn has blocked Breitbart from their media buy! Thanks so much! https://t.co/2paP4s4erg
p200
aVRT @slpng_giants: It's been one year since we started this crazy thing. \u000a\u000aHere's a little thank you from us to everyone who's been a part o\u2026
p201
aVRT @nycsouthpaw: The voices of the dozen or more women who have credibly accused the President of sexual assault deserve to be amplified to\u2026
p202
aVRT @ciaodaddy: https://t.co/YdbnirDCrE
p203
aVRT @sarahkendzior: This is very dangerous, Google. (For those just hearing about Texas shooter, assertions catalogued here are inflammatory\u2026
p204
aV@slpng_giants yep, i just get amazon ads but i'll keep trying-and i give hearts to all of the other giants every day
p205
aV@slpng_giants i go to breitbart nearly every day to do a screen grab for slpng giants but the only ads i get after\u2026 https://t.co/vrGZVshoGF
p206
aV@Xomerealestate @slpng_giants uh-oh Xome, you likely don't know ur ads r showing on hate-site breitbart. easy fix,\u2026 https://t.co/S71qnmfgU6
p207
aV@TBdress @slpng_giants uh-oh TBDress, you probably don't know yer ads r showing up on hate site breitbart. easy fix\u2026 https://t.co/QywhRYdtKg
p208
aV@slpng_giants that reminds me, can you let george know i need to take next tuesday aft off for a dentist appt? i ca\u2026 https://t.co/MI6EIPff3r
p209
aV@banggood  banggood, u sell the coolest stuff but racist breitbart not the coolest place to advertise it all.\u2026 https://t.co/9ULC4pSksC
p210
aV@SusanGKomen @slpng_giants i KNOW this isn't your decision, but amazon has put your wonderful cause on hate-speech-\u2026 https://t.co/y4isUEZ6lK
p211
aVRT @DaleJr: All Americans R granted rights 2 peaceful protests\u000aThose who make peaceful revolution impossible will make violent revolution i\u2026
p212
aV@bookit @slpng_giants eek - beautiful resorts, but ads funding hate-speech breitbart? @slpng_giants can help you fi\u2026 https://t.co/durGZIJsPB
p213
aV@moen @slpng_giants Moen, Amazon is forcing your brand onto hate-site Breitbart. U didn't do it, but u can undo it.\u2026 https://t.co/iLZg0JlHS4
p214
aVRT @googlecloud: Get a $300 free trial credit today. https://t.co/QPP6huiYdZ
p215
aV@jabrasupport @Jabra_US @slpng_giants don't like the sound of a great brand supporting a hate site. likely a mistak\u2026 https://t.co/GIBTVraCkp
p216
aV@hobbytron @slpng_giants planning on buying my son a drone upgrade, but can't get past the hate-site support.\u2026 https://t.co/KQHM62I3YD
p217
aV@CasaCupula @slpng_giants Pretty sure your luxury gay hotel didn't mean to advertise on hate-speech breitbart. slee\u2026 https://t.co/tzQYuGrHRI
p218
aV@EnsoRings Your ads are appearing on racist, misogynist Breitbart. @slpng_giants can help you block them. https://t.co/S5TIWjzfN9
p219
aV@slpng_giants @hobbytron Why are you funding racism, hate, and divisive dishonest media by allowing your ads to app\u2026 https://t.co/D3ZPO1WoJb
p220
aVRT @KristaRickel: @Ford your ads are appearing on alt-right hate site Breitbart. Pls consider blocking from your ad buy. @slpng_giants can\u2026
p221
aVRT @airedog125: .@continentaltire a week later and you are still rollin' with haters on Breitbart. @slpng_giants can help you \U0001f6d1 short and #\u2026
p222
aV@slpng_giants our friends at disqus issue a report on the behavior they enable: https://t.co/dULsRGoo59
p223
aV@slpng_giants @hobbytron Please stop funding racism, hate, and divisive dishonest media by allowing your ads to app\u2026 https://t.co/s5MYOuX93X
p224
aVRT @joshdv214: @Stand4Children I'm not sure your aware that you have ads on a racist website.  Prob not a good look 4 the children.  @slpng\u2026
p225
aV@Dodge Your ads are running on the bigoted &amp; racist Breitbart site. Please consider blocking them. @slpng_giants ca\u2026 https://t.co/UeOsMCopYW
p226
aVRT @jamisondcollins: @sovarocoolers Your high end brand is getting trashed by advertising with racist / sexist Breitbart.  Ask @slpng_giant\u2026
p227
aV@Kentico Your ads are running on the bigoted &amp; racist Breitbart site. Please consider blocking them. @slpng_giants\u2026 https://t.co/uGHAHfTJhN
p228
aV@PrintedVillage Your ads are running on the bigoted &amp; racist Breitbart site. Please consider blocking them.\u2026 https://t.co/siMpFoIJ2j
p229
aV@hobbytron Your ads are running on the bigoted &amp; racist Breitbart site. Please consider blocking them.\u2026 https://t.co/K9hEnXDmH1
p230
aV@mtolympuspark Your ads are running on the bigoted &amp; racist Breitbart site. Please consider blocking them.\u2026 https://t.co/k91NE45g4E
p231
aV@salesforce  Your ads are running on the bigoted &amp; racist Breitbart site. Please consider blocking them.\u2026 https://t.co/xGt0nthK0e
p232
aV@Bikewagon Your ads are running on the bigoted &amp; racist Breitbart site. Please consider blocking them.\u2026 https://t.co/Fi6JSUppkO
p233
aV@SuncastCorp Hi Suncast - You likely don't know your ads are on racist Breitbart. Please consider blocking them.\u2026 https://t.co/q8ndrWypaw
p234
aVCool umbrellas but your ads pay for the rain of hate/racism at breitbart. Easy fix, sleeping giants can help\u2026 https://t.co/ILYd9UT5P7
p235
aVsunrise over southeastern atlantic can't be beat.
p236
aVRT @SenatorDurbin: Thank you for making your voice heard. This is because of you. https://t.co/lnKb1kAxTk
p237
aV@TheBeatMI @nicolegelinas thought you'd want to know, typo "are" vs "our": management committee, five our women \u2014 a\u2026 https://t.co/dUfbKv7U9H
p238
a.