(lp0
V@AnnLWagner Before you lead her to victory, give a moment's thought to all the banks, brokerage houses and payday l\u2026 https://t.co/Z3y4BucYCu
p1
aV@LizForIndiana Another reason to NOT @VoteForTrey Hollingsworth. Check out all the things he's done to earn his pla\u2026 https://t.co/QkHwKiYT4G
p2
aV@IndivisibleIL14 @LUnderwood630 Illinois is the only state with two Major Wall Street Flunkies in its congressional\u2026 https://t.co/5rfFRlSD6s
p3
aV@RogerWilliamsTX Always fighting for the big banks and payday lenders, he should have said. See\u2026 https://t.co/FKp0yFYGzy
p4
aV@LuetkemeyerB It would be more accurate to say that bankers and Wall Street high-flyers are feeling optimistic -- a\u2026 https://t.co/fu3zvsjkAy
p5
aV@LuetkemeyerB Many of the regulations he has fought to eliminate were designed to stop banks and payday lenders fro\u2026 https://t.co/wQfN6z0ajj
p6
aV@MimiWaltersCA And here's what being a Wall Street flunky looks like: $1.4 million taken from Goldman Sachs, Americ\u2026 https://t.co/InizPN4HWp
p7
aV@claudiatenney Students? If you have student loan debt you should ask Tenney why she's sided with Wall Street and t\u2026 https://t.co/lmZuqvjYlj
p8
aV@barrforcongress This made-up scare-mongering sounds like a frantic effort to distract from Barr's own record, incl\u2026 https://t.co/YBQPhZ7iXw
p9
aV@Erik_Paulsen Also endorsed by Wells Fargo, Bank of America &amp; Morgan Stanley etc Over $4 million in campaign donati\u2026 https://t.co/MUkiHeArjU
p10
aV@MimiWaltersCA @PolitiFact One truth about Walters: she has stood for Wall Street and the big banks every chance sh\u2026 https://t.co/K49fw2180Z
p11
aV@cathymcmorris The biggest raises have gone to big bankers and other sharp financial operators thanks to lawmakers\u2026 https://t.co/WM15e7one0
p12
aV@KathyManningNC Ted @buddforcongress exemplifies the problem. Top donors include Goldman Sachs, Citigroup, Bank of\u2026 https://t.co/VGpUptUhJl
p13
aV@cathymcmorris Bigger paychecks on Wall Street for sure, thanks to lawmakers like McMorris Rodgers who've built the\u2026 https://t.co/RULoFxoxeu
p14
aV@KevinYoder It's hard to work for everyone when you've collected over $3 million from the likes of Goldman Sachs, C\u2026 https://t.co/xPoyuvyvOu
p15
aV@Duffy4Wisconsin Duffy has collected millions from Wall Street while voting again and again to make it easier for c\u2026 https://t.co/jylyLzcqFh
p16
aV@tmac4congress And Wall Street is fired up to keep people like Tom MacArthur in office, so the banks and payday len\u2026 https://t.co/tORrYYxRxy
p17
aV@cortvo @AnnLWagner But her dedication to free markets ends when it is Wall Street seeking favors. See\u2026 https://t.co/Od5RQXJrFl
p18
aV@StopBigMoney @sharicedavids Kansas's 3rd CD is a powerful illustration of the problem. Check out\u2026 https://t.co/UdIvdxXyOI
p19
aV@AnnLWagner Ann Wagner is NOT fighting to protect veterans from abusive student loans, mortgages and retirement inv\u2026 https://t.co/Y5znB0cUIh
p20
aV@MissouriGOP @AnnLWagner Unquestionably Ann Wagner is one of Wall Street's favorite congresspeople. See\u2026 https://t.co/4Gl41PtPEy
p21
aV@AnnLWagner Look hard at that record and what stands out is Ann Wagner's readiness to fight for banks, brokers and\u2026 https://t.co/O1r06avw2C
p22
aVRoskam voted to deregulate the big banks, repeal protections for borrowers against excessive fees and interest, and\u2026 https://t.co/ffiiVZumeQ
p23
aVOur project highlights 36 Republicans who are trying to rip you off while taking millions of dollars from bank lobb\u2026 https://t.co/OTcGMxo7KV
p24
aV@cathymcmorris Big banks are the biggest winners in today's economy, and it would be hard to find a member of Congr\u2026 https://t.co/BqwGQgrqA9
p25
aV@perrygershon @leezeldin Another reason to remove Lee Zeldin from Congress: his conspicuous record of service to bi\u2026 https://t.co/e7DqUFAeXq
p26
aV@MimiWaltersCA And the financial industry and real estate lobby has spent 1.4 million on Rep. Mimi Walters over the\u2026 https://t.co/B5k2lFV59u
p27
aVRead more at our website, https://t.co/JV6CUHvBVG. And check out @AndyKimNJ, who is running against Rep. MacArthur.\u2026 https://t.co/4HT2gTnbMB
p28
aVNo costume: @RepTomMacArthur is tricking consumers and treating banks, but he's not even hiding it. His top campaig\u2026 https://t.co/nXVwhCcVgb
p29
aVTreat: @RepTomMacArthur wants to repeal the Volcker Rule, which prevents banks from making risky gambles with insur\u2026 https://t.co/ZdnLiPnKFn
p30
aVFinancial regulation, Halloween edition! \U0001f47b Trick-or-treating with @RepTomMacArthur \U0001f383\u000a\u000aTrick: Rep. MacAuthor said hi\u2026 https://t.co/95SJppmtJV
p31
aV@RepHultgren Hey @RepHultgren, why have you introduced legislation written nearly word for word by Citigroup lobbyi\u2026 https://t.co/9OFHDj0ud7
p32
aVWho are the Wall Street Flunkies? https://t.co/fyoXJfFELS
p33
aV@katieporteroc @BoldProgressive @RepMimiWalters Here's another: Why did you vote for Wall Street 38 out of 38 times\u2026 https://t.co/np1bD6BcJS
p34
aV@buddforcongress @realDonaldTrump And thank you to Goldman Sachs, Bank of America, Citigroup and the American Banke\u2026 https://t.co/VkuNgazKiL
p35
aV@RepKevinYoder Veterans with student loan debt or medical debt might ask Yoder what he's done in return for the gob\u2026 https://t.co/buYFtSiBTE
p36
aV@KevinYoder Yep. Time to choose between someone who represents regular people and Kevin Yoder with his long record\u2026 https://t.co/MPQDpBtECj
p37
aV@RandyHultgren Wall Street deregulation is his top priority. See https://t.co/SujTwv3fnq to understand why the big\u2026 https://t.co/etoLgszmCD
p38
aV@RepAndyBarr But the main result was to put hundreds of billions more dollars of profits into the hands of the big\u2026 https://t.co/khFLfiXeB4
p39
aV@TheBFRoom @realDonaldTrump Voters may wonder why Andy @barrforcongress also has endorsements from Bank of America,\u2026 https://t.co/hqyxzzyzMY
p40
aV@DemocratsBHSN Grisly details and more deployable infographics at https://t.co/SujTwv3fnq. https://t.co/30gDJsF09L
p41
aV@mandy_mclaren @AmyMcGrathKY @RepAndyBarr @VoteFrankHarris @120Strong Andy @barrforcongress is too busy promoting t\u2026 https://t.co/B1UJ4VHTQS
p42
aV@IgnitedIl @PeterRoskam @t_robb1 @Everytown @davidhogg111 @sixthdems Let us not forget another powerful force behin\u2026 https://t.co/lWTHikOoDU
p43
aV@IUDems See https://t.co/SujTwv3fnq for the grisly details. https://t.co/aj5N0PcdJe
p44
aV@Patbagley @ShireenGhorbani @BenMcAdams @JennyWilsonUT @urbannavajo @MiaBLove 's most important endorsements come f\u2026 https://t.co/Sr7IjOMT40
p45
aV@IndivisibleLRCA @YDArkansas @IndivisibleTeam It's time to remove some of these @WallStFlunkies from office, don't\u2026 https://t.co/Uk3UzhUtEy
p46
aV@cortvo @AnnLWagner And only one candidate committed to protecting big banks, brokerage houses and payday lenders a\u2026 https://t.co/DyqCmCEXwV
p47
aV@lisa4congress @POTUS @cathymcmorris Or the record of unfailing support for big banks and payday lenders. See\u2026 https://t.co/XbGsJ0YtiT
p48
aV@MiaBLove But every single bank's big check makes much more of a difference. See https://t.co/SujTwv3fnq to find ou\u2026 https://t.co/JCrb32qt2h
p49
aV@buddforcongress He also has endorsements from Goldman Sachs, Citigroup, and the American Bankers Assn. after votin\u2026 https://t.co/4W8cYfUv9H
p50
aV@LizForIndiana Here's one piece of the record he doesn't want voters to notice: @VoteForTrey introduced a bill to l\u2026 https://t.co/Cirsp3skZR
p51
aVThe @WallStFlunkies project explained. See https://t.co/eSju3fpCVb
p52
aVAnother big reason to get out and vote: the chance to boot the Wall Street Flunkies out of Congress. Starting with\u2026 https://t.co/U5P7jEY9iw
p53
aV@liuba4congress Such a tough guy on a TV stage! Such a flunky when it comes to promoting the policy agenda of the b\u2026 https://t.co/eI3RDgVyJd
p54
aV@GALaBonty Mia Love prides herself on her opposition to government \u201chandouts\u201d but voyes again and again for giveawa\u2026 https://t.co/QnVcABYOBC
p55
aV@dbishop0 @clarketucker @MaureenARSenate It's hard for @ElectFrench Hill to hear human voices after he's taken heap\u2026 https://t.co/eObr9944Gz
p56
aV@SykesCharlie @ArkansasBlog One greater danger: the heaps of money that @ElectFrench Hill and so many of his House\u2026 https://t.co/5WKYm6rYLk
p57
aV@ReneeKET @barrforcongress @KET @RepAndyBarr He should be asked more questions about the heaps of money he's taken\u2026 https://t.co/lztlMErx6B
p58
aV@liuba4congress It's hard to stand up for your constituents when you are so fixated on helping banks and payday len\u2026 https://t.co/jbNw9ClRb4
p59
aV@LizForIndiana See https://t.co/SujTwv3fnq for the grisly details of @VoteForTrey Hollingsworth's long record of se\u2026 https://t.co/p5f4pegCrj
p60
aV@BoldProgressive And talk to voters about Wall Street's grip on so many incumbents. See https://t.co/SujTwv3fnq for\u2026 https://t.co/DAXOZ7vum6
p61
aV@LUnderwood630 And he will always show up for the big banks, payday lenders, and other sharp operators of the finan\u2026 https://t.co/v0li8sOvdt
p62
aV@StopBigMoney 32 incumbents who have taken heaps of money from big banks and payday lenders etc. while using their\u2026 https://t.co/GJQ7dRuAbo
p63
aV@chmtchr12 @SeanCasten @VoteCasten @ACE_Naperville The tax cuts weren't meant for you. They were designed to shower\u2026 https://t.co/uz2U53LQtx
p64
aV@SeanCasten @PeterRoskam Families lose but Wall Street wins big. Banks, securities firms and other financial entiti\u2026 https://t.co/qUWasjRwAA
p65
aV@SeanCasten @PeterRoskam But his ears are very sharp when big banks or payday lenders want something. Roskam sided\u2026 https://t.co/wWA0XNWxFM
p66
aV@PeterRoskam @AAOS1 @WaysandMeansGOP Plain English translation of Rep. Roskam's "regulatory relief": voting again a\u2026 https://t.co/cGdlHBmv8j
p67
aV@PeterRoskam @BAPS_PubAffairs Based on his record of votes and sources of campaign cash, Roskam's office is much ha\u2026 https://t.co/rh0e75MHvI
p68
aV@tmac4congress @AndyKimNJ The contributions that really need explaining are the $1 million plus @tmac4congress has\u2026 https://t.co/H80IpTxHhb
p69
aV@claudiatenney @ABrindisiNY Made-up corruption v. the real thing: see https://t.co/SujTwv3fnq for details of Rep. T\u2026 https://t.co/xgwdzJsbKw
p70
aV@claudiatenney @ABrindisiNY Big banks, financial companies and their executives stand to gain hundreds of billions\u2026 https://t.co/DR0dgLoZXk
p71
aV@claudiatenney Your honesty and ethics claims would be more persuasive if you hadn't taken almost $650,000 from ban\u2026 https://t.co/rcqZjVg9At
p72
aV@MiaBLove My question to Mia Love: why should anyone care about your address if you keep voting for measures to hel\u2026 https://t.co/m6TsJcAlGl
p73
aV@ConservaTibbs @VoteForTrey @realDonaldTrump The only people with significantly lower taxes are multi-millionaires,\u2026 https://t.co/5IsPdO9RDy
p74
aV@VoteForTrey Trey Hollingsworth has voted again and again for giveaways to Wall Street. He's only to happy to overs\u2026 https://t.co/QgfiVCNLys
p75
aV@VoteForTrey @realDonaldTrump Let's focus on what Congress has already got in Trey Hollingsworth: a dependable cham\u2026 https://t.co/M3wBWciaUj
p76
aV@VoteForTrey Some endorsements he doesn't want to talk about: JPMorgan Chase, Citigroup, Goldman Sachs etc. etc. Se\u2026 https://t.co/IsYWP6IIoY
p77
aV@KevinYoder He's running to build a better future for big banks and payday lenders, and so far he's collected over\u2026 https://t.co/aHMUBMWOEF
p78
aV@AnnLWagner Here's a thoughtful question: why have banks, securities firms, insurers, real estate companies, and ot\u2026 https://t.co/GAOt1apuvf
p79
aV@sharicedavids @MayorSlyJames You know who endorsed @KevinYoder ?  Citigroup, Goldman Sachs, JPMorgan Chase and a l\u2026 https://t.co/EeNKCn3xBA
p80
aV@sharicedavids If you have time to pitch in, use it to spread the important message at https://t.co/SujTwv3fnq and\u2026 https://t.co/COzteH5uZ2
p81
aV@LUnderwood630 Health care is one reason to support Lauren Underwood. See other good reasons at\u2026 https://t.co/bdsByp8ERd
p82
aV@clarketucker @YDArkansas See https://t.co/SujTwv3fnq for @ElectFrench Hill 's long record of service to big banks,\u2026 https://t.co/s9Mr2lv4Xl
p83
aV@buddforcongress The American Bankers Association is running TV ads for him to help build a "pro-banking bench in C\u2026 https://t.co/PYIodeO5Om
p84
aV@ACUConservative @buddforcongress You know who else has endorsed Ted @buddforcongress ? Goldman Sachs, Citigroup an\u2026 https://t.co/ViHl1HH366
p85
aV@SusieMadrak More deployable material at https://t.co/SujTwv3fnq. Plus the full terrible story of @tmac4congress 's\u2026 https://t.co/XGPJ7qQAcH
p86
aV@HotelWorkersNY But no need to make this a one-issue campaign. Check out https://t.co/SujTwv3fnq for plenty of othe\u2026 https://t.co/7URW32Aenn
p87
aV@NJCitizenAction More reasons to support @AndyKimNJ and remove @tmac4congress at https://t.co/SujTwv3fnq. Plus hand\u2026 https://t.co/dw5MwPNfqJ
p88
aV@Bestsurvivor See https://t.co/SujTwv3fnq for everything he's done to earn that designation. https://t.co/phoVagzayW
p89
aV@Bestsurvivor @tmac4congress ? Did I guess right. If I did, he bought that property will the ill-gotten profits of\u2026 https://t.co/x84inPhLXw
p90
aV@HouseGOP Who's really benefiting? https://t.co/RDTFO8Q0kt
p91
aV@barrforcongress And with big banks, payday lenders &amp; other powerful financial interests pouring money into Andy Ba\u2026 https://t.co/1VUyZ11vvr
p92
aV@notlarrysabato Here's some of what @ElectFrench Hill &amp; Co. DON'T WANT voters to think about. More of the grisly de\u2026 https://t.co/Q2JkIqtg6O
p93
aV@clarketucker A key member of the "pro-banking bench in Congress." That's how the American Bankers Association desc\u2026 https://t.co/31ktNgoLjL
p94
aV@lisa4congress @cathymcmorris Over the course of her career @cathymcmorris has collected almost $3 million from ban\u2026 https://t.co/DDnV8WwlRF
p95
aV@ABrindisiNY A stark contrast with all the Wall Street money backing @claudiatenney  See https://t.co/SujTwv3fnq to\u2026 https://t.co/TLxDlHxszK
p96
aV@michaeljohns @AndyKimNJ Sure, the money is laundered through the companies' executives and PACs. See\u2026 https://t.co/WaHCMXoMiM
p97
aV@LUnderwood630 @dailyherald Running against an incumbent who can be depended on to put big banks and payday lenders\u2026 https://t.co/x4odEsYceX
p98
aV@LizForIndiana Unfortunately, @VoteForTrey Hollingsworth wants an Indiana that works for Wall Street banks, payday\u2026 https://t.co/m7BYtunILB
p99
aV@KathyManningNC Not just ANY special interests, either. See https://t.co/SujTwv3fnq for Ted @buddforcongress 's lon\u2026 https://t.co/359tVCOyNt
p100
aV@sharicedavids See https://t.co/SujTwv3fnq for more of the grisly details on @KevinYoder 's long record of service\u2026 https://t.co/Eproz7w3AN
p101
aV@AmyMcGrathKY See https://t.co/SujTwv3fnq for more of the grisly details on Andy @barrforcongress 's long record of\u2026 https://t.co/qGwSW7Sp3D
p102
aV@cortvo See https://t.co/SujTwv3fnq for the grisly details of Rep. @AnnLWagner 's long record of favors done for, a\u2026 https://t.co/VUwu11NYoY
p103
aV@katieporteroc See https://t.co/SujTwv3fnq for more of the grisly details on @MimiWaltersCA 's long record of servi\u2026 https://t.co/aYqbrb8XBM
p104
aV@BenMcAdams See https://t.co/SujTwv3fnq for more of the grisly details on Rep. @MiaBLove 's record of service to Wa\u2026 https://t.co/2KajJFZX7j
p105
aV@golden4congress See https://t.co/SujTwv3fnq for more of the grisly details on @BrucePoliquin 's record of service\u2026 https://t.co/jaAokSKc1l
p106
aV@LizForIndiana See https://t.co/SujTwv3fnq for more of the grisly details on Trey Hollingsworth's record of service\u2026 https://t.co/vPQshjPJX8
p107
aV@AndyKimNJ See https://t.co/SujTwv3fnq for more of the grisly details on Tom @tmac4congress and his long record of\u2026 https://t.co/P0eJuYKnqH
p108
aV@lisa4congress @cathymcmorris See https://t.co/SujTwv3fnq for more ofthe grisly details on Cathy McMorris Rodgers'\u2026 https://t.co/TiNPsMqacK
p109
aV@KathyManningNC See https://t.co/SujTwv3fnq for more of the grisly details on Rep. Budd's record of service to Wall\u2026 https://t.co/WTTWlfQ3TB
p110
aVHe's being challenged by @deanbphillips, who doesn't take money from PACs, special interest groups, or federal lobb\u2026 https://t.co/qUpbgT277B
p111
aVOr maybe Rep. Paulsen is voting this way because he's bankrolled by the financial industry, with contributions of $\u2026 https://t.co/LCZj172vL6
p112
aVDid you know @RepErikPaulsen voted to deregulate the Big 3 credit rating agencies and loosen the conflict of intere\u2026 https://t.co/e9Poiugdar
p113
aVDid you know @RepErikPaulsen supports forced arbitration, which robs people of legal recourse and prevents consumer\u2026 https://t.co/VC9mnjgx1P
p114
aVDid you know @RepErikPaulsen voted to repeal the "Volcker Rule," which prevents Wall Street banks from making risky\u2026 https://t.co/n70d72JP9P
p115
aVRT @WallStFlunkies: @WMTWTV Here's a different kind of candidate profile of @BrucePoliquin: He has taken over $2 mil from Citigroup, BoA, G\u2026
p116
aVRT @WallStFlunkies: @golden4congress Why did @BrucePoliquin vote for a bill allowing payday lenders to charge triple digit interest on loan\u2026
p117
aVRT @WallStFlunkies: @sharicedavids @realDonaldTrump @KevinYoder @KevinYoder also has endorsements from Goldman Sachs, Citigroup, JPMorgan C\u2026
p118
aV@lisa4congress Why did @cathymcmorris vote for 38 bills to deregulate Wall Street and make it easier for banks to t\u2026 https://t.co/J2ThVagSOp
p119
aV@golden4congress Why did @BrucePoliquin vote for a bill allowing payday lenders to charge triple digit interest on\u2026 https://t.co/GJfM61wNBB
p120
aV@WMTWTV Here's a different kind of candidate profile of @BrucePoliquin: He has taken over $2 mil from Citigroup, Bo\u2026 https://t.co/4kVDpWQUJV
p121
aVWho are the 32 Wall Street Flunkies? Read about them in @dailykos: https://t.co/uR5409TrO5
p122
aV@StopBigMoney @cortvo Find out what Ann Wagner has done to earn her designation as a Major Wall Street Fluinky.\u2026 https://t.co/LtgXg4PGGF
p123
aV@LizForIndiana Find out how Trey Hollingsworth earned his designation as a Major Wall Street Flunky.\u2026 https://t.co/UkGpu65HV3
p124
aV@sharicedavids @realDonaldTrump @KevinYoder @KevinYoder also has endorsements from Goldman Sachs, Citigroup, JPMorg\u2026 https://t.co/cmyJvAHs07
p125
aVhttps://t.co/ooD4AviC8D - check it out. Get the flunkies out of Congress. https://t.co/SPUYViCc7K
p126
aV@KCMikeMahoney @KevinYoder Also endorsed by Citigroup, Goldman Sachs, American Bankers Association, JPMorgan Chase\u2026 https://t.co/tcPafDdepH
p127
a.