(lp0
V@realDonaldTrump 90% of rapes in this country are the kind that the Republicans want to decriminalize because they\u2026 https://t.co/YlT6jO7MCp
p1
aV@senatemajldr Im not a "mob" Mr. Leader, I am a mother.  I am a survivor.  I am the silent majority of women who ar\u2026 https://t.co/yDUp1yOwZk
p2
aV@DavMicRot @SenatorCollins Because of her own guilt.
p3
aVThe game is rigged when a man can do anything he wants to a woman; rape her, hurt her, assault her then turn around\u2026 https://t.co/nhjTzZPGhf
p4
aV@JoshuaGreen @Mikeggibbs I feel like I've typed out 'Kavanaugh' 100K times in one week.
p5
aVRT @KamalaHarris: To all survivors of sexual assault: We hear you. We see you. We will give you dignity. Don't let this process bully you i\u2026
p6
aV@rtraister No tears for me but yes I was shaking especially when Lindsay Graham said that Kavanaugh had nothing to\u2026 https://t.co/zRYxpuZixN
p7
aV@yesnicksearcy @TheDemocrats No. what those of us women who know we are not lying about the assaults we lived throu\u2026 https://t.co/Sr9i6Dvkju
p8
aVIm so sorry.  This is not what America should be. https://t.co/eEUkRtVZR8
p9
aVRT @PPact: Millions of women and countless survivors were watching today, and they saw a Senate majority that has abandoned them. Senators\u2026
p10
aVRT @bryanbehar: Can you imagine what the reaction would've been if Dr. Ford had behaved even half as hysterically as Brett Kavanaugh or Lin\u2026
p11
aV@KellyannePolls I have to tell you as an assault survivor I will never forget how Republicans have had more sympath\u2026 https://t.co/MqxgnT3SqF
p12
aVRT @DrPulaski2017: Kiss your seat goodbye, @LindseyGrahamSC.  Your total disrespect of a women reporting unwanted sexual advances is disgus\u2026
p13
aVRT @keb36: In case anyone has forgotten in the last 45 minutes, **THIS** is why women don't report. @LindseyGrahamSC #KavanaughHearings #Ka\u2026
p14
aV@LindseyGrahamSC As a woman who's been assaulted I think you are a monster.  You just told every rapist in the coun\u2026 https://t.co/xAiRgDp4Jw
p15
aV@SenatorCharles You know what is unfair about sexual assault? BEING THE VICTIM. It is NOT unfair that those of us w\u2026 https://t.co/5Lc8riY5w6
p16
aVRT @PLESCIASYS: I have no opinion one way ot the other about Kavanaugh but as a cop, I listened to so many people who committed crimes cryi\u2026
p17
aV@smerconish I was assaulted by a man who was very nice sober and a horrible drunk. It's like they are reading a bio\u2026 https://t.co/nXPeIqeRNw
p18
aVShe passed a polygraph and the Republicans are like "But who paid for that polygraph?"  Her pro-bono lawyer that's who.
p19
aV@CollinRugg I remember when I was sexually assaulted with pretty good detail. So you're saying that any woman who c\u2026 https://t.co/1nY7hfGbE5
p20
aV@VABVOX me: I can describe the sexual assault that happened to me.  I can do it in 5 min increments.  I can do it i\u2026 https://t.co/fffdDIU4V1
p21
aV@EdKrassen Better yet is to point out to young men that by being mindful and speaking up they can be the heroes of\u2026 https://t.co/QzuxosVPcs
p22
aVRT @MrFilmkritik: Kamala Harris to Dr. Ford: "You have called for an important FBI investigation into the facts. Brett Kavanaugh has not. Y\u2026
p23
aVRT @girlsreallyrule: There are many other conservative candidates that the GOP can put forth who are not sexual predators...I think. #Kavan\u2026
p24
aVRT @lexsanford: " You may shoot me with your words,\u000aYou may cut me with your eyes,\u000aYou may kill me with your hatefulness,\u000aBut still, like a\u2026
p25
aVRT @AbeFroman: Quick reminder about what causes rape.\u000a\u000a#KavanaughHearings https://t.co/FueQsa4ER3
p26
aVRT @Jackstar009: When a woman has told a Senate panel in vivid detail about how a nominee for the Supreme Court has sexually assaulted her,\u2026
p27
aV@krassenstein I hope this is true.  The last time i was this mad about politics was babies being torn out of mother arms and the Trump tape.
p28
aV@TIFFRESIST seriously! And Grassley started off the hearing talking about how attractive Anita Hill is. Nothing but\u2026 https://t.co/DvFVeUFoJP
p29
aVSitting here on twitter watching all the Republicans defend rape no matter what. #KavanaughHearings
p30
aV@RebekahWorsham Have you ever done a polygraph? I guarantee you it's a lot more than 2 questions. they spend a lot\u2026 https://t.co/Fvj4UPbKk2
p31
aVRT @alwaystheself: I hope the images coming out of the #KavanaughHearings remind y\u2019all that we live in a society quite literally ruled by w\u2026
p32
aV@michaeljknowles you want a better record, get the FBI investigate I hear they take some damn good notes.  Get mult\u2026 https://t.co/Kvu7Xc8ZpQ
p33
aVRT @_SJPeace_: VOTE THEM OUT!!!!!!!!\u000a\u000aRETWEET if you are ready TO VOTE THEM OUT!!\u000a\u000a#KavanaughHearings https://t.co/cLijch2DPZ
p34
aVRT @eugenegu: I believe in due process.\u000a\u000aI believe in the evidence. \u000a\u000aAnd based on this absolutely damning testimony against Brett Kavanaug\u2026
p35
aVRT @JRhodesPianist: we live in a world in which a rape victim is given a polygraph and her accuser isn't.\u000asays it all.\u000ai have nothing but a\u2026
p36
aVRT @LeeCamp: If you choose not to believe Kavanaugh's accuser, then you should at very least be calling for an investigation, not for confi\u2026
p37
aVI can't believe how many women are ok with rape when the assailant is from their political party. #KavanaughHearings #KavanaughFord
p38
aV@metraBNSF sitting on the floor because there are no seats and you want to raise rates.
p39
aV@NBCOlympics so disappointed that figure skating this year bc figure skating is on too late or NOT EVER shown.
p40
aVOn #metra stuck and someone needs medical attn. we're stuck here passing the message down the car for doctor. No answer from conductors
p41
aVStuck on the bnsf metra. Need medical device. Was told don't even think about asking to get off. Count down 2.5 hours before I get rly sick
p42
aVRT @TheAtlantic: Trump says the accusations of sexual assault against him have been "largely debunked." No, they haven't. https://t.co/xZVM\u2026
p43
aVDid the moderator just blame Obama for the housing crisis? How does he get there?#debate
p44
aVRT @voxdotcom: Clinton would add $200 billion to the debt. \u000a\u000aTrump would add $5.3 trillion. \u000a\u000ahttps://t.co/ofvUgXhNj6 #debate
p45
aVRT @FiveThirtyEight: Under Trump\u2019s tax plan the richest 0.1% of earners would pay more than $1 million less per year on average. https://t.\u2026
p46
aVRT @voxdotcom: Trump: My tax plan would grow the economy. Tax Policy Center: No, it would shrink it by 4%. https://t.co/Dbz2JJnh1T #debate
p47
aVRT @FiveThirtyEight: There is no evidence that immigrants commit violent crimes at a higher rate than native-born Americans. https://t.co/c\u2026
p48
aVOMG sneak attack, why hasn't anyone ever thought of that?  #debate
p49
aVRT @voxdotcom: Obamacare cut the uninsured rate to an all-time low. Most Americans have no idea. https://t.co/QAIPc2k28s #debate https://t.\u2026
p50
aV"I'm a gentlemen" uh no that's men who don't think sexual assault is funny #debate
p51
aVRT @MayaBear_: @ all the fans booing hope solo and chanting "zika", grow up please and thank you. https://t.co/xFnVzCjFlz
p52
aVReally you think yelling zika at Hope Solo is funny? You are a horrible fucker who thinks debilitating birth defects are funny. #USAvFRA
p53
aVRT @AlexaLefty: Hope Solo's inner monologue during every "ZIKA" chant.  #USAvFRA https://t.co/ro1RPA3YGi
p54
aVStill a trip! http://t.co/WoTrh25I9Z
p55
aVRT @newsycombinator: Classical music generation with recurrent neural networks http://t.co/oEvWGvnixe
p56
aVRT @Fermilab: Andrew Whitbeck coordinates the HATS program, a series of tutorial sessions. https://t.co/uADYooZHKG #LabLife http://t.co/Y1X\u2026
p57
aVI'm an experimental particle physics PhD turned Research Engineer at HERE Maps. #ILookLikeAnEngineer http://t.co/oR1wZBXFct
p58
a.