(lp0
VRT @NicoleK8686: The same people that said 13 and 14 year olds were perfectly mature enough to date Roy Moore are now saying 17 and 18 year\u2026
p1
aVRT @nataliesurely: "hey let's build an economic system that pits us against each other to secure basic needs, then leave millions of guns l\u2026
p2
aVRT @jasonroeder: When I wrote this headline, I had no idea it would be applied to the high school a mile from my house. https://t.co/Vm1jCa\u2026
p3
aVRT @elizabethforma: I went to the #SOTU. I wanted it burned into my eyes. If there\u2019s ever a moment when I\u2019m too tired to keep fighting, I j\u2026
p4
aV@ASlavitt Graham on Trump"s shithole remarks: 'It's pretty embarrassing when children can't listen to the news.'\u000aHe\u2026 https://t.co/OVlKHWgm8i
p5
aVGraham on shithole remarks: 'It's pretty embarrassing when children can't listen to the news.'\u000aHey Graham- You know\u2026 https://t.co/4aSq5kAfBj
p6
aVConsensual sex with another woman is not a story in comparison to supporting racism and being a sexual predator. St\u2026 https://t.co/ELEkryqaz2
p7
aVRT @jonlovett: The shithole is coming from inside the house
p8
aVRT @davidaxelrod: It\u2019s an unhelpful narrative when your one year anniversary is approaching and, however fair, the great debate is whether\u2026
p9
aVRT @danielbiss: Few can write themselves checks for $250,000. Way fewer can write themselves checks for $7 million. I wrote a check for $25\u2026
p10
aVRT @COSenDem: We'll give Jeff Sessions our legal pot when he pries it from our warm, extremely interesting to look at hands. https://t.co/L\u2026
p11
aV@Lunapooka @birbigs Cool. Encourage others to do so.
p12
aV@preciosatt @birbigs If that's legitimately what's stopping you, I'll pay you for the day.
p13
aV@LittleMissLizz @HenleyCarol @mankattan @birbigs Because that same mentality is why the middle class doesn't have u\u2026 https://t.co/4aK70f38xf
p14
aV@brianbeutler @crookedmedia I'll write you a personal check for $50 if this doesn't happen.
p15
aV@brianbeutler @crookedmedia The play now is that Republicans "wait for the recount" before they seat Doug Jones.  R\u2026 https://t.co/FbiCpifSbF
p16
aV@Snowman55403 @RVAwonk @TomLevenson @PreetBharara Would you happen to have a link? My google-fu is lacking this morning.
p17
aVRT @AndyRichter: Have they found a way to get tax credits for pushing orphans down stairs yet?
p18
aVRT @SenDuckworth: Congress should be focused on helping working families and middle-class Americans. Unfortunately, the Senate GOP's "tax r\u2026
p19
aVRT @SenatorDurbin: Senate Republicans can\u2019t put their own scribbled amendment into the record because nobody can read it. This is what we\u2019r\u2026
p20
aVRT @JasonKander: I don't think @SenTedCruz has fully thought through how ending #NetNeutrality will affect his (ahem) browsing habits.
p21
aV@scottmstedman You're right, and she also had the same red hair color in 2015.  Will keep looking.
p22
aV@scottmstedman I could be wrong, but I believe the woman in back is the same woman who asked Trump his first questi\u2026 https://t.co/wKDFpyfPKt
p23
aVRT @JoyAnnReid: To those of you who hated the TPP and cheered Trump on while he pulled us out of it, note the world moved on w/o us. https:\u2026
p24
aVRT @RobertBerrySTL: @thehill So . . . I gather there was no "extreme vetting" of GOP candidates in AL?
p25
aVRT @pwnallthethings: The people who encouraged a mentally disturbed man to go shoot up Comet Pizza looking for a pedophile ring are now sen\u2026
p26
aVRT @ASlavitt: Every day #CHIP isn't enacted is a day we aren't meeting our commitment to children. We need a clean bill.\u000a\u000aToday is Day 43.
p27
aVRT @ASlavitt: Every day #CHIP isn't enacted is a day we aren't meeting our commitment to children. We need a clean bill.\u000a\u000aToday is Day 36.
p28
aVRT @Tojiro: And that brings me to the political angle: The GOPs new tax plan eliminates existing adoption assistance programs. https://t.co\u2026
p29
aV@jonathanvswan @danpfeiffer The language is dismissive. You're making it sound as if Papadopoulos was walking aroun\u2026 https://t.co/dAvb7j25cX
p30
aVRT @Zigmanfreud: For those scoring at home, save this Fox News graphic praising Mueller's biography for when they now decide he's the devil\u2026
p31
aV@SugarCSour @bombsfall Thats some prison level shit.
p32
aV@bombsfall I was written up for not calling in a second time for my SECOND on-call shift of the same day. It was th\u2026 https://t.co/RpU3JIYfkt
p33
aVRT @jimmykimmel: @DonaldJTrumpJr great - in the meantime, enjoy this!  https://t.co/kQsBAioFwh
p34
aVTrump's Anti-Obama agenda also  extends to destroying all of the jobs created &amp; killing everyone whose lives were saved in the past 8 years.
p35
aV@bombsfall As if their life experience is so radically different from someone who works with Microsoft Excel?
p36
aV@bombsfall It's as if somehow they feel like truckers and construction workers aren't adults?
p37
aV@bombsfall I love this story. Even when they have good intentions there's this subconscious condescension that happ\u2026 https://t.co/Aeo2Ocuq7p
p38
aVRT @cmclymer: 1/ In the United States, a person does not have the right to randomly get in a car and do whatever the hell they want it. (th\u2026
p39
aV@Taniel Bob Corker not running for re-election in 2018 could be a potential pick up for a Democratic Senate seat as\u2026 https://t.co/y944UxV6T5
p40
aV@deray Unfortunate proof that racism is not a matter of a college degree or financial income&amp;a problem that permeat\u2026 https://t.co/8bGcyHwulB
p41
aV@deray Sadly not uncommon. In 2007, NIU campus shut down after a shooting threat against black students was found in a bathroom.
p42
aV@MrPhetz Dept of Treasury, State, &amp;Commerce all have rules that already prohibit this. This is the legislative equi\u2026 https://t.co/s9PE57hCgE
p43
aV@MrPhetz The Export Administration Act of '79 prohibits a boycott of Israel by any company in the U.S.
p44
aV@MrPhetz The additional regulation makes no sense except for lawmakers to feel good about doing something there was already a law for.
p45
aV@MrPhetz This is stupid because it's already illegal for any business in the U.S. to stage a foreign boycott of any\u2026 https://t.co/Ttw0bwHUKJ
p46
aV@MrPhetz I want to say this is stupid for a different reason than the ones everyone else is mentioning because I ha\u2026 https://t.co/VGyCn8IJf3
p47
aVRT @TheRuntSquad: @_weese_ @realDonaldTrump This kid's step-dad is going to be PISSED when he finds out he's setting fires on the patio tab\u2026
p48
aVRT @SenatorDurbin: Retweet to tell Dreamers they are not alone.
p49
aV@TheMrMilan Yes. Calling them Nazis doesn't prompt the conversation about race, it's dismissive. They're white supr\u2026 https://t.co/OLpN8eyTMb
p50
aV@jonfavs @ChrisRBarron At a time when people need to hear it, he has no fury or condemnation. His words are tempere\u2026 https://t.co/0ERe6oqTAi
p51
aVRT @bradripka: I know there's a difference here, but I just can't quite put my finger on it. #Charlottesville https://t.co/5VfuskcwfI
p52
aV@birbigs 'One group wants to systematically destroy an entire race &amp; another group is saying racism is bad. I mean-\u2026 https://t.co/hoxfrLrv0Z
p53
aV@deray @TheMrMilan Under this administration they have no fear and nothing to hide. It's upsetting that they don't\u2026 https://t.co/aLaZq1qfMw
p54
aVRT @ChicagoLeah: Throws phone across room. Did someone explain to her how the ACA provides that protection?!?! https://t.co/wyKwAprEPC
p55
aVRT @trayf: Vote on Dem amendment held open for 52 minutes and counting. That's like, longer than it took the Republicans to write the bill.
p56
aV@SenDuckworth Kill this bill by amendment, Please keep fighting!
p57
aV@SenatorDurbin @SenateGOP Offer unlimited amendments to this bill.  Don't stop adding amendments. Ever.  Please do\u2026 https://t.co/MOQHc2OhvJ
p58
aVRT @TopherSpiro: Wow. Catholic nuns: this is the "most harmful legislation for American families in our lifetimes"; it is "simply immoral"\u2026
p59
aV@danpfeiffer \U0001f386\U0001f386
p60
aV@unconcious0 @markknoller Nah I'm good. I clearly shut you down because you don't have anything of consequence or v\u2026 https://t.co/CGAfkZjMkT
p61
aV@unconcious0 @markknoller I also find it interesting that as a U.S. soldier, you willingly quote the leader of a ho\u2026 https://t.co/6jShgfo3FN
p62
aV@unconcious0 @markknoller Not the same thing. Again, accuracy matters. You cant shoot at the broad side of a barn a\u2026 https://t.co/A29tDtNqAO
p63
aV@unconcious0 @markknoller Also unsurprising that you get emotional because you can't argue like a real man. The art\u2026 https://t.co/fmexVNilVr
p64
aV@unconcious0 @markknoller Your flippant disregard for accuracy is completely unsurprising.
p65
aV@unconcious0 @markknoller I'm gonna go ahead and trust Mark Knoller's word over some picture found on the internet.\u2026 https://t.co/rWV0h8xEDX
p66
aV2018 Issues:\u000a1- Healthcare &amp; Medicare rollbacks\u000a2- Internet browser history sold to Comcast\u000a3- Gorsuch ruling against freezing truck driver
p67
aV@BobDayBluesFan @SenatorDurbin Wouldn't support this under Obama either. Just not a good idea to put your eggs in 1\u2026 https://t.co/W19OSS7En7
p68
aV@BobDayBluesFan @SenatorDurbin Whether you believe Russia pushed the election or that their were illegal votes cast\u2026 https://t.co/s6Zip4t2JS
p69
aV@BobDayBluesFan @SenatorDurbin Right..thats my point. Kansas &amp; Mississippi are Republican governments who are also\u2026 https://t.co/HRRExOCBBP
p70
aV@BobDayBluesFan @SenatorDurbin Illinois just joined Mississippi, Kansas, and a lot of other Republican governments.\u2026 https://t.co/RYLz34Kxvw
p71
aV@jhinton_ @gwiss @nikkihaley Romans 13:4-7\u000a\u000aRight there.\u000a\u000aThat's where it says it.
p72
aV@coachrebeccamoo @CongressmanRaja @funder Have you read this bill? I have. And I can point to the 3 parts that help\u2026 https://t.co/X95IE6kbjy
p73
aV@coachrebeccamoo @CongressmanRaja @funder Medicaid began covering children post-Vietnam because we had too many 18\u2026 https://t.co/ly45zdgLU5
p74
aV@coachrebeccamoo @CongressmanRaja @funder If the two parties are different teams the CBO is the referee. Do you hav\u2026 https://t.co/Zhcrcs947n
p75
aV@Richard23952653 @SenatorDurbin @SenateGOP You asked me to prove it. Then I did. Then you changed the subject becau\u2026 https://t.co/VPevRvF88W
p76
aVSection 117 and Section 119 are tax cuts for the wealthy. Section 111 also allows for them to use HSA's as a tax shelter.
p77
aVTrolls out there asking "Where does it say that in the bill?" In regards to tax cuts for the wealthy. They think it's hyperbole, it's not.
p78
aV@CNN @pr_czar Please keep doing this.
p79
aV@NicholasMastan2 @SenatorDurbin @SenateGOP It says it in the bill that you clearly haven't read. Sections 117 &amp; 119\u2026 https://t.co/mC8xIcZxQR
p80
aV@Richard23952653 @SenatorDurbin @SenateGOP Section 117 and Section 119.  Section 111 also allows for wealthy people\u2026 https://t.co/be9b21NK0Q
p81
aV@mattmfm The *NEW* Senate health care bill.\u000aA shit sandwich with 20% less fat!
p82
aV@SteveKopack Oh great. It's a shit sandwich with 20% less fat.
p83
aVRT @danpfeiffer: Democrats: Let's agree to only talk about health care until July 4th. The massive criminal investigation into Trump isn't\u2026
p84
aV@PodSaveAmerica Me in the car just now - "they'd better have a damn good reason why the pod isn't up."  Log onto tw\u2026 https://t.co/wNt5A7V78H
p85
aVRT @jonlovett: Not worth mentioning that the bill and these deliberations are not public at all? Not a factor? @jonathanvswan  https://t.co\u2026
p86
aVRT @chrislhayes: McConnell is so proud of his legislation he's hiding from THE MARCH OF DIMES https://t.co/MoZCjgBcJu
p87
aV@davidmackau @Bernstein I feel like that's 999 more monkeys than necessary.
p88
aV@CongressmanRaja Once again reaffirming why you are the best congressman ever.
p89
aV@gormanate @jonlovett I'm sure everyone involved from both sides will be rational adults about it. \u000a\u000a... please?
p90
aVRT @davidaxelrod: Saddened to read political responses among expressions of thoughts and prayers. Can we please hit pause on that for now?\u2026
p91
aV@davidmackau @AlexandriaVAPD The implication that anyone 'deserved' this because of their particular political stan\u2026 https://t.co/ZPWsVbiuhy
p92
aV@davidmackau @AlexandriaVAPD As someone who considers themselves to be an activist, I ask every liberal today  to s\u2026 https://t.co/Idjdpro0ef
p93
aVRT @ACLU: 13 men and 0 (zero!) women in the Senate are writing the bill to decimate women's health care. #AHCA #FridayFact
p94
aVRT @CongressmanRaja: Reid in Schaumburg, as your member of Congress, I too want to remind you that your tux is ready. #ConstituentServices\u2026
p95
aV@CongressmanRaja This just reaffirms that I am glad you're my congressmen.
p96
aV@newtgingrich @CBSThisMorning He's the president, not a piece of art. He means what he says and what he says is eit\u2026 https://t.co/SCVySMQj9X
p97
aV@newtgingrich Oh I get it now. You attacked Mueller so that you could get press coverage for your stupid book. I ca\u2026 https://t.co/Z3JrrcpsJD
p98
aV@CongressmanRaja @POTUS Can Republicans name one other time when they've questioned the leadership of Mueller?  I'll wait.
p99
aV@markknoller This is a good man. Any person trying to tarnish his reputation disregards his moral character for a s\u2026 https://t.co/BqGlAF6ppH
p100
aV@markknoller Did they question his leadership during the days after 9/11? Did they challenge him when he was working 14 hour days?
p101
aV@markknoller Was it when he worked on the PanAm bombing case? How about when he went back to work DAYS after cancer\u2026 https://t.co/pgT4pxwrLX
p102
aV@markknoller Was it when he swore to uphold the constitution 7 different times? Was it when he received a Bronze St\u2026 https://t.co/FBtUxrZA7Q
p103
aV@markknoller Actually, can they name ANY other time where they've sincerely questioned his reputation or character of this man?
p104
aV@markknoller That's interesting. Did Republicans have a problem with Mueller when he was voted to be FBI director? Unanimously? Twice?
p105
aV@ezralevin @JStein_Vox @IndivisibleTeam @MoveOn @indivisible Start by texting Resist to '50409'. Then write. Then c\u2026 https://t.co/4fCvGOZHBb
p106
aV@SenWarren Please help oppose the AHCA by halting all Senate business. Activists desperately need this time to coordinate.
p107
aVRT @ezralevin: 2 weeks of public debate could kill TrumpCare. People HATE it. Let it sit in the sun. It will rot. Dems should play hardball\u2026
p108
aV@Atul_Gawande @davidaxelrod @ddiamond Democrats in the Senate need to oppose this long enough for activists to get\u2026 https://t.co/qZlPMnIESO
p109
aV@Cjfreshness4722 @CMSAF12 @SenatorLeahy @SenFeinstein And you think less of them will write bills when we have inexperienced politicians?
p110
aV@jonfavs Text Resist to 50409 people.  Let your senators know.
p111
aV@JStein_Vox @IndivisibleTeam @MoveOn Text Resist to 50409 and let your senators know.
p112
aV@laurenduca @TuckerCarlson I'm new here and I'm not entirely sure what's going on but I'm relatively certain that t\u2026 https://t.co/Bbq0bJsXaq
p113
aVRT @danpfeiffer: Senate Republicans are about to pass the only thing they could find that is less popular than they are https://t.co/dB84eG\u2026
p114
aV@cjtfarrell @s73v3r @moralinjuryblog @TokenHenry @TheDawgHouse99 @betbull8 @pedershk You're upset about a guy yelli\u2026 https://t.co/N5FLUMrLwl
p115
aV@CMSAF12 @SenatorLeahy @SenFeinstein They have 'term limits', they're called elections.  Term limits just open the\u2026 https://t.co/yDkWvPhL1u
p116
aV@EEPatterson3 @Evan_McMullin Cleaning up Washington requires us to put country above party. A return of ethics-need\u2026 https://t.co/n7eHcXi0bD
p117
aV@EEPatterson3 @Evan_McMullin Good. Partisan politics fosters corruption when each side can't clean their own house.\u2026 https://t.co/VevbuiIsCU
p118
aV@markknoller Well, the FBI is there for a reason.
p119
aVRT @SeanMcElwee: every democratic strategist should be tied to chair and forced to watch this clockwork orange style for three days https:/\u2026
p120
aVRT @Evan_McMullin: Interesting to watch some Republican senators challenge James Comey more in seven minutes than they have Donald Trump in\u2026
p121
aV@bessbell Bessbell, you continue to set goals for me
p122
aV@CongressmanRaja Sorry Raja, limited productivity in the district. Lots of people running late because of the slow\u2026 https://t.co/ZJYgfGnogq
p123
aV@JasonKander The position of the president is the position the president has made. The thing said is a thing that w\u2026 https://t.co/Xu6xFJwqJk
p124
aV@colfer36 @JRubinBlogger Flashback: Other people have met with other people on tarmacs before.\u000a\u000aSee? It's fun prete\u2026 https://t.co/kQVLJqguFf
p125
aV@colfer36 @JRubinBlogger What's wrong with a meeting on a tarmac?
p126
aV@colfer36 @JRubinBlogger And Trump was just asking for funsies. But hey, neither things were illegal so we don't ha\u2026 https://t.co/AkYpgJgzeM
p127
aV@colfer36 @JRubinBlogger Oh, see now I get to play the game.  Was that illegal?
p128
aV@colfer36 @JRubinBlogger Why can't you answer my question with a yes or no response? Would you be fine with Obama a\u2026 https://t.co/hXxR0CaX5J
p129
aV@gas_tax_bandits @colfer36 @JRubinBlogger According to the president he didn't fire Comey for how he did the Hillar\u2026 https://t.co/x6IEeQ2rxL
p130
aV@colfer36 @JRubinBlogger Can you not answer that question? I'm confused. Would you be fine with Obama asking for lo\u2026 https://t.co/YenzcJbxbv
p131
aV@colfer36 @JRubinBlogger If Obama had asked for Comey's loyalty while he was investigating Hillary, what would your\u2026 https://t.co/yM5V54bAqc
p132
aV@colfer36 @JRubinBlogger Wendy in the U.S. we do not pledge loyalty to presidents. We pledge it to the constitution and the people.
p133
aV@jonfavs Today should be the day of a mind shift from Republicans but the right-wing media spin won't allow that to happen.
p134
aV@jonfavs In order 2 be wowed by the revelation of who the killer is in a mystery novel, you have to read all of the parts leading up to that
p135
aV@bessbell Eric Trump skimmed money from kids with cancer, but says Dems aren't people. Okay.
p136
aV@davidaxelrod @PressSec @POTUS Climate change is a National Security issue.   Ask if he understands climate change\u2026 https://t.co/limnH5LHOh
p137
aVRT @nwlc: "America is for everyone. If you have different abilities, you still deserve the American dream." -@SenDuckworth #SaveMedicaid #N\u2026
p138
aV@KellyO @realDonaldTrump This is Trump's 28th golf outing.  Obama did 27 visits his first year and as I recall, got\u2026 https://t.co/TOrWxmeeKH
p139
aV@JohnDingell @brhodes This is Trump's 27th golf trip.  Obama golfed 27 times in his first year. Trump is poised to double those numbers.
p140
aVRT @jonfavs: It's hard to read Trump's tweets this morning and not think that we're one domestic attack away from the most dangerous versio\u2026
p141
aV@elonmusk Your brain is your father's. Your heart is your mother's.
p142
aV#LondonAttacks\u000a\u000aU.S. 1977: "When the president does it, it's not illegal."\u000a\u000aU.S. 2017:  "When the president does it, he's not a dickhead."
p143
aV@InfernalMonoLog I barely know what I'm doing.  This is a general theme in life but it really applies here.
p144
aV@davidmackau Object to this union.
p145
aV#MarchForTruth https://t.co/wt0Pq725qM
p146
aV#MarchForTruth Sign Today:  \u000a"IF WE'RE LIBERAL SNOWFLAKES,  WINTER IS COMING."
p147
aV@PodSaveAmerica Climate change is a global threat. It is a national security question.
p148
aV@PodSaveAmerica \u000aCan we talk about framing? Stop asking Trump if climate change is real. Start asking if he understands it's a real threat.
p149
aV@SteveKopack Wrong words. It's not something to believe in. It's happening, frame the question properly. Ask him if\u2026 https://t.co/RpscKD1Il5
p150
aV@alivitali @SteveKopack Stop asking if he "believes" in it. Its happening.     Start asking if he will acknowledge\u2026 https://t.co/ZjmIH0Krr6
p151
aV@elonmusk Thanks for trying to build a better world.  A.I. is coming and our machine children will judge us accordingly.
p152
aVRT @elonmusk: Am departing presidential councils. Climate change is real. Leaving Paris is not good for America or the world.
p153
aV@JLennex @SenatorDurbin @washingtonpost Out of curiosity of our friends on the right- was the Washington Post 'fake\u2026 https://t.co/8Dv920IEGf
p154
aVRT @JasonKander: Kids, if you ever have a boss that's so emotionally fragile you'd have to risk your job to admit he made a typo, quit that\u2026
p155
aV@MicahGrimes Something tells me that Mike Dubke was pulling double shifts.
p156
aVRT @bessbell: I'm already mad at the Silverlake bar that starts offering the "Covfefe" cocktail of orange bitters and Russian vodka.
p157
aV@jonfavs Also, apparently Dubke had a FULL TIME JOB.
p158
aV@jonfavs Jon, it's past 33 minutes. That's longer than it takes for a nuclear ICBM to reach the U.S. from the other\u2026 https://t.co/y7k5YZr120
p159
aV@JasonKander @realDonaldTrump It's past 33 minutes. That's longer than it takes for a nuclear ICBM to reach the U.S\u2026 https://t.co/BChrNbshOG
p160
aV@TVietor08 It's hit 33 minutes. That's longer than it takes for a nuclear ICBM to reach the U.S. from the other sid\u2026 https://t.co/4zJoJ4RbhG
p161
aV@SteveKopack If it hits 33 minutes, that's longer than it takes for a nuclear ICBM to reach the U.S. from the other side of the world.
p162
aV@owillis Have you heard that expression used before? Because I haven't heard it. I just came up with it a couple of\u2026 https://t.co/jlCENJxl96
p163
aV@SteveKopack Have you heard that expression used before? Because I haven't heard it. I just came up with it a coupl\u2026 https://t.co/XSM0bbmXDw
p164
aV@bessbell I don't know why you've never heard of it. Covfefe is a perfectly cromulent word.
p165
aV@SteveKopack I don't see the problem.  Covfefe is a perfectly cromulent word.
p166
aV@bessbell I now have a new goal in life.
p167
aV@brhodes Republicans are unable to hold the standard of a kindergartner to their elected congressmen.  In terms of\u2026 https://t.co/oALz2SrBI3
p168
aV@jonfavs It is my opinion that many of the jokes coming out of the White House are fabricated jokes made up by our joke of a president.
p169
aVRT @jonlovett: New episode! @TVietor08 and I talk Kushner bombshell. And a phenomenal panel @ira @Allison_Tolman and @bobbyleelive. https:/\u2026
p170
aV@jonfavs Kushner clearly conceals criminal corruption in communication covered by cloak of 'classification'
p171
aV@danpfeiffer Cowboy Cornyn continues crafting crazy conspiracy concerning crappy care
p172
aV@jonlovett She's either not a voice of moderation or she is a voice of moderation and she's completely ineffective\u2026 https://t.co/SFxe1yVarL
p173
aVRT @jonfavs: Pod is up! @AnnieLowrey, @anamariecox, @danpfeiffer and me on budgets, body-slams, and CBO scores: https://t.co/beZkRYJtvL
p174
aV@danpfeiffer Selfish malevolence is always a result of stupidity. Ignorance is involved in both the intent and the\u2026 https://t.co/s4rZgtAl6f
p175
aV@danpfeiffer Depends on what side of the 'war room' you're on.
p176
a.