(lp0
VRT @LandonBromuto: Overheard in the lobby\u000a\u000aGuy 1: Hey dude, you've got some updog on your face\u000a\u000aGuy 2, offended: Is that your way of trying\u2026
p1
aVRT @nocontxtmulaney: https://t.co/wwbdutHsKT
p2
aVRT @anamariecox: It\u2019s been said before but it needs to be said every day: If you\u2019ve ever wondered what you\u2019d have done during the civil rig\u2026
p3
aVHappy Monday to everyone except slow walkers who take up the whole sidewalk
p4
aVRT @TheEllenShow: Today, I send out love to each and every one of you reading this. Every single one of you. We are one world. We all need\u2026
p5
aV\u201cWhen you miss your mouth it\u2019s just God saving you the calories\u201d\u000a\u2014Hannah
p6
aVRT @coolbutpoorguy: ppl from the midwest be like \u201cwhy would i fly it\u2019s only a 14 hour drive\u201d
p7
aVOne more time for those in the back https://t.co/e7kgPeWsG2
p8
aVmy hobbies include saying I\u2019m \u201cinterested\u201d in random local public events on Facebook without ever going to any of them
p9
aVRT @TheEllenShow: This tweet is for Dr. Ford. You put yourself through so much and I want you to know it wasn\u2019t in vain. You started a move\u2026
p10
aVRT @dyllyp: I wasn\u2019t ready to laugh this hard https://t.co/OZWaV6e8hP
p11
aVRT @maggieisntcool: i just saw a guy in the library cry for five or so minutes and then his phone alarm went off and he just? stopped cryin\u2026
p12
aV@rafsalot Ooh \u201cAll the Light We Cannot See\u201d by Anthony Doerr
p13
aVRT @KlassicKat229: You've heard of "I have black friends, I'm not racist"\u000a\u000aNow get ready for: https://t.co/c8g3U3BLcK
p14
aVRT @pitchjokes: PHILADELPHIA: We\u2019re from Philly, we\u2019ll be the Phillies.\u000a\u000aNEW YORK: We\u2019re from New York, we\u2019ll be the Yankees. \u000a\u000aBOSTON: We\u2026
p15
aVRT @MuenchowGriffin: when you\u2019re taking notes in class and the professor switches the slide https://t.co/BbnbSNf9vl
p16
aVLooking at the hole I\u2019ve already dug myself into this semester https://t.co/cAEoFGduWC
p17
aV@taylorswift13 https://t.co/yoYCu2GTEb
p18
aVcould honestly give a TED Talk about the masterpiece that is this movie https://t.co/aDpDY4rwvI
p19
aVRT @rafsalot: hello i would like to title this part of my life, i'm not bitchy i'm just too tired to be enthusiastic about anything
p20
aVRT @GabbiAlner: Am I having a stroke or did the Shrek 2 dvd come with a weird bonus that was like American Idol and if you didn\u2019t vote for\u2026
p21
aVRT @CaucasianJames: once my brain fully develops it\u2019s over for y\u2019all
p22
aVRT @Amberonie427: If my body could start utilizing the obscene amounts of caffeine I am supplying it that would be cool
p23
aVRT @jonnysun: deciding to buy something or not: great! i\u2019ll buy it\u000a\u000adeciding between which of two similar items to buy: [after 15 hours of\u2026
p24
aVRT @lumos: This is a very difficult video to watch, however, it does, once again, make it clear that family separation is dangerous and has\u2026
p25
aVRT @TheHyyyype: john lennon: \U0001f3b5imagine all the people\U0001f3b5\u000a\u000aintrovert: oh god
p26
aVHow am I 20 years old and one of my favorite pastimes is still watching Vaganova class videos on YouTube and feeling sad
p27
aVRT @alexismayse: if I have to do an ice breaker next week as a JUNIOR in COLLEGE I am LEAVING the room
p28
aVRT @LeonardCowalski: Hey quick question what the fuck
p29
aVRT @904Skrilla: I gotta stop watching The Office cause everytime somebody say some dumb shit , I look off into the invisible camera.
p30
aVRT @ArfMeasures: [Meeting]\u000aBoss: So I'm pleased to say everyone in this room is now a stakeholder\u000a\u000aJo: Great\u000a\u000aBob: Great\u000a\u000aKim: Great\u000a\u000aVampi\u2026
p31
aVRT @rey_z: if you have any interest in mental health / public health please take ten mins to read some of the hundreds of replies to this.\u2026
p32
aVRT @CitlalliWilson: Lmfaooooo I\u2019m never deleting this app https://t.co/0BGecyMvVq
p33
aVRT @TylerJRoney: We talk about \u201cOpe\u201d as a midwestern phrase but we really need to talk about the \u201cOh no you\u2019re fine\u201d as a response to \u201cSorr\u2026
p34
aVRT @UofOklahoma: BOOMER!
p35
aVRT @imteddybless: here\u2019s an impression of me replying to a text i got 17 days ago: \u201cnot much, how about u?\u201d. i\u2019ve been working pretty hard\u2026
p36
aVRT @nocontxtmulaney: https://t.co/GCRxjBVsBr
p37
aVRT @PiaGlenn: So earlier today a young sista on the street uptown started shouting "Leave me alone! You been following me for blocks!" Ther\u2026
p38
aVRT @connorhannigan4: yes https://t.co/XFEhIvzZM4
p39
aVRT @austin123m: Hear me out:\u000aA \u201cThe Office\u201d type show centered around college students in their everyday life. I mean the zoom ins, side co\u2026
p40
aVRT @roombahacker: he was a trader joe she said see you later joe
p41
aVRT @Itskarleytime: she died doing what she loved, canceling plans to rewatch every episode of new girl
p42
aVRT @umcornell: me: *stands up too fast*\u000a\u000amy brain: \u02b7\u02b0\u1d43\u1d57 \u1d57\u02b0\u1d49 \u1da0\u1d58\u1d9c\u1d4f DID YOU JUST DO!?
p43
aVRT @mymonsterischic: I love how millennials are associated with avocado toast and selfies instead of the fact that we all constantly joke a\u2026
p44
aVRT @_ElvishPresley_: judge: do you swear to tell the truth, the whole truth and nothing but the truth\u000a\u000ame: no\u000a\u000ajudge: [covers mic] what do\u2026
p45
aVRT @ellie_korth: I wish there was a way to make Siri sound like Schmidt from New Girl
p46
aVRT @cman525: Brain cell 1: say have a nice day\u000aBrain cell 2: nah say have a good one\u000a\u000aMouth: Haven gice done
p47
aVRT @emilieidler: sorry if i've ever said that I wanted to hang w you but never did!! I'm so bad at doing things!!! and being a person!!!! l\u2026
p48
aVRT @eveewing: I\u2019ve seen a few folks mentioning this poem today, on what would have been Emmett Till\u2019s 77th birthday. Thanks to everyone who\u2026
p49
aVRT @WenzlerPowers: Marvel: Infinity War is the most ambitious crossover event in history.\u000a\u000aMe: https://t.co/87pWmTfGvn
p50
aVRT @NotEthanSmith_: Interviewer: Why do you want to work in customer service?\u000a\u000aMe: Well, I'm really good at apologizing for things that are\u2026
p51
aVRT @jonnysun: you, seeing that i'm wearing headphones: what are you listening to\u000a\u000ame, an intellectual, not listening to anything: wearing h\u2026
p52
aVRT @6ixuaIGod: me @ $2 sandwich: It\u2019s affordable but is it filling?  If it\u2019s filling, will it provide me with enough satisfaction?  What is\u2026
p53
aVRT @jonnysun: feeling overwhelmed? me too. you don't need to be in front of the world all the time. performance is not the default. take so\u2026
p54
aVRT @jk_rowling: Second hand bookstores are always full of surprises but I did not see this one coming. https://t.co/1cWDRABdvL
p55
aVRT @MichaelJTiberi: Coffee is like the pregame for my anxiety attack.
p56
aVRT @PicturesFoIder: https://t.co/D4Li1MAQkR
p57
aVRT @EveForster: This gets funnier and funnier the more I watch it https://t.co/5WpD92WT3u
p58
aVRT @Sarah_Hyland: \U0001f64c\U0001f3fc\U0001f64c\U0001f3fc\U0001f64c\U0001f3fc https://t.co/mPEEFlxUOa
p59
aVRT @michaelgclump: Most awkward Office episodes:\u000a15. you \u000a14. can\u2019t\u000a13. rank \u000a12. them \u000a11. cause \u000a10. the \u000a9. whole \u000a8. series \u000a7. revolve\u2026
p60
aVRT @collegeprobIem: me: *won\u2019t drink soda because it's unhealthy*\u000a\u000ame: *drinks alcohol*
p61
aVRT @nahalball: I am filling out my 2018-2019 planner today. If you have any hopes of seeing me this next academic year, I suggest requestin\u2026
p62
aVRT @Lexual__: Wow who would have thought children raised by two loving parents who wanted to have them would turn out fine? https://t.co/Et\u2026
p63
aVRT @ka_waltz: what is a pinkie toe even supposed to look like? i feel like they don\u2019t actually have a plan
p64
aVRT @imteddybless: I bumped into a VERY handsome man on the tube platform and now we\u2019re on the train together and i can\u2019t wait to steal furt\u2026
p65
aVRT @pashulman: It boggles my mind that a few random, historically ignorant tech dudes at Google, Facebook, &amp; Twitter have arrogated to them\u2026
p66
aVRT @shiphitsthefan: Swim class: "He's silly!" the little girl says, pointing at my kid. "I want to play with him."\u000a\u000a"Be gentle," says her g\u2026
p67
aVRT @nikkigibbs24: \u201ccollege is a $120,000 hooker and you are an idiot who fell in love with her. she\u2019s not gonna do anything else for you. i\u2026
p68
aVRT @KatieHTweeets: say \u201cyikes\u201d n move on with ur life
p69
aVRT @bvhamner: so my kitten never comes when he\u2019s called and when he naps literally nothing can wake him up so for a while we just thought h\u2026
p70
aVRT @YanitedDave: THIS IS ONE OF THE FUNNIEST THINGS I\u2019VE EVER SEEN HAHA https://t.co/xsi7xOm5ay
p71
aVRT @amanda_c_rae: You wanna get drunk and go to the bar every weekend? Awesome! You wanna eat clean and go to the gym? Good for you! You wa\u2026
p72
aVRT @meghanharbaugh: I was today years old when i found out in That 70s show Fes stands for foreign exchange student. Fes isn\u2019t his actual n\u2026
p73
aVRT @ChelseaClinton: Important read about how the effects of climate change are falling particularly hard on girls in Bangladesh: https://t.\u2026
p74
aVRT @EricThurm: [giant monster rises from the Mediterranean Sea]\u000a\u000aMeryl Streep, putting on sunglasses: Mamma Mia\u000a\u000a[cocks shotgun]\u000a\u000ahere we g\u2026
p75
aVRT @collegeprobIem: high schoolers: nooooo school starts in a month\u000a\u000acollege students: when the hell can i move in lets get it
p76
aVRT @TheDweck: Do you know how shitty a leader you have to be to be protested by a country you\u2019re not even in charge of
p77
aVRT @Shen_the_Bird: me: I've conquered my fear of ghosts\u000a\u000atherapist: that's the spirit\u000a\u000ame: oh fuck where
p78
aVRT @jonnysun: *buys a succulent*\u000awow i cant wait to watch something i am in love with die slowly under my futile attempts to care for it\u000a*b\u2026
p79
aVRT @bandkjnks: thats so sad :(( alexa play american idiot https://t.co/EvmC6K4cod
p80
aVRT @vibethriller: can someone punch me out of this universe please
p81
aVRT @bamelendez12: The 5 Love Languages \u000a\u000aPhysical Touch: my loneliness is killing me \u000a\u000aWords of Affirmation: I must confess I still believe\u2026
p82
aVRT @Shen_the_Bird: me: wow is that a mocking bird\u000a\u000amocking bird: "WoW iS tHaT a MoCkInG bIrD" fuck you
p83
aVRT @connorfranta: things im good at:\u000a1.\u000a2.\u000a3.\u000a4.\u000a5.\u000a6. practicing my order at a restaurant 57x times in my head and still messing it up whe\u2026
p84
aVRT @PEACHYBLACKG0RL: outrage from the pro-life community is suddenly nowhere to be found https://t.co/tYtHIrb2O6
p85
aVRT @jk_rowling: Made all my own money, never been investigated for collusion and can go a whole sentence without lying. Swings and roundabo\u2026
p86
aV@nikkigibbs24 The accuracy
p87
aVRT @dorsalstream: As a child I was bitten by a regular, mildly venomous spider, and I've turned into a regular, mildly venomous person. The\u2026
p88
aVRT @Lin_Manuel: *Lady rolls down her car window at 181st street*\u000a"congrats on HAMLET!"\u000aMe: "I WISH I wrote Hamlet!"\u000aLady: "Yay HAMLET!"\u000a*dr\u2026
p89
aVRT @Lin_Manuel: You stare at your coffee hoping it gives you perspective &amp; sanity &amp; the ability to make sense of it all &amp; that's a lot to a\u2026
p90
aVRT @Lin_Manuel: Good morning!\u000aGood morning!\u000aLet's make some new mistakes!\u000aLet's find the things worth saving in the mess our living makes!
p91
aVRT @jk_rowling: We've all been there. https://t.co/2Z4A1IdEzg
p92
aVRT @Lin_Manuel: Listen y'all I woke up at 6:30 to the sound of my son growling at my dog\u000aIt's gonna be a weird day\u000aLean into it
p93
aVRT @MylesLGarrett: The two most important days in your life are the day you are born and the day you find out why.
p94
aVRT @colesprouse: Apparently the definition for American greatness excluded: arts, safety, health, diplomacy, privacy, nature, and education\u2026
p95
aVRT @Lin_Manuel: I know all them joke-steal accounts are doing this but it's @hamlllton's original goof. \u000aSiempre, \u000aLin, today's meme https:\u2026
p96
aVRT @colesprouse: "Millennials," the old man scoffed, throwing his cigarette butt into the community park.
p97
aVRT @colesprouse: "BUT WHAT ABOUT MEN-" shhhhhh SHHHHHHHHHHHHHhhhHhhhhhhhhh\u000ahush now sweet boy shhhhhhh now is time to rest
p98
a.