(lp0
VRT @Janet4OH: I never wanted to be a Congresswoman. I'm a teacher. I spent 35 years preparing kids for their future and that was enough for\u2026
p1
aV#GOPVotingBlue https://t.co/cGg7QwJxIM
p2
aVRT @davidfrum: One of the world's leading (hawkish!) experts on North Korea. https://t.co/4OK9uyYSOn
p3
aVRT @emrazz: Ok now imagine this happening with everything you\u2019ve ever studied, every day, for your whole life. See also: being a woman. htt\u2026
p4
aVRT @allicat1214: I left the GOP because of my Christian values. Everyone quotes Matthew 25, \u201cLeast of these\u201d but not the verses after that.\u2026
p5
aVRT @MonicaSpencer: #GOPvotingBlue This is why. #VoteBlueToSaveAmerica https://t.co/kFdjanhcS7
p6
aVRT @DianGlendening: @ProudResister I am phone banking for @PaulDavisKS and met a guy last night who was also phone banking.  He's a lifelon\u2026
p7
aVRT @AJ_LoneStar: @realDonaldTrump A despicable display by a desperate narcissist.  Just another day in #DonaldTrump land.   Today I became\u2026
p8
aVRT @OCKatalyst: Recovering Republican here. I voted #Blue for the first time, and I voted early. I will never vote #GOP again. Ever.  #GOPV\u2026
p9
aVRT @kvpeckwriter: GOP says they cover "pre-existing conditions." They'll okay plans to "cover" you for lots more money, AND WON'T cover the\u2026
p10
aVRT @droosion: I am #GOPVotingBlue. Hopefully this gives our party the kick in the ass it needs to remove the old guard, the wusses bullied\u2026
p11
aVRT @MonicaSpencer: @AmericanPragmat @Senate_Fund @GOP @defeat_gop That is what my mother use to say is "putting your money where your mouth\u2026
p12
aVRT @SheilaHallRay: Donald Trump and his cast of characters are not Republicans. They are Fascists hiding under a moniker they have exploite\u2026
p13
aVRT @wadetank: @ProudResister @realDonaldTrump Registered republican here, can\u2019t wait to vote all blue Tuesday.  My party is an embarrassmen\u2026
p14
aVRT @anathemastudio: #ACLU #GOPVotingBlue\u000aIf Voting In NJ...Remember... \u000a\u000aRepublican reps **scored BELOW 20% on ACLU's Scorecard of votes on\u2026
p15
aVRT @beebalitz: I refuse to vote for anyone in the hijacked Republican party.  As a registered Republican I am voting BLUE!!! #GOPVotingBlue
p16
aVRT @fanngirlie: I am #GOPVotingBlue on Tuesday. There is no Republican Party, only the OfTrump Party exists now. We have to bring back deco\u2026
p17
aVRT @BrandiAtkinson: #GOPVotingBlue Registered Republican for 25 yrs, voted in EVERY election since I turned 18. Hillary was my first Dem...\u2026
p18
aVRT @allicat1214: Another #GOPVotingBlue in LA1. @tammyforla has real world experience bringing health care to our troops overseas. Steve Sc\u2026
p19
aVRT @jmarie2280: @ProudResister Me and I already sent in my ballot via mail #GOPvotingBlue
p20
aVRT @IanCPilarczyk: Doing my bit to bring some sanity back. #GOPVotingBlue
p21
aVRT @DenisevZ3: Lifelong repub who became Dem Nov 2016. Disgusted with getting text from tRump. FORMER #GOPvotingBlue. My ballot is in and a\u2026
p22
aVRT @Jessica12517: My sister has finally had enough and is #GOPVotingBlue! It was the refusal to do a thing about gun violence that tipped h\u2026
p23
aVRT @pcarenza: One week left. I'm #GOPVotingBlue and it would take a tsunami-scale act of contrition to get me to switch back before next Tu\u2026
p24
aVRT @AJ_LoneStar: If you are #Republican as I am the Prez tweet today should make you sick. Pure desperation play and despicable.   https://\u2026
p25
aVRT @VerafromSedona: Dear President Trump: In the middle of the caravan is a woman named Mary with a husband called Joseph she is expecting\u2026
p26
aVRT @andrea30656: @adambrabant1 @HoarseWisperer Not to mention how many of us college educated Georgians are #GOPVotingBlue. I've never been\u2026
p27
aVRT @simplybeingelle: I was a straight ticket vote for @GOP until 2000. Then I stopped voting. But I always considered myself a Republican.\u2026
p28
aVRT @KChatwin22: Just learned there\u2019s a #GOPvotingBlue hashtag! Had to tweet it. Lifelong R in Alabama casting her third non R vote next Tue\u2026
p29
aVRT @EducatorRogue: What started in 2016 will continue on Tuesday. This former Republican will vote straight Democrat on Tuesday.  I\u2019m never\u2026
p30
aVRT @CrucialeEddy: I\u2019m a lifetime Republican. For the first time since I registered in 1980, I voted all Dem. I blame the GOP and the NRA fo\u2026
p31
aVRT @EthUnbroken: #GOPVotingBlue When I was 18, I registered to vote as a Republican. This year I changed my registration to Democrat and wi\u2026
p32
aVRT @kstonejones: I had no idea we had a hashtag!!   Always voted conservative, not this time.   Enough.  Voted early, voted blue.  #GOPVoti\u2026
p33
aVRT @lynnschmidtrn: I was a Republican. I voted early, I voted blue. #GOPvotingBlue
p34
aVRT @jeremydriley: First time ever crossing aisles in a federal race. Country over party (and Christian ethics over party) any day of the we\u2026
p35
aVRT @704heather: Me! I voted straight blue for the first time ever. I had planned on splitting my ticket but the stakes are just too high ri\u2026
p36
aVRT @BillKreutinger: Left the GOP in 2016, after splitting the ticket for the first time in my life. Voted all Democrat this year because #F\u2026
p37
aVRT @TeeTimeTomTexas: #GOPVotingBlue my much older brother who is ruby red, so proud, #BetoForSenate @BetoORourke is great. https://t.co/eB3\u2026
p38
aVRT @RogerPine2: @MRyan1154 I'm with you! Trump needs to be held accountable and this insanity needs to stop! The only way to get this count\u2026
p39
aVRT @LMorrissey4: @Lovin_NOLA I too am a conservative. But I voted for Hillary in 2016, and this year I voted early and voted solid Blue. Go\u2026
p40
aVRT @GraveyardFurni1: Me and my staff at Graveyard Furniture are voting blue....#GOPvotingBlue
p41
aVRT @8TisEnough: @MRyan1154 @whitehouserogue My dear Dad. 78 years old. We\u2019ve had the most marvelous conversations, debates and arguments ov\u2026
p42
aVRT @SnoflakePrncess: @Comey Lifelong Registered Republican here voting straight blue.  The GOP left no place for thoughtful moderates.  Peo\u2026
p43
aVRT @Diana_Westlund: @ProudResister Tuesday I will be voting for equality, gun reform, and healthcare. I will be voting against kids in cage\u2026
p44
aVRT @princesstrixie1: @ProudResister @realDonaldTrump @GOP My mother is 79 and has voted Republican for 60 years, until Tuesday when she'll\u2026
p45
aVRT @Fam4Fun: Canvassed again today &amp; talked with a woman &amp; her son walking their dog. She said she'd been Repub for 22+yrs but just #VoteDe\u2026
p46
aVRT @ErinAnnBrown1: @rachelbedik @DeliliaOMalley I was a Texas Republican before Obama.  I have not looked back since! I will continue votin\u2026
p47
aVRT @RStarovich: This former Republican voted early and voted blue.\u000a#GOPvotingBlue \u270a\U0001f610\U0001f30a https://t.co/OgDeutIIM9
p48
aVRT @RogerPine2: Republicans are planning massive cuts to SS, Medicare and Medicaid to help pay for their Tax Cuts for the rich. My mother i\u2026
p49
aVRT @Kara3Jennifer: I\u2019ve been conservative and Republican since 9/11. But not any more. I \u2018m disgusted by the party\u2019s willingness to put Par\u2026
p50
aVRT @Belllll19: Believe it or not, I\u2019ve have normally associated myself with the Republican Party. In 2016, we let an uneducated individual\u2026
p51
aVRT @Noone80618534: #GOPVotingBlue as a Christian woman, I cannot vote Republican. I have never voted Democrat before, but this is the time.\u2026
p52
aVRT @ninigirl84: I am against:\u000a~Systematic voter suppression of minority Americans\u000a~ Demagogic political appeals based on xenophobia and fea\u2026
p53
aVRT @DaCoolBobLarson: @ProudResister  The Rs came 4 my GLBT friends, of color friends, poor friends, female friends, retired friends, sick f\u2026
p54
aVRT @CJNWrites: @realDonaldTrump Our country is at a crossroads!Trump\u2019s continued unchecked power or moving our country forward with Democra\u2026
p55
aVRT @1telos: @laurenwithrow @TxsleuthUSA @BetoORourke Houston Heights, here. My wife &amp; I rode our bikes in the rain, stood in line outside f\u2026
p56
aVRT @kareninflorida: @whiteboxersrule @ProudResister I didn't vote for him. As a 37-year/lifelong Republican, Hillary was my first Democrati\u2026
p57
aVRT @boundlessbelief: I registered Republican in 1971 at 18. THIS President &amp; his Republican Posse have run roughshod over American values.\u2026
p58
aVRT @LMorrissey4: I used to be a Republican. Donald Trump changed that, probably for good. Might be the only good thing he has done. #GOPVot\u2026
p59
aVRT @grarris9: I\u2019m a 48 year old Christian and voted Republican in every election until 2016 when my ballot selections were largely Republic\u2026
p60
aVRT @Mona17247478: Lifelong Republican... Voted a straight GOP ticket in every election since 1976. Left the party this year &amp; registered as\u2026
p61
aVRT @wander_all: Never voted other than Republican before, but it was straight BLUE this year. There have to checks put in place on this POT\u2026
p62
aVRT @KHagenJohnson: This is my family\u2019s #GOPvotingBlue story. I never thought my mom would vote for a Democrat. But, as a compassionate Chri\u2026
p63
aVRT @ICU1972: @SmithShanncrna @CheapskatesNWRK Welcome to the club. I despise liars and misogynistic men. I am a Catholic. I have believe yo\u2026
p64
aVRT @jlreader8B: @ProudResister @realDonaldTrump I was a republican for 33 years. I saw the racism of Sarah Palin's supporters and became a\u2026
p65
aVRT @WeisseRose2016: I was a Republican for all 16 years of my voting life. Went #NeverTrump in 2016. Unlike others, I've stayed that way. I\u2026
p66
aVRT @Heathen_Julie: I\u2019ve been a registered republican since the day I turned 18 and voted Dem straight down for the second time in my life (\u2026
p67
aVRT @19_Percent: @ProudResister I know my story is true. I\u2019m so happy to have been part of this! #GOPVotingBlue in Texas!! He-haw!! \u000a#GoBeto\u2026
p68
aVRT @MikhaelRayna: @ProudResister @realDonaldTrump This is great! I was a young republican in high school. Interned for a R congressman in c\u2026
p69
aVRT @RedForEdFACTS: @ProudResister Ryan, I love #GOPVotingBlue - my GOP hubby voted straight blue ticket, first time in his life! But don't\u2026
p70
aVRT @TraciKitchen: @ProudResister @realDonaldTrump My boyfriend is 57 and was a lifelong R. He voted for Hillary in 2016 and is voting all b\u2026
p71
aVRT @josewsantiago: @Letha310 @gtg316 Yes, but after Charlottesville I started to have a change of heart. I was a life-long Republican too,\u2026
p72
aVRT @KevinARNG11BVet: @PreetBharara Friday November 2, 2018 DeKalb County, Illinois. 52 yo Army veteran and proud pro-gun pro-choice Reagan\u2026
p73
aVRT @bbmbsit: @derekstrong3 @ProudResister I have voted R every year of my voting life. If #GOPVotingBlue is the only way to check Trump the\u2026
p74
aVRT @SantilenaSusan: @toesinthesand_K @ProudResister It was truly Inspired Ryan. I felt a seismic shift in MYSELF reading your first piece.\u2026
p75
aVRT @mapsandstamps: Racism is not acceptable. Bullying is not acceptable. Constantly lying is not acceptable. Inciting violence is not accep\u2026
p76
aVRT @joltin56: @ProudResister I am a registered Republican who voted for Bush, Dole, W, McCain, &amp; Romney twice. This election I will be voti\u2026
p77
aVRT @fat_tony_77: Thank you @ProudResister, for creating this "#". I kept feeling like I was alone as a former Republican, or as @NicolleDWa\u2026
p78
aVRT @klinecj: @JoeNBC #GOPVotingBlue First time ever voting Blue and have several friends doing the same!
p79
aVRT @ballpark_frank: @ProudResister My story - I've been a registered republican since 1975. I never voted straight party (especially local\u2026
p80
aVRT @Diana_Westlund: Tuesday I will be voting for equality, gun reform, and healthcare. I will be voting against kids in cages, tax cuts for\u2026
p81
aVRT @Mrs_MaynardKY: I chose my party when I was 18--20 years ago and it never mattered.  I will vote Democrat on Tuesday and head straight o\u2026
p82
aVRT @PickWhit: Thanks for starting this @ProudResister! I was registered Republican for 25 years until trump became the nominee. Disgraceful\u2026
p83
aVRT @roger_hutchison: My in-laws...once proud members of the Republican Party have had enough. ENOUGH. #GOPVotingBlue
p84
aVRT @ACatherines_: I used to be an independent who has voted for republicans in the past. After witnessing the horrendous actions of the @GO\u2026
p85
aVRT @mapsandstamps: I was raised in a Conservative household. In recent years, my eyes were opened. Climate change is real. I support public\u2026
p86
aVRT @1telos: White nationalism, corruption, fiscal irresponsibility, and subservience to foreign powers is a bit much for some conservatives\u2026
p87
aVRT @HarryTokus: I was a reliable Republican until 2016. Utterly disgusted by the lies, corruption, racism, misogyny and did I mention the l\u2026
p88
aVRT @rsanderlin: I used to write a conservative column for the daily newspaper in a military town. I voted early this year and voted Democra\u2026
p89
aVRT @Williams19Tate: I\u2019m the mother of teenage daughters. A lifelong Republican. My votes now are to  ensure they have the same choices and\u2026
p90
aVRT @AZVotes: I\u2019m a now former registered Republican in Arizona and for the first time in my life, I just voted for ALL Democrats. Feeling g\u2026
p91
aVRT @LordGodEmperor: #GOPVotingBlue. I was a moderate Republican, but since trump I am now a moderate Independent, who voted completely blue\u2026
p92
aVRT @BillDeFilippo: #GOPvotingBlue I have been an Independent since 18 but always voted with Rs. Until now. This is not the R party I want t\u2026
p93
aVRT @SairaCSU: My dad has been a lifelong republican. This year I started volunteering with @MomsDemand. It has changed my life and he has b\u2026
p94
aVRT @evansmelanie8: I\u2019ve voted Republican in every election but the past, I couldn\u2019t stand the thought of  putting a check mark by Trump. I\u2019\u2026
p95
aVRT @fred_guttenberg: Trump, at Florida rally, says Democrats would ruin the state - his second home.  My daughter died in what the Republic\u2026
p96
aVRT @TheDemCoalition: ZING! "Nobody in my administration got indicted," @BarackObama said. "Which, by the way, is not that high a bar." http\u2026
p97
aVRT @CurtLaFond: #GOPvotingBlue. I was a GOP activist from mid 80s to \u201808. I just voted straight ticket Democrat. Anyone who hasn\u2019t jumped o\u2026
p98
aVRT @DalaiLama: Be honest, truthful, and altruistic. If you concern yourself with taking care of others, there\u2019ll be no room for lies, bully\u2026
p99
aVRT @LuvMacyIsabella: 1st time in 53 years of life I voted 4 a democrat, &amp; I went full 100%! I\u2019m done w/ chronic lies, mocking humans, racis\u2026
p100
aVThese #GOPVotingBlue tweets are making me so happy. https://t.co/ureheyTfV8
p101
aVRT @gonzalesamberd: I\u2019ve voted Republican from the time I turned 18. In 2016 I voted 3rd party because I couldn\u2019t bring myself to vote for\u2026
p102
aV@OMGno2trump @Ba04990897 Caravan of dunces
p103
aVRT @Willow1213: I\u2019ve voted Red since age 18 with George W. Today, I voted Blue in my new home state of FL to show these old GOP hacks that\u2026
p104
aVRT @RonaldKlain: The most under-covered trend in the 2018 campaign?  \u000a\u000aHow many Democratic challengers -- not just liberals, but moderate D\u2026
p105
aVRT @HarleyRouda: 3 bills in 30 years. 17 votes against protections for  pre-existing conditions. \u000a\u000aNo, Mr. President. People in Orange Coun\u2026
p106
aV@morninggloria \u201cPop\u201d songs
p107
aVRT @GenXresist: I don\u2019t regret for a minute changing my party affiliation from the GOP when Trump got the nom. They\u2019ve turned into a vile c\u2026
p108
aVRT @davidmweissman: I normally do not do solo shout outs but I think it's well deserved for what this person does for Troops and Veterans,\u2026
p109
aVRT @Humanitarian66: @Nate_Cohn #PostcardsToVoters had a hand in this
p110
aV@DogginTrump https://t.co/faC5wVb43K
p111
aVRT @jonlovett: I would agree to be locked in a room for 60 hours starting right now and then just be handed the final election results when\u2026
p112
aVRT @Whereamme: Since I moved to the USA in 1988 I have voted Republican. I am a registered republican...  Proud to say I already voted. And\u2026
p113
aVRT @AndrewGillum: My mother taught me to ask for only 1 thing in life: a chance.\u000a\u000aToday, I\u2019m asking for your vote. A little more than 1 hou\u2026
p114
aVRT @TheCheesyChin: I\u2019m a former Texas Republican, who worked with the Rick Perry campaign. I left the @GOP in 2010, after realizing that I\u2026
p115
aV@EricBoehlert Not clicking on that article because f*** politico
p116
aVRT @LgbtResistance: My father and brother who live in Florida who are very conservative, and as a Christmas present to me they voted straig\u2026
p117
aVRT @AmandaRaeMSME: Registered Republican for the last 12 years. Voting for people who don't put babies in cages and don't hate people just\u2026
p118
aVRT @brycetache: Us Us Us Us Us Us Us Us Us Us Us Us Us Us Us Us Us Us Us Us Us Us Us Us Us Us Us Us Us Us Us Us Us Us Us Us Us Us Us Us Us\u2026
p119
aVRT @Janet4OH: Just sent out 25 canvassers in Fremont!! I told my story of in 2012 when I was the neighborhood leader for @BarackObama. In o\u2026
p120
aVRT @Scholten4Iowa: .@SteveKingIA, you've had a lot to say about me lately, and seem to have some misconceptions about my campaign. How abou\u2026
p121
aVRT @Janet4OH: \u201cThis is where I have a fundamental difference with my opponent...I believe that government has a responsibility to do for us\u2026
p122
aVRT @J_man_chicago: Daily @Jim_Jordan Reminder\u000a\u000aIt's not going away.\u000a\u000aHe knew.\u000aHe said nothing.\u000aMore were abused.\u000aHe lied.\u000aHe covered up.\u000a@S\u2026
p123
aVRT @Emily_J_Hagar: I left the Republican party during the 2012 primaries when a gay active duty serviceman deployed in Afghanistan was booe\u2026
p124
aVRT @KamalaHarris: Spread the word: voters in these states have the opportunity to register in person on Election Day. https://t.co/PejQcR04\u2026
p125
aVRT @cathlab_lacky: Annddddd! That\u2019s a wrap for us!!! Whole family has now voted. Hubby just finished early voting, he\u2019s a conservative voti\u2026
p126
aVRT @JaybeeStewee: @benjaminwittes After voting Republican for the last 32 years, I voted straight ticket Democrat to PUNISH the Nationalist\u2026
p127
aVRT @SikhProf: "In a racist society it is not enough to be non-racist. We must be anti-racist." - Angela Davis https://t.co/v2PUqjbQ33
p128
aVRT @elijahleefree: I grew up in a staunchly republican household in Wisconsin. I voted for Mitt Romney, Scott Walker, and Ron Johnson. I ea\u2026
p129
aVRT @seahawkfan71: I\u2019m a lifelong Republican. Changed my party to Democrat. I never thought I would say that. My eyes are opened!#GOPvotingB\u2026
p130
aVRT @aporter517: My husband, a Marine Corp Vietnam veteran , lifelong Republican, an economist, and 73 year old white man, just voted BLUE a\u2026
p131
aVRT @dena_stubbs: This Republican voted blue all the way today. It was not hard.  #GOPvotingBlue
p132
aVRT @RogerPine2: As a Conservative, I never thought I would be voting straight Democratic in ANY election.  But I love my country more than\u2026
p133
aVRT @Flip11th: I grew up a Republican. I even voted for John McCain for president in 2008. But the party I grew up with has been taken over\u2026
p134
aVRT @Ocasio2018: What makes America great isn\u2019t the notion that a man born into wealth can become President.\u000a\u000aIt\u2019s that a child born into po\u2026
p135
aVRT @peterpiper645: I am a lifelong republican who has seen the light. This is not my party anymore. It\u2019s a party of division, hate, and lie\u2026
p136
aVRT @brianschatz: I just got off the phone with a pollster who has data in every state and congressional district and he correctly called ev\u2026
p137
aV@_CarpeNocturne_ @OchoCharlieocho I'm in!!  ...you go first
p138
aV@morninggloria It's the only reason I'm answering when someone knocks at my door
p139
aVRT @LogsdailD: #GOPVotingBlue I was a registered Republican for over 40 years. shortly after the  arrival of Trump, I registered as a Democ\u2026
p140
aVPeople who have to cheat to win deserve to lose @BrianKempGA https://t.co/D0VyMYsecf
p141
aV@OkCallMeAL @roxannelwright Are you saying you won\u2019t take him back?
p142
aV@PatsyResists #GOTV !
p143
aVRT @aninterestingd1: Used to be a Republican, even though I was against Trump. Then came Roy Moore, Helenski, child separation, and Kavanau\u2026
p144
aVRT @AndrewGillum: I need ya'll to take President Obama's advice \u2014 don't boo, VOTE before early voting ends tomorrow. Find a polling locatio\u2026
p145
aVRT @SenatorHeitkamp: Since I\u2019ve been in public office, I\u2019ve worked to provide resources to address recurring mental health challenges like\u2026
p146
aV@poniewozik @neeratanden YES. thank you.
p147
aVRT @poniewozik: I\u2019m just gonna be a crank for a minute.\u000aThe job of journalism is not to appear unbiased.\u000aThe job of journalism is to accura\u2026
p148
aVRT @RBReich: Nothing scares Trump and his enablers more than a mobilized electorate. They know the vast majority of the American people opp\u2026
p149
aVRT @emrazz: In an ask me anything session with constituents, Bernie Sanders was asked what his favorite book was and replied with his own,\u2026
p150
aVRT @repjohnlewis: During another period people waited in immovable lines, faced billy clubs and cattle prods, in order to register and vote\u2026
p151
aVRT @FBRSquad: Hello fellow Resisters \U0001f499\U0001f499\U0001f499\u000aTrying to reach 28K so time for a Follow Back Resistance party!\u000a\u203c\ufe0f Like this post\u000a\U0001f60e Retweet this p\u2026
p152
aVRT @nytopinion: Beto O'Rourke hasn't just given Ted Cruz a run for his money. He's opened the door to a new era of Texas Democrats. https:/\u2026
p153
aVLauren Underwood, IL-14!! https://t.co/5fEnDD1fBT
p154
aVRT @BlackVotersMtr: Only 5 days until Election Day! Watch and learn how to convert a non-voter to a voter! #BlackVotersMatter #TheSouthIsRi\u2026
p155
aVRT @itsreallyalexb: DJT pulled a tantrum because the White House Pool Report estimated the crowd size at Trump\u2019s West Virginia rally to be\u2026
p156
aV@SteveKingIA News isn\u2019t fake (not real) just because you don\u2019t like it.
p157
aV@huckleberryalan @SteveKingIA Shhhh fascists don\u2019t like facts
p158
aV@SteveKingIA Iowans aren\u2019t bigoted (intolerant of others) or corrupt (debased in character) so I\u2019m pretty sure you\u2019\u2026 https://t.co/apnn4mIpUx
p159
aV@Stop_Trump20 @HeidiM_67 I think she means martial plan
p160
aVRT @LastOfDeST: I\u2019m 19 years old, and I just voted in the first general election of my life. I voted for...\u000a\u000a\u2022 @amyklobuchar\u000a\u2022 @TinaSmithMN\u2026
p161
aVRT @HeatherTristan: @tedcruz I would like to personally apologize to Texas and all of the US for voting for you in previous elections.  Don\u2026
p162
aVRT @sweetalie: My mother, who lives in Atlanta and regretfully voted for Trump, voted early this morning. She went out in the rain with a b\u2026
p163
aV@RudyGiuliani Ok Judy
p164
aVRT @LibertyGuy85: As a liberty conservative, I do not support most of the agenda of the Democratic Party.  Yet, I firmly desire checks and\u2026
p165
aVRT @shaunking: Yoooooo!!! Look at the lines for early voting in Atlanta!!! Shout out to Moss B for the video! \u000a\u000a1. Damn this is great. \u000a\u000a2.\u2026
p166
aVRT @simardswellness: I was a moderate Republican for 30 years. Fiscally conservative but had more liberal views on Social issues. I left th\u2026
p167
aVRT @JennaH572: Lifelong republican. Considered myself independent and voted 50/50. Changed my party affiliation to democrat this month. It\u2026
p168
aVRT @Wolvie616: I\u2019m another Republican voting Democratic because Trump is fundamentally Anti-American in tone, substance, and character #GOP\u2026
p169
aVRT @gaylelrichard: I\u2019ve been a Republican since I was 17 and learned about the parties in high school civics class. Today I voted early and\u2026
p170
aVRT @Rhilmoe89: https://t.co/NAnX1psEy9
p171
aVRT @chelseaperetti: Vote like a bunch of school children were shot and a bunch of other children were put into camps indefinitely bc they w\u2026
p172
aVRT @marym3422: @Martina @ananavarro @AndrewGillum My 72 year old cousin is voting Dem for first time in his life
p173
aVRT @tribelaw: If only press outlets had the guts to go dark on Trump when he\u2019s just doing his BS shtick and not making real news, he\u2019d wilt\u2026
p174
aVRT @jomareewade: @DemWrite \U0001f4aa\u000aI'm pumped for\u000a\u000a\U0001f525 Abigail Spanberger #VA07, tough, smart, CIA Operations Officer \U0001f449@SpanbergerVA07\u000a\u000a\U0001f525 Lauren Ba\u2026
p175
aVRT @DarbyPhillipps: Hey California!!!\u000a\u000aA mere 25,000 votes will determine control of Congress. Races across the country are very close. We\u2026
p176
aVRT @carol_lisa: Never, ever have I voted Democrat until 2018. After Trump called Haiti a shit hole country, I began to pay closer attention\u2026
p177
aVRT @ACLU: As voters, we must speak out against the use of ICE tactics by local law enforcement leaders, and ask local sheriff candidates to\u2026
p178
aVRT @DanRather: Imagine a national consciousness shaped by empathy, and seen through the lens of "there but for the grace of God go I." Solv\u2026
p179
aVRT @Alyssa_Milano: KINDNESS!\u000a\u000aSprinkle that shit everywhere.
p180
aV@twright55 @staceyabrams https://t.co/v3Eet8uThW
p181
aVRT @ATTPublicPolicy: In addition to our prior statement, we want to let you know that the AT&amp;T employees who manage the disbursements of ou\u2026
p182
aVRT @TheDemocrats: Black women are leading the charge to make our country a better place for all. Let's follow their lead to make sure @Stac\u2026
p183
aVRT @ananavarro: 13 Americans died b/c of hate crimes last week. I can\u2019t rationalize voting for anyone embracing Trump as he continues to di\u2026
p184
aVRT @rachelbedik: I am a Texas republican who just voted blue and it felt so good!Representing the Frisco soccer moms. Sad,sad GOP how silly\u2026
p185
aVRT @krassenstein: BREAKING:  U.S. District Judge Eleanor Ross has just ruled that anyone in Georgia whose voter registration has been put o\u2026
p186
aVRT @anima128: Took husband to VA office. Voter registration in same building. Since we are both ill they let us vote absentee. Both of us s\u2026
p187
aVRT @FactCheckU: @UnimpressedTX @HSchouten @MikeRegan2112 @MarilynCapps @sweetlyfeirce @robertbland14 @Las4Liberty @WeStandWithEvan @deaconc\u2026
p188
aVRT @Eiggam5955: #GOPvotingBlue\u000aMy husband of 32 years, a republican his entire life...\u000avoted straight democrat in Florida and changed his r\u2026
p189
aVRT @KamalaHarris: With 4 days until Election Day, these issues are on the ballot:\u000a1. Campaign finance reform. Let's get big money out of po\u2026
p190
aVRT @ReneeLibby2: I can't wait for the Trump Train to get hit by the Karma Bus.
p191
aVRT @SenatorHeitkamp: I\u2019ve been working for years in the US Senate to combat the opioid, drug &amp; substance addiction crisis impacting towns &amp;\u2026
p192
aVRT @atDavidHoffman: My mom, a lifelong Republican, went to early vote yesterday. She\u2018s legally blind so I had to go help. Starting with gov\u2026
p193
aVRT @SenatorHeitkamp: Since joining the US Senate, I\u2019ve worked to make sure women, children &amp; those most vulnerable in our communities are p\u2026
p194
aVRT @KevinMKruse: This is outrageous. We've seen absolutely no proof that Roy Moore, Paul Manafort or Rob Porter are in the caravan. https:/\u2026
p195
aVRT @BarackObama: Speaking of preexisting conditions, open enrollment starts today. If you or someone you know needs health care, visit http\u2026
p196
aVRT @AprilSa48855403: Voted for the first time today!!! @BetoORourke #teambeto https://t.co/nPOxEaUXYx
p197
aVRT @ShannonRozell20: #GOPVotingBlue I voted early, and I voted blue. Never going back to the Republican party. Sorry, not sorry. My future\u2026
p198
aVRT @DrDenaGrayson: Hey @realDonaldTrump,\u000a\u000aYou may want to take back that PARDON you gave to @GOP Sheriff Joe Arpaio. Joe Arpaio (not @TheDe\u2026
p199
aVRT @JulieMorr: The Blue wave actually started earlier this year. Many State Senate &amp; House seats have quietly flipped blue across the natio\u2026
p200
aVRT @NoahShachtman: I miss the good ol' days when you could enjoy an unseasonably warm autumn afternoon without an impending sense of ecolog\u2026
p201
aVRT @coleyworld: Dear Racist White People,\u000a\u000aKnock that shit off and read a book.  Maybe that Bible you love to toss around?\u000a\u000aSincerely,\u000a\u000aWhi\u2026
p202
aVRT @jb_dean: Let\u2019s SHARE this and make it go viral!! https://t.co/sc9srfXiei
p203
aVRT @jbouie: As soon as it becomes clear that Trump is just giving a stump speech, cameras should cut away to actual news. https://t.co/tNSF\u2026
p204
aVRT @CNN: While campaigning for Stacey Abrams, Oprah calls out nonvoters, saying: "For anybody here who has an ancestor who didn't have the\u2026
p205
aVRT @JamilSmith: It has become irresponsible for news organizations to broadcast any live event during which President Trump speaks. The lie\u2026
p206
aVRT @sfloridastorm: I left too. Lost me forever. How many are there of us? https://t.co/i0JVlo3QAI
p207
aVRT @Corsair502: I'm a veteran and have always voted conservative. This election I voted blue down the ballot. I have left the Republican Pa\u2026
p208
aVRT @DebAdadj71: #GOPVotingBlue I'm technically registered Repuplican bc of NYs strange 193-day waiting period for party-affiliation change\u2026
p209
aVRT @LnotH11: @DevinNunes Registered republican for 45 years and this is the first time I will be voting straight Democrat ticket. To much h\u2026
p210
aVRT @ContentedIndie: I double-checked to make sure my voter registration was up to date.\u000a\u000aOn the 6th, I am voting straight Democrat ticket,\u2026
p211
aVRT @BarackObama: Elections matter. You have the power to protect a family\u2019s health care. Make a plan, grab some friends, and vote: https://\u2026
p212
aVRT @RosenforNevada: Senator Heller has been lying for more than a year about his record on health care. Read this step-by-step reality chec\u2026
p213
aVRT @karenlynnn: Ex Republican voted blue!! Proud to be a Democrat now!!#GOPvotingBlue
p214
aV@andylassner @LindseyGrahamSC @VP @RandPaul @GOPChairwoman Stop I\u2019m swooning \u000a\u000aI\u2019ll volunteer to help with a\u2026 https://t.co/5v3y0rWAZf
p215
aVRT @nytimes: "We call it Sharpie therapy," one organizer said. Volunteers have sent more than 1.5 million hand-written postcards on behalf\u2026
p216
aVRT @Nightmare_Music: @nytimes I got one of these by a local Dem candidate a few months ago. I typically lean left, but this gesture sealed\u2026
p217
aVRT @ginnytourek: @ProudResister Registered Republican here. Voted early. Voted Blue. #GOPvotingBlue
p218
aVRT @ResistingEsq: Lifelong Republican - I registered as a Democrat in March after learning of the child separations. My eyes are open.  #GO\u2026
p219
aVRT @Lovin_NOLA: I'm conservative. I voted early. I voted Blue. I left the Republican Party.   #GOPvotingBlue
p220
aVRT @maddow: "Cop-Killer in Trump\u2019s Twitter Video, Actually Came Back to U.S. Under Bush"\u000a\u000ahttps://t.co/0x4LZAY98V
p221
aVRT @Alyssa_Milano: Anyone who has posted that racist ad should take it down immediately. Don\u2019t give it space to breathe. \u000a\u000aAnd the @GOP, yo\u2026
p222
aVRT @neeratanden: This is just embarrassing @cnn. I demand a Democrat gets 19 minutes of air time tomorrow at 4 pm to talk about the electio\u2026
p223
aVRT @LunaLuvgood2017: Can you do me a favor? Can you retweet this if you plan to #VoteDem on Tuesday, or if you already have? \u000aI will RT eve\u2026
p224
aVRT @nancyleong: "In Pennsylvania, Nevada, Florida and Arizona....young voting so far has at least doubled, and in the case of Pennsylvania,\u2026
p225
aVRT @jonfavs: This is an incredible ad. Joe is running in one of the few Democratic districts that Republicans hope to flip. If you live in\u2026
p226
aVRT @pdacosta: \u201cA draft-dodger is playing with our troops. It\u2019s a disgrace.\u201d - Lt. Col. Ralph Peters on @cnn
p227
aVRT @adamcbest: This meme needs to go more viral than anything has ever gone viral. https://t.co/DK6XQ4m4Hq
p228
aVRT @KikiAdine: One has to wonder why a man who knows all the best words never uses any of them. \u000aThread. https://t.co/8QAIYcXEyr
p229
aVRT @brianbeutler: Closing GOP message: abolish the federal minimum wage. https://t.co/qbYPLSBpy7
p230
aVRT @dcinsb: Vote for Claire McCaskill, You Liberal Dipshits https://t.co/DVW13MteSA
p231
aVRT @thedailybeast: Trump is hardly the only member of the GOP who\u2019s gotten cozy with right-wing extremists in recent years. Here\u2019s a list o\u2026
p232
aVAll media should do this\u2014downplay the WH\u2019s propaganda statements. https://t.co/udHoXT9Ifz
p233
aVRT @ezralevin: I'm not saying Ted Cruz is a neo-nazi sympathizer, but he literally just called a neo-nazi to sympathize. https://t.co/wpRBA\u2026
p234
aVRT @TxsleuthUSA: @ProudResister I'm voting D for the first time ever.  I don't need thanks. I need more people to vote D.  \U0001f60a
p235
aVRT @HarleyRouda: For 30 years, Congressman Rohrabacher has been doing the bidding of special interests, while ignoring his constituents. Ro\u2026
p236
aVRT @Alyssa_Milano: Can you do me a favor? Can you retweet this if you plan to #VoteDem on Tuesday, or if you already have? Thanks!
p237
aVRT @sciam: Humans have wiped out about 60 percent of the world\u2019s wildlife populations in the last four decades, a new report has found. htt\u2026
p238
aVRT @Bellatrixx2018: @AviFlyGirl @JoeCunninghamSC I\u2019m very excited for #SC01 to have such a great candidate as @JoeCunninghamSC. A lawyer &amp;\u2026
p239
aVRT @AndrewGillum: We're tired of the brand of politics we've see\u2014the brand of hatred and division and lies. On November 6th, we have the op\u2026
p240
aVRT @10MinutesaDay4U: MS-4: Don\u2019t forget to vote between now &amp; Tuesday, 11/6! Below is a sample ballot for you to view! Don\u2019t forget to send\u2026
p241
aVRT @gregolear: Hey #NY19, vote for @DelgadoforNY19. Antonio will PROTECT our healthcare and Social Security, unlike Paul Ryan puppet @RepJo\u2026
p242
aV@DebButzer @Acosta @teakinrj \U0001f644\U0001f644
p243
aVEven in the GA Gov race a black woman has to be extraordinary to get the same job as a mediocre white guy https://t.co/6UheCAfwcE
p244
aVRT @funder: Can you do me a favor? Can you retweet this if you plan to #VoteDem on Tuesday, or if you already have? Thanks!
p245
aVWhy is the Washington Post treating this like a controversial statement? https://t.co/VoCrdIvSrL
p246
aVRT @sahilkapur: New CNN poll\u000a\u000aARIZONA SENATE\u000aSinema (D) 51%\u000aMcSally (R) 47%\u000a\u000aNEVADA SENATE\u000aRosen (D) 48%\u000aHeller (R) 45%\u000a\u000ahttps://t.co/EwfoP\u2026
p247
aVRT @Scholten4Iowa: This race isn't about a Democrat vs. a Republican.\u000aIt's about decency vs. division. \u000aWe're one point down with six days\u2026
p248
aVRT @Rosie: Fox News' ad chief admits that advertisers are leaving. Here's what's going on. https://t.co/LtuvT5IJO1
p249
aV@Acosta @teakinrj How is George Soros not broke after funding the entire resistance himself?  \U0001f644
p250
aV@MollyJongFast Also the lying is pretty annoying.
p251
aV@davidmweissman Good for you!  Your experience on both sides will make you uniquely qualified.
p252
aVRT @CaptainsLogAz: #FlipTheSenate #TeamSinema\u000a\u000aMe: I'd like a Senator, with better wages, equal rights, healthcare, &amp; throw some extra prot\u2026
p253
aVRT @staceyabrams: BREAKING: President @BarackObama is coming to Georgia! Learn more: https://t.co/n3HciKhdjz #gapol https://t.co/h2ejGiuYkn
p254
aVRT @JulieMorr: Vote for Harley Rouda for California 48. Dana Rohrabacher needs to be defeated. He is a Russian asset and is a climate denie\u2026
p255
aVRT @JanzforCongress: Devin Nunes has been trying to smear the Special Counsel\u2019s office and prosecutors for over a year with fake memos and\u2026
p256
aV@KendallBreitman @MSNBC @alivitali George Soros must be exhausted from running the entire resistance singlehandedly \U0001f644
p257
aVRT @RandyVoteblue: Indiscretion Shhh! Don\u2019t say anything https://t.co/i2pm0J4GDy via @YouTube
p258
aV@brycetache @cintay46 How did you respond to the angry maga man?
p259
aVRT @BarackObama: Not sure who and what you can vote for? Head over to https://t.co/SHxg6ael0O to look up your state, learn who's running to\u2026
p260
aVRT @elizabethforma: Here\u2019s the deal: @realDonaldTrump &amp; the GOP are still working every single day to rip health care away from millions of\u2026
p261
aVRT @doreli12: @texasdemocrats @funder posted Baby Mueller https://t.co/tB9NpBljZa
p262
aVRT @AndrewGillum: 6 days to #BringItHome. Get your friends &amp; go #VoteItForward! https://t.co/YjafzJYKVM
p263
aVRT @Alyssa_Milano: Damn right, I\u2019m a Progressive. \u000a\u000aWhy would anyone want to be a Regressive?\u000a\u000aProgressive politicians want you to be inspi\u2026
p264
aVRT @MikeLevinCA: With ONE WEEK LEFT before the election, here\u2019s a reminder that the @GOP wants to take away protections for people with pre\u2026
p265
aVRT @HeidiHeitkamp: It\u2019s my birthday today! And though I really, really wanted cake on my first birthday, this year I\u2019d love it if you voted\u2026
p266
aVRT @HarleyRouda: The Trump administration is ignoring the will of the people and pursuing an agenda that harms the environment and contribu\u2026
p267
aVRT @Fawkes_2017_: 1. Instead of playing partisan games with people\u2019s health care, we should work together to address the flaws in our healt\u2026
p268
aVRT @JohnBrennan: As the child of an immigrant, I will vote for candidates who believe in America living up to its values &amp; remaining the wo\u2026
p269
aVRT @maziehirono: The 14th Amendment confers U.S. citizenship to persons born in the United States. To incite his base, @realDonaldTrump wan\u2026
p270
aVRT @10MinutesaDay4U: MS-4: Babs the bunny &amp; I just finished sending postcards to y\u2019all ab @JerameyForMS! He is our youngest elected represe\u2026
p271
aVRT @EdwardScanlan: Please see this great link from #44 about your options to vote. I know I did my duty in #EarlyVoting in NC, don\u2019t forget\u2026
p272
aVRT @fred_guttenberg: Take note of silence of Senate leader McConnell on the events this week. Vote to fire him from leadership.  Vote Democ\u2026
p273
aVRT @JennieLouLeeder: I am going to say right now what my opponent will not say: "There is no  invasion at our southern border." In this tim\u2026
p274
aVRT @BethR_27516: 8 women who served in the US Navy, Marines Corps, Air Force, &amp; CIA speak about how their service inspired them to run for\u2026
p275
aVRT @jamooreforsc15: I'm tired of being tired! \u000aI will fight for you. \u000aVote NEXT Tuesday November 6, 2018\u000a#VoteMooreGetMore\u000a#NorthCharleston\u2026
p276
aVRT @TopRopeTravis: If we do not re-elect Bill Nelson, Florida will have Rick Scott &amp; Marco Rubio in the Senate. \u000a\u000aLet that sink in. \u000a\u000aTwo o\u2026
p277
aVRT @Price4WNC: 5 more days of early voting and then Election Day. Please go and vote to make your voice heard! #WNC #NC11 @UncAvl @MarsHill\u2026
p278
aVRT @AmyMcGrathKY: Today, I went up with the closing television commercial of my campaign. It's called "Investment" and it's my favorite of\u2026
p279
aVRT @AdamParkhomenko: 461k new views in 24 hours. These women are going to flip the house!!!! https://t.co/SIYVGJi2LR
p280
aVRT @ScottWallacePA: .@RepBrianFitz can't duck out on his record of voting with President Trump 84% of the time, voting to gut protections f\u2026
p281
aVRT @SenatorDurbin: As this article points out about President Trump's health care plan:\u000a\u000a1. There is no health care \u201cplan\u201d\u000a2. He's expanded\u2026
p282
aV@tedlieu @realDonaldTrump I\u2019ve sent several copies of the constitution to the White House but no one seems to be reading it....
p283
aVRT @RandyVoteblue: \u2022Refugee Caravans are not new \u000a\u2022have been coming for 15 years \u000a\u2022They are coming legally through ports of entry\u000a\u2022The cost\u2026
p284
aVRT @RandyVoteblue: This man warms my heart. Here is #Beto with beloved Jackson. https://t.co/Nr9d7pmkdC
p285
aVRT @SmartDeminist: MS! It\u2019s time to vote! Support Mike Espy for Senate bc he supports us! #TeamEspy #MSSen #FlipTheSenate https://t.co/d4ZR\u2026
p286
aVRT @ChangePolls: IA-04 (n=631)\u000a\u000aJ.D. Scholten @Scholten4Iowa (D) 44\u000aSteve King (R) 45\u000a\u000aMovement: 26 points to D (was Trump+27)\u000a\u000aTrump won I\u2026
p287
aVRT @10MinutesaDay4U: MS-4: Send Jeramey Anderson to the US House this year! He believes healthcare is a right, not a privilege, &amp; he\u2019ll fig\u2026
p288
aV@10MinutesaDay4U Coghlan should definitely be out.  \u000ahttps://t.co/y4gSEr8koB
p289
aVIllinois Voters, \u000a\u000aNeed Voting Suggestions for Judges? \u000a\u000a\U0001f4afVote to Retain: \u000a\u2714\ufe0fPamela Leeming\u000a\u2714\ufe0fCarol Howard\u000a\u2714\ufe0fErica\u2026 https://t.co/8WmQlM89VW
p290
aVRT @LOLGOP: Burning taxpayer money to send troops to a fake crisis right before an election is a reminder why it's a good idea to elect a p\u2026
p291
aV@realAliTweets Happens to the best of us https://t.co/98vkoJyiok
p292
aV@realDonaldTrump Reported
p293
aVRT @Bofuvum: My family will no longer have items from\u000a@LandOLakesInc \u000a@Charmin \u000a@tide \u000a@Bayer \u000a@SweeTARTSCandy \u000aon our shopping list until\u2026
p294
aVRT @itsJeffTiedrich: you didn't have to tell me that the Pittsburgh Synagogue shooter was white, I figured that out when you said he was ta\u2026
p295
aV@IvankaTrump America is stronger than your father.  I agree.
p296
aV@GeraldoRivera @PghPolice #complicitGOP
p297
aV@Dax_x98 https://t.co/46WK3L6DoR
p298
aV@JeffFlake #ComplicitConservatives
p299
aVThis thread \U0001f602\U0001f602 https://t.co/cSdfogx9Fy
p300
aV@Nate_Cohn IL-6
p301
aVRT @d_haggar: Um I guess I\u2019ll take a \u201cCNN Sucks\u201d push-up pop https://t.co/TKiJ8O1Nfo
p302
aVRT @ManInTheHoody: the only way to stop a bad guy with trump stickers is a ton of good guys with "i voted" stickers
p303
aVRT @AynRandPaulRyan: #Vanifesto OMG best. ht. ever.\u000a\u000aAlso, I don't want to hear one more fucking person tell me not to use the HT #MAGABomb\u2026
p304
aVRT @SusieQ_16: I am almost finished with another batch of #Postcards4BlueWave This time it is for Representative @jerameyanderson for US Co\u2026
p305
aVRT @ReneeLibby2: Can we just fast forward to the part where Beto O'Rourke is President?
p306
aV@MikeLevinCA So your opponent is running to represent a California district in the House and her strategy is to ... insult California?
p307
aV@Antwannroundtr1 @BmgTonio151 @citizenyid @AndrewGillum @brianbeutler recently published a series of essays on felo\u2026 https://t.co/oemyyKPquo
p308
aV@thomaskaine5 Did you send the trumpee the NYT article on Trump\u2019s business failures and tax fraud?
p309
aV@geraldineknap17 @BmgTonio151 @Antwannroundtr1 @citizenyid @AndrewGillum Gillum isn\u2019t a crook\u2014@geraldineknap17 is j\u2026 https://t.co/5u1LW6KzZW
p310
aVRT @peterdaou: Slowly, for the thousands of rightwingers who don't seem to get what I'm saying:\u000a\u000aEVERY\u000aOBJECTIVE\u000aSTUDY \u000aCOMPARING\u000aRIGHT\u000aAND\u2026
p311
aVRT @AndrewGillum: As my grandmother used to say \u2014 a hit dog will holler. https://t.co/kC34Ldd0is
p312
aV@citizenyid @BmgTonio151 @AndrewGillum Amendment 4 would restore the right to vote after they\u2019ve served their time.
p313
aV@NBCNews Stop giving Trump a platform. You\u2019re part of the problem.
p314
aVRT @bitchkitten5: You all know this is make or break time.\u000a\u000aIf you like a little color therapy like me, dm @musicrocksit452 get your marker\u2026
p315
aVRT @rachel_grewell: Just finished my second round of postcards for @Janet4OH. If you want a super easy way to help build the blue wave \U0001f30a yo\u2026
p316
aV@DogginTrump I voted yesterday\u2014straight blue! \U0001f30a\U0001f30a\U0001f30a
p317
aVProtecting our healthcare depends on electing Democratic representatives like @Janet4OH! Please VOTE!\u2026 https://t.co/f00xJV5uuZ
p318
aVRT @jenny_weyler: Protecting our healthcare depends on electing Democratic representatives like @hmforcongress ! Please VOTE! #Postcards4Bl\u2026
p319
aV@AP_Politics @AP Merriam-Webster defines an "army" as "a large organized body of armed personnel trained for war."
p320
aVRT @DisavowTrump20: BREAKING: Native American Lesbian Lawyer Sharice Davids holds a stunning 9-point lead over Trump-endorsed GOP incumbent\u2026
p321
aV@jenny_weyler @hmforcongress Those look great!!
p322
aV@GeraldDThomas Chicago. Don\u2019t think Trump\u2019s going to have one of his little parties here any time soon. \U0001f601
p323
aV@_SJPeace_ The GOP doesn't deserve to have this majestic animal as its symbol.
p324
aVRT @brianschatz: Media treats the word \u201clie\u201d like they think the FCC will shut them down if they use it.
p325
aVRT @atDavidHoffman: Trump isn\u2019t painting us as an angry mob. The media is. Trump says it at a rally and the media repeats it and repeats it\u2026
p326
aVRT @peterdaou: So tired of political strategists slicing and dicing the electorate into segments and Democratic leaders agonizing over whic\u2026
p327
aV@MSNBC @Lawrence Come on, @msnbc, @Lawrence doesn\u2019t just \u201cthink\u201d the president is lying\u2014as he points out, the presi\u2026 https://t.co/sBxkjgmXA7
p328
aV@NRA @tedcruz @BetoORourke Translation: Cruz is in the pocket of the corporate gun lobby
p329
aV@morninggloria I know. I looked it up.
p330
aVRT @Pappiness: Dear Mitch McConnell,\u000a\u000aThey're called entitlements because we are entitled to them. We pay social security and are entitled\u2026
p331
aV@essenviews @MayIrmamay14 Who glued googly eyes on Steve king?
p332
aV@TurnipsBride @GOP @FoxNews I get it.  I do. But can the meltdown wait until after the midterms?  Every vote counts \U0001f60a
p333
aV@Messina2012 @SenWarren Um, we can multitask...
p334
aV@voxdotcom @Reverend_Freako You can\u2019t \u201creveal\u201d something in plain sight. Trump\u2019s ignorance and dishonesty have been\u2026 https://t.co/DwozxWrOmM
p335
aV@tedcruz Oh Ted.  Being in the pocket of the gun lobby isn\u2019t anything to brag about.
p336
aV@NPC42354325 @groggygirl85 @resist12359914 @mnmanofhour Ok MAGAt troll
p337
aV@resist12359914 @NPC42354325 @groggygirl85 @mnmanofhour You might want to google \u201cfascism\u201d
p338
aV@NPC42354325 @groggygirl85 @resist12359914 @mnmanofhour We don\u2019t beat them by being just as despicable as they are.
p339
aV@resist12359914 @mnmanofhour Please vote instead of assaulting people.
p340
aV@sojoiner19 @MarySaville3 Harris-O\u2019Rourke
p341
aVRT @KassandraSeven: Everyone please memorize this. \u000a\u000aIf you have trouble voting, any trouble at all, and the election officials aren\u2019t help\u2026
p342
aV@OriginalJLP You\u2019re not alone. We\u2019re out here.  Also mellowcream pumpkins.
p343
aV@sensiblemom @BrentHBaker @newsbusters @HBO @PodSaveAmerica @morninggloria Would you like some more koolaid?
p344
aVRT @jonlovett: There are purges going on across the country to stop people from voting. Check your registration status. You can do it at ht\u2026
p345
aV@senatemajldr I\u2019m donating $5 to #DitchMitch every time @SenMajLdr says something stupid. This $5 is for lying abou\u2026 https://t.co/YFXgqr9uID
p346
aV@itsJeffTiedrich @mrnlreyReyes Melania is just as complicit as anyone who enables Trump.
p347
aV@stucam7771 Is getting older always associated with becoming more conservative or is it just the boomers?  Most Gen\u2026 https://t.co/3191IUCzPE
p348
aVIt's not enough that the economy is good.  It has to be good for everybody. https://t.co/At9110orIm
p349
aVRT @TVietor08: Holy. Shit. Ok everyone start giving to other senate races. https://t.co/fHEDIXCAsZ
p350
aV@IndivisibleIL @GovRauner Soon to be ex @GovRauner \U0001f60a
p351
aV@davidmweissman Yoga every day.
p352
aV@Unpersuaded112 It's not the age, it's the stupidity.  Diane Feinstein is up there too, but she's not a drooling racist, misogynist moron.
p353
aV@UROCKlive1 @TielaTiela @GOP The GOP also loves saying "all politicians lie" "all politicians are crooked," as if t\u2026 https://t.co/nnbt6L6BlH
p354
aV@castlemischief @IreneEggink @onefussyone @adamcbest @kingmanmarie39 That\u2019s fair Matt. How can we support blue voters in red states more?
p355
aV@petersagal Speaking truth to power is the responsibility of the fourth estate\u2014not giving a megaphone to a liar, even if he\u2019s a president.
p356
aV@Sara4Congress @IndivisibleIL @RepKinzinger No thx\u2014Chicago doesn\u2019t want him either. \U0001f642
p357
aVI\u2019m donating $5 to #DitchMitch every time @SenMajLdr says something stupid. It\u2019s going to get expensive.\u2026 https://t.co/UMYmXI4tBL
p358
aV@nasty_woman2 We don\u2019t have to actually revolt. They\u2019ll just lie and use state power against us.
p359
aVRT @sirDukeDevin: Republicans are trying to run a smear campaign against the left, painting them as a largely violent group of sore losers.\u2026
p360
aV@DylanByers @MichaelAvenatti @DonaldJTrumpJr Done with this toxic masculinity. Ugh.
p361
aV@IreneEggink @onefussyone @adamcbest @kingmanmarie39 I agree the confederate states can secede.  We can give two mo\u2026 https://t.co/tTwyQit5hB
p362
aV@Zathras3 Great thread.
p363
aV@TomiLahren says the woman who supports a reality tv host
p364
aV@lustforlaughs @joncoopertweets \U0001f644
p365
aVRT @AriBerman: \U0001f6a8Super important: Today (Oct 9) is last day to register to vote in 15 states: \u000a\u000aAZ \u000aAR\u000aFL\u000aGA\u000aIN\u000aKY\u000aLA\u000aMI\u000aMS\u000aNM\u000aNV\u000aOH\u000aPA\u000aTN\u000aT\u2026
p366
aV@tribelaw I\u2019d give money to be in the room the first time Kavanaugh tries to mansplain the constitution to RBG
p367
aV@eahanks @SaraFloodman Same people who thought Handmaids Tale was utopia
p368
aVRT @andylassner: American Bar Association reopens Kavanaugh evaluation https://t.co/8qAojQhgha
p369
aV@SameeraKhan I don't care how you vote as long as you vote.
p370
aV@JohnCornyn Just because your votes are bought and sold @JohnCornyn doesn't mean everyone else's are.
p371
aV@jaynordlinger I\u2019ll provide the broken glass.
p372
aVRT @nytimes: Our investigation revealed that Donald Trump received the equivalent today of at least $413 million from his father\u2019s real est\u2026
p373
aV@SteveKingIA Don\u2019t bother responding to .@SteveKingIA.  He\u2019s an idiot.  Instead, donate to his opponent.  https://t.co/QXbvvvJ9DJ
p374
aV@TVietor08 The GOP digging their heels in on Kavanaugh makes sense if they're planning a huge, probably unconstitut\u2026 https://t.co/GkTRd38w6u
p375
aVRT @NickKristof: If the Saudi crown prince thought he could stifle criticism by murdering journalist Jamal Khashoggi, let's prove him wrong\u2026
p376
aVBeautifully said. https://t.co/L0Vg278wOV
p377
aV@melissaplusone @MattxRed @davidhogg111 .@melissaplusone you\u2019ve inspired me!  I\u2019m carrying voter registration forms\u2026 https://t.co/rbHXR9kVt1
p378
aV@george_capen @simplyadornedal ERA
p379
aVLets show @SenatorCollins that we want her to vote NO on Kavanaugh. Pledge to this campaign. If she votes for\u2026 https://t.co/PO6BjfzkZx
p380
aVRT @emrazz: Dear @SenatorCollins,\u000a\u000aWe are disappointed but not surprised. You\u2019re free to go. Don\u2019t call here again. \u000a\u000aRemembering you alway\u2026
p381
aVYes.  Consequences. https://t.co/bzM5x2q5Za
p382
aV@PalmerReport We can multitask.
p383
aVRT @PauletteParis1: @TheBeatWithAri Get @Sen_JoeManchin OUT of all Democratic Committee assignments. NOW! You listening , @chuckschumer?
p384
aV@spiritbulldog @kchernecky @benwikler Manchin\u2019s opponent is an NRA-endorsed bigot.  We\u2019re stuck with another six ye\u2026 https://t.co/cCJk6fCKV6
p385
aVDear @Sen_JoeManchin:  I know we had something once, but it\u2019s time to let go. We just have nothing in common anymor\u2026 https://t.co/tKslxTed3c
p386
aVRT @NationalNOW: .@SenatorCollins - That was an insulting, misguided, mistaken &amp; cowardly speech. Gaslighting is a tactic used to gain more\u2026
p387
aV@GeorgeHWBush @kaitlancollins @SenatorCollins Congratulations @SenatorCollins for subjecting your nation to decades\u2026 https://t.co/IRP6MTH4uL
p388
aVRT @ACLU: It isn't too late to do the right thing, @JoeManchinWV. You met with survivors of sexual assault for hours yesterday \u2014 think of t\u2026
p389
aVRT @shaunking: BREAKING: The jury just found Chicago Police Officer Jason Van Dyke GUILTY of 2nd degree murder AND 16 different counts of a\u2026
p390
aVPeople who think no one takes a stand without being paid are telling on themselves. https://t.co/kOG06b1cKw
p391
aV@CharlesMBlow To the surprise of no one, Flake makes the wrong decision after briefly pretending to have a conscience.
p392
aV@jonfavs Kavanaugh is exactly the kind of person @Sen_JoeManchin said he WOULDN\u2019T vote for a few months ago. https://t.co/AsbUIdgBP6
p393
aV@MichaelAvenatti We\u2019re not making the world a better place by replacing their bullies with our bullies.
p394
aVRT @DWeiss36: @olgaNYC1211 I feel like we're in an episode of "24" but rather than only Jack Bauer knowing of, and racing to expose, a corr\u2026
p395
aV@OhNoSheTwitnt In June, @Sen_JoeManchin told the WV Metronews he wanted a \u201ccentrist\u201d SCOTUS nominee \u201cwho doesn\u2019t we\u2026 https://t.co/LMTN0KUZVr
p396
aV@Alyssa_Milano @adamcbest @lisamurkowski Please follow up with a no vote on the nominee @lisamurkowski. We believe in you.
p397
aV@EdKrassen @Sen_JoeManchin In June, @Sen_JoeManchin told the WV Metronews he wanted a \u201ccentrist\u201d SCOTUS nominee \u201cwh\u2026 https://t.co/Kjwu8y6lci
p398
aV@Alyssa_Milano @Sen_JoeManchin Hey @Sen_JoeManchin remember this from June? \u000a\u000a\u201cI\u2019m looking for somebody that\u2019s cent\u2026 https://t.co/rqNKKNSKW6
p399
aVHey @Sen_JoeManchin remember this from June? \u000a\u000a\u201cI\u2019m looking for somebody that\u2019s centrist,\u201d Manchin said Friday. \u201cI\u2026 https://t.co/bWIneP3ciX
p400
aV@peterdaou Manchin\u2019s a DINO
p401
aV@Stonekettle Manchin\u2019s a Democrat.  Hard to tell by the way he votes, but he\u2019s not a Republican.
p402
aVRT @TrueFactsStated: Thank you! https://t.co/noCaXFN55p
p403
aVRT @dizwire: Holy shit, Mad Magazine \U0001f44f\U0001f44f\U0001f44f\u000aPulling no punches. https://t.co/UMTNmb7u9G
p404
aVRT @CaptJaneway2017: Call it serendipity. I created this pic of #Kavanaugh the same night TIME Magazine worked on the amazing graphic of #D\u2026
p405
aVI'm volunteering on #TheLastWeekend before the midterm elections. Where will you be? Sign up at https://t.co/RT4LEortxc
p406
aVRT @SenatorDurbin: The White House and Senate Republicans rigged the investigation of sexual assault allegations against Brett Kavanaugh so\u2026
p407
aVRT @jonfavs: Any Senator could very easily decide to vote against Kavanaugh purely on the basis of these quotes from his opening statement.\u2026
p408
aV@RepKevinBrady @jw33062 @WSJ @realDonaldTrump Your outrage is telling\u2014some shady tax practices you\u2019re worried about on your own returns?
p409
aVRT @funder: .@SenatorCollins @LisaMurkowski @JeffFlake-Everyone who retweets this wants you all to #VoteNo. Will this be your legacy? Putti\u2026
p410
aV@PreetBharara TCPA?
p411
aVRT @SenatorLeahy: READ these full, new threads about Judge Kavanaugh\u2019s veracity problem. I\u2019ve pulled it all together and summarized it here\u2026
p412
aVRT @KamalaHarris: Kavanaugh showed us his true nature doing the hearings last week: he\u2019s a partisan political operative and should not sit\u2026
p413
aV@andylassner When you lose the Christians you\u2019re still stuck with the \u201cChristians\u201d
p414
aV@nrprins @LeftWingTexan Don\u2019t despair. The worst amongst us are screaming and kicking right now because they know t\u2026 https://t.co/qtaeLtQVLH
p415
aVRT @susandtom: https://t.co/VfQWhRLcDo
p416
aV@kurteichenwald Don\u2019t despair. The republicans\u2019 recent vile behavior stinks of desperation.  They know their versio\u2026 https://t.co/5lUTUIkg3c
p417
aVRT @NathanLerner: A new poll shows 23% of voters are undecided on Kavanaugh.\u000a\u000aGOP Senators will only vote NO if they believe their jobs are\u2026
p418
aV@thistallawkgirl @MuslimTrumpSad Trump earned my hatred fair and square.
p419
aV@dcexaminer @LindseyGrahamSC Merrick Garland.
p420
aV@LindseyGrahamSC Merrick Garland.
p421
aV@LindseyGrahamSC Merrick Garland
p422
aVRT @SenatorLeahy: A study in contrasts. https://t.co/Z3R7v3wtfy
p423
aV@LindseyGrahamSC Merrick Garland
p424
aV@stucam7771 Anti-choice is about hobbling women.  When women can\u2019t choose when or if to have kids it\u2019s much harder\u2026 https://t.co/9IKHVu8BW0
p425
aVRT @cdkang76: I may be the only person who still cares about Kavanaugh's WH docs, but just a reminder, the National Archives said it would\u2026
p426
aV@Loxsley I think FDR threatened to pack the court (add additional justices) b/c 5 of 9 justices were going to rule\u2026 https://t.co/Q0J2pthWB5
p427
aV@Emma_Dumain Graham is concerned with \u201ckeeping the judiciary sacrosanct\u201d?  Merrick Garland begs to differ.
p428
aV@sabrinajaneCA @SenatorCollins Fox is lying to you. Please look at another news source\u2014such as the Wall Street Jour\u2026 https://t.co/UFGpogP6oW
p429
aVRT @bjaninemorison: @JohnWDean REMINDER: Anyone with tips or leads that can help the FBI with the sexual assault investigation on #Kavanagh\u2026
p430
aV@DaddyDaddymac Turn into Kamala.
p431
aVRT @actblue: Small-dollar donors made their voices heard today more than ever. They\u2019ve raised over $10 million today alone \u2014 more than any\u2026
p432
aV@senjudiciary Section 2.5 of the Internet Services and Technology Resources Usage Rules (the "Decorum Rule") prohib\u2026 https://t.co/gnkeVLwCju
p433
aVThe only positive of having Kavanaugh on SCOTUS would be watching the female justices own him during oral argument.
p434
aV@MichaelAvenatti @real_farmacist @tedcruz He\u2019s available?  Let\u2019s book him.
p435
aVRT @funder: #VoteNo, let\u2019s roll.\u000a\u000aTrend session starts now. Tweet it out, retweet others, let\u2019s get it trending. \U0001f1fa\U0001f1f8
p436
aVRT @RBReich: Sens. Collins, Murkowski, &amp; Flake: \u000a\u000aYou have heard Dr. Ford\u2019s testimony. You have reviewed the information she has provided,\u2026
p437
aV@DickDurbin @kchernecky Commentary to canon 2A of the code of conduct for US judges: A judge must expect to be the\u2026 https://t.co/tQfpC4O0hJ
p438
aV@michaelianblack Commentary to canon 2A of the code of conduct for US judges: A judge must expect to be the subject\u2026 https://t.co/mZBYF2I15L
p439
aV@JRubinBlogger @aravosis Commentary to canon 2A of the code of conduct for US judges: a judge should avoid the appe\u2026 https://t.co/44x6bzAygt
p440
aV@jonfavs @aravosis Canon 2B of the code of conduct for US judges: A judge should not allow family, social, politica\u2026 https://t.co/AS0256p93c
p441
aVRT @JesseLehrich: here's how the Senators who've yielded their time to Prosecutor Mitchell voted on the 2013 Violence Against Women Act:\u000a\u000aM\u2026
p442
aV@SethAbramson Canon 2A of the code of conduct for US judges: a judge should act at all times in a manner that promo\u2026 https://t.co/dRTPMxRlSX
p443
aVFurther commentary to canon 2A of the code of conduct for US judges: A judge must expect to be the subject of const\u2026 https://t.co/cI8SeeUEiv
p444
aVCommentary to canon 2A of the code of conduct for US judges: a judge should avoid the appearance of impropriety, e.\u2026 https://t.co/8a3ZsUAE3V
p445
aVCanon 2A of the code of conduct for US judges: a judge should act at all times in a manner that promotes public con\u2026 https://t.co/IAOhLDihL2
p446
aVCanon 2B of the code of conduct for US judges: A judge should not allow family, social, political, financial, or ot\u2026 https://t.co/iYbzX7Euei
p447
aVRT @51PercentofUS: @thehill yes. @LindseyGrahamSC it IS. And we will never forget the role you played in it. Women will fight your appointm\u2026
p448
aVRT @Fight4Goodness: A judge who uses conspiracy theories to defend himself against sexual assault allegations has no business on the #SCOTU\u2026
p449
aVRT @andylassner: I am so grateful to @ChuckGrassley today for giving us all a perfect picture of exactly who the @GOP is. \u000a\u000aThank you, sena\u2026
p450
aVRT @SymoneDSanders: Someone please run against Lindsay Graham. I\u2019ll go work on the campaign. This is disgraceful
p451
aVRT @emzorbit: \u201cIf Kavanaugh didn\u2019t want his past to become public, then he shouldn\u2019t apply for a job that demands the public\u2019s trust.\u201d - @M\u2026
p452
aVRT @kylegriffin1: Dick Durbin: "Mark Judge should be subpoenaed from his Bethany Beach hideaway &amp; required to testify under oath, but he ha\u2026
p453
aVRT @girlsreallyrule: This format created by the GOP is greatly helping Dr. Ford. Her witness testimony with Rachel Mitchell makes her look\u2026
p454
aV@danpfeiffer He\u2019ll always have a place at the Dairy Queen.
p455
aVRT @jonfavs: Everyone register. \u000a\u000aEveryone vote. \u000a\u000aEveryone get everyone you\u2019ve ever known to vote. \u000a\u000aEvery single Republican politician su\u2026
p456
aVDoubling down on stupid is the current GOP\u2019s MO. https://t.co/CTFb5ldoF1
p457
aVRT @Amy_Siskind: I think the challenge for us all right now is to take the anger and outrage we are feeling and bring it out to action.  I\u2026
p458
aVRT @old_osc: Dr. Ford,Ms Ramirez,Julie Swetnick\u000a\u000aI honor you\u000aI stand with you\u000aI believe you\u000a\u000aI can\u2019t imagine the courage it takes to stand\u2026
p459
aVRT @jentaub: \U0001f494Julie Swetnick is a brave woman. See her sworn declaration below https://t.co/8lDt388ceo
p460
aV@mschlapp Say it with me: MERRICK GARLAND
p461
aV@SassyKadiK He can\u2019t read, silly!
p462
aVRT @TeaPainUSA: For the safety of your children, there needs to be an app that shows if there are any registered Republicans livin\u2019 in your\u2026
p463
aV@fromthebunkerjr @drhug @MichaelAvenatti Who needs Avanatti when you have Kamala?
p464
aVRT @bimmerella: Senator @LisaMurkowski, thank you for standing up for Alaska women. We need you to do it again. Protect our constitutional\u2026
p465
aV@LindseyGrahamSC @realDonaldTrump Say it with me: MERRICK GARLAND
p466
aVRT @girlsreallyrule: Again, we apologize to the entire world and want everyone to know America is working diligently to correct the issue.\u2026
p467
aVRT @ChrisLu44: Supreme Court nominee who in high school was:\u000a\u000a-Valedictorian\u000a-Student council president\u000a-Debate team\u000a-Science contest winne\u2026
p468
aV@PamelaPatriot Let\u2019s each donate $1 to McConnell\u2019s future democratic opponent every time McConnell does or says som\u2026 https://t.co/11dmIo4cf8
p469
aVFile under \u201cthings that should have happened weeks ago\u201d https://t.co/yCy6zRKyFz
p470
aVRT @danpfeiffer: It\u2019s almost like forcing Rosenstein out is part of a plot to obstruct justice or something  https://t.co/dUbStcMS2o
p471
aVRT @kazweida: I know the White House wanted to distract from the Kavanaugh hearings this week, but firing Rosenstein is a terrible way to d\u2026
p472
aV@LindseyGrahamSC @realDonaldTrump What a hypocrite you are @LindseyGrahamSC.  Let me spell it out for you:\u2026 https://t.co/v8qMm5xuQd
p473
aV@davidhogg111 It\u2019s so thoughtful of the NRA to give grades.
p474
aVRT @jackie_french_: Me: how much does it costs to  borrow a thousand books a year from the library?\u000aSmall boy: $500?\u000aSmaller girl: $1,000!\u2026
p475
aV@LoriGingrich @ChuckGrassley So you agree\u2014the FBI should do a full investigation, right?
p476
aV@whiteloser80 @ChuckGrassley So we agree\u2014a full FBI investigation should happen immediately. Right?
p477
aV@ChuckGrassley Gosh, @ChuckGrassley, I didn\u2019t realize it was all about you.  Maybe you should worry less about a po\u2026 https://t.co/KUe6ZA5XT0
p478
aVRT @funder: Dear Judge Kavanaugh-\u000a\u000aWe request that you withdraw your nomination. Whether it's the stolen emails, hidden documents, your per\u2026
p479
aVThis is what complicity looks like. https://t.co/l1qnitArvs
p480
aV@leeleeb50 Ocasio Cortez
p481
aVYup. The anti-choice crowd is ok with abortion when it\u2019s THEIR choice, just not when it\u2019s anyone else\u2019s choice\u2014esp\u2026 https://t.co/j7G8V7AUZn
p482
aVRT @mmpadellan: President Obama: A superior human in EVERY way.\u000a\u000aClass\u000aIntellect\u000aCharacter\u000aLeadership\u000aDiligence\u000aDignity\u000aHonor\u000a\u000aRETWEET if u\u2026
p483
aVRT @maddow: Stop the news please, I would like to get off.
p484
aVMansplaining at its absolutely worst https://t.co/5jbWhZDHnW
p485
aVRT @kylegriffin1: A survey commissioned by the RNC found voters overwhelmingly believe the GOP tax law helps the wealthy over average Ameri\u2026
p486
aVRT @LTABN: @murrayb560sl @realDonaldTrump If Trickle Down actually worked, Monarchies and Despotic Banana Republics would be the most effec\u2026
p487
aV@ItsMeCathi @MSNBC Why are they running political ads for a non-elected position?   I guess it\u2019s better they spend\u2026 https://t.co/smeuxliOPw
p488
aVRT @DHStokyo: Yes, it's true. Early voting for the November midterms is already here for some states. Please RT to spread the word!\u000a\u000aILLINO\u2026
p489
aVRT @SuitUpMaine: We are deeply disappointed by @SenatorCollins' request that the Judiciary Committee allow lawyers for Christine Blasey For\u2026
p490
aV@juliuscaesarrex @FiveThirtyEight \U0001f602\U0001f602\U0001f602
p491
aV@bluegal @johnrutledge Done and done.
p492
aV@KimsMom3 @bjcreigh Self-hatred I think
p493
aV@juliuscaesarrex @FiveThirtyEight Performance art, love it
p494
aVRT @swingleft: \u201cSitting at home and waiting on the blue wave as if it\u2019s a weather event isn\u2019t going to do it.\u201d \u2014@JasonKander on @crush18mid\u2026
p495
aV@LindseyGrahamSC If you\u2019re in such a rush to get a qualified judge on the court I bet merrick garland would clear his schedule
p496
aV@tedcruz Thank you for your service to Beto\u2019s campaign
p497
aV@JoeBarri Kennedy blew his entire legacy by letting Trump pick his replacement.
p498
aVRT @MrDane1982: No one, period, is sounding more presidential than Hillary Clinton.
p499
aV@danpfeiffer The GOP is the party of doubling down on awful people and ideas. It\u2019s like they can\u2019t help themselves.
p500
aV@Amy_Siskind @etor2756 If we all donated a dollar to McConnell\u2019s future opponent every time McConnell did something\u2026 https://t.co/ZXAQ9XibGE
p501
aVSent a 10 pack of @aclu pocket constitutions to WH with gift message something like \u201cGiven the administration\u2019s app\u2026 https://t.co/YawBxOd00b
p502
aV@melindaville @BlueWaveNov6 @jbeck44 @StephenKing I\u2019m saying it\u2019s better for a red state democrat to vote against K\u2026 https://t.co/m8k98pRMF5
p503
aV@BlueWaveNov6 @melindaville @jbeck44 @StephenKing Kavanaugh can do more damage in a lifetime appointment than any s\u2026 https://t.co/defGU9xlO0
p504
aV@CityofBGKY By "misspeak" do you mean "lie"?
p505
a.