(lp0
VRT @WorldWideWob: Shumpert hit Giannis with the hesi and was definitely thinking he was home free https://t.co/lWXgccm46V
p1
aV@MarkDeeksNBA It's all about the forward pass. A lot easier to throw a ball somewhere than to run the whole way.
p2
aVRT @_youhadonejob1: Bing just give up. https://t.co/3AtuOGQCQg
p3
aV@JayCapron @SteveKingIA And that Confederate flag represents all the Iowans who died fighting the North, lol
p4
aV@JayCapron @SteveKingIA But he knows a couple people of color, so that means he's not racist. https://t.co/Us5kLtK5Ga
p5
aVRT @MichaelGalanin: Highway to the Moon in South Dakota. Image Credit:  Aaron J. Groen https://t.co/iouAlXHwBH
p6
aVRT @tankathon: Jabari box score:\u000a15 pts on 6-12 fg\u000a3 rebounds\u000a2 pizza puffs\u000a0 blocks\u000a1 steal\u000a0 assists\u000a7 turnovers
p7
aVLooking good @JHarden13 https://t.co/KQxzpoTBlX
p8
aV@JosephNardone @msjnba Not sure if it's as distinct in other countries as in the States, but the accepted and expec\u2026 https://t.co/X0wK8aUt1q
p9
aV@msjnba @JosephNardone It looks like around 10% of the student population is Hispanic as well. They send their kids\u2026 https://t.co/ktIAR21z4w
p10
aVRT @genebsperling: A headline that accurately tells you about everything you need to know about what is at stake for health care in this el\u2026
p11
aVRT @BleacherReport: The CFL does things a little different \U0001f602\u000a\u000a(via @REDBLACKS)\u000ahttps://t.co/glvB4NIjtC
p12
aV@ProPublica @SBTribune A little transparency would have gone a long way. Tell the truth, give a suspension, etc. Co\u2026 https://t.co/RNjbcVx1Kx
p13
aVRT @CodyWesterlund: I just don't get Hoiberg having Parker on the floor over Hutchison there on defense. That decision didn't matter, but p\u2026
p14
aV\u2066@SteveKingIA\u2069 Is it true you have a Confederate flag on your desk? Photoshopped? https://t.co/pz99DJlo0U
p15
aVRT @NBCSBulls: When coach tells @blakeney96 to be aggressive (8-11, 18 pts in 22 minutes) https://t.co/iWwyWVjnFe
p16
aV@FranksYanks23 @cbefred Haha
p17
aV@mkhoops Was Jabari the fourth or fifth man back? That was a bad look..
p18
aV@NSNCFic @MSDschools School district removed access to the school directory (which usually has pictures and email addresses)
p19
aV@NBCSBulls #AuthenticFan 115
p20
aV@NBCSBulls 115 #AuthenticFan
p21
aVRT @dannyoconnor1: Folks, we NEED to make this clip go VIRAL.\u000a\u000a\U0001f501\U0001f525SHARE SHARE SHARE\U0001f525\U0001f501 https://t.co/2oGE2fKr0U
p22
aVRT @AJemaineClement: Littlefingers. https://t.co/1akH48SHsh
p23
aVRT @KristenClarkeJD: BREAKING: We won! We have fully defeated Brian Kemp in our exact match lawsuit securing ALL relief we sought for voter\u2026
p24
aVRT @backt0nature: An important message! https://t.co/VIyaCcSImU
p25
aVRT @SNicktendo: Check out my latest video about the Amico and VCS. Tommy from intellivision even commented on it! https://t.co/io0oW1pscz
p26
aV@BawlSports @BullScripted 2 Way Slasher SF
p27
aV@BawlSports @BullScripted https://t.co/26Wmfw9ksQ
p28
aVRT @VancityReynolds: How well do you really know @RealHughJackman? https://t.co/cV0W7C4LE3
p29
aVRT @aaronecarroll: Can we all just pause for a minute and acknowledge that 18 Republican state AGs, with the support of the Trump Administr\u2026
p30
aV@SBN_Ricky Wendell would eat his lunch..
p31
aV@hankgreen OConnell: Huh?! New trick?
p32
aVRT @ABC: New surveillance footage shows brawl between passenger and driver before bus veers into wrong lane and falls off bridge in southwe\u2026
p33
aV@JayCapron You'll be able to visit them in LV next time you see them live! But yeah woof woof this year https://t.co/cqCjNjf4h0
p34
aV@IwriteOK @bastardspod You make good $hit!
p35
aVRT @bastardspod: NEW EPISODE: The Bastards of the 2018 Midterm Elections - out now! @IwriteOK is joined again by @katystoll &amp; @drmistercody\u2026
p36
aV@hankgreen Unemployed? But alive!
p37
aV@Sam10211021 @NPR They don't "send" them here. People of influence or wealth from countries all over the world by a\u2026 https://t.co/Hfcd4YhSp7
p38
aV@DannyParkins Good points. Is he irredeemable in today's society? Some people were giving him grief for celebrating\u2026 https://t.co/ZjEOLGvoyn
p39
aV@KCJHoop KC is probably NBA combo guard height too!
p40
aVRT @BradSheffield: Made a deal with my wife a few months back that if was if she was still pregnant come #Halloween, she\u2019d dress up as Bob\u2026
p41
aVRussian Internet Troll interview https://t.co/rwwA7mdVvM
p42
aVRT @iamvega1982: Wendell Carter Jr Block https://t.co/yUNf9RS3Ii
p43
aV@mkhoops https://t.co/YEnne4H1kd
p44
aVRT @BloosClues: A DMV employee dressed up as a sloth \U0001f480\U0001f62d https://t.co/lMl8715yEb
p45
aV@JordanCMaly Yeah, the W/L of the trade is kind of dumb/useless. (1)Did they get the most for Jimmy? (2) How did th\u2026 https://t.co/ul59smt4je
p46
aVRT @elonmusk: Scientists uncover Sneaky move by GM https://t.co/fUynq0o0Bo
p47
aV@TVietor08 @jonfavs @BetoORourke @Coonalicious1 https://t.co/Xl0VQu6R4B
p48
aV@viralestposts The crypt keeper, Tales from the Crypt! https://t.co/7BUPXwCLVG
p49
aVRT @TheOnion: Man Wouldn't Have Worn Costume To Work If He'd Known He Was Getting Laid Off https://t.co/Zzqr4mYbMH https://t.co/Om0Mjzu5wf
p50
aV@FreeMemesKids @Coonalicious1 you gotta do this!
p51
aV@BullsBlogger They're not signing anyone important in FA and could still theoretically use Porter or Lavine in a trade at a future date.
p52
aV@BullsBlogger What will it cost? No on this years first, yes on expirings &amp; non-core players (WCJ,LM,ZL,KD). If that's possible, why not.
p53
aV@cbefred @thekapman Yeah, he would have been a PG, if they were actually serious about competing this year. They're\u2026 https://t.co/hdsFe0YALc
p54
aV@cbefred "but I made valid and coherent points"? What do you do normally\u2686 _ \u2686
p55
aVRT @RBReich: I keep hearing that although Trump may be a scoundrel or worse, he\u2019s done a great job for the economy. Baloney. Here's the tru\u2026
p56
aVRT @DAlLYKlTTEN: Look at that jump! \U0001f440 https://t.co/rtSOKrHNk7
p57
aV@jaredepicpower Woah
p58
aV@mkhoops I expect this team to start just as bad as last year's, but once everyone's healthy and there are some coa\u2026 https://t.co/Q7qR3cbTBM
p59
aV@cubbieblue3 @CarrieMuskat https://t.co/ZFV0fZankC
p60
aV@JordanCMaly @cbefred Talking Bears I hope!
p61
aVRT @TEDTalks: Can reason answer moral questions? On this episode of #TheTEDInterview, @SamHarrisOrg and @TEDChris dig into how to think abo\u2026
p62
aVRT @ABC7: #BREAKING 'Boy Meets World' actor William Daniels, 91, foils attempted burglary at San Fernando Valley home\u000ahttps://t.co/ptT1buN4\u2026
p63
aVRT @CassidyHubbarth: This teacher puts the 2016 Cavs to shame.... https://t.co/RiUdg7OiY1
p64
aV@answerswithjoe @YouTube My wife says I don't
p65
aVRT @_youhadonejob1: This kid wins Halloween. https://t.co/yiMkGHPUqx
p66
aVRT @rickygervais: It\u2019s fucking disgusting. Why pander to the psychotic fantasies of these sadistic cowards? https://t.co/AzzO0YbhUd
p67
aVRT @nowthisnews: Republican governor Brian Kemp tried accusing Stacey Abrams of telling 'illegals' to vote for her. Her response was brilli\u2026
p68
aVRT @dodo: This kitten was dodging traffic on a super busy road, but this lady on a motorcycle swooped in and changed his life \u2764\ufe0f https://t.\u2026
p69
aVRT @kylegriffin1: Obama: "The president said he'd pass a middle-class tax cut before the next election. Congress isn't even in session. He\u2026
p70
aV@BullsSource Any of those guys would be a huge upgrade. Zion might be more of a 4, but it looks like he can defend\u2026 https://t.co/CUTKfo0KOc
p71
aV@WorldWideWob @Coonalicious1 @spate103 beautiful stuff
p72
aVRT @jonswaine: Cesar Sayoc, arrested in connection to the attempted mail bombings, wearing a MAGA hat at a Donald Trump rally in October 20\u2026
p73
aVRT @aveirjapan: https://t.co/tws3KAZHL6
p74
aV@YouHadOneJ0B @JayCapron @spate103 @Coonalicious1 this is glorious
p75
aVRT @JordanUhl: I just left a hipster coffee shop in DC where all the liberals were murmuring about how much they love being in the deep sta\u2026
p76
aVRT @mkhoops: Through my sources, I\u2019ve managed to secure footage of @cbefred and his run in with a \u2018coyote\u2019 whilst taking out the trash http\u2026
p77
aVRT @mikejohnnysmith: @jaxinthedesert @dodo I was gonna say huge sacks but yeah hearts too
p78
aV@FloridaMan__ https://t.co/Yk6cOXWCRp
p79
aVRT @FloridaMan__: Florida Man mailed about a dozen pipe bombs to political opponents and critics of President Trump, apparently https://t.c\u2026
p80
aV@cbefred Inspiring.. https://t.co/rFwxtZ4bmk
p81
aVRT @suntimes_hoops: Bulls still haven't made official announcement, but talk this morning from a source is Portis right knee could be a 4-6\u2026
p82
aVRT @YesYoureRacist: \u201cWhites don\u2019t kill whites\u201d \U0001f440 https://t.co/H2HuIyXgJJ
p83
aVRT @chicagobulls: Jabari Parker plays What's In the Box (spoiler alert: it's Robin Lopez's head) and it is an all timer \U0001f923 https://t.co/KxZy\u2026
p84
aVLol. Too bad there's not a video of the Cirque du Soleil adventure.. https://t.co/MTsHGOWjLt
p85
aVRT @TopherSpiro: BREAKING: The Dallas News, which leans right, just endorsed @BetoORourke over @tedcruz. This is huge.  \u000a https://t.co/rz9i\u2026
p86
aV@UpFirst @NoelKing Started the day listening to @UpFirst and trying to get this lazy bum to move.. https://t.co/tJhJ7Lmp5O
p87
aVRT @SBN_Ricky: https://t.co/7NDsyPBoz9
p88
aVWicked Burn! https://t.co/XFXUXdkEuf
p89
aV@johnnyobesrs @670TheScore @DannyParkins @dan_bernstein https://t.co/YeNKw3CFzA
p90
aVRT @rickygervais: A couple of cunts, dressed up like cunts, shooting a beautiful animal, then posing with the murdered carcass like right c\u2026
p91
aVRT @AFreakingBreak: @jonfavs @tedcruz Come on, Ted. https://t.co/vYf1EGrcFs
p92
aVRT @cbefred: Great article from @MarkSchanowski. I\u2019d like to throw out another gambling option: Play Jabari at PG as a destitute man\u2019s Ben\u2026
p93
aV@Shell Maybe spend your resources on fast charging batteries or something useful? https://t.co/5QvqeuQ0H5
p94
aV@iamvega1982 Payne for the next game or two. Should be an open audition really. Harrison, Archie, and Ulis should a\u2026 https://t.co/KraZmB1zEa
p95
aV@NPR Word on the weird streets is that beer sales are up. That's probably healthy..
p96
aVRT @JamilSmith: Audio leaked to @RollingStone reveals @BrianKempGA telling attendees at a closed-door campaign event that @staceyabrams\u2019s v\u2026
p97
aV@BawlSports Hopefully his defense or his lead ballhandler skills reach league average. That'll be a useful player.
p98
aV@_boog1 @iamvega1982 Hope they have a 30 day money back guarantee!
p99
aV@SNicktendo @SmashJT Does Alexa have a @KAYAK @CheapOair skill? That'd be something to work on
p100
aVThey won't be as bad as the 14 &amp; 15 Sixers in the first 19, but it's not gonna be far off.. eek https://t.co/GfOHpy7sUD
p101
aVRT @nprpolitics: In July 2017, more than 500,000 people were removed from Georgia's voter rolls, including 100,000 who were removed after n\u2026
p102
aV@tomgara I'm glad this didn't get spammed by the Saudi Twitter Bots..
p103
aVOh hell yeah! https://t.co/FKwvn90doc
p104
aV@iamvega1982 https://t.co/MWVfPraefT
p105
aVRT @SeanCasten: You all rock.  And you're getting me all choked up now... https://t.co/QTJvrn3rjj
p106
aV@mkhoops True. They're going to need an expensive PG (Scary Terry?) and possibly a viable wing and/or athletic big.
p107
aV@mkhoops Not sure when they to decide, but they should see if they big fish on the hook first
p108
aV@mkhoops Isn't 3m next year or 1m per year for 3 years?
p109
aVRT @bastardspod: 3 New Episodes This Week About #LRonHubbard Starting Tomorrow!!! Special Guest @caitlindurante of @BechdelCast https://t.c\u2026
p110
aVRT @jaredepicpower: Lot's more people drinking beer for lunch today than I normally see. Perks of the #AustinWater boil notice &lt;3
p111
aV@mkhoops Jurkic/Taj/Jimmy/Gary/DRose? Not too shabby
p112
aVSweet https://t.co/DByT1LjXhm
p113
aVRT @Pointhirty: @wojespn https://t.co/2z696nM4pV
p114
aVRT @ABC: Beer prices could double or even triple as climate change worsens, new study says. https://t.co/eZUBZuNOBo https://t.co/4Mm6iran92
p115
aVRT @elonmusk: @BoredElonMusk BoredElonMusk is my secret troll account. It\u2019s time people knew.
p116
aVRT @NewsHour: During a Montana rally last night, President Trump praised a Republican congressman who assaulted a journalist https://t.co/2\u2026
p117
aVRT @World_Wide_Wob: Bulls not guarding Fultz is the most disrespectful thing ive seen on a basketball court since the office warehouse stoo\u2026
p118
aVoooooohhh. Someday soon https://t.co/DTuNJxTrWQ
p119
aV@mkhoops I need to go delete all tweets saying he was a 6th man, scoring specialist.
p120
aVRT @AwardsDarwin: Homemade slip n slide.  https://t.co/ojYlDn9Chg
p121
aVRT @jonfavs: Please, please let\u2019s make the rest of the election about this. https://t.co/p49oKdzQME
p122
aV@nick_the_knife They shouldn't have it in the first place..
p123
aV@cbefred Parker is a better passer, and will get a chance to feast on backups offensively. Maybe he can get into ba\u2026 https://t.co/KtTpRqZEub
p124
aVRT @FutureSox: We saved The Besssss for last. The Top Ten Outfielders in the #WhiteSox system, probably the deepest well of talent on the f\u2026
p125
aV@mkhoops Yeah, in a vacuum, that trade looks like crap
p126
aV@mkhoops If Niko was still here, he'd be the backup 4, There would be a numbers crunch and maybe a treadmill team.\u2026 https://t.co/BGGh4aVMcF
p127
aVRT @B52Malmet: @lizzie40993105 @joncoopertweets @realDonaldTrump 100 million. https://t.co/ORAAbQzMYs
p128
aVRT @iatemuggles: i think about this guy a lot https://t.co/sDgKtnXNLY
p129
aVRT @Pogue: Incredible though it may seem, as many as 16 states actually have laws barring Tesla from opening up stores. Here\u2019s my report on\u2026
p130
aV@cbefred Parker acting as a major initiator on offense is probably his biggest asset right now (off the bench). Def\u2026 https://t.co/mwGjlKbJEO
p131
aV@StephNoh I've seen the Bulls defense, not betting against that spread.
p132
aVRT @_youhadonejob1: The building isn\u2019t moving. \U0001f92f https://t.co/MdfUVYNFyI
p133
aVRT @NBCSBulls: @NBCSKings @SacramentoKings @James_HamNBCS 1. Sort by worst record
p134
aV@teslanomicsco MacBook Pro
p135
aVRT @Reuters: WATCH: Hot air balloons fill the Albuquerque skies at annual festival https://t.co/AKP4rJ4xbB
p136
aV@mattmfm @nick_the_knife @Coonalicious1 good stuff
p137
aVRT @BetoORourke: https://t.co/xUS9laFnmU
p138
aVRT @Jason1Goff: Official. https://t.co/rz8yhnVIak
p139
aV@mkhoops Haha
p140
aVRT @iatemuggles: super mario bros theme song on marimba by percussionist Aaron DeWayne https://t.co/YMFOudLUVL
p141
aV@mkhoops Could have been worse. Adult diaper logo on the shorts https://t.co/ItgaLd6BfB
p142
aV@nick_the_knife I wonder if Crazy Orange Moron has ever said anything self deprecating in his life?
p143
aV@cbefred Hey there, you might have lost your image/icon on Apple podcasts. Might just be my phone
p144
aVRT @kumailn: Vote. https://t.co/87DN4vlzd4
p145
aVRT @daveanthony: When Proud Boys leave a meeting at an establishment club of US political power and then go into the street without masks a\u2026
p146
aV@mkhoops A PG who can actually run an offense would be really useful!
p147
aV@dan_bernstein @670TheScore woof. woof. No Score for me tomorrow. Hope you guys move on to more @chicagobulls Talk by Tuesday.
p148
aVRT @NBCSChicago: Reply with a gif of your reaction to the #Bears fumble recovery.\u000a\u000a#FootballAftershow https://t.co/x6lfzow3jm
p149
aV@CorkGaines @DannyParkins @JayCapron @Coonalicious1 @spate103 Glad to be balding..
p150
aV@teslanomicsco @Tesla Model Y
p151
aVRT @SeanCasten: Mine googly eyes have seen the glory... https://t.co/UKcgF27XED
p152
aV@cbefred Numbers aside, you can imagine why people are skeptical of Valentine. He's just not really an NBA level at\u2026 https://t.co/2rN1ep7Xdv
p153
aV@cbefred Wtg Fred
p154
aV@WRBballCoach @KCJHoop @cbefred https://t.co/wU7GbWjlVB
p155
aV@mkhoops He's definitely a project. His athleticism and defense provide a decent baseline to work from.
p156
aVRT @ClintFalin: stop mocking me you polyester stuffed little shit.\u000a\u000a                            \U0001f50a(mamehimari on IG) https://t.co/D20AAKJX1h
p157
aV@KCJHoop Or Lopez will be shelved and Bobby will mostly play C. Backup defense isn't gonna be pretty
p158
aVRT @AP_Politics: Melania Trump thinks she\u2019s \u201cthe most bullied person\u201d in the world. https://t.co/j5aDW60v23
p159
aVRT @ChristopherHine: The Timberwolves canceled their previously scheduled practice for today, which means no media availability.
p160
aV@CastleBroknhed @MaggieMaeFish I think you missed a "few" pages
p161
aVRT @ABC: Man seen in security video attempting to take a selfie while pointing a firearm directly at his friend's head has been banned for\u2026
p162
aVRT @shaunking: BREAKING. \u000a\u000aThe @nytimes just pulled their media sponsorship from the Saudi Arabian Investment conference sponsored by Crown\u2026
p163
aVRT @AP: AP has deleted its last tweet which had garble at the end. a new one is coming shortly.
p164
aV@mkhoops Was just looking at trashy wings making between 15-25m. Most have player options. They may have to just juggle through the year
p165
aV@mkhoops People keep on quoting 16m (from Bobby's side), I wonder if 12m becomes a reasonable $? Mid season trash f\u2026 https://t.co/4nRWcmooRz
p166
aV@mkhoops Cam Payne just caused a turnover.. what is happening
p167
aV@Coonalicious1 @spate103 @JayCapron https://t.co/y1agXrA2cn
p168
aV@LockedOnBulls Hutchison for Holiday could have been useful too.
p169
aV@LockedOnBulls Great move
p170
aV@mkhoops I don't think any of this matters except for him trying to get traded before signing a deal. Whomever he s\u2026 https://t.co/1oh7vxotCV
p171
aV@msjnba Jimmy + Kawhi = old school drool
p172
aV@nick_the_knife @FoxNews You just don't get it Nick. It's either no rules or no guns. There is no spectrum of options! \U0001f602
p173
aV@spate103 @Coonalicious1 A thing of beauty
p174
aV@Coonalicious1 @spate103 https://t.co/QOzB3v3FOE
p175
aVRT @BradyHenderson: Doug Baldwin, talking about how Marshawn Lynch was universally "beloved" in Seattle's locker room, told a story about a\u2026
p176
aV@answerswithjoe Yeah, Apple needs to upgrade the functionality of Shazam. SoundHound seems to work better
p177
aVRT @samtripoli: Not today Satan not today! https://t.co/n895UzEWId
p178
aVRT @_youhadonejob1: Keep Scrolling. https://t.co/65LONd1ZHg
p179
aVRT @CrazyinRussia: Meanwhile at Chernobyl.  \U0001f1fa\U0001f1e6 https://t.co/IQrNJMagSk
p180
aV@mkhoops I don't think this team is that serious about winning just yet. Otherwise, there would be a reliable backu\u2026 https://t.co/LvXvhX8TDA
p181
aV@mkhoops @BullsHQPod @cbefred It seems you guys were pretty much in agreement that bringing Bobby back, at the mone\u2026 https://t.co/ocEA5ICouW
p182
aV@vgoodwill @YahooSports Will miss you on Bulls Talk podcast
p183
aVGreat news https://t.co/OT8Zv5qJxJ
p184
aV@LockedOnBulls Good question; I doubt that he'll be allowed to really run the offense enough to hit that goal.
p185
aV@RealGM Don't they kind of need to?
p186
aVRT @_youhadonejob1: How I feel on Monday. https://t.co/Kh2kISzPKY
p187
aVRT @drunkledragon: @TheTweetOfGod We could teach them to shoot back. You ok with that my Lord. I\u2019m familiar with robotics AI and Facial rec\u2026
p188
aV@verge For users with garages, this pretty much is not an issue. Those without will need more infrastructure.
p189
aVRT @IwriteOK: Very soon, Americans younger than 9/11 will be dying in Afghanistan. https://t.co/7yVaQK4ooO
p190
aVAdam Ruins Everything - The Real Reason Taxes Suck (And Why They Don't H... https://t.co/lNzCZvdu2Y via @YouTube
p191
aV@msjnba Yeah, it's crazy. The same people who want every baby born want no social support systems for them after they start breathing..
p192
aV@AdrienneLaF @TheAtlantic Now I do. Thx!
p193
aV@SNicktendo No helmets for motorcyclists either, iirc
p194
aV@SNicktendo New Hampshire, I think
p195
aVRT @LockedOnBulls: \U0001f6a8GIVEAWAY TIME\U0001f6a8\u000a\u000aWe are giving away a few autographed 8x10 photos of Bulls forward Bobby Portis!\u000a\u000aRETWEET, LIKE THIS POS\u2026
p196
aV@jaredepicpower Jeebus Mice, you're gonna give an aneurysm
p197
aV@mkhoops How long until he moves to the bench? Although that means more Valentine and Holiday. \U0001f615
p198
aVRT @Crazzyintheusa: Brilliant. \U0001f602 https://t.co/BLps3WTvbL
p199
aV@JayCapron @jaredepicpower @Coonalicious1 @spate103 He left a note, at least? https://t.co/lveuBzVooe
p200
aVRT @SaysHummingbird: WHAT. A. CHILD.\u000a\u000aTrump:\u000a"She's shocked that I picked her. She's in a state a shock."\u000a\u000aReporter:\u000a"I'm not, thank you Mr\u2026
p201
aVRT @AtheistRepublic: https://t.co/Cs2hyanTFI
p202
aVRT @Crazzyintheusa: Maybe he should hire someone for that. https://t.co/p64NkR5nxd
p203
aVRT @ConanOBrien: My wife hasn\u2019t touched me since the election. She took Gore\u2019s loss pretty hard.
p204
aVRT @DannyParkins: Just confirmed this from @MikeGarrigan23 here's the list of player's in NFL history with 6 TD's, 350+ passing yards, and\u2026
p205
aVRT @Crazzyintheusa: Brilliant. https://t.co/OjXD5AZ2FR
p206
aVRT @kenjeong: https://t.co/wjksc3eWFY
p207
aVRT @kanyewest: pull up with the YZY slides https://t.co/MClKJVJ4nq
p208
aV@mkhoops It's an elbow too; in what I consider a development year, this isn't that bad.
p209
aV@cbefred Let's be honest, the timing is not right to pay a 6th man, who isn't a ball handler, 10-15m per year. Givi\u2026 https://t.co/0PyyQK870L
p210
aVRT @michaelharriot: I\u2019m just here to remind y\u2019all that when a cop killed Brian Hundley, a jury found that the cop lied. Brett Kavanaugh thr\u2026
p211
aVRT @VancityReynolds: Thoughts? \u2694\ufe0f https://t.co/fFe93tDI7e
p212
aVRT @Erdayastronaut: Episode THREE of "Our Ludicrous Future" podcast is up!!! Sorry the audio quality isn't the best... we're working on a n\u2026
p213
aV@MarkDeeksNBA It's way more complicated than need be, and a good example of why kicking should be taken out of "foo\u2026 https://t.co/AbvSx1n5kI
p214
aV@laserdog @jennydemilo @NateSilver538 Usually there would a cognitive dissonance issue with something like this, bu\u2026 https://t.co/mNs7pwI3EJ
p215
aV@MarkDeeksNBA Then, assuming Democrats have control, will block any candidates until the freak show is out of offic\u2026 https://t.co/Ke8syPALnq
p216
aV@MarkDeeksNBA The Republicans will leave for fundraising/campaigning shortly. If this is not figured out quickly, t\u2026 https://t.co/wf6tLXfzwK
p217
aVRT @ryanstruyk: 54% of Republicans say Kavanaugh should be confirmed to the Supreme Court *even if Ford's allegation of sexual assault is t\u2026
p218
aVGood season preview. You guys tried hard to stay positive! https://t.co/x4cxL79hEI
p219
aVRT @INGuardsman: Release: September 26, 2018\u000a\u000aINDIANAPOLIS \u2014 On Wednesday, September 26, 2018 we became aware of an incident allegedly invo\u2026
p220
aV@JasmineLWatkins @Jason1Goff @JayCapron
p221
aV@Coonalicious1 Have you heard the @bastardspod work up of Alex Jones? Just through part 1, but it's fascinating. Pa\u2026 https://t.co/wPxlLsVLEf
p222
aV@TheSteinLine Woah
p223
aVRT @ABC: Video shows incredible moment Indonesian teenager is rescued after 49 days lost at sea on a floating fish trap.\u000a\u000aHis survival tech\u2026
p224
aV@_youhadonejob1 @Coonalicious1 this is how you got out of trouble that one time at the mall?
p225
aV@cbefred @NBCSBulls Sarcasm?
p226
aVKicked out the Hispanic people, but not the guy yelling the racist shit? https://t.co/mkdrZT4dpN
p227
aV@SonRanto @danoconnell @JayCapron @spate103 There's no fighting in the bleachers!
p228
aV@mkhoops Yeah. He did progress on the front in the last couple years. Maybe my (and Gills) perception of him is out\u2026 https://t.co/2FCs5AbmhW
p229
aVRT @vicenews: "In less than two years my administration has accomplished more than almost any administration in the history of our country,\u2026
p230
aV@mkhoops Gill was too hyperbolic with the way he talked, but he does have an important point. For Kawhi (and Jimmy\u2026 https://t.co/9TkfsVfYpI
p231
aV@cbefred I'm sure they can guard 2s or (some) 4s for 10 minutes a game.
p232
aV@mkhoops That would be cool; wonder if there are packages that make sense?
p233
aV@cbefred Short term, if both sides were interested, that would be a really good trade. I can't see Boston having a bit of interest though.
p234
aVDid you offer to share? https://t.co/2vhQOpCHIY
p235
aV@cbefred Changing allegiances on a whim is a difficult thing to do, especially if there is a civic or familial attachment.
p236
aV@cbefred People calling into sports radio stations with hot takes is not really indicative of reality. There's a re\u2026 https://t.co/C0PFTt29Kv
p237
aVWtaf https://t.co/v61lefs8Ye
p238
aV@mkhoops Looking at numbers and watching him, it seems fairly obvious he can be an average starting point guard. Ca\u2026 https://t.co/SaCsu2mRAR
p239
aVRT @FloridaMan__: Florida Man Landlord pulls sword out of cane and swings it wildly at tenant https://t.co/zU9BRQ6GBH https://t.co/81KPeVP2\u2026
p240
aV@Robert_OC_ @mkhoops Kind of true. This team isn't playing for anything this year, and outside of Parker and Portis\u2026 https://t.co/JA1KKwvAlW
p241
aVRT @JayWCollier: Whoa. What say you @HamillHimself https://t.co/J5hPnZ7Azy
p242
aV@red_scott That was a good year..
p243
aVRT @bennythebull: When somebody asks you what day it is https://t.co/3sY24fwT9c
p244
aVRT @DearAuntCrabby: This looks like a hiss from Satan himself https://t.co/I7CRwQlYD2
p245
aVRT @_youhadonejob1: Say that again but slowly. \U0001f602 https://t.co/QVaTIrJStZ
p246
aV@cbefred 1. Get paid max \u000a2. Be Happy (team &amp; lifestyle scale)\u000aWhy stay on a mediocre team in an unhappy situation?
p247
aVOh man, this guy needs to testify. https://t.co/cw3kJ4eR0g
p248
aV@AroundTheNFL @JayCapron @Coonalicious1 @spate103 https://t.co/sBbcEdqgIk
p249
aVRT @sotaboy24: @World_Wide_Wob Meanwhile minnesota fans prepare for the worst winter.... https://t.co/x81kpgNeqX
p250
aVRT @drmistercody: 1488, huh? 1488 lost children, from the camps? 1488 of 'em, you say. 1488. I see. https://t.co/rHdPlUzoCd
p251
aVRT @LesBowen: Jordan Matthews said he\u2019s a father now because of his year in Buffalo. \u201cThere wasn\u2019t anything to do there but each other.\u201d \U0001f633
p252
aV@cbefred Who knows, maybe Noah could end up in Minny now, and Jimmy off to NYK. (Not for each other)
p253
aVRT @keithboykin: Republican Senator Lisa Murkowski called on Senator Al Franken to resign over allegations of sexual harassment. She has no\u2026
p254
aVRT @OhNoSheTwitnt: GOP parent: How do I explain Bert and Ernie being gay to my kids?\u000a\u000aNormal parent: How do I explain the president who rap\u2026
p255
aVBamf https://t.co/SNRrt0vrDj
p256
aV@mkhoops Didn't you know that @cbefred is an alternate horn player in one of the biggest Chicago tribute bands in the US!
p257
aV@mkhoops Good situation to learn in the job.
p258
aV@cbefred That hair on the right...
p259
aV@wvjoe911 @Coonalicious1
p260
aVRT @wvjoe911: https://t.co/nW4WiRtTnw
p261
aVRT @emorwee: Meanwhile in British Columbia, absolutely bonkers footage of a fire tornado stealing a firefighter's water hose (source: https\u2026
p262
aVI'm reading the arrest right; one of the charges was prostitution within 1000 feet of a church?? OK is a weird f'in\u2026 https://t.co/e8k75gVypI
p263
aVRT @RepPeterDeFazio: Republicans said multinational corporations would bring $4 trillion home if they got a tax break\u2014they were $3.857 tril\u2026
p264
aVRT @stevesilberman: This charmer was *Trump's Oklahoma campaign chair.* He routinely voted for bills promoting discrimination against LGBT\u2026
p265
aVRT @_youhadonejob1: Don\u2019t be like Dave. https://t.co/gkFz3Cpvia
p266
aVRT @sean_r_owen: Received this for my 88-year-old grandma. Says it's a summons from Travis County, but is actually asking for money for @te\u2026
p267
aV@msjnba (For one season)
p268
aV@msjnba And @JimmyButler would look good in Mouse ears.
p269
aVRT @dlippman: .@AndrewRestuccia and I called many of Kavanaugh's 65 female HS acquittances who signed a letter supporting him. After his ac\u2026
p270
aVRT @Erdayastronaut: I\u2019ll be there! (In person) I\u2019ll livestream afterwards to answer any questions you might have! I can\u2019t wait, this is goi\u2026
p271
aVRT @biggdogg888: @Jason1Goff Vontae came out of the locker room like. https://t.co/Wvcn7JYunp
p272
aVRT @BruceBartlett: Prediction--once a Democrat is back in the White House, every Republican who voted for the deficit-busting tax cut will\u2026
p273
aVRT @SportsCenter: Never change, Ryan Fitzpatrick. \U0001f602 https://t.co/lMJ6HoXgMM
p274
aVRT @chrisnegron: @Film_Collins @SportsCenter The Ryan Fitzpatrick cycle has officially begun..again lol https://t.co/uOAu5AHC5P
p275
aVRT @Erdayastronaut: Don\u2019t forget to subscribe to the new podcast I\u2019m part of with @teslanomicsco and @answerswithjoe ! Either search \u201cOur L\u2026
p276
aVRT @TheDweck: But Kavanaugh can\u2019t be a sexual predator, he volunteers as a girls\u2019 sports coach, the job where no one is like that
p277
aVRT @johnpavlovitz: This is why they kneel, @realDonaldTrump.\u000a\u000ahttps://t.co/b7uTtOsOGH https://t.co/GOpplFPGKt
p278
aVRT @markos: This alone should disqualify Ted Cruz. https://t.co/PRFhiUoDMH
p279
aVRT @Felonious_munk: You got accepted to Hogwarts. Congrats https://t.co/3Vd4X2jGJk
p280
aV@HalSparks Do you have to believe in a God to be accepted?
p281
aVRT @nprscience: There's No Stopping Toronto's 'Uber-Raccoon' https://t.co/moTLMFtWlJ
p282
aVRT @red_scott: Packers QB Aaron Rodgers officially active (and high af) https://t.co/CrI1GZnyIu
p283
aVRT @TheRoot: Mississippi State Senator Chris McDaniel went on MSNBC to explain how rap music turns black people into murderers and told Afr\u2026
p284
aVRT @TVietor08: Looks like an Irish rapper who never made it and the agent he hates. https://t.co/KU1kkOht9f
p285
aV@akblakemore Maureen Sciatica
p286
aV@FLGovScott is one shady dude https://t.co/DEozFTylo5
p287
aVRT @AdamSchefter: Browns are releasing WR Josh Gordon on Monday.
p288
aVRT @FloridaMan__: #Florida #Man #kills #cellmate, #gouges out #eyes, wears #ear on #necklace, #sources say https://t.co/HX9r2fXAPE https://\u2026
p289
aVRT @lawcrimenews: Border Agent Confesses to Being Serial Killer Who Targeted Sex Workers https://t.co/corI1AOI6V https://t.co/zK9Z0BjITX
p290
aVRT @RealHamptonMeme: @ShamsCharania @JonKrawczynski Justin Patton (2018) https://t.co/JRbW6Dvrra
p291
aVRT @Lons: Eminem looks like Topher Grace playing Fidel Castro https://t.co/Gjr7DIDmVq
p292
aVRT @ConanOBrien: Thanks to Paul McCartney, now when people ask about my 25 year relationship with Andy Richter, I can say, \u201cwe\u2019re friends b\u2026
p293
aV@guardian @JayCapron care to try? Wonder if we can find one in the states?
p294
aVRT @FloridaMan__: #Florida Man is back with #heavy metal and an #American #Flag to #face #Hurricane #Florence https://t.co/rTb6KxYQ1W https\u2026
p295
aVRT @IwriteOK: I feel like every week I learn some new reason why @benshapiro is utter human garbage. https://t.co/REkNLEaU5e
p296
aV@cbefred @Doug_Thonus @StephNoh @mkhoops Who should be the primary ball handler, when Dunn is off the floor? Please don't say Valentine..
p297
aV@cbefred @Doug_Thonus @StephNoh @mkhoops Is the point of the upcoming season in developing all of the players/asset\u2026 https://t.co/rEJNdbBs4X
p298
aVRT @andylassner: @Jim_Jordan \U0001f93c\u200d\u2642\ufe0f\U0001f6bf\U0001f93c\u200d\u2642\ufe0f\U0001f6bf\U0001f93c\u200d\u2642\ufe0f\U0001f6bf\U0001f93c\u200d\u2642\ufe0f\U0001f6bf\U0001f93c\u200d\u2642\ufe0f\U0001f6bf\U0001f93c\u200d\u2642\ufe0f\U0001f6bf\U0001f93c\u200d\u2642\ufe0f\U0001f6bf\U0001f93c\u200d\u2642\ufe0f\U0001f6bf\U0001f93c\u200d\u2642\ufe0f\U0001f6bf\U0001f93c\u200d\u2642\ufe0f\U0001f6bf\U0001f93c\u200d\u2642\ufe0f\U0001f6bf\U0001f93c\u200d\u2642\ufe0f\U0001f6bf\U0001f93c\u200d\u2642\ufe0f\U0001f6bf\U0001f93c\u200d\u2642\ufe0f\U0001f6bf\U0001f93c\u200d\u2642\ufe0f\U0001f6bf\U0001f93c\u200d\u2642\ufe0f\U0001f6bf\U0001f93c\u200d\u2642\ufe0f\U0001f6bf\U0001f93c\u200d\u2642\ufe0f\U0001f6bf\U0001f93c\u200d\u2642\ufe0f\U0001f6bf\U0001f93c\u200d\u2642\ufe0f\U0001f6bf\U0001f93c\u200d\u2642\ufe0f\U0001f6bf\U0001f93c\u200d\u2642\ufe0f\U0001f6bf\u2026
p299
aV@Erdayastronaut @answerswithjoe @teslanomicsco Great idea!
p300
aVRT @Erdayastronaut: Guess what! Finally! You\u2019ve all been asking for a podcast, so guess what?! I teamed up with @answerswithjoe and @teslan\u2026
p301
aV@Twitter I'm lucky my friend @jaredepicpower signed me up for Twitter a decade before I ever used it.
p302
aVRT @boymonster: \u201cA woman has said he raped her in high school.\u201d\u000a\u201cThis list of 65 women from his high school say he\u2019s great.\u201d\u000a\u201cWait, why did\u2026
p303
aVThat's some crazy stuff.. https://t.co/0nR7AwgKB8
p304
aVRT @FloridaMan__: Florida man steals ambulance after being released from hospital https://t.co/kW6aQ356X2 https://t.co/frnn4rMBAE
p305
aVRT @kari_paul: what if, instead, every year we made him pay a large portion his $163 billion wealth and distributed it to existing schools\u2026
p306
aV@sUNPnkswPWtzvLf @ABC Looks good. Deliver in the States?
p307
aVRT @ClintSmithIII: They\u2019ll kill you &amp; say you had weed in your apartment.\u000a\u000aThey\u2019ll kill you &amp; say you were \u201cno angel.\u201d\u000a\u000aThey\u2019ll kill you &amp;\u2026
p308
aV@Csysel @accordingtoame @SenSanders bullshirt.
p309
aV@North2North @NBCSBulls @cbefred Maybe @North2North knows. It doesn't seem like it anymore..
p310
aVHmmm. Is there precedent for spouses being penalized for aiding and abetting? Adios Julie https://t.co/goKuGErsGW
p311
aVRT @FloridaMan__: #Florida #man urged not to shoot #guns at #hurricane. https://t.co/gfza08q0WI https://t.co/7CoDO0dkYj
p312
aVRT @lawcrimenews: BREAKING: Paul Manafort reaches preliminary agreement with Robert  Mueller to avoid second trial https://t.co/EnoTXyxfEd\u2026
p313
aVThey spent the big bucks! https://t.co/jJ0wfhcyJC
p314
aVRT @costareports: Spoke to more than a dozen House Rs here at the Capitol. Very few had any criticism of the president's handling of the co\u2026
p315
aVRT @MattxRed: As ANOTHER mass shooting happens because of an armed domestic abuser - I think it\u2019s a good time to share that Paul Ryan has u\u2026
p316
aV@JayCapron @spate103 @Coonalicious1 Taco Tuesday, huh https://t.co/GknkQMfilO
p317
aVRT @ollyog: @rob_sheridan https://t.co/GvIEOh1Rrb
p318
aV@NotTheOnion__ @FloridaMan__ @Coonalicious1 @spate103 @JayCapron Can you imagine what life is like on FLA
p319
aVRT @TheTweetOfGod: Anyone in the Carolinas should evacuate immediately. Same with the other 48 states.
p320
aVRT @guardian: North Carolina didn't like science on sea levels \u2026 so passed a law against it https://t.co/WJXAX2t0Wt
p321
aVRT @DavidBegnaud: BREAKING: What may be millions of water bottles. meant for victims of Hurricane Maria, have been sitting on a runway in C\u2026
p322
aVHaha https://t.co/AxDOG5FZ8o
p323
aVRT @FloridaMan__: FloridaMan high school football coach head-butts, blows snot rockets, and peed on his players https://t.co/v54DOZS9wW htt\u2026
p324
aVRT @VICE: 1 year ago, @tedcruz "liked" a hardcore porn tweet. https://t.co/KDePjxDAAr
p325
aV@laurenjiggetts I would move somewhere nice..
p326
aVRT @krassenstein: An NRA Political boycott is what we need\u000a\u000a@realDonaldTrump $30M\u000a@RichardBurr_DN  $6.9M\u000a@RoyBlunt $4.5M\u000a@SenThomTillis $4.\u2026
p327
aV@chrisbleck @JayCapron @Coonalicious1 @spate103
p328
aV@La_Lizard @SopanDeb @netflix Well, I would guess the timing has something to do with this. And his whole shtick is\u2026 https://t.co/hi22c8R03B
p329
aVRT @MaddowBlog: BREAKING: Trump admin moved millions of dollars from FEMA to ICE ahead of 2018 hurricane season.\u000a\u000aSenator Merkley joins us\u2026
p330
aVRT @FloridaMan__: Homeless Florida man reported a dead body by carrying the skull into a Publix and using it as a puppet https://t.co/EX5nA\u2026
p331
aVRT @RBReich: Reminder: Tax cuts for the rich don't pay for themselves. https://t.co/SiSi2H3Vru
p332
aV@cbefred @mkhoops As DT said on your last podcast, he just isn't good enough at anything to justify him being a non\u2026 https://t.co/kXkYBjRKRR
p333
aV@JayCapron https://t.co/WRZq0qRHtU
p334
aV@mkhoops I guess Okogie and KBD can expect uneventful rookie years, as per usual (with Thibs).
p335
aVRT @post_presence: @wojespn https://t.co/c6kEOVI7Dc
p336
aV@DannyParkins Being drunk at work should be mandatory for Danny tomorrow
p337
aV@PFTCommenter @JayCapron
p338
aVBest commercial for Gun Control (and Ring) around! https://t.co/5QBf4clI1c
p339
aVRT @LobsterPilates: .@SenatorCollins says she\u2019s not hearing from her constituents, and now I know why. Today in her Bangor office we witnes\u2026
p340
aVRT @indianaoldsoul: George Zimmerman is a menace to society. I can\u2019t believe he isn\u2019t running for office on a Republican ticket somewhere.
p341
aV@FloridaMan__ Probably not getting a reference.
p342
aVRT @Protect_Wldlife: RT if you are REPULSED by this!!\u000a\u000aSHARE if you want a GLOBAL ban on #TrophyHunting NOW!!! https://t.co/yzFcHFWsUN
p343
aVRT @fox32news: IT TAKES TWO SECONDS TO RETWEET: Police are asking for the public's help in identifying a very young girl found wandering by\u2026
p344
aV@spate103 @Coonalicious1 looks like an athlete to me! https://t.co/i63UARhG0J
p345
aVRT @JackDexterity: You call an Uber. These four cars pull up at the same time. Who you riding with? https://t.co/eSOKWsI2yd
p346
aV@spate103 @Coonalicious1  GOING ALL IN https://t.co/RREFmlhgN0
p347
aVRT @LeviGibian: Anomynous. https://t.co/sJ36OGPgOy
p348
aVRT @TheDweck: I\u2019m no HR professional but it\u2019s prob a bad sign when an employee writes an anonymous letter calling you a brain-dead asshole\u2026
p349
aVRT @SenJeffMerkley: This is a red-alarm moment. In his confirmation hearings, #Kavanaugh just called birth control \u201cabortion-inducing drugs\u2026
p350
aVRT @RogueNASA: CALL YOUR SENATORS\u000a\u000a(202) 224-3121\u000a\u000a\U0001f447\U0001f3fc\U0001f447\U0001f3fd\U0001f447\U0001f3fe https://t.co/MKDR5EiSxi
p351
aVRT @RottenTomatoes: Burt Reynolds, the iconic star of Smokey and the Bandit, Boogie Nights &amp; more has passed away. RIP to a true legend. ht\u2026
p352
aVRT @AP: BREAKING: Law enforcement source: New York attorney general subpoenas all NY Roman Catholic dioceses as part of sex abuse probe.
p353
aVRT @Mikel_Jollett: This is called political courage.\u000a\u000aSenator Cory Booker says he will release the confidential emails HIDDEN by the Republ\u2026
p354
aVWtf.\u000aTrump Administration Proposes Rule To Allow Longer Detention Of Migrant Children - https://t.co/jJAwiKC13J
p355
aVRT @adamcbest: Cory Booker was the first Senator to say a President under investigation shouldn\u2019t get a SCOTUS nominee. Now he\u2019s risking hi\u2026
p356
aVTell everyone why you like Cheeto Jesus https://t.co/8iSEJPgfBg
p357
aVRT @KamalaHarris: Senator Harris asked Kavanaugh about the white supremacist rally in Charlottesville last year, and whether he believes th\u2026
p358
aVRT @SenKamalaHarris: Has Supreme Court nominee Brett Kavanaugh had a conversation about Robert Mueller or his investigation with anyone at\u2026
p359
aVRT @SenatorDurbin: Today I asked Judge Kavanaugh whether he would ask Republicans to stop the concealment and make his full record public f\u2026
p360
aV\u2066@FloridaMan__\u2069\u000aThey don't dare try this in FLA!\u000aDomino's Overwhelmed by Huge Number of Russians Willing to Get Piz\u2026 https://t.co/MGA45kwAKY
p361
aVJuicy! Rep. Duncan Hunter, who blamed his wife for campaign finance scandal, spent money on at least 5 "personal re\u2026 https://t.co/lhbQsz8NDl
p362
aV@jaredepicpower Here you go ; maybe Lidar can be useful. If it gets cheap enough, that'll save some lives https://t.co/8vNx6r8y2j
p363
aVRT @barstoolcarl: That storm is called Red Line Radio and you can follow it here @RedLineRadio https://t.co/7Ow8liqf3b
p364
aVRT @Bulls_Jay: Found on Reddit. This is magnificent and terrifying.  https://t.co/CoA5xX96Lk https://t.co/wyb2LYjaZz
p365
aVRT @JordanUhl: Alt-Right conspiracy theory peddler Laura Loomer just crashed Jack Dorsey's Congressional testimony.\u000a\u000a@USRepLong began mocki\u2026
p366
aVRT @CoolAsPhuck: Denver International Airport is really trolling y\u2019all conspiracy theorist with their new construction signs \U0001f602 https://t.co\u2026
p367
aVRT @SenKamalaHarris: Just last year, Judge Kavanaugh praised the dissent in Roe v. Wade and ruled against a scared, 17-year-old girl seekin\u2026
p368
aVAnd asked for him to be removed, apparently.. https://t.co/qQ2CHkw5T9
p369
aV@spate103 @Coonalicious1 Swaggy P's a FA folks. Lock up yo daughta, lock up to wife https://t.co/nZljogOw68
p370
aV@spate103 @Coonalicious1 I didn't know Jae Crowder was this exciting! https://t.co/Y6J9cG6eY9
p371
aVRT @JeffLabrecque: @NPR https://t.co/96IZNTI635
p372
aV@mkhoops Oh yeah, it is just a notch above the pasty white CEO showing up for a 5 minute presentation, wearing a wh\u2026 https://t.co/eUZaxxich9
p373
aV@mkhoops It falls under the CSR (corporate social responsibility) umbrella and was well thought out, imo.
p374
aV\u2066@JayCapron\u2069 \u2066@Coonalicious1\u2069\u000aArtificial intelligence can estimate an area\u2019s obesity by analyzing its buildings--I\u2026 https://t.co/uqn1NRc3dE
p375
aVRT @brianbeutler: Trump is a big liar, etc, but long before Trump ran for office, a senator named Jon Kyl made up some shit about Planned P\u2026
p376
aVRT @shaunking: FULL STOP. \u000a\u000aA woman was murdered by a white supremacist in Charlottesville &amp; nearly 20 people were brutally injured. Trump\u2026
p377
aVKavanaugh is a real scumbag https://t.co/y3kljA2lt9
p378
aVRT @Bulls_Peck: Mayor Rahm Emanuel: "I've decided not to seek re-election."\u000a\u000aFred: \u000a\u000a#Bulls #BullsNation https://t.co/5LebTEQDFy
p379
aV@DannyParkins Yikes. Who is going to initiate the back door dealings that push Chicago ahead of competition? (Not even kidding)
p380
aVRT @modernrogueshow: 5 Celebrities Who Walked Away From Fame https://t.co/CihNPOqlRl
p381
aVRT @kenjeong: I love dogs. I love Nirvana. But I really love dogs who love Nirvana the most. https://t.co/6O26oQG0bM
p382
aV@DannyParkins You need to ask him if all this money will make him soft. And what his favorite flavor of ice cream is.
p383
aV@Coonalicious1 https://t.co/AOCOnwbPEK
p384
aVRT @TomthunkitsMind: Rep. Stephen Lynch Destroys Republicans for holding 100 hearing into Hillary Clinton's email server AND Only 2 on Russ\u2026
p385
aVRT @ParkerMolloy: [blinks] https://t.co/edGnHwrn4f
p386
aVRT @FloridaMan__: Literary Conflicts of Florida Man https://t.co/Y6qIPa7TEF https://t.co/DYwBMkJv5b
p387
aVRT @jimmyfallon: Welcome to parenthood. https://t.co/rlaCNmjqng
p388
aVRT @ronskidmore: @AdamHoge https://t.co/n7UiGJVI5u
p389
aVRT @AdamHoge: So I\u2019m currently in the state of Wisconsin. Let\u2019s just say the reaction to the Khalil Mack trade is a little different here.
p390
aV@JayCapron @Coonalicious1 @spate103 https://t.co/YKJsJb6UgW
p391
aVHaha. I can just imagine my lady, if I tell her should should "submit", cuz god.. https://t.co/lXKnfJOpMg
p392
aVRT @BruceBartlett: How come people who hate homosexuals allegedly for biblical reasons don't also hate people who wear tattoos? Refuse to b\u2026
p393
aVRT @mnsportssection: It\u2019s obvious: staying healthy for this years Wolves season. https://t.co/YjEqbYFQMD
p394
aV@JayCapron @Coonalicious1 @spate103 Swinging for the fences https://t.co/sR09TX86Vx
p395
aV@Coonalicious1 @spate103 @JayCapron  woot woot! https://t.co/rNOrerhCXH
p396
aVRT @BNightengale: The Chicago #WhiteSox will NOT call up prized prospect Eloy Jimenez in September, but are hardly alone among clubs execut\u2026
p397
aV@Coonalicious1 Lessons
p398
aV@Coonalicious1 oh yeah https://t.co/7xTz370Arf
p399
aVRT @FloridaMan__: Entrepreneurial Florida Man and his wife built a drive-thru window into their trailer... to sell fentanyl. https://t.co/l\u2026
p400
aVRT @Progressive_Pol: Duncan Hunter claims his Congressional salary of $174,000 isn\u2019t enough to make ends meet yet voted NO to raise minimum\u2026
p401
aV@JayCapron Hope the new #JackRyan doesn't suck. (New show dropped today on Amazon Prime)
p402
aVRT @desusnice: The very rare triple nut. RT for prosperity. https://t.co/wO6ENpV6NC
p403
aVThis is needed! https://t.co/mwa5gddpFu
p404
aVRT @BetoORourke: So much to be proud of when it comes to all-time great Manu Ginobili. Grateful for his work on and off the court, his comm\u2026
p405
aVRT @JohnFugelsang: Fake billionaire with fake tan, fake hair &amp; fake teeth,who ripped off Americans with a fake online U &amp; spread fake racis\u2026
p406
aVRT @SenJeffMerkley: .@realDonaldTrump\u2019s war on Latino Americans gets even uglier. What happened to \u201cunalienable rights?\u201d\u000a\u000ahttps://t.co/wOWo\u2026
p407
aVRT @TheDweck: \u201cSorry, can\u2019t debate. Have to lick the feet of a corpse I found in the park.\u201d https://t.co/zQhqDFupip
p408
aVRT @nerdist: This full-sized model #Bugatti Chiron is the first ever drivable car made entirely with #LEGO Technic elements: https://t.co/v\u2026
p409
aVRT @muse: NEW ALBUM: Muse have announced that their new studio album, Simulation Theory, will be released on 9 November 2018. \u000a\u000aPre-order t\u2026
p410
aV@BrianBilek_ I hope it's Kelly Wunsch
p411
aVRT @lawcrimenews: "Act like a lady\u2019: Denver cops offer ridiculous reason for detaining journalist Susan Greene after she noticed them surro\u2026
p412
aVMessed up https://t.co/1yIFTmeicG
p413
aVRT @adamscoll: @imba_imba_ @TexasGOP https://t.co/qkRBSULtdI
p414
aVRT @high_r0lla: @2naOnWhite @TexasGOP https://t.co/h2IDMiF1u9
p415
aVRT @Lawrence: It\u2019s now obvious that @Jim_Jordan knew but didn\u2019t tell anyone about the criminal sexual abuse of Ohio State wrestlers when he\u2026
p416
aVRT @YesYoureRacist: RT if you\u2019re an American who thinks people should be able to speak whatever language they want without getting harassed\u2026
p417
aVRT @ChrisFalco1126: @JordanUhl @IntelCrab Just when you thought @tedcruz couldn\u2019t get any creepier...
p418
aVhttps://t.co/lvvj149pn4 # via @HuffPostPol
p419
aVRT @Lawrence: Such a good idea ... https://t.co/1bzmT0neZG
p420
aVRT @NBCSWhiteSox: Eloy\u2019s so good that teams are starting to use 4 outfielders against him \U0001f602\u000a\u000aThis should\u2019ve been a double! https://t.co/xJ5\u2026
p421
aVRT @Stonekettle: Goddamned right. https://t.co/0pkiLP3Ux8
p422
aV@jaredepicpower Jehovas Witness might be bad at math, but they got some sweet ass rides
p423
aVRT @TheOnion: Pope Promises More Open, Transparent Molestation In Future https://t.co/zsoCiIl6FD https://t.co/gYvKuX2pEv
p424
aVRT @SFGate: California hunter mauled by bear after shooting it with arrow https://t.co/vsANlYH1Pp https://t.co/Z9u8OH5xmg
p425
aVRT @SenWhitehouse: Let\u2019s clear up the record here. \u000a\u000aOur committee has received only 6% percent (6!!!) of #Kavanaugh\u2019s White House document\u2026
p426
aVRT @TheOnion: Dick Pulled Back Out Again https://t.co/bROwYDupeJ https://t.co/uY1WXtNhZW
p427
aVRT @yayitsrob: Australia\u2019s government just fell apart over a climate bill. \u000a\u000aCanada just weakened Trudeau\u2019s signature climate policy.\u000a\u000aArou\u2026
p428
aVRT @TheOnion: New Ted Cruz Campaign Ad Features His Kids Begging For Beto O\u2019Rourke To Be Their New Dad https://t.co/5Bu9DQSI01 https://t.co\u2026
p429
aVRT @ParkerMolloy: Guys, I'm so tired https://t.co/MdF2oUneug
p430
aVUnder His Eye.  https://t.co/cFQFdR1K7T
p431
aVWhat a bunch of weirdos in Misery. Guess we'll just call it protein?Missouri becomes first state in U.S. to regulat\u2026 https://t.co/j0muQLX1r1
p432
aVWth https://t.co/EknrBULVYp
p433
aVRT @RogueNASA: "Sir, how old are you? Are you 8?"\u000a\u000a"I'M 8 AND A HALF." https://t.co/AZ0o9WVgFW
p434
aVRT @LockedOnBulls: \U0001f6a8MAJOR ANNOUNCEMENT\U0001f6a8\u000a\u000aWe are so excited to present Bowling with Bobby Portis!\u000a\u000aJoin us and @BPortistime on September 8th\u2026
p435
aVRT @FloridaMan__: Florida brewery sells beer named after the notorious Florida Man https://t.co/miU7sPqn0L https://t.co/mQT5NdWGAg
p436
aVRT @dadopotamus: My wife just asked me to build a new deck like I\u2019m Jesus or something.
p437
aVRT @NBCSWhiteSox: Who's the worst singer on the #WhiteSox? We'll just leave this here https://t.co/7FdTGpmooJ
p438
aVRT @studiodapuzzo: Kinetic Folding Door designed by Warwick Turwey #design https://t.co/9ymhFZJqkO
p439
aVYoung Water Flosser https://t.co/RJF2p3YwcK
p440
aVSnap! https://t.co/RPgFUAAwHH
p441
aVRT @perlmutations: They seem nice! https://t.co/6dEAxAbOWN
p442
aVRT @MarkkanenLauri: Rest In peace @SenJohnMcCain, I will forever be grateful for you helping a kid from Finland get a visa to live out my d\u2026
p443
aVHaha!!!  https://t.co/J4YsfGC54Y
p444
aVRT @michaelianblack: HEY LIBTARDS, HOW CAN TRUMP BE RACIST IF HE IMPREGNATED HIS LATINA HOUSEKEEPER? #Maga
p445
aVRT @DearAuntCrabby: Okay, okay, okay... Let this sink in. Betsy DeVos has 10 yachts. https://t.co/9VnoGZEmOh\u000a\u000ahttps://t.co/OI4O4XpXrz
p446
aV@jaredepicpower What kind of hot sauce?
p447
aVFascinating Aerials  https://t.co/ToR0l4KwlE
p448
aVRT @adamcbest: Ted Cruz is STILL trying to weasel out of debating Beto O'Rourke. His non-negotiable demands are that the Cruz campaign pick\u2026
p449
aVRT @rickygervais: If you hate bigotry such as homophobia &amp; misogyny, but don\u2019t criticise it in religion for fear of being labelled a bigot,\u2026
p450
aVRT @FloridaMan__: Florida Man with no arms and legs is "armed and on the run" according to police. https://t.co/F4FLS9sSIq
p451
aV@Coonalicious1 gotta save that gig for basketball season! https://t.co/DRo44ZzUQH
p452
aVHaha. https://t.co/YqsnZwKfK3
p453
aVRT @JustinVerlander: #BeverlyHillsHotel really making me pay for that World Series win \U0001f602\U0001f602 Thanks for the great lunch as always! https://t.c\u2026
p454
aV@cbefred Wonder if he would consider moving to a college job? Can't imagine that lunatic will play well in mom's living room.
p455
aVRT @pattymo: Famously railroaded good guy Al Capone https://t.co/aEKwGfFQsa
p456
aV@nick_the_knife Wow, the Family Guy model of conspiracy theories!
p457
aV@realDonaldTrump probably doesn't vacation in Puerto Rico https://t.co/E7y92GUAx8
p458
aVRT @RottenTomatoes: Aubrey Plaza &amp; Jemaine Clement star in the first trailer for the upcoming comedy 'An Evening With Beverly Luff Linn'. h\u2026
p459
aVThat'd be great https://t.co/j0i8Z4ZZND
p460
aVI know I'm not the first, but --in Soviet Russia, car drives you. https://t.co/ClJwDpEK4K
p461
aVRT @smotus: The Klingon summer intern writing CNN\u2019s chyrons is doing a bang up job. https://t.co/tYHhz2IYrn
p462
aV@LockedOnBulls @cbefred https://t.co/UP5rITzBRk
p463
aVRT @billmaher: I know its not the biggest story this week, but Cohen paid Stormy 130k and charged Trump 420k? Including 50k for "tech servi\u2026
p464
aVRT @maxui: Dear #American friends.\u000aI am a White South African living in South Africa.\u000aI promise you the governement is not taking white own\u2026
p465
aVRT @itsJeffTiedrich: Jeff Sessions def didn't sign up for any of this bullshit. all he ever wanted to do was deny black people the right to\u2026
p466
aVRT @FloridaMan__: Florida woman tries to pay $248 electric bill with fake $50,000 money order, tells them to keep the change. https://t.co/\u2026
p467
aVRussia launched a nesting doll style satellite last year! https://t.co/f4l7NLWrRB via @YouTube
p468
aVRT @nick_the_knife: It\u2019s like an asshole slot machine https://t.co/f9N8D0fVlv
p469
aVI'm sure this went over well in the twins clubhouse after the game. \u2066@JayCapron\u2069  https://t.co/0yYOaGitHB
p470
aVRT @donwinslow: The best writing is often very simple. \u000a\u000aTake this example: https://t.co/B5NYN2DEhy
p471
aVRT @diannaESPN: I'm reading the AP wire on Richie Incognito's arrest. I scrolled to the bottom.\u000a"Incognito then "walked around the funeral\u2026
p472
aV@DannyParkins Historic Chicago care equivalent = Gayle Sayers, imho.
p473
aVRT @FloridaMan__: Florida man driving motorcycle with bare feet on interstate (video) https://t.co/wcvVvtHFvl https://t.co/jPLx1yFWoW
p474
aV@mkhoops At least its not Tony Abbott?
p475
aVRT @DannyParkins: Narrator: Terrelle Pryor got 5 games for the tattoo hookup and selling his own gear. https://t.co/z9WN8IB9cF
p476
aVRT @Super70sSports: Today in 1986, Kenny Rogers posts a triple-double when he scores 21 points, dishes out 11 assists, and roasts 10 chicke\u2026
p477
aVRT @LaurenceWHolmes: This is amazing! https://t.co/d4WBBVWlmN
p478
aVRT @girlsreallyrule: Sarah Sanders just came from a funeral... https://t.co/RiGqFOPS2n
p479
aVRT @mitchellreports: So proud. Have you ever seen a better picture of a journalist running to break news of a verdict? Our intern Cassie Se\u2026
p480
aV@JayCapron https://t.co/lE5lAmB2lL
p481
aV@MarkDeeksNBA the argument against competition level and past failures of euros is basically meaningless. If one we\u2026 https://t.co/NDBMkXvRsq
p482
aV@Coonalicious1 if he can win (first) in Texas, seems like a future president.. https://t.co/h8VAiRKxCc
p483
aVBut, but it's their culture.. Smh\u000ahttps://t.co/U3QvoUzjy4 # via @HuffPost
p484
aVHaha! https://t.co/KeqceuXfkW
p485
aV@mkhoops Sounds like a great guy https://t.co/XlF3T31WmK
p486
aVRT @Redpainter1: He says Obama like "OOObammmaaaaa" and makes his mouth look like an anus.\u000a\u000aNow he is bragging about knocking out the indiv\u2026
p487
aVRT @DaniloBlandon79: @realDonaldTrump #TeamFelony\u000a#TrumpCrimeFamily https://t.co/TVYjm8ElqV
p488
aV@MarkDeeksNBA I see LA/NY /CHI; if it's really just players, must be lack of information.
p489
aVRT @RogueNASA: Remember that Cohen also represented Sean Hannity.\u000a\u000aStrap in, Space Force! Looks like we're going for a ride!
p490
aVRT @JuddLegum: Pled guilty:\u000a\u000a1. Trump's National Security Adviser\u000a\u000a2. Trump's longtime attorney and fixer\u000a\u000a3. Trump's deputy campaign manag\u2026
p491
aVRT @rickygervais: The next thing you wont be able to joke about when more people start doing it https://t.co/VkJaFmYu9r
p492
aVRT @JuveNico87: yeezy slides on the left &amp; orthotic slippers for old people on the right.\u000a\u000apeople are so fucking stupid https://t.co/jymgnG\u2026
p493
aVRT @stephenfry: Impressive coffee art: but it's cheating really, I prefer my handmade wobbly ferns and skew-whiff love-hearts \u2026 https://t.c\u2026
p494
aVRT @ptvlinds: My dad saw that viral video of the guy who cut holes in his fence for his nosey dog so he decided to test it out and the resu\u2026
p495
aVRT @CollinIngram: HELP ME PLEASE. COORS FIELD NEEDS AN ORGANIST https://t.co/C5Gvc3ysyj
p496
aVRT @ABC: "Dad, we can't get out!"\u000a\u000aA father and son make a mad dash to escape the Howe Ridge Fire in Glacier National Park through the only\u2026
p497
aVRT @MrFilmkritik: Just a reminder, Al Franken took a picture where he pretended to grab a boob 20 years ago &amp; was forced to resign.\u000a\u000aChris\u2026
p498
aVRT @krassenstein: BREAKING: Randolph County in Georgia is considering closing 7 of 9 voting precincts during the midterms on Nov 6th.\u000a\u000aRand\u2026
p499
aV@msjnba Yeah, I don't think most Americans understand graduated/progressive taxes.
p500
aV@SenSanders You forgot Taiwan, and they probably do it better than the rest in the list!
p501
aVRT @MacMcKinseyIV: Huh. Would you look at that? https://t.co/NYXlNSvcmB
p502
aVRT @Jar_O_Cats: @WstrnPriorities Protecting the environment = good. Featuring a guy who presumably enjoys murdering animals for fun to prom\u2026
p503
aV@jaredepicpower You didn't make that work of art, did you?
p504
aV@msjnba Ewww. Stay in your lane, Maverick.
p505
aV@nick_the_knife Haha. We will never forget the suffering caused by the Communist Samurais in the WW2 Era.
p506
aVRT @nowthisnews: Fox News tried coming after Denmark's social safety net. This Danish politician's retort was legendary. https://t.co/VLh1G\u2026
p507
aVRT @vgoodwill: Yes, this is that Bobby Caldwell. Yes, this is the right picture of Bobby Caldwell. Yes, that song...yes, that Bobby Caldwel\u2026
p508
aVRT @TitusNation: Has called people\u000aDog, \u000arapist,\u000aloser, \u000aanimals, \u000akids in cages, \u000abanning muslims, \u000aEurope is our Foe\u000aNazi's are good peop\u2026
p509
aVRT @Bernstein_McK: Hump Day! \u000a10 @ProFootballTalk \u000a10:40 @markgrotesports \u000a11 Midday Midway\u000a11:40 @Kelly_Crull \u000a12 @LenKasper \u000ahttps://t.co\u2026
p510
aVReport details sexual abuse by more than 300 priests in Pennsylvania's Catholic Church.  https://t.co/r6cNFYBz5Y
p511
aVRT @TheOnion: .@ElonMusk: "On just a single charge, this compact machine can efficiently decapitate more than 5,000 women accused of adulte\u2026
p512
aVRT @RogueNASA: In case you missed it earlier-\u000a\u000aDo you want a "one stop shop" to:\u000a\u000a1) Register to vote\u000a2) Check your registration status\u000a3)\u2026
p513
aVRT @carolynporco: My question: Why after so many years of revelations like this is there still a Catholic Church? \u000a\u000ahttps://t.co/aIrGNmQycf
p514
aVRT @DanCasey: PACIFIC RIM (2013)\u000aDirector: Guillermo del Toro\u000aDP: Guillermo Navarro \u000a\u000a[via https://t.co/R9IAiNikgx] https://t.co/qTLsPcXKpz
p515
aV@mkhoops Eww
p516
aVRT @jonfavs: So Trump is calling an African-American woman a \u201cdog\u201d in order to discredit her claim that he used a racial slur, and we\u2019re al\u2026
p517
aVCheese and rice! https://t.co/5tkCcO8XdJ
p518
aVRT @Kai_AHS: @KING5Seattle here\u2019s a video of the hijacked plane and fighter escort from Steilacoom in the ferry line for anderson Island ht\u2026
p519
aVRT @leehamrick: im not even supprised by things anymore https://t.co/2qAxvq21J5
p520
aVRT @nfldraftscout: 1. Two players, from one team, kneeled.\u000a\u000a2. Puerto Rico still doesn't have power.\u000a\u000a3. Flint still doesn't have clean wat\u2026
p521
aVRT @RayvazRay: Currently in Miami ... on I-95 https://t.co/xrpRXvWp7f
p522
aVRT @loneblockbuster: You could get all your grocery shopping done right here at Blockbuster if you're willing to shop for groceries at a vi\u2026
p523
aVUgh. Can they just move to Russia already.. https://t.co/XXxQzp3hJp
p524
aV@cbefred @BullsHQPod @mkhoops Quasi Chicago Celebrity with 29 ACT score..
p525
aVRT @pattonsmith: @AriWasserman At first I thought The People of Wal-Mart were on vacation in Europe.
p526
aVRT @juliaioffe: I\u2019m old enough to remember when this meeting was about adoptions. https://t.co/SZ2FDwsNzO
p527
aVRT @davidfrum: They knew they would be meeting with representatives of the Russian state. \u000a\u000aThey knew they were being offered Russian state\u2026
p528
aVRT @NBCSBulls: #MondayMorning https://t.co/5k4hUynlog
p529
aVWhat a weak POS https://t.co/6CnNSUwJgr
p530
aVI don't think they'll make the playoffs, but that seems like easy money
p531
aVRT @RBReich: So (1) Trump knew about the meeting, (2) knew his son initially lied about it, (3) Trump himself lied when he dictated his son\u2026
p532
aV27.5 youch @Coonalicious1 @spate103 @JayCapron https://t.co/AH4nnaUR1f
p533
aVRT @loneblockbuster: Praying for us is nice but it doesnt really help us with the banks.
p534
aVRT @barstoolWSD: The fuck was this https://t.co/w98IaI0PmS
p535
aVRT @mcgannpat: One sign of aging is no one asking you if you\u2019re going to Lollapalooza.
p536
aVRT @SteveKerr: Don't send money......thoughts and prayers should suffice. https://t.co/uYIWvgK8CD
p537
aVRT @FloridaMan__: Florida man the beer: Florida brewery sells beer named after the notorious Florida Man https://t.co/aioBXXk0E1 https://t.\u2026
p538
aVRT @Acosta: I walked out of the end of that briefing because I am totally saddened by what just happened. Sarah Sanders was repeatedly give\u2026
p539
aV@answerswithjoe Maybe you can get some sexy Thought Bubble graphics?!
p540
aVRT @TheOnion: High-End Persian Rugs Attend Trial In Show Of Support For Paul Manafort https://t.co/9SrOOnEM9i https://t.co/GdopJo4EWE
p541
aVRT @IronStache: According to a study funded by the Koch Brothers of all people, the US would save over 2 trillion dollars by moving to a Me\u2026
p542
aVRT @muse: Approving final mixes of new album\u000a\u000ahttps://t.co/MGDRmP5nJG https://t.co/PvrilmGTNZ
p543
aV@mkhoops @cbefred Who will have the greater Bulls career : Captain Kurt or Valentine?
p544
aVRT @nick_the_knife: As long as we elect millionaires, they will continue to grant tax cuts and pass laws favorably to the wealthy. They don\u2026
p545
aVRT @aaronecarroll: How is this not all the news, all the time? https://t.co/bMZ4O1wZJE
p546
aVRT @adamcbest: Weird how the \u201cDrain the Swamp\u201d crowd is unfazed by Scott Pruitt\u2019s scandals, Ryan Zinke\u2019s $139K doors, Ben Carson\u2019s $31K din\u2026
p547
aV@jaredepicpower Sorry Sir Charles. Not today!
p548
aVRT @tankathon: I just watched a 9 minute mix of Denzel Valentine getting dominated and shit-talked to by Frank Nitty (not Ntilikina or Capo\u2026
p549
aVRT @Jon_Christian: Bless this doggo who stole a GoPro https://t.co/tZwVdniJoQ
p550
aVRT @JFXM: John F. Kennedy: "Life is never easy. There is work to be done and obligations to be met \u2014 obligations to truth, to justice, and\u2026
p551
aVRT @ConanOBrien: I truly hope there are people in France who believe that, in America, LeBron is known as TheBron.
p552
aV@FAIRImmigration Shove off.
p553
aVRT @thekapman: I spoke with people from the Cubs. The man who grabbed the ball on the widely seen video had actually already helped the lit\u2026
p554
aVGreat deep dig on Jabari. \u2066@mkhoops\u2069  https://t.co/ZzZEnQ7jjw
p555
aV@mkhoops @BullsHQPod Mark, you're doing a great job. Outside of a regular weekly Bulls episode, a monthly interview\u2026 https://t.co/Dtf3hPMWKN
p556
aV@Doug_Thonus Kings can have Lopez and Valentine to facilitate a trade for Melo?
p557
aV@nick_the_knife That is a douchey outfit..
p558
aVRT @MarkDeeksNBA: LeBron James goes from the East to the West, Doug McDermott goes from the West to the East, the universe ultimately balan\u2026
p559
aVRT @answerswithjoe: I wish I had the ability to focus on anything as well as my dog focuses on licking his own dick.
p560
aVRT @FloridaMan__: Florida Woman gets out of jury duty by getting arrested for bringing cocaine to courthouse https://t.co/f5UW3L89F2 https:\u2026
p561
aVGreat Bulls section! The rest is probably fine too. https://t.co/PL11Bhni3K
p562
aVAt the end of the day, he was a second round pick. @Coonalicious1 @spate103 @JayCapron https://t.co/DSNn88THuZ
p563
aVCockroach milk? #YouFirst @Coonalicious1 @JayCapron @spate103 https://t.co/hxVN53cNFW
p564
aVRT @FloridaMan__: Florida Woman named Crystal Methvin busted for...Crystal Meth. https://t.co/uSKJX5gjBh https://t.co/GUSAJ9OVXw
p565
aVRT @neiltyson: I wonder if Aliens, upon landing near a car-filled freeway, will think car transport trucks are pregnant life forms. https:/\u2026
p566
aVRT @answerswithjoe: I\u2019m sure the people at Kool-Aid are thrilled that the term \u201cDrink the Kook-Aid\u201d is universally associated with suicide\u2026
p567
aV@directvnow Great job on the recent UI upgrade. Massive improvement /success!
p568
aVRT @RBReich: If there\u2019s a defining characteristic of the Trump presidency, it\u2019s cruelty towards the most vulnerable \u2014 Ripping babies from t\u2026
p569
aVRT @FloridaMan__: Florida man breakers INTO jail to hang with friends https://t.co/ifpxzaGDJK https://t.co/Ej2ZT2v1yk
p570
aVRT @DjHelicopter23: So my cousin decided to quit his job at Popeyes today. This nigga went out in style \U0001f602\U0001f602\U0001f602 https://t.co/c1LCk6UNvi
p571
aVThese are good! Much better than "name?"@spate103 @Coonalicious1 @JayCapron https://t.co/ZDQQEMDBzX
p572
aVGreat choice @spate103 @Coonalicious1 https://t.co/7d03DG6wAz
p573
aV@Coonalicious1 @spate103 #vanilla https://t.co/crMRXJL04S
p574
aVRT @RickandMorty: The @rickmobile rolls again. \u000aFind out where and when: https://t.co/QfukqSAUp3 https://t.co/SgtiC5eI1p
p575
aV@jaredepicpower Bet you wish this was you.. https://t.co/xEYnfFEXSS
p576
aV@JayCapron Youngins need to start movin up! https://t.co/c7eCkvT75r
p577
aV@Coonalicious1 @spate103 https://t.co/SUamZhc2MM
p578
aVRT @Pretty52: "My dog sticks his tongue out every time his toy squeaks!" \U0001f602\u000aCR: PE Mig https://t.co/3hFMtITpvF
p579
aVRide that pony https://t.co/dbUzVxYsaI
p580
aVRT @JimCarrey: Psycho Mike-O ;^P https://t.co/HtarEIER3Y
p581
aVRT @whitesox: \u26a0\ufe0f STOP WHAT YOU'RE DOING AND WATCH THIS \u26a0\ufe0f\u000a\u000aEl Mariachi joined the Mariachi Heritage Foundation during soundcheck and the re\u2026
p582
aVRT @FloridaMan__: Florida man injures people with ninja sword for \u2018stealing his socks,\u2019 deputies say https://t.co/6EFTWFTxpx https://t.co/2\u2026
p583
aVRT @dan_bernstein: For some of us, Colin, this is a bedroom-wall classic.  What you decry as disorder I will defend as avant-garde -- the s\u2026
p584
aV@jaredepicpower Fun times. We really could have used gear! Great views..
p585
aV@FloridaMan__ So Florida
p586
aVRT @bakermayfield: \u201cThere are those people who are in your corner no matter what, you can\u2019t do any wrong, even when you do wrong. And then\u2026
p587
aVRT @jaredepicpower: We are what a labo should be. A balanced breakfast and box tops for kids https://t.co/Skw8Hvmi9c
p588
aVRT @JimCarrey: Sean Manatee: some endangered species aren't worth saving! ;^P  #SeanHannity https://t.co/UL2wHRAzJb
p589
aVRT @mc_lens: Owls were born on my colleague\u2019s windowsill a few weeks ago and I. Just. Can\u2019t. Even. https://t.co/W6ZjP5TCZ6
p590
aVRT @tree3323: @Chumplet @iowahawksfan06 @TimAnderson7 Kids should ask for autographs, grown adults just look creepy doing it.
p591
aVRT @JonMHamm: @highkin Are you sure that isn\u2019t Omer Asik
p592
aVRT @epicpowergaming: How YouTube's Partnership Changes are affecting Small YouTubers - a piece by @snicktendo https://t.co/HBNh5yRX6y https\u2026
p593
aVRT @SGHouse90: @keithfitz1996 @kylegriffin1 Try living in the country he is president in \U0001f629
p594
aVRT @MauriceMichael: @joncoopertweets @women_prof This is the GOP belief system; They believe that anyone who works hard and plays by the ru\u2026
p595
aVRT @ChrisNowinski1: Gronk's cheap shot gave Tre'Davious White a #concussion. If he's not suspended, it signals cheap shots are fair game no\u2026
p596
aVRT @answerswithjoe: Psst... Hey guys...\u000a\u000aMaybe we should just let the republicans destroy net neutrality. \u000a\u000aYou know 5 minutes after they t\u2026
p597
aVRT @SethMacFarlane: You really have to be a special kind of human garbage to lift a ban on elephant trophy hunting.
p598
aVRT @aaronecarroll: If (a) we have the highest tax rates and (b) lower tax rates spur economic growth...\u000a\u000aWhy don't countries with lower rat\u2026
p599
aVRT @YesYoureRacist: Yes, this "veteran" giving the Nazi salute definitely needs to be identified as well https://t.co/WvdRHNiFSx
p600
aVRT @ghoshworld: India diplomat tells me: "We regard @IvankaTrump the way we do half-wit Saudi princes. It's in our national interest to fla\u2026
p601
aVRT @FutureSox: The Top 30 #WhiteSox Prospects, Midseason 2017 - Revel in the deepest farm system in all of baseball: https://t.co/81KzQyEtq\u2026
p602
aVThe crazy train! https://t.co/hnTe7TqIZ5
p603
aVRT @desusnice: Every time scaramucci starts talking I expect to hear "Hey Mike first time long time"
p604
aVRT @WEarlBrown: Still ain't no done fucking deal, but we draw nearer and nearer to Opening The Peaches in fucking Celebration. https://t.co\u2026
p605
aVRT @DraftExpress: An announcement regarding the future of https://t.co/lrPHJiPeak: https://t.co/RTAOxGBI4W. Thank you for your support over\u2026
p606
aVRT @nick_the_knife: ARod just posted an insta of Jennifer Lopez and him singing sweet Caroline at a party and now I hate him again. #notgoo\u2026
p607
aVRT @philberman: @KCJHoop Unless they're named Jordan Bell apparently
p608
aVRT @rainnwilson: How would Jesus prioritize the following? 1)Oil 2)Guns 3)Coal 4)Walls 5)War 6)Healthcare for the poor.
p609
aVRT @answerswithjoe: New post (Your Old Cell Phone Can Help Save The Rain Forest) has been published on Answers With Joe - https://t.co/rBJl\u2026
p610
aVRT @markydoodoo: Hello, I'm Woofred Brimley, and I'd like to talk to you about dogabeetus https://t.co/zapRRpD29C
p611
aVRT @jon_greenberg: @NickFriedell  https://t.co/5Y2qp4sFCn
p612
aV@jaredepicpower This is food made of cats, right?
p613
aVRT @RichardDawkins: To get rid of him, his crimes need to be jailworthy. Dangerous incompetence isn\u2019t enough: it was why they voted for him\u2026
p614
aVRT @JayCapron: Mark your calendar. This Sunday, we're having a free screening of A Place at the Table at FilmScene followed by a... https:/\u2026
p615
aVRT @miketjnr: Live at the stadium for the #bowwowchallenge https://t.co/DYLDuMWLCy
p616
aVRT @WillBrinson: J-E-T-E JETS https://t.co/pieFUf9ABw
p617
aVRT @LaurenceWHolmes: #Bears trading up is interesting... https://t.co/dy7ptBRvDP
p618
aVRT @carolynporco: Looks that way now.  We'll see ...  https://t.co/nOSFsPRrOb
p619
aVRT @AdamSchefter: Here we go: Bears are considering trading back from No. 3, per sources.
p620
aV@JayCapron @spate103 @Coonalicious1 National Anthem for a draft?? I think that's paid for be tax dollars..
p621
aV@jaredepicpower Is that some kind of synthetic weed company or something?
p622
aVRT @epicpowergaming: The NES classic isn't the first hard to find #nintendo item and it won't be the last https://t.co/Bdi6pnFF3j
p623
aVRT @jaredepicpower: Acres of mysteries (@ Flea Market in Kyle, TX) https://t.co/qSK86mxMMs https://t.co/ScDqvypOB0
p624
aV@spate103 @Coonalicious1 Surprisingly, Noc is still playing(in Spain)!
p625
aVRT @Mike_Schmitz: The DraftExpress website has gotten a HUGE facelift. Give it a look. https://t.co/qFDTYTkLdL https://t.co/qP7TOfR7DB
p626
aVRT @scotgregor: #WhiteSox pitching coach Don Cooper on Michael Kopech's main flaw: Every single pitch, he's trying to throw the shit out of\u2026
p627
aVRT @jon_greenberg: Did the ref play for Gar at New Mexico State?
p628
aVRT @ChrisRongey: Officially my favorite football player of all time. @RedbirdFB https://t.co/ejXhN8VCjP
p629
aVRT @aaronecarroll: People have no comprehension of the doctor shortage that would result from reduced immigration. https://t.co/GfQKUGrgWE
p630
aVRT @aaronecarroll: Oh, FFS. https://t.co/TasxjET6sA
p631
aVRT @ChuckGarfien: Denzel Valentine did this to his ankle. https://t.co/dgwiwPE23Y
p632
aVRT @JayCapron: RIP Alan Thicke. 'Dr. Jason Seaver' has passed away at 69 - https://t.co/Y8HAWCZXmb https://t.co/OcOWkkfCMn
p633
aVRT @DanRather: Actually people do know climate change is real - like scientists and almost every other head of state in the world.\u000a\u000ahttps:/\u2026
p634
aVRT @DragonflyJonez: The Rock as president isn't *that* farfetched.
p635
aVRT @pattymo: BAKER: Hey, what kind of expression do you want on his face\u000aTRUMP STAFFER: Let's go with "haunted" https://t.co/SxNJQX4r2F
p636
aVRT @JayCapron: We are almost ready to wrap up our TP The Crisis Center toilet paper collection!\u000a\u000aA simple roll of toilet paper... https://t\u2026
p637
aVRT @jon_greenberg: Cavs showing off their rings. Word is Bulls are bringing their "Best record in the East over last 10 years" plaque to Fr\u2026
p638
aVRT @SethMacFarlane: Well, there goes that theory.  Smallest government spender since Eisenhower? Obama.  Next question? https://t.co/ix2HMP\u2026
p639
aVSIGN ME UP! The First Humans on Mars | Space Time | PBS Digital Studios https://t.co/EAMdY2BKNQ via @YouTube
p640
aVRT @aaronecarroll: Conway on CNN now having to defend Trump's refusal to accept results. Well played, Trump.
p641
aVYeah, this guy doesn't seem to know anything. https://t.co/s1KlQZYXEU
p642
aVRT @AriBerman: 33,000 gun deaths each year\u000a\u000a31 cases of voter impersonation since 2000\u000a\u000aYet Trump wants to make it easier to buy a gun &amp; ha\u2026
p643
aVRT @PopSci: You Can Now Pilot The Millennium Falcon In Google Street View https://t.co/M7sP5SlpUK https://t.co/T5Bowb1zpJ
p644
aVRT @SethMacFarlane: Martha Raddatz made up for two years of media atrophy last night. It's a moderator's job to fight the sideshow, and she\u2026
p645
aV@jaredepicpower never.
p646
aVRT @KewlBri125: Meredith Vieira: "Let's listen as they enter the arena."\u000a\u000a@MeredithVieira: talks over the whole thing\u000a\u000a#NBCFail
p647
aVRT @socflyny: Would it kill NBC to allow viewers to experience the #OpeningCeremony without their cloying, packaged, time-delayed narrative\u2026
p648
aV@jaredepicpower @JayCapron @WBAY looks like an old photo from a Steffes XMas
p649
aVRT @De11eDonne: #Nova for the win! @NovaMBB #marchmadness https://t.co/n7jSBaDS93
p650
aVRT @annoykurtz: Meanwhile, building stadiums in poor US neighborhoods fucks taxpayers / increases local poverty. GFY @SportsCenter https://\u2026
p651
aVRT @KCJHoop: Don't even have the energy to tweak Tony Snell this evening. (But he did go scoreless in 28 minutes.)
p652
aVRT @jaredepicpower: #fesrivus 5 years ago @Coonalicious1 @JayCapron @danoconnell @spate103 https://t.co/hAH9kLWMg5
p653
aVRT @Coonalicious1: @jaredepicpower @spate103 @JayCapron @danoconnell @wag317 Haha, vampire weekend
p654
aVRT @nexttokimdavis: COME ON DOWN TO THE ROWAN COUNTY CLERKS OFFICE AND ILL MARRY A FUCKING CHAIR TO A TIGER. #KimDavis
p655
aVRT @nexttokimdavis: LOL! JOE DAVIS FIRST SIGN SAID, SODOM AND GAMERA!!! TODD HAD TO TELL NATHAN AND HE TOLD JOE!!http://t.co/mYtI9CynLX htt\u2026
p656
aVRT @nexttokimdavis: .@FoxNews TOOK MY FUCKING PARKING SPOT. Worse,. #KimDavis keeps saying, "Aren't you glad they're here?" NO, I WOULD LIK\u2026
p657
aVRT @BullsConf: Nice to hear that Rose &amp; Russ are "neck to neck", but somehow I doubt it'll be the case over a full season.
p658
aVIgnore this, getting free diamonds in my singing monsters.. http://t.co/EcSBAgtTIU
p659
aV@jaredepicpower @JayCapron @Coonalicious1 Jay was the cream filling. :=/
p660
aV@JayCapron @jaredepicpower @Coonalicious1 @danoconnell go give mommy a big kiss JayBird!
p661
aVRT @TechCrunch: Watch this Tesla drive itself at the press of a button http://t.co/AqZc2rDZpS http://t.co/tCycG0XbzJ
p662
aVRT @elonmusk: About time to unveil the D and something else http://t.co/qp23yi59i6
p663
aVHands up, Don't Shoot. In HONG KONG! http://t.co/LIaoVCuEne via @mediaite
p664
aVMan Breaks Into The WRONG Game Of Thrones Fan\u2019s Home--no, I think he got lucky he wasn't flayed! #houseboltonrules http://t.co/ZnNgbRq1DU
p665
aV@JayCapron if you're on the field unwarranted, you lose most of your rights! I'm sure that kid couldn't feel a thing..
p666
aVGeorge Carlin Standup- Indian Staff Sargent (Merv Griffin Show 1965)@Coonalicious1 you were right, George's the man http://t.co/GIim5nZueA
p667
aV@jaredsteffes that's the best thing I've seen all week!
p668
aVRT @jaredsteffes: Time out changes a man http://t.co/zXon6Hqrxv http://t.co/WY3w7tAnhP
p669
aVRT @ChrisRongey: Love that Alex Gordon refused to get in the box, waiting for Konerko to make a curtain call. The Royals have been very coo\u2026
p670
aV@JayCapron that tackle was monstrous!
p671
aVI just entered to win 1 of 4 amazing REI trips! Enter for your chance to win at http://t.co/VDeq9Ln6KV  http://t.co/k13KxfOEQb
p672
aVEngadget\u000aGoodbye Clear Channel, Hello iHeartMedia\u000ahttp://t.co/ggHHrrLsqx @JayCapron  Smart move.
p673
aVRT @blanchardJRB: @WSJSports YOU CANT COMPARE CHESS PLAYERS FROM DIFFERENT ERAS!
p674
aV@luvmyleni @ChiTribSports/ @KeithOlbermann
p675
aV@jaredsteffes @Coonalicious1 @JayCapron Oh sexy girlfriend! I'll be there----eventually.
p676
aV@JayCapron @Coonalicious1 Better b careful, #Waterloo could be listening
p677
aV@jaredsteffes #badsarcasm They should really debut the new during the next #Superbowl
p678
aV@sheridanhoops That Deng trade you proposed is awful for the Bulls. In that case, they should let him walk!
p679
aV@JayCapron @jaredsteffes Usually 715/730, depending on the day. I am up to date on Coralville politics. What's happening with #theLanding
p680
aVRT @sheridanhoops: I've got four proposed trade ideas (not rumors) involving Luol Deng, Dio Waiters, Iman Shumpert and Evan Turner: http://\u2026
p681
aVRT @Jason1Goff: Playing madden till football comes on. Xbox 360 (I'm poor). #goffscore670
p682
aV@JayCapron @jaredsteffes Dylan and I wake to an iheartradio #morningJay alarm clock every day! Sounds diff on the phone than actual
p683
aV@jaredsteffes @JayCapron Bilbo is gonna hate on the #Loch Ness Monster
p684
aV@JayCapron Prerecorded show today? I heard something abt Memorial Day.
p685
aV@ESPNChiBulls @Coonalicious1 I read somewhere that dion Waiters is available. Get on that s*** GarPaxDorf!
p686
aV@LaurenceWHolmes has been kicking a$$ in the mornings. Now 670 has two quality shows back2back. Hope they keep it that way.
p687
aVRT @TechCrunch: Google's Rumored YouTube Streaming Music Service Shows Up In Android App Code http://t.co/2wGoTi8koW by @drizzled
p688
aVRT @darrenrovell: New at Pelicans games: Seafood Nachos (nachos w/shrimp, cheese sauce and jalapeos) http://t.co/gYVMQRJgTn
p689
aVRT @mr_2eight1: Whoever made this too silly lol http://t.co/ZS1u7qo5
p690
aVRT @JayCapron: \u201c@CNN: Holy blockbuster! Batman, Superman to unite.\u000ahttp://t.co/X7oMlpjQ8g\u201d.  Hollywood rehashes again..but this one could b\u2026
p691
aV@Coonalicious1 @JaredSteffes Tis be. Dylan will bridge the gap between present and future for the sake of mankind.
p692
aV@Coonalicious1 @danoconnell @iamjamiefoxx
p693
aVThumbs down on your Trayvon Shirt, and your new crappy movie. @iamjamiefoxx
p694
aV@JayCapron @JaredSteffes @Coonalicious1 I love the bar scene, where every gremlin is acting out a 1980's cliche..
p695
aV@JayCapron @JaredSteffes @Coonalicious1 @danoconnell HAha, did you show the little guy that movie yet??
p696
aVRT @paulthenshirley: If you're not rooting for the Spurs, you live in Miami, know nothing about basketball, or don't have a soul. All of wh\u2026
p697
aV@JaredSteffes @Coonalicious1 @spate103 Oh yh, I hope those work well. I want to get 2 pairs, so me and my fetus son can play 2gether!
p698
aV@JaredSteffes @Coonalicious1 My body is ready. Once the price comes down, I will have my GG!
p699
aVRT @JaredSteffes: @Coonalicious1 imagine Westover and @danoconnell riding with students while sporting these built into their toupees.
p700
aVRT @WarfareCenter: @repjustinamash @GrahamBlog That is an incredibly embarrassing tweet sir.  He is a US citizen.  Please remember due proc\u2026
p701
aVRT @basquiatball: In CNN's defense, there is a good chance that a dark skinned man has recently been arrested.
p702
aVRT @Jason1Goff: Someone just got fired. #cnn
p703
aV@JaredSteffes @Coonalicious1 He's a Raptor! I'm confused, why does DeRozan love us?
p704
aV@MHarrisPerry \u000aYou are disgusting.
p705
aV@JimCarrey Non-Lethal makes sense, but is actually illegal in most states. It is stupid, but it is law.
p706
aV@danoconnell @JayCapron @JaredSteffes @davidwolinsky @DavidJBallard @ericmbee (sarcasm) Don't drone me bro.
p707
aV@JayCapron @JaredSteffes @davidwolinsky @DavidJBallard @ericmbee Let's just hope he's not gay!
p708
aV@JaredSteffes Sausagefest + MuscleMilk = #GrecoRomanWrestling
p709
aV@JaredSteffes Watch your face in the #SausageFest
p710
aVRT @GovGaryJohnson: "Rand Paul begins...#filibuster against John Brennan". Yes!  Due process is actually important. http://t.co/r0vgGuqS ...
p711
aVRT @sunnyright: BOOM X2: Eric Holder has sent a new letter to Rand Paul saying president can't kill noncombatant Americans. #StandWithRand
p712
aVRT @VheyPreexa: Graham said Paul on Drones: Not Republican View. Un-be-lievable. That's why GOP lost 2012 and why they will lose 2014. # ...
p713
aV@5pYdErM4n @GOP I like that thinking! #StandWithRand
p714
aVRT @SenRandPaul: If you give up your rights now, don't expect to get them back.
p715
aVRT @mediaite: UPDATED:MSNBC Contributor And Guest Host Rails Against 'Crazy Crackers On The Right' Who Use 'Hateful Language' (Video) ht ...
p716
aV@Like_A_BossDo @ChicagoBears I was sick of his monotone a$$. The new guy is weird, but what's the point of doing all this with no rings?!
p717
aV@Like_A_BossDo @ChicagoBears He had to go! Too many years, not enough playoffs.
p718
aV@JayCapron @Coonalicious1 @JaredSteffes Oh, that's a beautiful thing. That whale might put him back in the sanitarium!
p719
aV@ChiTribSports Of course. The players didn't do anything wrong. U of I needs more talent and has 5 scholarships to hand out.
p720
aV@j_rich @RottenTomatoes Ouch, getting beat by a Step Up movie!?! I'm still confused about TV trailers lack of aliens..
p721
aV@Nick_VMachine prospects coming back for a 35yr old Canadian Rental--good luck..  (just kidding, I know it excites U)
p722
aV@Nick_VMachine IDK, worrying about the Cubs this year is like worrying about a Fat Daughter's virginity. It's best not 2
p723
aVRT @Deadspin: Cop who called Carl Crawford a racial slur/day of the week has been fired. http://t.co/nrwYhr7T
p724
aV@Nick_VMachine Sure, LA proper is, but the Swampass in the GA is what keeps Speed Stick in business.
p725
aV@Nick_VMachine Close to Malibu, human barbies and the Pacific Ocean.
p726
aV@Nick_VMachine Maybe Dempster visited Hotlanta and realized it's a $hithole?
p727
aV@hecklerforum hey baby, long time no love. #Where's the love?!
p728
aV@asus I like her rear too!
p729
aV@JayCapron Oh yeah, lots of great camping and hiking there. It's a real shame.
p730
aVLiking the new #passion pit music!
p731
aV@JaredSteffes @jaycapron Haha! Almost have 100 views!  About that Stan--HUBBA HUBBA!
p732
aV@JayCapron Damnit, I didn't get to see them destroy the Aztecs!  They have good guards (and a beast downlow in Drew Gordon). Sweet 16??
p733
aV@JayCapron @Coonalicious1 @spate103  Turrible, Turrible line! Scott FuntStink!
p734
aV@Coonalicious1 @JayCapron  I won worst gift! aka Dano's Bag of $hit!  Sorry Jay. muhahahaha   PP PUPU!
p735
aV@JayCapron @Coonalicious1 @Nick_VMachine @spate103 \u000a\u000aWhat, are you from Florida? You'll be fine.
p736
aV@Coonalicious1 @JayCapron @Nick_VMachine @spate103 \u000a:)  Our love is a battlefield.
p737
aV@TapMeJared&gt;&gt;&gt;@TapMeJared We be $$$. See you in Vegas, snitch.
p738
aV@TapMeJared We be $$$. See you in Vegas, snitch.
p739
aVC'mon Webb, you're so big you can just fall on them---no reason for penalties!
p740
aVRT @NotJayCutler: That shit don't count, right?
p741
aVThat's okay, let the Defense rest a bit..
p742
aV@mattc80 GO Bears!  These dirty birds aint $hit!
p743
aV@johnhollinger&gt;&gt;It's only one week, lol. Chris Johnson will eat your children.
p744
aVBears D--bringing the Wood!
p745
aVwooo--Urlacher!
p746
aV@NathanFillion HAHAHAHA!  When was that even from, me wonders!?
p747
aVRT @sportsguy33: On ESPNU: Doc Rivers' son (#2 HS prospect) in an AAU Showcase. His team was down by 20 until Tom Thibodeau's son showed ...
p748
aV@ShamSports well, good for that joke of a team.  They needed a LOT of help.
p749
aVRT @OGOchoCinco: nickname is #KingJames, Kings lead with the help of an army (supporting cast on team) a lead dog doesn't join supastars ...
p750
aVRT @RealGMcom: Report: LeBron James Picking Heat -- http://bit.ly/bf4iyC (via @AlanHahn of Newsday)
p751
aVRT @Oneandonlycp3: **Couldn't convince him to tell me which team he's goin to but convinced him to join twitter lol...my brother from an ...
p752
aV@karimarbrown that's pretty sweet!
p753
aV@WojYahooNBA that link was no gouda for me..
p754
aVhttp://tweetphoto.com/30916058
p755
aV@alisonbrie Easy E would be proud.
p756
aV@BrentSpiner ROFL!!!1
p757
aV@LarryCoon No way are the knicks getting Bosh.  He has 3or 4 teams that will give him the MAX, with much better situations.. He's no dummy.
p758
aV@ESPNChiBulls They are allowed to dream, aren't they..
p759
aV@KDthunderup LOL--Orland should be "ground zero" for impressive fireworks!
p760
aVGood people, food, adult beverages, and fireworks.  Great 4th of July and no work tomorrow!  Danny=Happy Boy!
p761
aVArnold can't try to fix California, b/c they can't fix the paychecks, WTF?????? http://news.yahoo.com/s/ap/us_california_budget_minimum_wage
p762
aV@dirtydiaper nice campsite..
p763
aVIn class, ATM.
p764
a.