(lp0
VRT @KamalaHarris: \u201cKids may only be 25% of the nation\u2019s population, but we are 100% of the future.\u201d Young people are energized and ready to\u2026
p1
aVRT @algore: Had a great conversation with @officialjaden for @Summit LA18 today! Your generation\u2019s dedication to solving the challenges our\u2026
p2
aVRT @SeanAstin: The arrogance &amp; folly of 3rd party voting on this particular Tuesday.\u000a\u000aIt is time 4 a change. The 2 Major Parties are damage\u2026
p3
aVRT @SallyQYates: What kind of country do we want to be? All the marching, organizing, and protesting will just be noise if we don\u2019t all go\u2026
p4
aV@JBPritzker I voted @JBPritker! Because I know he will help make Illinois a state to harbor climate change solution\u2026 https://t.co/e0nSIiV1aP
p5
aVRT @benwikler: This is such a great video. And it's also, according to a ton of research, the single most powerful message to motivate youn\u2026
p6
aVRT @nmscienceteach: Good standards are meaningless without good science teachers in those classrooms, supported with resources and curricul\u2026
p7
aVDrink beer and help save the planet. I am all in! https://t.co/h5apcqdB2q
p8
aVRT @Schools4Climate: Young people in Sweden + Australia are on strike from school because their elders will not deal with climate change. E\u2026
p9
aVRT @NASASolarSystem: \u26a1\ufe0f \u201cHappy Halloween from @NASASolarSystem!\u201d\u000a\u000ahttps://t.co/dELPBMLsCp
p10
aVRT @PaulaCLEMENTS14: Heading to DC to support @ClimateReality Leaders working to pass the Clean Energy DC Act of 2018, a bill introduced by\u2026
p11
aVRT @amandaerwhite: Personal actions matter. "People taking action in their personal lives is actually one of the best ways to get to a soci\u2026
p12
aVRT @350: After struggling with the aftermath of Hurricane Florence, North Carolina has committed to uphold the Paris Agreement and will sla\u2026
p13
aVRT @Climeworks: To meet the #ParisAgreement climate goal, we have to remove around 10bn of CO2 from the air each year by 2050. We have the\u2026
p14
aVRT @Climeworks: A new wave of optimism surrounding carbon removal? We certainly think so. We have been overjoyed by the incredibly positive\u2026
p15
aVRT @SenFeinstein: Many Republicans refuse to admit that climate change is real, but hardworking Americans are seeing it affect their liveli\u2026
p16
a.