(lp0
VRT @Court_Rice: NYT: Republicans Say They Will Protect Pre-existing Conditions. Their Records Say Something Else.\u000a\u000a#NDSEN #ndpol \u000ahttps://t\u2026
p1
aVRT @HeidiHeitkamp: Kevin Cramer is all in on the president, I'm all in on North Dakota. #NDSen #NDSenDebate https://t.co/eIHeXraLNn
p2
aVRT @jnkrieger: .@HeidiHeitkamp on the difference between her and Kevin Cramer on trade: "He is all in on the president, and I'm all in for\u2026
p3
aVRT @smhigg: Kevin Cramer is coming for your Medicare &amp; SS.\u000a\u000a"Cramer himself has suggested that the rising national debt in the wake of the\u2026
p4
aVRT @nddemnpl: The facts are clear: @kevincramer is incapable of telling the truth about his record on pre-existing conditions. #NDSEN #NDSe\u2026
p5
aVRT @ByronDorgan: Don\u2019t be confused.  Heidi Heitkamp supports protections for  people with pre-existing conditions.  Kevin Cramer has been v\u2026
p6
aVRT @nddemnpl: .@HeidiHeitkamp has always supported increased &amp; enhanced border security along our southwest border with Mexico \u2014 including\u2026
p7
aVRT @nddemnpl: The 2nd and final #NDSenDebate is about to start! Follow along at https://t.co/ODkQEh4yNM for up-to-the-minute updates from t\u2026
p8
aVRT @Court_Rice: How many lies will Kevin Cramer tell North Dakotans tonight? #NDSenDebate #NDSEN \u000a\u000ahttps://t.co/dApFxdoLW4
p9
aVRT @TylerAxness: They can't run from their actions nor the facts. Their actions would end protections for #PreExistingConditions. Period. #\u2026
p10
aVGreat ad from District 35. #ndpol https://t.co/wh9PCBmitg
p11
aVRT @nddemnpl: We\u2019re launching a 24/7 voter protection hotline to make sure all eligible North Dakotans have the information they need to vo\u2026
p12
aVRT @nddemnpl: .@kevincramer won't debate @heidiheitkamp, so he's resorting to hosting private, invite-only "town halls" #NDSEN #ndpol https\u2026
p13
aVRT @nddemnpl: \U0001f6a8NEW survey: 52% of North Dakotans say health care is \u201cvery important when deciding their vote for the U.S. Senate.\u201d Only one\u2026
p14
aVRT @SenatorHeitkamp: My statement on U.S. Supreme Court nominee Judge Brett Kavanaugh: https://t.co/exZcK78JtF
p15
aVRT @MikeMcFeelyWDAY: Blog: Pollster Who Correctly Called Heitkamp\u2019s 2012 Race Pushes Back (Sort Of) on Latest N.D. Survey https://t.co/Kjgb\u2026
p16
aVRT @jnkrieger: You're literally tweeting from out-of-state. #NDSen #NDPol https://t.co/aNTlRAzHEF
p17
aVRT @nddemnpl: NEW AD: \u201cRepresentative\u201d details @KevinCramer\u2019s long history of insulting comments towards women #NDSEN #ndpol https://t.co/X\u2026
p18
aVRT @nddemnpl: ND press on @kevincramer\u2019s Todd Akin-like moment #NDSEN #ndpol https://t.co/CsRjPcaq6n
p19
aVI'm not mad, it's actually funny to me. https://t.co/UhISxGpMA9
p20
aVRT @mac4northdakota: It's time our Congressman puts the health of North Dakota families first. That's why I'll work to maintain protections\u2026
p21
aVRT @ChadOban: https://t.co/3aizXRyDM8
p22
aVRT @nddemnpl: As @kevincramer's tailspin continues, our question to the rest of the @NDGOP candidates: When are you going to stand up for t\u2026
p23
aVRT @NDxPlains: Perhaps Cramer is struggling to clarify his comments because he meant what he said in the first place. https://t.co/IyNlCIjK\u2026
p24
aVRT @nddemnpl: With these insensitive, offensive comments, @kevincramer has once again proved that he doesn\u2019t represent North Dakota values\u2026
p25
aVRT @nddemnpl: QUICK CLIP: @kevincramer on sexual assault allegations: \u201cMy point was is that there was no type of intercourse or anything li\u2026
p26
aVRT @nddemnpl: .@KevinCramer questions whether accusation against Kavanaugh should disqualify him, even if true #NDSEN #ndpol https://t.co/I\u2026
p27
aVRT @GDHauschild: As a U.S. Senator, @HeidiHeitkamp has been a national leader fighting against human trafficking. Watch and RT our newest A\u2026
p28
aVI could never run for political office because my family members would jump at the opportunity to roast me in a Gos\u2026 https://t.co/o0PH0abGW6
p29
aVRT @nddemnpl: .@kevincramer\u2019s weekend of chaos #NDSEN #ndpol https://t.co/cKOACfVAjL
p30
aVRT @nddemnpl: Yesterday @meetthepress highlighted @kevincramer's offensive comments on sexual assault. Watch here #NDSEN https://t.co/qF7qb\u2026
p31
aVRT @smhigg: FLASHBACK: "[Kevin Cramer] thanked the president for coming, and said he'd vote with him 100 percent of the time." \u000a\u000aKevin Cram\u2026
p32
aVRT @nddemnpl: If you're as mad about @kevincramer's unbelievably offensive comments and lack of empathy as we are, sign up to volunteer and\u2026
p33
aVRT @KFILE: Update this morning: Democratic Sen. Heidi Heitkamp, Cramer's opponent, in a statement to CNN: \u201cCongressman Cramer\u2019s comments ar\u2026
p34
aVRT @HeidiHeitkamp: Congressman Cramer\u2019s comments are disturbing and they don\u2019t reflect the values of North Dakota. https://t.co/xAbOwMjhqa
p35
aVRT @TylerAxness: Cramer has had a history of disparaging comments towards women. He may have outdid himself today. #NDSen https://t.co/E26t\u2026
p36
aVRT @nddemnpl: Reminder: Republicans actively searched for another candidate to run because they were worried about @KevinCramer\u2019s \u201cAkin-lik\u2026
p37
aVRT @KFILE: Republican Congressman Kevin Cramer, the U.S. senate nominee in North Dakota called the Kavanaugh accusation "absurd" today beca\u2026
p38
aVRT @smhigg: Just wow\U0001f447 #ndsen #ndpol https://t.co/ZEDRkw7ifk
p39
aVRT @cam_joseph: I've been saying for months that if any GOP candidate has a chance to join the gaffe hall of fame ranks of Todd Akin, Richa\u2026
p40
aVRT @nddemnpl: Get caught up on the latest in this week\u2019s Crooked Cramer Chronicles #NDSEN #ndpol https://t.co/6prPY0rWJ3 https://t.co/yyXEe\u2026
p41
aVRT @jnkrieger: \U0001f6a8PANTS ON FIRE\U0001f6a8 @nbcnews: @kevincramer "overstated" his work on oil export ban lift. By turning "'no' votes into 'yes' votes\u2026
p42
aV@Court_Rice folks, what we're trying to say here is https://t.co/GHqS6Hoao4
p43
aVRT @nddemnpl: North Dakotans are calling out @kevincramer for his high-dollar, closed-door fundraisers #NDSEN #ndpol https://t.co/nmyB7tPAo6
p44
aVRT @Court_Rice: .@kevincramer earns "Three Pinocchios" for his health care claim #NDSEN #ndpol https://t.co/ozRc7FVrSH https://t.co/LKX4m7r\u2026
p45
aVRT @mac4northdakota: During last our the @prairiepublic debate last week, @Armstrong_ND repeatedly made false claims about my record. We th\u2026
p46
aVRT @mac4northdakota: The @790KFGO debate is about to get started. You can listen along below, plus we'll be live tweeting the whole time. h\u2026
p47
aVRT @nddemnpl: Then how about the former GOP Chair of House Energy &amp; Commerce? W/o @heidiheitkamp, \u201cI don't know that it would have happened\u2026
p48
aVRT @mac4northdakota: Whether you're at home, work, or traveling on North Dakota's highways and byways, I hope you'll tune in to my fourth d\u2026
p49
aVRT @TylerAxness: Just heard an ad by Senate GOP say "Heidi has been in Washington too long." Heidi was elected in November 2012. It was the\u2026
p50
aVRT @wufpac: We're excited to endorse @kylieoversen for North Dakota State Tax Commissioner today! Learn more at https://t.co/2g6uSb1HfM! ht\u2026
p51
aVRT @amyklobuchar: Had a wonderful night in Fargo with my friend @HeidiHeitkamp at the @nddemnpl\u2019s annual Burdick Dinner. Thank you for havi\u2026
p52
aVRT @HeidiHeitkamp: North Dakota farmers like Charles are feeling the pain from this trade war. But rather than standing up for North Dakota\u2026
p53
aVRT @crystafornd: Candidates were recently asked in a NDFU survey, "Do you support the anti-corporate farming law?" Rep. Hatlestad answered\u2026
p54
aVRT @DanielZTick: Remember that time when Jaeger was so clearly the right choice that you refused to endorse him at your convention? #NDPol\u2026
p55
aVAh, they deleted it https://t.co/lZt6Eb9Krt
p56
aVWait, donate if you condone the comments? #ndpol https://t.co/GOqtVdb7l8
p57
aVRT @GDHauschild: Ya, @RickBergND is exaaactly who I\u2019d want determining the strategy for beating @HeidiHeitkamp in November. #NDPol #ndsen h\u2026
p58
aV@JakeWilkns "made nearly 150,000 phone calls"
p59
aVRT @nddemnpl: We put up those numbers in one day, @NDGOP. #ndpol https://t.co/z1vAAbbMIm
p60
aVRT @JoshBoschee: Hopping on with @MikeMcFeelyWDAY Link to listen \U0001f447 https://t.co/4FdfSY8Lc3
p61
aVRT @JoshBoschee: You can learn more about ND Hub, a user-friendly, business-friendly, centralized online platform for setting up new busine\u2026
p62
aVRT @JoshBoschee: I want to thank @prairiepublic for hosting the first Secretary of State debate tonight and @AARP_ND for sponsoring the eve\u2026
p63
aVRT @TylerAxness: ICYMI: Cramer was at his second Texas fundraiser instead of talking directly with #farmers at #BigIron18. It was also the\u2026
p64
aVRT @mac4northdakota: We need to ensure every North Dakotan has access to affordable health care. @Armstrong_ND supports eliminating protect\u2026
p65
aVRT @smhigg: Here\u2019s the chair reserved for @kevincramer at the @BigIronFarmShow today. Instead of joining Sen. Heitkamp on stage to discuss\u2026
p66
aVRT @mac4northdakota: Our first TV ad is ready! We brought in the most positive, energetic spokesperson we could find: My six-year-old daugh\u2026
p67
aVRT @jhageman_: Trump touts regulatory relief for community banks... I believe he's referring to a bill signing that Heitkamp attended. #nds\u2026
p68
aVRT @HeidiHeitkamp: As my opponent hosts a high-dollar fundraiser today, we\u2019re hitting the doors and making calls with a Day of Action. That\u2026
p69
aV@JakeWilkns @NDGOP @HeidiHeitkamp Charge your phone Jake.
p70
aVRT @alyssabereznak: https://t.co/1ffR5KNL1V
p71
aVRT @ChiPartyAunt: Vote for me and Ed Debevic's is coming back and they're re-hiring all my meanest daughters. https://t.co/RrDqgxnL77
p72
aVRT @JoshhTerry: remember when the ny times had standards https://t.co/gkOhI23ogm
p73
aVRT @inforum: Letter: Rep. Cramer and Port resort to thug tactics https://t.co/xRQMbJGnrG https://t.co/rJZsiC3Nt1
p74
aVEven his fellow Republicans agree it\u2019s time for Al Jaeger to go. They tried it at the convention, and now there are\u2026 https://t.co/msIKHIypjn
p75
aVRT @nddemnpl: V.O.T.E. @HeidiHeitkamp \u2014 and tell your friends! \U0001f1fa\U0001f1f8\u2611\ufe0f #NDSEN #ndpol https://t.co/I0SK10cIDV
p76
aVRT @nddemnpl: Both @Inforum &amp; @willistonherald editorial boards lauded @heidiheitkamp for opposing DeVos\u2019 nomination. But @kevincramer isn'\u2026
p77
aVRT @nddemnpl: After they finished flipping pancakes, @HeidiHeitkamp and @mac4northdakota got out and knocked doors in Jamestown -- and you\u2026
p78
aVRT @Cubs: Can @javy23baez tag Javy? https://t.co/buWPWwuM8z
p79
aVRT @NDxPlains: In other words, they weren\u2019t exactly shooting \u201cstraight\u201d in their statements. https://t.co/IeRS7MA400 via @ndxplains
p80
aVRT @Cubs: Just watch. https://t.co/nGU357Vd8i
p81
aVRT @Court_Rice: KVRR: Farmers Speak Out Against @kevincramer and His Comments on Trade War #NDSEN #ndpol https://t.co/x8zsf9uz5G
p82
aVRT @nddemnpl: HAPPENING NOW: Hear directly from North Dakotans about how the trade war is harming them. @KevinCramer: are you listening? It\u2026
p83
aVRT @willmenaker: Those are good burgers Walter https://t.co/A0PX0J8DKI
p84
aVRT @MikeMcFeelyWDAY: Cramer campaign on the defensive, as it has been multiple times. Heitkamp campaign much more effective at setting narr\u2026
p85
aVRT @ProtectOurCare: Setting the record straight on @KevinCramer and the @NorthDakota_GOP\u2019s attacks on people with pre-existing conditions.\u2026
p86
aVRT @GDHauschild: Kevin Cramer setting the record straight on exactly how many times he\u2019s voted to repeal or undermine protections for pre-e\u2026
p87
aVRT @kevincramer: Great evening spent in Grand Forks meeting with volunteers and knocking on doors! Grateful for all the support. #CramerCre\u2026
p88
aVRT @nddemnpl: .@kevincramer's latest trade war flip-flop is a good reminder that he has no idea\u2013and doesn't care about\u2013what's best for Nort\u2026
p89
aVRT @nddemnpl: Kevin Cramer\u2019s economy in a nutshell: Wages remain stagnant as folks struggle to afford \u2018everyday\u2019 costs while Cramer\u2019s tax p\u2026
p90
aVRT @hprfm: Brandon Medenwald who is running against Al Carlson for South Fargo's vote to put him in the state legislature, hit his 1,000th\u2026
p91
aVRT @nddemnpl: We're live in Bismarck with @JoshBoschee and @KylieOversen to talk about modernizing North Dakota's state government, breakin\u2026
p92
aVRT @mac4northdakota: I'm live with Tyler Axness on KFGO Radio right now! Tune in to 790 AM/94.1 FM or listen online here: https://t.co/67vd\u2026
p93
aVRT @karlarosehanson: Yup. Vote for @JoshBoschee for Sec of State so we can move that office into the current century. https://t.co/sbM9Mnml\u2026
p94
aVRT @crystafornd: Vote @JoshBoschee https://t.co/BxrsTbWpGz
p95
aVRT @ByronDorgan: The longest line in American history is the voting line.  And if we want to make America better, we need to be standing in\u2026
p96
aVRT @mac4northdakota: We need to ensure every North Dakotan has access to quality, affordable health care. That's why I oppose the lawsuit t\u2026
p97
aVRT @mac4northdakota: I\u2019ll be on the air with Mike McFeely at 11:05am! Tune-in to WDAY 970AM / 93.1FM or listen live at https://t.co/908jAEa\u2026
p98
aVRT @SSWorks: Yes, Kevin Cramer does want to destroy Social Security: https://t.co/E1YHM78yVg #NDSEN @JonBowzerBauman
p99
aVRT @nddemnpl: Fact: @KevinCramer is a rubber stamp for the president when it comes to the trade war and gutting protections for pre-existin\u2026
p100
aV@jacobglantz lol at @PolsAddict reading a book
p101
aVRT @NDxPlains: Officials in #ND have aided in undermining current law. https://t.co/3vHUUPRDGW via @ndxplains
p102
aV#ndpol https://t.co/k77vKktBOT
p103
aVRT @nddemnpl: #TBT: Cramer Calls Farmers\u2019 Concerns Over Trade Fight \u201cHysteria,\u201d Says They Need Higher \u201cPain Threshold\u201d #NDSEN #ndpol https:\u2026
p104
aVI had a great time working with Wa Lone when he came to the states for a fellowship managed by @ACYPL. He was funny\u2026 https://t.co/n9tRYIrN5K
p105
aVRT @HeidiHeitkamp: I loved seeing so many friends and family at Mandan\u2019s 4th of July parade yesterday! https://t.co/Oy4RqglZMa
p106
aVRT @Brandi_Jude: What an AMAZING day! Thanks to everyone who came out and supported for making this Independence Day Parade an exciting par\u2026
p107
aVRT @fargomonthly: We started a series to learn more about politicians outside of the Capitol. Check out the first installment with North Da\u2026
p108
aVMy high score is 343. Big prize in store for whoever beats my run in #CrookedCramer's Roadtrip #NDSen #NDPol https://t.co/la8SszRvkV
p109
aVRT @PersianRose1: Animals who look like they\u2019re about to release a chart topping single: THREAD\U0001f447\U0001f447\U0001f447\U0001f447 https://t.co/e0ppWraWR4
p110
aVRT @weijia: Crowd cheers when @realDonaldTrump mentions tariffs on imports...But he doesn\u2019t talk about the retaliations that could cripple\u2026
p111
aVRT @HeidiHeitkamp: Everyone at Hit the Phones for Heidi yesterday hit it out of the park! Volunteers called thousands of voters \u2014 6k just i\u2026
p112
aVRT @nddemnpl: We had the goal of speaking with 12,000 voters on our Day of Action yesterday, but ended up reaching out to over 14,000 North\u2026
p113
aVRT @mac4northdakota: Join us tomorrow for our day of action to greet @realDonaldTrump here in #Fargo and throughout #NorthDakota We'll be k\u2026
p114
aVRT @nddemnpl: "Cramer campaign spokesman Tim Rasmussen, declined to answer specific questions from The Forum. 'I don't want to get into det\u2026
p115
aV.@josephrphelan https://t.co/NS8VNQRbIp
p116
aVRT @nddemnpl: Anybody who's met Matt knows he's an emerging leader in our party, so it's great that he's getting some recognition from @vot\u2026
p117
aVRT @GovHowardDean: GOP Senate Nominee Cramer Compares Cages For Migrant Kids To Playgrounds - TPM https://t.co/vDDIfzzDXg
p118
aVRT @JoshBoschee: No matter how you say my last name, I'm running to be your next Secretary of State. Learn more: https://t.co/qwYOxg41Zv #n\u2026
p119
aVRT @MattEidsonRep43: I want to sincerely thank @votevets for selected me as an Emerging Leader! And to do so, I've included a little video\u2026
p120
aVRT @Robillard: GOP #NDSen candidate and Rep. Kevin Cramer on family separation: \u201cI think there\u2019s a lot of over dramatization if you want to\u2026
p121
aVRT @helenprejean: Like so many of you, I'm morally outraged at what is happening to the children at the border, where they're being separat\u2026
p122
aVA few years ago Kevin Cramer wanted media companies to prove they weren\u2019t fake news. Now he\u2019s set up his own astrot\u2026 https://t.co/X9Oq95Fybi
p123
aVRT @DanielZTick: Kevin Cramer's fake 'fact-checking' website debunked with four pinocchios: https://t.co/zjPjIetpWx #NDSen #NDPol
p124
aVMarco going full Fredo Corleone on Father's Day: Send Marco off to do this, send Marco to take care of that, I\u2019m th\u2026 https://t.co/PqyoGG8wTJ
p125
aVRT @JohnPrineMusic: Thank you @jdickerson for including me in your Father\u2019s Day story. For myself, I felt like a balloon floating around un\u2026
p126
aVRT @JoshBoschee: Our volunteers are having a great time in Fargo tonight! Big thanks to everyone making calls and knocking on doors this ev\u2026
p127
aVSo @kevincramer gets a questionaire from a gay-bashing, pizzagate promoting hate group and thinks, "I want those gu\u2026 https://t.co/CQ1XfYQV3k
p128
aVRT @HRC: Unbelievable: Senate @GOP candidates @CoreyStewartVA &amp; @KevinCramer sought endorsements from anti-LGBTQ extremist group @PublicFre\u2026
p129
aVRT @nddemnpl: Why did @kevincramer seek the support of a radical hate group? North Dakotans deserve better. #ndpol #ndsen\u000ahttps://t.co/wOp7\u2026
p130
aVNot only does this group hate LGBT people, but their CEO is a big #pizzagate guy. How long until one of\u2026 https://t.co/ny6JUNgR98
p131
aVRT @smhigg: Read this thread on Kevin Cramer's ties to a radical, anti-LGBTQ group #ndsen #ndpol https://t.co/5jSXDe3W0t
p132
aV@MikeMcFeelyWDAY Reminds me of another mutiny movie: https://t.co/T7zYDTNXfV
p133
aVRT @JoshBoschee: Tomorrow is primary day! Do you have a plan to vote? We\u2019ve got answers to all of your voting questions. #ndpol #ndsos http\u2026
p134
aVRT @TrainDems: Tomorrow is Primary Day! If you live in:\u000a\u000a\U0001f4cdMaine\u000a\U0001f4cdNevada\u000a\U0001f4cdNorth Dakota\u000a\U0001f4cdSouth Carolina\u000a\U0001f4cdVirginia\u000a\u000aMake sure you locate your\u2026
p135
aVRT @TylerAxness: Congressman Kevin Cramer continues to complain the White House isn't doing enough for him. #NDSen https://t.co/RVaerl2tZN
p136
aVListening to ol @JoshuaHedley at Fort Lincoln in Mandan, ND. I\u2019m sure Custer would approve https://t.co/JhObRl3TU5
p137
aVRT @MikeMcFeelyWDAY: Kevin Cramer says American businessmen and farmers \u201cdon\u2019t have a very high pain threshold.\u201d Maybe because that\u2019s how t\u2026
p138
aVAwesome commute combo this morning on @SXMOutlaw: @JohnPrineMusic, @irisdement, Billy Joe Shaver, Kris Kristofferso\u2026 https://t.co/GIjtrE066M
p139
aVRT @JackFromNoDak: Seeds of restorative justice planted with N.D. prison garden https://t.co/OMihT80Ym4 via @bistrib
p140
aV\u201cI\u2019m out of order?! You\u2019re out of order!\u201d https://t.co/DqpbgSHu23
p141
aVRT @JoshBoschee: Ready to vote? Got questions? Check out our Voter FAQ: https://t.co/yGyCE3MCFM #ndpol https://t.co/Kny2yaa2Di
p142
aVRT @nddemnpl: Last week, @kevincramer got snubbed by POTUS, blamed WH for his own legislative failures &amp; defended a convicted Peeping Tom.\u2026
p143
aVWe had @HeidiHeitkamp, @JoshBoschee, Casey Buchmann, and our Bismarck area legislative candidates pump up the crowd\u2026 https://t.co/0OMyNzNoez
p144
aVGreat turnout for the @nddemnpl Bismarck field office! Pretty sweet new digs, come on down and make some phone call\u2026 https://t.co/XAnoSVD9jT
p145
aVRT @D1DemNPL: Thank you to everyone who came out this week to welcome @HeidiHeitkamp back to Williston, along with Casey Buchmann &amp; D1 Hous\u2026
p146
aV#MeltdownMay takes one last victim, @kevincramer https://t.co/FNlyArV6aj
p147
aVRT @MikeMcFeelyWDAY: Full show podcast: U.S. Senate Candidate Kevin Cramer Defending a Window-Peeper Is Weird https://t.co/3PzAjrzaFa @970W\u2026
p148
aVRT @dailykos: ND congressman leaps to the defense of Republican candidate caught peeping with his pants unzipped https://t.co/ak3jT8WoCM
p149
aVRT @maggieNYT: https://t.co/4AHED0PgtM
p150
aVRT @JoshBoschee: "I am proud to stand with @letamericavote to encourage every eligible North Dakotan to vote this year. Our fundamental rig\u2026
p151
aVRT @letamericavote: "Our fundamental right to vote is the bedrock of our democracy." - @JoshBoschee, who we're endorsing for North Dakota s\u2026
p152
aV"For a moment there I thought we were in trouble," I say as I watch Pompeii burn. "Now just let me make sure the co\u2026 https://t.co/TKu0hVAVni
p153
aVNothing like some fresh Lake Sakakawea #walleye to get you pumped for the @Capitals in the #StanleyCupFinals https://t.co/hvKFg5Qa2p
p154
aVRT @nddemnpl: When the president signed @HeidiHeitkamp's bill into law, @kevincramer got a liiittle uncomfortable. #ndsen #ndpol https://t.\u2026
p155
aVRT @nddemnpl: At a bill signing today, @HeidiHeitkamp got a shout out and all @kevincramer got was a photo op next to a chair. #CurbYourCra\u2026
p156
aVRT @American_Bridge: Not even Ryan Zinke knows who @kevincramer is. Ouch #ndsen https://t.co/C0tdKQJD2L
p157
aVRT @NDAFLCIO: Congrats to the 2018 Labor-endorsed candidates in North Dakota! https://t.co/OMSUqOgWub #ndpol #1u #labor2018
p158
aVRT @tcm: It's #Laurel. https://t.co/EwTTYPFi1P
p159
aVRT @HeidiHeitkamp: Saturday was a day of awareness for missing &amp; murdered Indigenous women &amp; girls, but we should raise awareness about thi\u2026
p160
aVRT @Reuters: Myanmar journalists say government is failing to protect press freedom, according to survey: https://t.co/MnxKppTdaE Follow la\u2026
p161
aVRT @DSky3: Mike Huckabee, a  24 hour play in two parts: #WHCD #Michelle #Wolf https://t.co/eClIOv7Suw
p162
aVThree days to come up with a \u201cMichelle Wolf makes Emma Goldman look like Ayn Rand, babe.\u201d Truly a comedy genius, fo\u2026 https://t.co/HfYQqhJCvs
p163
aVRT @MattEidsonRep43: I was honored to stand alongside other @nddemnpl candidates during the Workers\u2019 Memorial Service, where we took some t\u2026
p164
aVRT @RScountry: Watch John Prine Search for His Own Records in Nashville, Play Old Classic 'Paradise' https://t.co/u1HkxWRnz0
p165
aVRT @nddemnpl: #FBF to this editorial from the Williston Herald pointing out that on the last Farm Bill, Kevin Cramer's partisanship and lac\u2026
p166
aVRT @ACYPL: Today we bid farwell to our fearless social media leader @alexjamesrich. As he arms himself for the rough and tumble world of No\u2026
p167
aVRT @MDGonzales: Time for 1st pitch? Maybe in 24 hours: https://t.co/p34qbjMaYA
p168
aVFire on Hobart and Georgia @PoPville @washingtonpost https://t.co/7GKvinqZFf
p169
aVRT @samstein: https://t.co/3CkU3jna7T
p170
aV@annhenebery @josephrphelan Ah, well. I come from a very \u201cwe shall fight them on the beaches\u201d tradition when it com\u2026 https://t.co/1Qd6RAapQK
p171
aV@annhenebery This marriage has really gotten to you. Disappointed that @josephrphelan brainwashed you so quickly wi\u2026 https://t.co/SCef0D8DkW
p172
aV@JoshuaHedley Congrats Josh!
p173
aV@LindenDan It\u2019s probably because they score more goals than their opponents.
p174
aVRT @Aiannucci: Thank you @iTunes for inviting me into your building. #TheDeathofStalin up on ITunes now . https://t.co/2O5cZynMm3 https://t\u2026
p175
aVHey @hqtrivia and @ScottRogowsky, can you give Skyler a shoutout to today\u2019s game for his last day in the @ACYPL office?
p176
aVRT @RScountry: Hear John Prine's new song "Summer's End" off his upcoming album 'The Tree of Forgiveness' https://t.co/sm9u1vYEU4 https://t\u2026
p177
aVhttps://t.co/wysmUIOpS5
p178
aVLeaving off It's Too Late to Stop Now?! What a shame. #VanTheMan https://t.co/m5AUGblqBS
p179
aVRT @mdoukmas: He wears $5,000 suits and is chauffeured to court in a Rolls-Royce. He claims Oprah once wanted to have his baby. He is the m\u2026
p180
aVMy god Bears
p181
aV@RayLong do you have a take on the Biss/Rosa situation? Thought it might be addressed on Connected to Chicago
p182
aV@arich413 Who's Shawzy?!
p183
aVRT @helenprejean: Georgia plans to execute Keith Tharpe on 9/26. A juror in the case used the "n-word" and said he voted for death because\u2026
p184
aV@arich413 One week after you graduate high school
p185
aVRT @edgarwright: Not sure about this 'Donnie Darko' remake. https://t.co/pqDZCP8G0I
p186
aV@dusting53 @LindenDan well they know that if they keep turnout down they have a better chance at winning. Happening all over the country
p187
aV@LindenDan @dusting53 no. He already left it. He resigned on Feb 8 and the Governor already appointed a replacement
p188
aVRT @Mobute: "Send Stephen off to do this! Send Stephen off to block the airport! I'm 31 years old and I was passed over! I'm smart! I can d\u2026
p189
aV@arich413 you're supposed to act like you've been there before.
p190
aV@arich413 failchild
p191
aVRT @said_mitch: These comparisons of politics to currently popular television shows are going to age so well, just like this classic https:\u2026
p192
aV@LindenDan I think we have a better chance of seeing his tax returns before he releases a bracket.
p193
aV@LindenDan But anything less than perfect would be an L. And we only W
p194
aV@LindenDan More breaking norms. Every POTUS since Andrew Johnson has filled out a March Madness bracket. No transparency or accountability
p195
aVRT @SkylerMinke: #acyplARG has caught football fever! Thanks to @WorldandUT for making this happen! https://t.co/knwgMt1qYV
p196
aVRT @Deadspin: Everything about this Breitbart interview with Sean Spicer is nuts: https://t.co/2m3RofHp2D https://t.co/UrLaBTZDJX
p197
aV@ACYPL You can see how #acyplDownUnder spent their time in the US in 2015 here: https://t.co/10oZTCEtjf
p198
aVRT @OnePerfectShot: Everybody dance! Christopher Guest's Waiting for Guffman hit theaters 20 years ago today. https://t.co/RQnkc7WX5s
p199
aV@bterris @samsanders damn, all those hours practicing "Who's In First" as a double act for nothing.
p200
aVRT @Cubs: One month until our #SpringTraining opener! #WednesdayWisdom https://t.co/A1X1R5o9B1
p201
aV@Aiannucci Like this? https://t.co/9FVs6RXijs
p202
aV@jontaffer Jeez, John. It's 1:30 on a Tuesday. Chill out man.
p203
aVRT @WYEP: Today would've been Warren Zevon's 70th Bday. We'll be playing his music throughout the day and a special at 7PM\u000ahttps://t.co/hTd\u2026
p204
aVRT @Cubs: The #Cubs have recorded 90 wins in consecutive seasons for the first time since 1928-30. #LetsGo https://t.co/0uK6JccnlD
p205
aV@ElliotEBK we don't cheat. We play the game the way it's meant to be played. Enjoy visiting him in jail
p206
aV@ElliotEBK tom brady is going to jail. 5-10 in Leavenworth https://t.co/BuRKCQ7Bwo
p207
aV@dusting53 @LindenDan @Riles23 @patrickmcareavy #smh @dusting53
p208
aV@dusting53 @LindenDan @Riles23 @patrickmcareavy jokes on you. You have no idea the number of videos I stream. Never connect to WIFi #NSA
p209
aV@dusting53 @LindenDan @Riles23 @patrickmcareavy Deal. It's in writing now you can't take it back.
p210
aV@dusting53 @LindenDan @Riles23 @patrickmcareavy stop blowing up my notifications. I have to save data for the important ones
p211
aV@dusting53 @LindenDan @Riles23 @patrickmcareavy more like #fairweatherfan. I've been doing HGH since Peyton messed up his neck in solidarity
p212
aV@dusting53 @LindenDan @Riles23 @patrickmcareavy also I agree with you that #PeytonManning uses #HGH. You're words, not mine.
p213
aV@dusting53 @LindenDan @Riles23 @patrickmcareavy I agree with Dustin. I'm surprised as well. https://t.co/gV069A2dhZ
p214
aV@LindenDan @dusting53 @Riles23 I agree with Dustin. No way the FG was good. #wideleft
p215
aV@arich413 you need to credit people with their quotes
p216
aVBefore the race. 5 am in #Savannah, GA. https://t.co/gqiEViw2jf
p217
aV.@arich413 "You're never going back.... you're never going back...." https://t.co/sWVD8ghbwK
p218
aVRT @WBEZ: The World Series and mortality #data http://t.co/LSfGeZ2wfR http://t.co/LrTkwGaLCj
p219
aVRT @Cubs: It's time to turn on the game if you haven't yet. \u000a\u000aEnd of the 8th: #Cubs 2, #Dodgers 0. http://t.co/VDt1ksL4Kq http://t.co/gGIia\u2026
p220
aVRT @Cubs: #ComebackCubs!
p221
aVHooking into a big one. So big it was later used as bait. https://t.co/sWvEIsso9B
p222
aVUnderwater scooters @ JW Marriott Cancun Resort &amp; Spa https://t.co/jgtOeRdvJc
p223
aVJust posted a photo https://t.co/R9A2zCvhTb
p224
aVRuins on Isla Mujeres @ La Isla Mujeres, Quintana Roo, Mexico https://t.co/aGL7fnANBk
p225
aV@dusting53 @LindenDan RT @PFTCommenter: When someone thinks they can beat you in a sports conversaton https://t.co/RVmuQt3Nrg
p226
aVGreat Social Media Managers think alike @voxdotcom @washingtonpost http://t.co/4hhNFm3XzD
p227
aV@jaketapper @brikeilarcnn are they like the new Bob Dylan Basement Tapes release? Early cuts of hits like "Tear Down This Wall"
p228
aVAs if anyone needed another reason to hate AJ. Is that the first recorded flop in baseball? #NLCS
p229
aVI knew, as soon as that ball was hit towards the stands, the announcers couldn't wait to bring up the 11th Anniversary of Bartman. #ALCS
p230
aVRT @HillNewMedia: RT @RepSamFarr: Is this @SpeakerBoehner way of admitting the @GOP doesn't have a jobs plan? http://t.co/iAFoiaC4xZ
p231
aVRT @chicagotribune: We're No. 1! Art Institute named top museum in the world. http://t.co/wzBhszU9aN http://t.co/CW3CSSsPYR
p232
aVRT @ChicagoBears: Trestman on injury status of OL Roberto Garza and Matt Slauson: "All I know is that they have ankles." #ChiBearsLive
p233
aVRT @mattlindner: Aaand we have lightning over the center field scoreboard. Holy moly. #Cubs http://t.co/CxLjNwkumB
p234
aVRT @RepBillFoster: Yesterday I discussed long-term unemployment and solutions to increase prospects for job seekers w/ @willcountywib http:\u2026
p235
aVRT @visitthecapitol: #OTD in 1908, Lyndon B. Johnson was born. Here, he goes nose to nose with his own likeness. http://t.co/DEOanypTGg
p236
aVRT @RepBillFoster: Looking for an internship? My offices in D.C. and #Illinois offer #Internships to college students and grads. Info: http\u2026
p237
aVFrom Tanning to Shoveling Dung: What Congress Is Doing On Its Summer Vacation http://t.co/Urv3d60M9n via @abc
p238
aVRT @SenatorDurbin: Best of luck to Jackie Robinson West as they play today in the #LLWS2014. You make Chicago &amp; Illinois proud.
p239
aV@arich413 terrible thing to say to your brother. but i forgive you. Namaste.
p240
aV@arich413 http://t.co/cczt5fB7XE via @newyorker
p241
aVRT @RepBillFoster: I went to @AuroraU to discuss student loan debt and what we can do to make college more affordable. #StudentLoans http:/\u2026
p242
aVRT @scott_tobias: Watched WORLD'S GREATEST DAD last night, and wrote about the richness of Robin Williams' performance for our tribute: htt\u2026
p243
aVRT @chicagotribune: Amazing catch in the last row of the left-field bleachers at Wrigley Field http://t.co/Zx1chhyqQX http://t.co/lmjRyc0Zkn
p244
aVRT @RepBillFoster: Got to drive a robot at @MontgomeryIL Fest. Thanks to @oswego308 robotics clubs! #CongressScienceGuy #ScienceGeek http:/\u2026
p245
aVOur Lonely First Duffer http://t.co/FH0eLsdbFE
p246
aVRT @RepBillFoster: It was great to meet the new teachers and administrators of @JolietSD86 with the @jolietchamber this morning http://t.co\u2026
p247
aVRT @RepBillFoster: At Stepping Stones Treatment Center in Joliet discussing legislation to increase resources to combat heroin abuse. http:\u2026
p248
aVRT @HoyerPress: This morning\u2019s headlines highlighting GOP division on #bordercrisis summed up in one graphic http://t.co/Ctn8fFMC2M
p249
aVRT @CollegeDems: These three @GOP POTUS wannabes are #GOPandering to millennials. Cool story, bros, but we're not buying it. http://t.co/ZP\u2026
p250
aVRT @RepBillFoster: RT if you agree. @SpeakerBoehner's lawsuit against the Prez is irresponsible w so much work left for Congress to address\u2026
p251
aVRT @RepBillFoster: More than 50 million seniors and people with disabilities are covered under #Medicare.   Medicare works \u2013 happy 49th ann\u2026
p252
aVRT @BarackObama: "The states that have increased their minimum wage this year have seen higher job growth than the states that didn't." \u2014Pr\u2026
p253
aVRT @RepBillFoster: I received over 700 cards from constituents who want common-sense action to reduce gun violence. #NotOneMore http://t.co\u2026
p254
aVRT @rollcall: .@RepBillFoster: Congress\u2019 Science Guy http://t.co/HgW2oQPRPN via @jasonjdick
p255
aVRT @chicagotribune: NASA's Mars rover sets off-Earth, off-road distance record http://t.co/gev9RvtqAy http://t.co/klgzo0W2xm
p256
aVRT @john_dingell: 313 years ago today, Cadillac landed on the banks of the Detroit River. No, I wasn't there at the time.\u000a\u000aHappy 313th Birt\u2026
p257
aVRT @RepBillFoster: I support raising the minimum wage, do you? #1010Now http://t.co/cs9LCtdGxW
p258
aVRT @POLITICOMag: How a Jewish doctor duped the Nazis http://t.co/0Ju5MqkomK
p259
aVRT @PolitiFact: Lou Dobbs said 2012 Obama policy on young immigrants 'created' the crisis at the border. Mostly False. http://t.co/e8yss2kT\u2026
p260
aVRT @Slate: Watch John Oliver explain just how broken America's prison system is--VIDEO: http://t.co/g7ES36q2kU http://t.co/drId9JZaV5
p261
aVRT @PressSec: Here's how President Obama's plan to #ActOnClimate helps states, cities, and towns prepare for climate change \u2192 http://t.co/8\u2026
p262
aV@LindenDan Where was this when we were planning our trip?!? 30 parks in 30 days. Let's do it! http://t.co/45OTABXERi
p263
aVRT @Aiannucci: Americanistas, I'm in the Director's seat for tomorrow's #veepHBO. Selina visits Silicon Valley. Here's some clips.  http://\u2026
p264
aV@LindenDan You're just jel because you can't spit rhymes like I can. Plus, nothing rhymes with Linden.
p265
aVRT @Salon: Robert Reich: "Paid-what-you're-worth" is a toxic myth http://t.co/MPu1Bqh0hR
p266
aVRT @George_Mast: Media Advisory: Senator @dianeallennj to be installed as @ElectedWomen (NFWL) Chair 12pm, 3/17 @NJ State House. \u000ahttp://t.\u2026
p267
aVRT @SantiVillaronga: Spain's Prime Minister upon being asked about Mandela's ceremony in South Africa: "Very emotional, also, because we wo\u2026
p268
aVWhy did that woman just get escorted off the House floor?
p269
aVRT @NewYorker: .@TNYJohnCassidy's ten takeaways from the great G.O.P. cave-in: http://t.co/GQQ4eaEjHr
p270
aVRT @NancyPelosi: Today is the 123rd anniversary of a national treasure, Yosemite. Sadly, the #GOPshutdown means it's closed today. http://t\u2026
p271
aVYou can now cast votes alongside your Congress member, in real time http://t.co/yXs1xntPTb
p272
aV@LindenDan haha I saw that. Wicked hard core
p273
aV@LindenDan @AHeinz_99 Roll Tide
p274
aV@dougyfresh555 @LindenDan @AllenKus @AHeinz_99 Coach.... I can't feel my legs.... I want him on my NCAA Winning Team from THE Uni of Hawaii
p275
aV@LindenDan @ohmeggiegirl I'm going out west and I thought id see ic one last time #itsagoddamnsousaphone
p276
aV@OhMeggieGirl @LindenDan #ohimtheasshole
p277
aV@OhMeggieGirl #yousuck
p278
aV@OhMeggieGirl Are you in ic?
p279
aV@LindenDan @ohmeggiegirl go home meg! Just go home.
p280
aVhttp://t.co/vCZWKowL
p281
aVhttp://t.co/e3z0tTFy
p282
aVI just beat emmamac48 by 62 points! Think you can beat me? #GamesWithFriends http://t.co/WefEsPO9
p283
aV@LindenDan @AHeinz_99 I got a home brew kit, so now I can be an alchie on my own. now I know what to get Dan for his bday: B-O-C'ly-Brew
p284
aV@abbeystroik @JuliaFWatts everything looks good! Now we just have to pray that @me3dia is a benevolent grader.
p285
aVRT @MosaicMag2012: Global Economy Hit by Uncertainty of European Economy http://t.co/ZWUnJMDz
p286
aV@abbeystroik maybe just email it to him, that be easier
p287
aV@abbeystroik well check it out and make sure I have everything. Add what we need and send it to andrew. Is that cool?
p288
aV@abbeystroik what do you mean why? So we can show that to him
p289
aV@abbeystroik check the google doc. I filled out most of it
p290
aVJust finished the shining, probably the fifth favorite Nicholson performance. The Last Detail is my favorite
p291
aVWrigley at Wrigley http://t.co/ecYiGfOL
p292
aV@LindenDan I have not yet. It's on my DVR. Is it good? #BDubsEmps
p293
aVhttp://t.co/jgarNlL
p294
aVhttp://t.co/xDnbzqf
p295
aVMy family spoke pig Latin.
p296
aVHell, I meant. Kind of like I'm in hell talking about this poem
p297
aVEven the metaphors don't work? Moon without a passport? What the he'll is that?
p298
aVThis is a terrible poem.
p299
aV@djdirtydarren this is da carts by lil wayne
p300
aVAs much as I hate the tediousness of the discussion on meter, I appreciate the closed form. The world needs order and labels. So do poems
p301
aV@wwestz when life gives you lemons say fuck lemons and bail #paulrudd
p302
aV@hector_ was that a pun? Not as hard as the SOUNDS?
p303
aV@Tothemax15 do you have a spare invite?
p304
aVThere is some awesome wordplay in this poem, better than pretty much anyone we've read 'and down they forgot as up they grew'
p305
aVWe should bring the poetry class, he's a great poet! @wwestz
p306
aV@wwestz fins to the left, fins to the right
p307
aVDid anyone else get the new year's song stuck in their head when they read auld lang syne?
p308
aV@bworozaken cul-de-sac close, very close
p309
aVCynical reading: religion is terrible, just masks the terrible conditions and while these children work hard we can sleep well at night
p310
aVOptimistic reading: this world is full of terrible shit, but if we latch on to belief and remain optimistic, we can get through it
p311
aVHow about some social responsibility spike tv?
p312
aVManswers is talking about sex with twins, from the way it looks in this bar, they are seriously overlooking the incest implications,
p313
aVI ran from the stray urine of a woman passed out on the l tonight. what a wonderful city chicago is, I can see what frank was singing about
p314
aVStuck with some asshole who thinks the thin red line was a response pic to saving pvt ryan. Its a god damn malick film
p315
aV@wscottc I wrote about My Last Duchess for my bog, as per your challenge, and yet I see no comment. Was my insight to biting, to deep?
p316
aV@AnNa__315 I think I'll go for a third. "this poem really floats like a butterfly and stings like a bee. It really had me against the ropes
p317
aVI just noticed I used two boxing metaphors in my past two spoken comments: rope-a-dope and one-two punch
p318
aVThat's just wrong. The word choice makes it great, more terrifying than if he had just written plainly about abuse
p319
aV@wscottc when are we going to cover the modern masters? Lou reed?
p320
aV@wscottc my blog: alexrichspoetryblog.wordpress.com
p321
aVRT @MMFlint: 8 years to the day when Bush put on that costume and falsely declared "Mission: Accomplished."
p322
aV@corinnenoelle haha thanks. I was going for the "militant alcoholic" look.
p323
aV@JamesGunn here's my review of your movie for the Loyola Phoenix, nice job. http://bit.ly/i0oFV4
p324
aV@nydroj90 i was kidnapped! i'm somewhere in asia, covered in blood. i think I can get out of my handcuffs and will be coming to ic directly
p325
aVJust Announced: Chicago Fire vs. Manchester United at Soldier Field June 23. http://t.co/R09MrkF @DLinden890 man uuu man uu man u man uuu
p326
aV@davechensky dave, I have to do a presentation on mash-ups for my new media class.  any tips on some good movie trailer mash-ups?
p327
aV@DLinden890 untweetable deet!
p328
aV@DLinden890 don't come a knockin when "this is the carter" is a rockin'
p329
aVAnyone who goes to Iowa look at number 9.  I don't remember seeing that building anywhere\u000aDumbest College Sports Teams http://shar.es/XFRuh
p330
aVRT @Slate: Ranking Coen Bros. movies http://slate.me/eqItFX via @BuzzFeed What's your number one?
p331
aVhttp://myloc.me/eLNDZ
p332
aV@rpeck89 we are outside. You aren't answering your phone so we thought we would try this. Hurry the hell up http://myloc.me/eDNCz
p333
aV@AHeinz_99 they don't teach you that in these political science courses.
p334
aVIn Action and Adventure: Schoolhouse Rock.
p335
aVRating movies on Netflix.  Worst suggestion so far, Antichrist: How often do you watch movies about marriage?
p336
aVJust made an ass of myself introducing myself to someone who wasnt @ Panera to be interviewed about bomb shelters. I cant look at his table.
p337
aVThe waiter said 'this is to see if you are a man or a boy. You are a boy.' http://twitpic.com/2v8z1v @aheinz_99
p338
aV@rpeck89  You in 30 years?\u000ahttp://onion.com/chu7Jr
p339
aVListen in!  I'm on the Radio!  @KRUI\u000ahttp://www.kruiradio.org/schedule/
p340
aVDo you think there will be a prequel to The Social Network when they make the MySpace movie?
p341
aVThere is really a rapper named Scorzayzee. But can he name as many obscure rappers as Martin can name directors?\u000ahttp://vimeo.com/12596278
p342
aV@AHeinz_99 I bet @Dan_Linden_890  was being totally bitchly about the whole thing.
p343
aV@AHeinz_99 i got hit hard too.  I heard screaming down by the stage for Sports Nation. I thought Cloverfield had come true.
p344
aVI would rather have a witch than a tea bagger http://bbc.in/akvAkM
p345
aVRT @on_the_media: Fascinating look at how the marketing of malt liquor has changed over 40 years.  http://is.gd/fjVyF  Sadly it skips th ...
p346
aV@cinexcellence I think it was the thrill of the hunt, as evidenced by the opening scene.
p347
aVRT @Slate: The saddest page on IMDB http://slate.me/9tbSAT
p348
aV@AlexLeonard17 haha i thought you might like the picture
p349
aVSix Feet Under is very good. I love the dark humor and the rampant mental illness.
p350
aVWhen he walks into the barbershop does he say 'give me the douchebag' or 'give me the first seasons of j shore' http://twitpic.com/2lezay
p351
aVAlternate caption: I remeber when punk was dead.
p352
aVWas he an extra in twilght? http://twitpic.com/2letp9
p353
aVI do not understand how women pee together. How does it work? What's the protocol?
p354
aVI'm the words of uncle bob: people, I hate people.
p355
aVNope, "suck it up" crisis averted.
p356
aVGot stuck on "Beast of Burden" by the Rolling Stones.  Is Mick Jagger saying he'd "Suck a duck"?
p357
aViTunes is on random.  Kimya Dawson's Loose Lips is followed by The Pet Shop Boys' It's a Sin.  Memories of Juno followed by Bronson.
p358
aVthe problem with british films is that when they get out of the car I always forget who was driving....
p359
aVstarting the Red Riding trilogy.  I'm not sure if I am digging it.
p360
aVON THE RADIO! Listen in here!\u000ahttp://www.kruiradio.org/schedule/
p361
aVDoes talking the gunman out of the building count as a Dirty Job for Mike Rowe?  How about cleaning up the crime scene? #Hostage situation
p362
aV@cinexcellence yeah I really liked the first season, but not my favorite Rob Thomas series, that goes to Party Down.
p363
aVexcited to see Dogtooth tonight, looks interesting and very messed up.
p364
aVRT @slashfilmnews: LOL: Guess What Movie Came Out in 2009 http://goo.gl/fb/1teFT
p365
aV@mattyballgame is the food poisoning from the old oysters really worth the cheap date?
p366
aVRT @ebertchicago: R. Crumb's birthday. "When I - what was it - about five or six? - I was sexually attracted to Bugs Bunny." http://j.mp ...
p367
aVthe new Joaquin Phoenix movie just looks dumb, pointless, and all together an awful exercise in self-indulgence http://tinyurl.com/2w7huhh
p368
aVWorking the UI activity fair. Just saw a girl kiss a priests hand as a greeting. Are we still doing that?
p369
aVHow famous do you have to be to have your twitter account verified?
p370
aVLawrence of Arabia is on TCM!
p371
aVWon @filmspotting Massacre Theater! I get a free pixar DVD of my choice. It was a tough decision, but I'm going with Finding Nemo.
p372
aVAnd my neighbors, all males, are rocking out to Party in the USA. What a world, what a world
p373
aVGoing to The Pit for some good barbecue
p374
aVNO ONE said you can't be free, John Mayer.
p375
aVWatching an American werewolf in London. So far no warren zevon
p376
aVon the radio!  Listen up!\u000ahttp://www.kruiradio.org/the-lab-krui-schedule/
p377
aVI just met Dan Gabel*
p378
aVStuck at the KRUI Studio!
p379
aVLogan: "We need something real man, not these 140 characters."
p380
aVoff to listen to strangers and write down what they are saying for Modes of Filmmaking project!  Hooray for school-sanctioned voyeurism!
p381
aVthis must be a steal for CBS. They get a legendary rock band AND they can promote all their CSI shows
p382
aVdoes pete townshend have any cartilage left in his shoulder?
p383
aVnow don't have to buy that "The Who's Greatest Hits" album!
p384
aVtoo bad jeremy shockey forgot not to get that stupid eagle tattoo.
p385
aVTHE KUCH IS ON SNL!?!?!?!
p386
aVwhat if this is as good as it gets?
p387
a.