(lp0
VRodgers missed another deep ball. Again, being an accurate QB does not mean every single throw is on the money. Thank you for your time.
p1
aVEvery time Trubisky overthrows, people act like no good QBs do that. Watching Brady and Rodgers both do it several\u2026 https://t.co/nVviMnQdTA
p2
aVAt what point does LeBron regret going to the Lakers when he could be in Philly right now?
p3
aVCLOSE THE DOOR, THEO https://t.co/qzcogEDzYD
p4
aVRT @rodger: The NFL will donate $5 to charities that support active military &amp; veterans for every tweet or RT with a #SaluteToService hasht\u2026
p5
aVThe Bills fans just *roared* for a field goal that puts them down 25. It makes me a little sad.
p6
aV@Shep670 The key to making a Decision like that work is you take your previous team off the table ahead of time. Yo\u2026 https://t.co/k9sdkexuX6
p7
aV@NoShiiSherlock Honest, pretentious answer: East of Eden. Runners-up: When Breath Becomes Air, I'm Thinking of Ending Things
p8
aVThis reminds me of 2 things: 1. the @ThisAmerLife episode "Petty Tyrant" 2. The George Dohrmann book "Playing Their\u2026 https://t.co/i8qXKpCxhH
p9
aV@SeanFennessey Minding The Gap sitting at 1 for me, too. So great
p10
aVGet excited! It's officially THANKSGIVING SZN https://t.co/FSz7Dn8zgn
p11
aVRT @SInow: The obfuscation of Rose\u2019s past is less surprising than a 50-point game (by @RohanNadkarni)  https://t.co/EFQFuiCj8u
p12
aVI wish I could be happy for Derrick Rose but nope https://t.co/5lnU9f9Bpf
p13
aVI am happy the Packers no longer have Clinton-Dix because he is good and I don't like when they have good players.\u2026 https://t.co/smxJEGmXCd
p14
aVRT @RichardChizmar: Want a free @CemeteryDance limited edition signed by Stephen King? Will pick one winner next week. Just Follow and RT t\u2026
p15
aVlolbulls
p16
aV@robertmays Watch Hill House and only Hill House. It deserves full attention
p17
aVRT @DannyParkins: Only player in NFL history to throw 220+ yards, 2+ TDs and rush 45+ yards in 5 straight is Steve Young. \u000a\u000aMitch Trubisky\u2026
p18
aVHow incredible is this #FantasticBeasts poster from China? CC @MalloryRubin @netw3rk https://t.co/Lhn0czxVLI
p19
aVRT @ZachZaidman: The 2019 Cubs regular season begins in 151 days in Texas.
p20
aV#WorldSeries https://t.co/PVN8kBi2jh
p21
aV@DannyParkins A 14-point NFL win without any turnovers isn't actually that ugly though
p22
aVA double-digit win in the NFL and our team didn't turn the ball over. I'm never going to complain about that. (Scar\u2026 https://t.co/c7VOXqxhnF
p23
aVSo Trubisky has 2 TDs, 174 yards and 0 turnovers with a 20-yard first down completion waved off from a penalty in a\u2026 https://t.co/YxWARbT978
p24
aVOh my. https://t.co/8eZBSakCRa
p25
aVPerfect throw by Trubisky, great catch by Miller. #Bears
p26
aV@denz_dan 40 yars but he missed by a mile
p27
aVWe're going to get a big game from Hicks and a #Bears W. Let's go!
p28
aVRT @SInow: Mitch Ditka ready to lead Chicago \U0001f525\u000a\u000a(via @ChicagoBears) https://t.co/HpIuItRBiU
p29
aVI'm sad. https://t.co/Q3qH49rG10
p30
aVRT @The_UnSilent_: Our man is done playing around with this clown https://t.co/waiHidOtKB
p31
aVEnding FilmStruck is a coward move.
p32
aVRT @nowthisnews: \u2018That is how you claim asylum, you show up and you say I\u2019m claiming asylum.\u2019 \u2014 This journalist simply explains how Trump\u2019s\u2026
p33
aVI really thought @BenLindbergh and I could be great friends. We're both Constant Readers. We both obsess over baseb\u2026 https://t.co/kwCF9Cw2fq
p34
aVRT @perlberg: Well this caption really takes a turn https://t.co/d5Y8uubWF8
p35
aVSuper Bowl XLI. Then I\u2019d have what I need and I wouldn\u2019t have to watch sports ever again. https://t.co/gpTH7pS28v
p36
aVHahaha Facebook wants us to buy a "portal" for them to be *present in our homes* after all their privacy violations\u2026 https://t.co/g0MOZclsxL
p37
aVKershaw is going to do this his whole career, then?
p38
aVYesterday, @JordynRook and I voted early. It felt great to do something tangible to defend our beliefs. Vote vote v\u2026 https://t.co/U2c0dagLsC
p39
aVRT @rmayemsinger: Because everything sucks, please enjoy this dad making a roller coaster out of a laundry basket.\u000a https://t.co/dULYjvRJtC
p40
aVLet's go! #BearDown #BeatNE https://t.co/YyVxFOFVXV
p41
aV@stealthypete @NBCSCubs @Brewers Really? https://t.co/QS1w39RqCP
p42
aVLet \u2018em know, Manny. https://t.co/PdZGi8qP8d
p43
aVRT @bryanbehar: Hey look, the Brewers just brought in Hader.  #DodgersvsBrewers #Dodgers #Game7  #HaderIsAHater https://t.co/xqcw9YItkN
p44
aVKhalil &lt;3 https://t.co/a9sp7r7njZ
p45
aVDefinitive ranking of the Crain family:\u000a1. Theo\u000a2. Nell\u000a3. Luke\u000a4. Olivia\u000a5. Hugh\u000a6. Shirley\u000a7. Steve\u000a#TheHauntingOfHillHouse
p46
aVI finished #TheHauntingOfHillHouse and wow it is really, really great
p47
aVRT @Evan_Rook: Before the season, the #Astros were insisting they would go back to back and said "We're not the #Cubs," so just remember th\u2026
p48
aVBefore the season, the #Astros were insisting they would go back to back and said "We're not the #Cubs," so just re\u2026 https://t.co/nDIwBcrcoO
p49
aVRT @danpfeiffer: Some Facts:\u000a\u000a1. If Republicans keep the House and Senate, they will repeal the ACA\u000a2. If you don't believe me, listen to M\u2026
p50
aV@MattSpiegel670 The fans legs are up against the railing and he's reaching forward. Has to be fan interference
p51
aVI don't care who wins this game or series at all (and I love piling on to Joe West) but objectively, I think fan in\u2026 https://t.co/DFFoMFAXPF
p52
aVRT @johngreen: I know we live in the upsidedown now and everything, but surely no one who has read the gospels thinks Christ is more concer\u2026
p53
aVOh wow I love that move from Craig Counsell. I don't like the Brewers, but that's genius
p54
aVRT @dyfl: If you missed it: today it was confirmed that Facebook massively &amp; knowingly inflated its video-view statistics, which had the DI\u2026
p55
aVHmm wonder how it was like the Astros knew what was coming from Darvish last year https://t.co/br2hGllvBA
p56
aV..........why? https://t.co/pEO8nLJ2WZ
p57
aVI literally said halfway through this episode that it reminded me of "The Things They Carried" so I feel ~accomplis\u2026 https://t.co/SdRbU34cfb
p58
aVHey @DannyParkins, just as a note: You're not crazy. I think the rational, objective take on transition today was t\u2026 https://t.co/dROaTzE4wX
p59
aVWe need a 10-hour Ken Burns documentary detailing every feud in the history of Fleetwood Mac
p60
aVRT @DannyParkins: Mitch Trubisky NFL ranks through 5 games:\u000aCompletion %: 4th\u000aPasser rating: 7th\u000aYards/attempt: 10th\u000aTouchdowns: 11th (ever\u2026
p61
aVThat was hell
p62
aVThat roughing call on Floyd was worse than any called on Mathews. WHAT IS THE NFL DOING?
p63
aVSo Greg Jennings is horrible, right? I'm not alone in this? #CHIvsMIA
p64
aVTAYLOR GABRIEL!!! WOW WOW WOW
p65
aV#FirstMan is really good. I recommend it. https://t.co/0V7UHfLuTr
p66
aVThis is so perfect https://t.co/w0BQNIUdt8
p67
aVAladdin was my favorite movie for my entire childhood and I love it fully. This new trailer was trash and these stu\u2026 https://t.co/Eol0ux7i0x
p68
aV*crucially, not refs https://t.co/sdi1IscYXp
p69
aV@Lin_Manuel This one is very good but I think you're hard-pressed to top "The Tomb Where It Happens" because I just\u2026 https://t.co/N98OV37spL
p70
aVA Star Is Born In The Heights https://t.co/OPRxv0IqC6
p71
aVRT @MentalHealthAm: Today is #WorldMentalHealthDay. According to @WHO:\u000a\u000a\u27a1\ufe0f300 million people of all ages have #depression\u000a\u27a1\ufe0f60 million peop\u2026
p72
aVhaha yeah we'll give you Jordan Howard if you give us Alshon back https://t.co/wWA7H45Qz0
p73
aVI finally saw Jurassic World: Fallen Kingdom this weekend. I thought I had properly set my low expectations but I w\u2026 https://t.co/vwUFbxsGBQ
p74
aVRT @ChicagoBears: You earned it, @52Mack_. \u000a\u000aNFC #DPOM | #DaBears https://t.co/nkCcMRgPjK
p75
aVAddison Russell suspended 40 games. That better be some other team's problem #Cubs
p76
aVAllow me to be the 1,000th person to share this @Wesley_Morris piece on Twitter. These are pressing issues for all\u2026 https://t.co/BxFhZFyT8C
p77
aVI, like Kris Bryant, am going at less than 100% today. I mean, my shoulder isn't torn to shreds, but I am super tired.
p78
aV@HouchJ Plus the loss on Saturday
p79
aVCubs had every opportunity and couldn't get it done. That makes this easier to swallow. Maddening season. It happens. On to 2019...
p80
aVThis Chevy commercial that's like 3 little mini commercials? It's the most grating thing I've ever seen. I now despise Chevy.
p81
aVPostseason on the North side 4 years in a row. Take a moment to enjoy it. Let's go #Cubs!
p82
aVRT @SidizenKane: Excited for Spielberg\u2019s take on \u201cWest Side Story\u201d in which you don\u2019t see the Sharks for the first hour.
p83
aVRT @TomFornelli: I\u2019ll never get tired of this (via @mikesilver) \u000a\u000ahttps://t.co/KseVI8DqFP https://t.co/YgxIoduZ1M
p84
aVI love Mack so much #Bears
p85
aVThe 10 year old Bucs fan next to me just asked his #Bears fan dad if they could leave. The dad flat-out said no.\u2026 https://t.co/hwDedgGVZ5
p86
aVAll square atop the NL Central with one day to go #Cubs https://t.co/GPB4bsLtrA
p87
aV@b_mccaffrey Thanks Brendan! And congrats!
p88
aVATTN: All pitchers\u000aStop. Hitting. Kris. Bryant.
p89
aVWe should probably only vote to confirm once people are more certain about their positions. Senate members leaving\u2026 https://t.co/X9eNp0I2Ot
p90
aVIsn't Trump on the record as hating people who drink water too often? Like, that was a major complaint of his when it came to Marco Rubio
p91
aVBrett Kavanaugh seems irrational, angry and malicious. He does not seem objective or judicious. This should be disqualifying.
p92
aVDr. Ford is an American hero and Brett Kavanaugh is unworthy of consideration for the Supreme Court. It's really that simple
p93
aVMy first #Bears game! They clinched the division this game, too https://t.co/U7NcyLd2Cg
p94
aV@JustinBienvenue @BrooxHart @larainenewman This letter is dated 1971. King's first novel, Carrie, didn't come out u\u2026 https://t.co/VXeDfyfluh
p95
aVRT @creedmovie: Legacy. Destiny. Family. Watch the new trailer for #Creed2 - in theaters this Thanksgiving. https://t.co/02IWfPkM4I
p96
aV@robertmays Also (at the risk of jinxing it) the Bears have been flagged for 0 roughing the passer penalties. Most\u2026 https://t.co/3Y9Sif3ScU
p97
aVRT @robertmays: The Bears have three more sacks than any team in the NFL \u2014 and are blitzing four percent less than any other defense. (Havi\u2026
p98
aVNot bad... https://t.co/3cfMQjRo6d
p99
aVRT @Evan_Rook: Khalil Mack is a cheat code #Bears
p100
aVPlaying "Humble" right after Bradford threw a pick was very aggressive @NFLonFOX
p101
aVHey defensive players, if you want sacks, you better learn how to reverse gravity when necessary #NFL https://t.co/9M3jq8ruO4
p102
aVMinnesota down 27 to Buffalo. Green Bay down 20 to Washington. Let's go let's go let's go.
p103
aVBrewers lose, #Cubs win https://t.co/wfPBokOwGL
p104
aVRT @electrolemon: https://t.co/3XW3o3WypQ https://t.co/prQg8TIEgZ
p105
aVThis is hard to read. The Cubs need to take a good look at these allegations and act accordingly. Disgusting. https://t.co/ct2zlQY7ai
p106
aVToday:\u000a-Two new episodes of @serial were released\u000a-We finally got official word @Hulu is making more #VeronicaMars\u2026 https://t.co/ptn6WiL6WN
p107
aVRT @serial: This season, we\u2019re holding open the courthouse door, inviting you inside. There are shocking, fascinating things happening in p\u2026
p108
aVIt's really generous of @CBS to air a Super Bowl with @NBC star Adam Levine and his band Maroon 5 performing at hal\u2026 https://t.co/bs3FrRBl1W
p109
aVRT @DragonflyJonez: I thought about getting into collecting vinyl but it seems like a big part of collecting vinyl is having ppl over your\u2026
p110
aV@SpikeMal @jessica_smetana @binge_mode @MalloryRubin @netw3rk I agree the cinematography is good, but man, I think\u2026 https://t.co/b39mRzDHYv
p111
aV@SpikeMal @jessica_smetana @binge_mode @MalloryRubin @netw3rk So... why did you come around to it? Every time I see\u2026 https://t.co/B0kQokvMfs
p112
aVWho could have seen this coming? https://t.co/vX8w1AtKx7
p113
aVRT @WilloughbyDobbs: Mary Poppins\u000aMary Poppins Returns\u000aMary Poppins Forever\u000aMary Poppins and Robin\u000a\u000aMary Poppins Begins\u000aThe Flying Nanny\u000aTh\u2026
p114
aVRT @ringer: If you were watching the #Emmys and missed MNF, Khalil Mack (@52Mack_) had himself a night. #DaBears \u000a\u000aHIGHLIGHTS: https://t.co\u2026
p115
aVThis, but for The Good Place instead #Emmys https://t.co/SBjr3bEZZw
p116
aVThe Fred and Maya stuff is just absolutely not working on any level #Emmys
p117
aVShoutout Thandi Newton, Peter Dinklage, and Regina King. I like when awards go to people who super deserve them. #Emmys
p118
aVKhalil Mack is a cheat code #Bears
p119
aV-Veronica Mars\u000a-Breaking Bad\u000a-Friday Night Lights\u000a-The Good Place\u000a-Stranger Things https://t.co/BI7ZEi9Klz
p120
aVMy entire old Twitter history was accidentally deleted. On one hand, oh no! My Twitter presence from 2009 until now\u2026 https://t.co/cFdSSC0knZ
p121
a.