(lp0
VRT @fritzkj: @FloraElephant @KashJackson2018 I like a candidate that will go around city to city, door to door, talking to the people himse\u2026
p1
aVRT @baalter: #Illinois isn't it about time you elected a governor who will work to put you 1st?\u000a\u000a#VoteRed \U0001f534 and elect @KashJackson2018\U0001f1fa\U0001f1f8 he\u2026
p2
aVRT @SanjMohip: Just like the NAACP forum a couple weeks ago, JB Prtizker, Bruce Rauner, and Sam McCann did NOT show up to the @wttw Governo\u2026
p3
aVRT @parentnotavisit: @KashJackson2018 @KashGovernor \u000a#vote https://t.co/1TMMoFRF5x
p4
aV@o_marianne @nancy_hamm1 @realDonaldTrump @BruceRauner @KashJackson2018 And President Trump does know me !! \U0001f1fa\U0001f1f8\U0001f418\U0001f60e\u2026 https://t.co/LoTrfXNFEi
p5
aV@o_marianne @nancy_hamm1 @realDonaldTrump @BruceRauner @KashJackson2018 https://t.co/lPXUhhwqdq
p6
aV@o_marianne @nancy_hamm1 @realDonaldTrump @BruceRauner @KashJackson2018 No one asked for your unwanted opinion !!
p7
aVRT @foxillinois: BEYOND THE PODIUM: We sat down with @KashJackson2018 to discuss his bid for Illlinois Governor. \u000a\u000aTo see more candidate in\u2026
p8
aVRT @SanjMohip: Thursday, Nov 1st, @KashJackson2018 will be returning to @wttw channel 11 live on Chicago Tonight between 7pm-8pm. (I'll be\u2026
p9
aV@DickDurbin @JBPritzker @KwameRaoul @JesseWhite2018 @susanamendoza10 @MikeforIllinois A LYING RACIST? HELL NO !! Th\u2026 https://t.co/qUH1KCKxCc
p10
aV@hotbbq11 @PowerTaking @realDonaldTrump @BruceRauner @KashJackson2018 https://t.co/wnlFpD31gF
p11
aV@hotbbq11 @PowerTaking @realDonaldTrump @BruceRauner @KashJackson2018 https://t.co/6fs5d7oAAY
p12
aV@WGNMorningNews This Illinois Army Veteran is early-voting for #Libertarian #Veteran KASH JACKSON @KashJackson2018\u2026 https://t.co/gXsdfnxCjl
p13
aVRT @SanjMohip: A vote for Kash Jackson is not a vote for JB Pritzker.\u000aA vote for Kash Jackson is not a vote for Bruce Rauner.\u000aA vote for Ka\u2026
p14
aVRT @IllinoisforKash: RT IF YOU DO NOT WANT THIS MAN INSTALLING A TRACKING DEVICE IN YOUR CAR!!!! \u270b\U0001f3fb\U0001f645\U0001f3fb\u200d\u2642\ufe0f\U0001f645\U0001f3fb\u200d\u2642\ufe0f\U0001f645\U0001f3fb\u200d\u2642\ufe0f\u000a\u000a#GetAWarrant, #TeamJB.\u2026
p15
aV@hotbbq11 @PowerTaking @realDonaldTrump @BruceRauner @KashJackson2018 Great to hear !! Yes, I @ChitownJewrean (who\u2026 https://t.co/En1OSr1ps3
p16
aVRT @SWB138: @ChristianKULAS7 @JBPritzker @repjcarroll U don\u2019t have 2 settle 4 @GovRauner, u can vote 4 a good candidate: @KashJackson2018\u2026
p17
aVEven our own President Trump @realDonaldTrump ignored @BruceRauner and so should you !! VOTE FOR #Libertarian\u2026 https://t.co/eLRBvKyZK7
p18
aVRT @KashJackson2018: Funny how no one ever even considers cutting spending. Seems to me like that should always be the first step in solvin\u2026
p19
aVRT @KashJackson2018: A "glitch" has been causing voting machines in Texas to change votes. Please avoid electronic voting machines this ele\u2026
p20
aVRT @KashJackson2018: (2/2) &amp; finding qualified libertarian legislators 2 run in uncontested democrat districts in 2020 2 take power away fr\u2026
p21
aVRT @KashJackson2018: https://t.co/GAHZSxro7E\u000aHow is @GovRauner working 2 build the IL economy? Funny I didn\u2019t think he was working much at\u2026
p22
aVRT @OAD_Studios: My wife representing the man @KashJackson2018!\u000a\u000aElection day is right around the corner and we need to fight now more than\u2026
p23
aVRT @SWB138: @BruceRauner Day of action @GovRauner, pls get real. U haven\u2019t done anything in 4 yrs.\u000a\u000a&amp; Democrat\u2019s r running unopposed throug\u2026
p24
aVRT @sfornek: 'Trump ignores Rauner at southern Illinois rally ...' Rauner is kind of like the guy who breaks down and finally asks some gir\u2026
p25
aVRT @KashJackson2018: Just keep in mind that anyone who needs to spend $161 mil of their own money in a gubernatorial race and can't even br\u2026
p26
aVRT @SanjMohip: Re-electing Rauner is not going to turn things around. Electing Pritzker is definitely not going to lessen any debt. How muc\u2026
p27
aVRT @KashJackson2018: Things I WILL NOT do as Governor:\u000a\u000a-Pass a Gas Mileage Tax\u000a\u000a-Pass a Soda Tax\u000a\u000a-Ignore our debt\u000a\u000a-Pass an unbalanced bu\u2026
p28
aVRT @KashJackson2018: I'm a straight,white,Christian male who did 20 years in the Navy, pro 2A,  hunts,fishes,listens to country music,drive\u2026
p29
aVRT @KashJackson2018: My thoughts and prayers are with those who so tragically lost their lives and those who were affected by the senseless\u2026
p30
aVRT @billschutt: #ILGov what we KNOW!\u000a\u000a@BruceRauner has accomplished nothing in 4 years\u000a\u000a@JBPritzker cannot properly manage a campaign staff\u2026
p31
aVRT @SanjMohip: Really good interview with @KashJackson2018 at @unichicago. Taped a 40+ minute segment with detailed questions and allowed K\u2026
p32
aVRT @SanjMohip: Up on stage with @KashJackson2018 at @UISedu for a @YALiberty event tonight. Great turnout. Great Q &amp; A. Kash did most of th\u2026
p33
aVRT @SanjMohip: Less than 10 days until the election. Time for the last push to get our names out there.  And thanks so much for the support\u2026
p34
aVRT @KashJackson2018: Energy &amp; @govrauner unfortunately don\u2019t mix.If they did he might have put up a little fight these last 4 yrs\u000a\u000aSome say\u2026
p35
aVRT @KashJackson2018: https://t.co/aT0cjASTaH\u000a\u000a2 news articles about @JBPritzker &amp; #teamjb hurting IL families crossing my desk tonight.\u000a\u000aI\u2026
p36
aVRT @KashJackson2018: This is one wild #WorldSeries game to watch. 17 innings deep!! What a ride!!! https://t.co/xHwcjpHvNq
p37
aVRT @BumperSmack: This is the BEST Trump song EVER!  \u000a\u000aTrump Train\u2019s A Rolling \u000a\u000aRETWEET if you\u2019re on the Trump Train? \u000a\u000aFull Video on YouTu\u2026
p38
aVRT @katrina_wiser: @kuntryBoy2010 @bj_bjshaven @direcsjbhan @yamezrn @karlacny @KashGovernor @KashJackson2018 @Kath4500 @kayhart54 @KayMorg\u2026
p39
aVRT @GrayWolf1775: #Veterans who do we expect to back us or understand the problems we face on a daily basis? Paid politicians like @JBPritz\u2026
p40
aVRT @C_Hansen84: Who will you be voting for as Governor of Illinois?\u000a\u000aVOTE AND RETWEET\u000a\u000a#twill #ILGov #Vote \U0001f1fa\U0001f1f8
p41
aVRT @BenJCollison: #LessTaxesMoreKash @KashJackson2018 #twill @SanjMohip @ClaireBallForIL @KashChicago @IllinoisforKash @billschutt @SWB138\u2026
p42
aVRT @billschutt: @JBPritzker #BlackfaceJB and his band of merry racists would have you think they stand for minorities, but in reality, he P\u2026
p43
aVRT @KashJackson2018: @BruceRauner failed the residents of #Illinois, the #veterans who died in Quincy from Legionnaires disease, and also t\u2026
p44
aVRT @KashJackson2018: It's #FridayNight!!! Please when you're out having a beer with your friends, out bowling or at your book club tonight\u2026
p45
aVRT @BenJCollison: #LessTaxesMoreKash @KashJackson2018 #twill @SanjMohip @ClaireBallForIL @KashChicago @IllinoisforKash @billschutt @SWB138\u2026
p46
aVRT @BenJCollison: #LessTaxesMoreKash @KashJackson2018 #twill @SanjMohip @ClaireBallForIL @KashChicago @IllinoisforKash @billschutt @SWB138\u2026
p47
aVRT @KashJackson2018: I'm surprised my opponent would even accept an endorsement from @HillaryClinton. Given that his campaign has been mise\u2026
p48
aVRT @BrianKolfage: Facebook has attacked me and my family. I\u2019m having the DOJ investigate and I will sue them. HELP ME FIGHT! \u000ahttps://t.co/\u2026
p49
aVRT @THEHermanCain: Never forget: this woman hates you.\u000a\u000aShe has absolutely no interest in civility, healing, or unity. All she wants is vic\u2026
p50
aVRT @cvpayne: Got goosebumps...\u000aUSA\u000aUSA\u000aUSA\u000abe what you want to be and pick your political ideology with pride no matter what it might be ht\u2026
p51
aVRT @WGNTV: FYI ESPN.\u000a\u000ahttps://t.co/9Om2MWko4D
p52
aVRT @KashJackson2018: If you don't think IL courts are broken, I want you to look at this photo. My ex gained an emergency order of protecti\u2026
p53
aVRT @JohnHowellWLS: Our pleasure, good luck. https://t.co/3JGKydwQCU
p54
aVRT @JohnHowellWLS: Here's the #ChicagoSunTimes piece on @KashJackson2018  I talked about. Worth your time. \u000a\u000ahttps://t.co/8eqMS8gGzM
p55
aVRT @billschutt: Attn #ILGov voters! Are you looking for purpose in your vote? We bitch and complain about our state constantly, then we go\u2026
p56
aVRT @SWB138: @Harmonizer91 @KashJackson2018 @wlsam890 Live streaming at https://t.co/EFtLRu61UJ\u000a\u000aWhile I am at work, Kash is working 4 us, l\u2026
p57
aVRT @Harmonizer91: Everyone in Chicago should tune into @KashJackson2018's interview on @wlsam890. It's coming on at 8:20 central standard t\u2026
p58
aVRT @KashJackson2018: I'll just put this out there: #Kash2018 voters are actually excited to vote for me. I'm not sure a single @JBPritzker\u2026
p59
aVRT @KashJackson2018: I am a father, service member, American patriot... Fighting to reform family law. Children need moms and dads, not vis\u2026
p60
aVRT @IllinoisforKash: #IL,\u000a\u000aWe have 3 choices:\u000a\u000a1. More of the same, #BruceRauner, who was aptly titled \u201cThe Worst Republican Governor in Am\u2026
p61
aVRT @billschutt: @JBPritzker You\u2019re being sued for Discrimination &amp; Harrassment of minority workers in YOUR OWN CAMPAIGN.Yet you have the ga\u2026
p62
aVRT @JustinBarlowPPW: @JBPritzker "There's no such thing as a vote that doesn't matter."  Exactly why I'll be voting for @KashJackson2018 in\u2026
p63
aVRT @KashJackson2018: https://t.co/3RmXAtqVEs\u000aBruce, u had 4 years 2 fight, &amp; by that I mean fight w/ policy instead of finger pointing, def\u2026
p64
aVRT @SWB138: @74stasha @KashJackson2018 Boots 2 asses Kash, boots 2 asses\u000a\u000aBoot #teamrauner out, boot #teamjb b4 they get a chance 2 bring t\u2026
p65
aVRT @KashJackson2018: https://t.co/CC5ku3pf3Q\u000a\u000aI have no party bosses, the ppl of IL will b my boss!\u000a\u000aNo special interests can hold me back\u2026
p66
aVRT @BenJCollison: @Trib_ed_board Yeah he's not. He is a damn mouthpiece for Mike Madigan though. Bought and paid for by Mike Madigan. Vote,\u2026
p67
aVhttps://t.co/aereZS3nia
p68
aVhttps://t.co/ua8AvXVhUV
p69
aVhttps://t.co/JPuEgm8w8W
p70
aVRT @SanjMohip: We're not billionaires and millionaires, folks. Please donate to the @KashJackson2018 campaign if you can. There's less than\u2026
p71
aVRT @reason: Excluding Libertarians or Greens from polling in close races ain't science\u2014it's push-polling for Democrats and Republicans. htt\u2026
p72
aVRT @KashJackson2018: Why don't I get invited to most debates? Maybe because then @JBPritzker and @BruceRauner don't show up. I was the only\u2026
p73
aVRT @billschutt: @BruceRauner Join #BootBruce on his new tour! \u201cI\u2019m Toast! - Vote Kash!\u201d. We celebrate the governor who accomplished nothing\u2026
p74
aV@RyanairFlights I would've thought Airline Companies had learned proper protocol from the UNITED PR Disasters.\u2026 https://t.co/pbxxFyIGFx
p75
aV@Ryanair I would've thought Airline Companies had learned proper protocol from the UNITED PR Disasters.\u2026 https://t.co/gR9VzDigue
p76
aV@Ryanair I would've thought Airline Companies had learned proper protocol from the UNITED PR Disasters.\u2026 https://t.co/Z2cmZhcEqF
p77
aV@Ryanair I would've thought Airline Companies had learned proper protocol from the UNITED PR Disasters.\u2026 https://t.co/csIjVawDNI
p78
aV@Ryanair I would've thought Airline Companies had learned proper protocol from the UNITED PR Disasters.\u2026 https://t.co/chARhqCkAV
p79
aV@krassenstein @DLoesch @NRA How many of those voters are ILLEGALS? https://t.co/Uc2DZZN8tW
p80
aVRT @billschutt: @BruceRauner #ILGov Election Newsflash! #GovPaperweight throws his support to superior candidate #Libertarian @KashJackson2\u2026
p81
aVRT @KashJackson2018: We're going to destroy Madigan's machine. Madigan and his cronies rely on running candidates unopposed in 50% of distr\u2026
p82
aVRT @TCzubernat: @CindiRight @GmforMittRomney @KashJackson2018 Stop. Rauner is a RINO. Vote for Kash.
p83
aVRT @BenBradleyTV: This is depressing. https://t.co/H6k6cp6kDl
p84
aV@RyanairFlights I would've thought Airline Companies had learned proper protocol from the UNITED PR Disasters.\u2026 https://t.co/YpTks2hv7X
p85
aV@Ryanair I would've thought Airline Companies had learned proper protocol from the UNITED PR Disasters.\u2026 https://t.co/d5uAKfVZ9s
p86
aV@Ryanair I would've thought Airline Companies had learned proper protocol from the UNITED PR Disasters.\u2026 https://t.co/1a0ew31F8M
p87
aV@Ryanair I would've thought Airline Companies had learned proper protocol from the UNITED PR Disasters.\u2026 https://t.co/Ozve15UFH7
p88
aV@Ryanair I would've thought Airline Companies had learned proper protocol from the UNITED PR Disasters.\u2026 https://t.co/QOn9KRu0j6
p89
aV@Ryanair I would've thought Airline Companies had learned proper protocol from the UNITED PR Disasters.\u2026 https://t.co/nDUGemIog9
p90
aV@Ryanair I would've thought Airline Companies had learned proper protocol from the UNITED PR Disasters.\u2026 https://t.co/ryoOdrVYU6
p91
aV@Ryanair I would've thought Airline Companies had learned proper protocol from the UNITED PR Disasters.\u2026 https://t.co/SDcDtTHf9t
p92
aV@Ryanair I would've thought Airline Companies had learned proper protocol from the UNITED PR Disasters.\u2026 https://t.co/NuBpi1L9uI
p93
aV@Ryanair I would've thought Airline Companies had learned proper protocol from the UNITED PR Disasters.\u2026 https://t.co/y7BEH9aFvf
p94
aV@Ryanair I would've thought Airline Companies had learned proper protocol from the UNITED PR Disasters.\u2026 https://t.co/U8WYgJbpb0
p95
aV@Ryanair I would've thought Airline Companies had learned proper protocol from the UNITED PR Disasters.\u2026 https://t.co/KVDeEmm6Do
p96
aV@Ryanair I would've thought Airline Companies had learned proper protocol from the UNITED PR Disasters.\u2026 https://t.co/XpoUztrem1
p97
aV@Ryanair I would've thought Airline Companies had learned proper protocol from the UNITED PR Disasters.\u2026 https://t.co/3vSkKeaELw
p98
aV@Ryanair I would've thought Airline Companies had learned proper protocol from the UNITED PR Disasters.\u2026 https://t.co/ufg3EhS5h9
p99
aV@Ryanair I would've thought Airline Companies had learned proper protocol from the UNITED PR Disasters.\u2026 https://t.co/4mYhKWtXxD
p100
aV@Ryanair I would've thought Airline Companies had learned proper protocol from the UNITED PR Disasters.\u2026 https://t.co/Ht2oWCB2GF
p101
aV@Ryanair I would've thought Airline Companies had learned proper protocol from the UNITED PR Disasters.\u2026 https://t.co/vT60050XBR
p102
aV@Ryanair I would've thought Airline Companies had learned proper protocol from the UNITED PR Disasters.\u2026 https://t.co/kIMASiOQnV
p103
aV@NowLibertarian @Dischef @AgnosticLiberty @Brewbaker2018 @palmieri_eric @van_voltenburg @VirusEmpathy\u2026 https://t.co/TBim87VHdv
p104
aVRT @KashJackson2018: What a pipe dream! People going back to Rauner will only lead to @JBPritzker getting elected. This is exactly what all\u2026
p105
aVRT @parentnotavisit: \u26a1\ufe0f \u201cWe will call this the awakening...\u201d\u000a\u000ahttps://t.co/ej9to6bDK4
p106
aVRT @RacySicilian: Speaking of @jack don't forget about @facebook and @Google They are all equally guilty of meddling in elections by suppre\u2026
p107
aV@KashJackson2018 was the ONLY candidate to show up at the IL Governors Forum on Chicago's West Side. #RINO\u2026 https://t.co/H2imBXogJb
p108
aVRT @KashJackson2018: I'm being dead serious when I say this. If @JBPritzker is elected this is what Illinois will turn into.\u000ahttps://t.co/a\u2026
p109
aVRT @SanjMohip: I'm at a Illinois Governor Forum. @KashJackson2018 is the ONLY candidate to attend this forum on the west side of Chicago. N\u2026
p110
aVRT @billschutt: Below is a plea from an #Illinois citizen. A @KashJackson2018 supporter who finally found a candidate to vote FOR.  Not the\u2026
p111
aVRT @GOP: \u201cDemocrats believe our country should be a giant sanctuary city for criminal aliens\u2026 Republicans believe our country should be a s\u2026
p112
aVRT @GOP: The Democrat mob has gone TOO far.\u000aStop them. Vote Republican.\u000ahttps://t.co/aQVmJq0b50 https://t.co/5LjEvgY7TW
p113
aVRT @DennisDMZ: If the caravan makes it by November 6th they vote, right? #notsurehowthingsworkanymore
p114
aV@prozdkp Top 5 Favorite People You Look Up To
p115
aVhttps://t.co/fNgjklisUI
p116
aVRT @KashGovernor: @John_Kass @americageddon @chim0m @KashJackson2018 This Illinois Army Veteran is voting for KASH JACKSON @KashJackson2018\u2026
p117
aV@John_Kass @americageddon @chim0m @KashJackson2018 This Illinois Army Veteran is voting for KASH JACKSON\u2026 https://t.co/xjaNgBxVf8
p118
aVHopefully ya'll know about the FREE Get It Right! News app for Android only. All your favorite Conservative news, a\u2026 https://t.co/FPF49wMMiy
p119
aV@realDonaldTrump Get our troops to the Southern Border and hold the Wall !! If Mexico seriously just lets them thro\u2026 https://t.co/hOvhOrSOnz
p120
aVRT @realDonaldTrump: This is what it is all about for the Republican Party! #JobsNotMobs https://t.co/8OabccPec5
p121
aV@dleewater @ShaunfromEP @KashJackson2018 Damn straight this Illinois Army Veteran is voting for Kash !! \U0001f44c\U0001f4af\U0001f44c\u2026 https://t.co/T5NvrP4UZh
p122
aV@JBPritzker \U0001f416 is a fat lying #RacistJB hackjob &amp; he's heading toward the jailhouse, not the #ILGov house! VOTE 4\u2026 https://t.co/pzVlpl5XKS
p123
aV@IllinoisforKash @MaryAnnAhernNBC OMG what horrifying conditions !! They should be illegal in any workplace, let alone a campaign office !!
p124
aV@_andylego Go troll somewhere else. If you don't support Kash, that's your loss. But there are plenty of Veterans w\u2026 https://t.co/dwIAKoVPKW
p125
aVRT @KashJackson2018: My supporters are a diverse group voting for positive change in Illinois politics. Join us! #ILGov #twill #Kash2018 #G\u2026
p126
aVRT @IllinoisforKash: #Chicago,\u000a\u000aOne candidate for IL Governor owns and invests in #DAPL, while the other was in #StandingRock protecting th\u2026
p127
aVRT @RacySicilian: \U0001f4e2Dem J.B. Pritzker\u2019s campaign staffers have filed a federal lawsuit alleging racial discrimination in their months on the\u2026
p128
aVRT @RacySicilian: Kash Jackson is the right man at the right time for governor of Illinois. He understands the needs of the ppl. He is a 20\u2026
p129
aVRT @WyverShago: Japanese Donald Trump Commercial\u30c8\u30e9\u30f3\u30d72016 https://t.co/cSK6xhK7nG via @YouTube
p130
aV@charliekirk11 ~\u000aHappy belated birthday and have you seen this?  https://t.co/s0tieTMqIy
p131
aVVOTE for #Veteran KASH JACKSON @KashJackson2018 and SANJ MOHIP @SanjMohip for #ILGOV to #RestoreIllinois and make o\u2026 https://t.co/3smCY6W9tk
p132
aVRT @BillClintonTHOF: Here are 7 Democrat Leaders who have called for Violence against Conservatives, all after a Liberal\u2019s Mass -Shooting a\u2026
p133
aVRT @BillClintonTHOF: Pastor Andrew Brunson, just released from a Turkey Prison, kneels &amp; prays over our President today! #PastorBrunson #Pr\u2026
p134
aVRT @KashGovernor: @SpamRUs_and_You @KashChicago This is the best thing I've seen all day !! https://t.co/AIo3xofgtu
p135
aVRT @Ielizabethgrace: @CB618444 @KYTavern VOTE REPUBLICAN!\u000aTUESDAY, NOVEMBER 6, 2018
p136
aVRT @CB618444: \U0001f4a5\U0001f4a5\U0001f4a5There you have it folks! \u000a\u000aProof the caravan being paid cash \U0001f4b02 grow larger &amp; march into America like its their right. I\u2019m\u2026
p137
aV@eric_johnson83 @ChitownJewrean or my sistah !! \U0001f469\u200d\u2708\ufe0f\U0001f44c\U0001f44c
p138
aV@Jasmine_Jewels @fritzkj @JBPritzker @KashJackson2018 @LPNational Yes, this Illinois Army VETERAN @chitownjewrean w\u2026 https://t.co/jw7yQzgTaN
p139
aV@eric_johnson83 Come on now, we Illinois Trumplicans can't think that way mentally.  We accept nothing less than\u2026 https://t.co/jaxAamkEQX
p140
aVRT @SanjMohip: Driving around with my Governor planting yard signs all around Lake County. @KashJackson2018 #RestoreIllinois https://t.co/2\u2026
p141
aVRT @trump4life71: Watch Bruce peddling his ass out of Illinois Nov 7, 2018. Sponsored by #ILIKEBEER \U0001f37b\U0001f1fa\U0001f1f8\U0001f1fa\U0001f1f8\U0001f1fa\U0001f1f8\U0001f1fa\U0001f1f8\U0001f1fa\U0001f1f8 https://t.co/CIr9SnZvGc
p142
aVRT @TheOnlyOtoha: @Jerryh511 @Daisy49103 @FriendlyJMC @plantlady293 except the red option in #Illinois is a spineless, practically liberal\u2026
p143
aVRT @trump4life71: King of Corruption tanks in toilet scandal and now his campaign is "All Shook Up" over more racism. Is JB headed to the "\u2026
p144
aV@trump4life71 @KashJackson2018 Hells yeah !! \U0001f4af\U0001f4af\U0001f4af https://t.co/CPsNGHsp79
p145
aVRT @KTHopkins: For clarity - this was the WOMENS world championships. \u000a\u000aI repeat. Women\u2019s. \u000a\u000aCongratulations to the brave faces of silver &amp;\u2026
p146
aVRT @MIArmedPatriot: @KashJackson2018 This is very Governor like.\u000a\u000aI like it a lot.\u000a\u000a#MAGA
p147
aVRT @KashJackson2018: @Veilside_Tony We all need to roll up our sleeves and get to work helping our neighbors and fixing this state.  #getrd\u2026
p148
aVRT @Veilside_Tony: @KashJackson2018 Now THAT is a customer service-oriented Governor right there!!  Unlocking doors, fixing these damn prop\u2026
p149
aVRT @KashJackson2018: Stopped for gas and this gentleman had locked his keys in his car.  I had those suckers out in under 2 minutes. There'\u2026
p150
aV@eliyak @BirdsLuvFlyers @Barnett20Todd @KashJackson2018 Brian suggested that I block him. Guess that didn't delete his tweet.
p151
aVRT @realDonaldTrump: Anybody entering the United States illegally will be arrested and detained, prior to being sent back to their country!
p152
aVRT @plantlady293: What kind of police stand by and watch elderly and unarmed citizens assaulted. They should all be fired and the mayor and\u2026
p153
aVRT @KashJackson2018: Not only do I feel bad for these 10 staffers for having to undergo racial discrimination while working for @JBPritzker\u2026
p154
aVRT @KashChicago: I was hesitant to yell racism due to the Blago tapes, but the recent legal action against #TeamJB is too much and all too\u2026
p155
aVRT @Truthseeker126: Keep the mob out of power. #VoteRed #MondayMorning https://t.co/T1gwAx2P1B
p156
aVRT @staceydash: Right! Who are you? Nope! The President they can\u2019t buy or control! God Bless you Mr President. https://t.co/hynXP4W283
p157
aVRT @staceydash: Democrats want to pass Sharia law in America. It\u2019s RELIGIOUS law, which says homosexuality is punishable by death, just lik\u2026
p158
aVRT @C_Hansen84: JB runs around with crooked @HillaryClinton and wants to skyrocket our taxes in Illinois, where the exodus rate is already\u2026
p159
aVRT @KashJackson2018: I'm calling for @JBPritzker to drop out of the race!!! We clearly heard what he said in the FBI wiretaps with Blagojev\u2026
p160
aVRT @RealJamesWoods: For this alone Trump should get the Nobel Peace Prize. https://t.co/9mk2FnPC4y
p161
aVRT @MaryAnnAhernNBC: BREAKING: 10 Pritzker campaign staffers file civil lawsuit alleging racial discrimination &amp; harassment, \u2066@JulianaforLG\u2026
p162
aVRT @KashJackson2018: Wow what a story!!!! Who would have thought that my Dem opponent @JBPritzker who was caught on an FBI wiretap with imp\u2026
p163
aVRT @RedwoodForest25: I'm proud to support @tedcruz for #TXSen because he has the support of the National Border Patrol Council and he will\u2026
p164
aVRT @DuPageLiberty: WBEZ asked all the governor candidates 18 yes or no questions.  Pritzker was evasive on 9 questions while Rauner refused\u2026
p165
aVRT @Chicago4Kash: Everyone talks about Russia Russia Russia, but no one wants to talk about the collusion and rigged elections happening ri\u2026
p166
aVRT @SanjMohip: Make sure @KashJackson2018 is on your ballot, Illinois voters. #RestoreIllinois #twill #ILGov #KashJackson2018 #votedifferen\u2026
p167
aVRT @Heavens_Angel26: If dirty IL politics from Priztker or Rauner hasn't convinced you enough, here's something to light your mood. Vote @K\u2026
p168
aVATTENTION ILLINOIS VOTERS: There's only 1 choice for #ILGov Governor = #Libertarian #Veteran KASH JACKSON\u2026 https://t.co/66Y1y3cRqC
p169
aVRT @MikeBinkley3: It\u2019s a new week. Advance! https://t.co/w8dP75FSCt
p170
aV@PlasticItalians https://t.co/mqqlTdWX0d
p171
aV@PlasticItalians I did some stuff for him for the Tea Party Facebook Group. https://t.co/2amd98Kqng
p172
aVRT @parentnotavisit: Do you believe in the constitution? Will JB call for family court reform and hold the judges accountable for not uphol\u2026
p173
aV@billschutt @KashJackson2018 American Badass, damn straight !! \U0001f4aa\U0001f4aa\U0001f4aa
p174
aVRT @billschutt: American Badass #Libertarian @KashJackson2018 #twill #ILGov #RestoreIllinois #GoldRush2018 \u000a#WalkAway #TeamJB\u000a#Resistance #\u2026
p175
aVRT @KashJackson2018: Thank you guys for having me on!!!!!! I really enjoyed being interviewed and seeing the new set. https://t.co/gjVVRXzT\u2026
p176
aVRT @74stasha: Voters here's a chance to meet @KashJackson2018 \u000aIf you are from the area please share to help promote this appearance.\u000a\u000aGurn\u2026
p177
aV@0re0_YT LOL https://t.co/gbNEFznJuu
p178
aV@SpamRUs_and_You @KashChicago This is the best thing I've seen all day !! https://t.co/AIo3xofgtu
p179
aVRT @SpamRUs_and_You: #NPC meme. https://t.co/3ncKDPEmir
p180
aVRT @KashChicago: https://t.co/4iH5VLVUiw\u000a\u000aFor a governor not beholden to anybody but his constituents, for sound fiscal policy that can sav\u2026
p181
aVGeorgia needs @BrianKempGA for Governor !!\u000a\u000ahttps://t.co/XnlbIroE90
p182
aVChoosing between a #Rino @BruceRauner and a #Socialist @JBPritzker this November? NAH ~ This Illinois Army Veteran\u2026 https://t.co/jBS9s9JFlc
p183
aVRT @SWB138: When u look at ur property tax bill in IL,what do really think about?All that $ when veterans live in squaller,we can\u2019t fix our\u2026
p184
aVRT @SWB138: @CharlesQuarry I\u2019m not giving up on IL just yet, we have a choice in @KashJackson2018 that has common sense plans, like a 5 yr\u2026
p185
aVRT @eliyak: @BruceRauner @JBPritzker How much good could have been done with the $230,000,000 you and @JBPritzker have wasted proving to #I\u2026
p186
aVRT @KashGovernor: @UniteVoteRed Dear Mr. President @realDonaldTrump: HELP! We desperately need to get rid of RINO @BruceRauner. Please save\u2026
p187
aV@UniteVoteRed Dear Mr. President @realDonaldTrump: HELP! We desperately need to get rid of RINO @BruceRauner. Pleas\u2026 https://t.co/A67xUipG8Q
p188
aVRT @KashJackson2018: @charliekirk11 Maybe you me and Kanye should team up along with @realDonaldTrump to fix Chicago..
p189
aV@GatesRobin @finy06 @sarobards @_IamAnita_D @sharon4marie @baalter @USAlivestrong @gotspeed2burn @BowHunter My deepest condolences.
p190
aVRT @BenJCollison: @KashJackson2018 @SanjMohip Looks like a solid endorsement. #twill #ILGov #lesstaxesmorekash @billschutt @IllinoisforKash\u2026
p191
aVOnly the awesome POTUS #45 that is @realDonaldTrump could get away with saying "I\u2019m not a baby\u201d and then also \u201cI\u2019m\u2026 https://t.co/bZ0zd5kr7p
p192
aVRT @74stasha: @realDonaldTrump remember A former reality TV star who pollsters said had no shot in hell of winning Now they\u2019re saying that\u2026
p193
aVPLEASE VOTE #Libertarian #Navy #Veteran KASH JACKSON  @KashJackson2018 THIS NOVEMBER to #RestoreIllinois! \U0001f4aa\U0001f4aa\U0001f4aa\u2026 https://t.co/cLukaOifEX
p194
aVStephanie Trussell is a friend of @ChitownJewrean and great Conservative reporter. Go check out her June interview\u2026 https://t.co/ONSVvk5GYr
p195
aVRT @RealJamesWoods: So this is just a fabulous, sweet little story.  https://t.co/eg7SVsnYYQ
p196
aVRT @SanjMohip: Kash didn't qualify for the debate last night due to some arbitrary rules they came up with. JB Pritzker also did not qualif\u2026
p197
aVRT @billschutt: IL needs a fiscal conservative who can find middle ground between the 2 entrenched power parties. Someone who draws moderat\u2026
p198
aVRT @AsiansForTrump: The only #BlueWave we\u2019ll see this midterms https://t.co/hLC9QdGY0G
p199
aV@WeAreOne_Q @keithellison Praying for Minnesota and Michigan. Have you ever been to Dearborn?
p200
aVRT @WeAreOne_Q: Muslims Conference in Minnesota with @keithellison --- teaches how to dox anyone who disagrees with Sharia Law. \u000a\u000aWhy is th\u2026
p201
aVRT @RacySicilian: This is the only platform Dems have to run on; well and socialism \U0001f621. This is NOT what we want for our country. Dems have\u2026
p202
aVRT @GmanFan45: @wics_abc20 how can you have an honest debate without @KashJackson2018 ??\u000aWhy protect establishment do nothing corrupt candi\u2026
p203
aVRT @RSBNetwork: This young patriot climbed the media barrier to see his president take the stage in Lebanon, Ohio @realDonaldTrump \U0001f1fa\U0001f1f8 https\u2026
p204
aVRT @billschutt: A Milionaire, a billionaire  &amp; a #Patriot walk into a bar...\u000aI\u2019ll always buy a beer for the #Patriot! We have a #Patriot ne\u2026
p205
aVRT @KashGovernor: VOTE @KashJackson2018 !! https://t.co/OpPCSpiAjw
p206
aVRT @KashGovernor: VOTE @KashJackson2018 !! https://t.co/sAeDKbqq12
p207
aVRT @ChicagoBears: Thanks for da \U0001f9e1, @DwyaneWade &amp; @itsgabrielleu!\u000a\u000a#CHIvsMIA | #DaBears https://t.co/3SnynoO0KX
p208
aVRT @KashGovernor: If you know that Ariana Grande and Pete Davidson just broke up, but you don't know your voter polling location for Novemb\u2026
p209
aVRT @KashGovernor: #Rino @BruceRauner has a long history of hostility toward @realDonaldTrump. #LyingHackjob @JBPritzker openly tells his su\u2026
p210
aVRT @JohnJamesMI: I don\u2019t have a black message or a white message, I have an AMERICAN message. I\u2019m living the American Dream, and I WILL pro\u2026
p211
aVRT @DonaldJTrumpJr: Trump Jr., Kid Rock to campaign for GOP Michigan Senate candidate John James https://t.co/l5I8ZOgeUa
p212
aVRT @SWB138: @oogledorf @Suntimes @JBPritzker A quick view of why you should vote @KashJackson2018 over #teamjb. It\u2019s night &amp; day between th\u2026
p213
aVIf you know that Ariana Grande and Pete Davidson just broke up, but you don't know your voter polling location for\u2026 https://t.co/cKDr1Y1zU4
p214
aVRT @KashJackson2018: More and more I find people are fed up with both parties.  It's time politicians represented all people and quit playi\u2026
p215
aVRT @OAD_Studios: New Kash tee available on our our site as requested by @KashJackson2018.\u000a\u000aNow has a back print that says,\u000a"We the people,\u2026
p216
aVRT @mollyday15: Straight answers for \u000a#Illinois \u000a#IL \u000a\u2705#Voters  @KashJackson2018 #KashJacksonForGovenor https://t.co/yW8tQNnpax
p217
aVRT @KashJackson2018: Wow!!! Sad to think how low our society has sunken...\u000ahttps://t.co/vVnkhPvV57
p218
aVRT @KashJackson2018: The electronic billboards are up! Help keep them lit by donating to the campaign's Billboard Fund: https://t.co/Lq8YoQ\u2026
p219
aVRT @Chicago4Kash: Our choice for #Illinois Governor, @KashJackson2018, opens up.\u000a\u000a#ilgov #Libertarian #twill #RestoreIllinois #WednesdayWis\u2026
p220
aVRT @RacySicilian: It's time to turn Chicago around. Vote for @KashJackson2018 to bring conservative ideas to Chicago. To bring law and orde\u2026
p221
aV@Conservitarian5 11% of the people who responded don't deserve to be voting \U0001f602\U0001f602
p222
aVRT @KashJackson2018: I'm a straight,white,Christian male who did 20 years in the Navy, pro 2A,  hunts,fishes,listens to country music,drive\u2026
p223
aV@KashJackson2018 @SWB138 is right !! The people of Illinois deserve better; they need #Libertarian #Veteran KASH JA\u2026 https://t.co/FO1GrBiEID
p224
aVRT @billschutt: @KashGovernor @realDonaldTrump @KashJackson2018 Thank you #Patriot! We will Make Illinois Great Again #MIGA with #LessTaxes\u2026
p225
aVRT @patg00: Hey @JBPritzker, After seeing your latest attack ads, I can see why you drove your mother into alcoholism. You're a real peach.\u2026
p226
aVRT @GrayWolf1775: The Quincy VA\u2019s legionnaire crisis and the lack of intervention by @BruceRauner is appalling. I fought for him and every\u2026
p227
aVRT @SWB138: @ILPolitihub We\u2019ll see... 37% for the dem candidate is not commanding. 26% 4 \u2018unnamed 3rd party\u2019 aka @KashJackson2018 is in str\u2026
p228
aVRT @eliyak: One of these candidates is not like the others. #KashJackson2018 #RestoreIllinois https://t.co/ba814XCC3k
p229
aVRT @KashGovernor: On behalf of an extremely grateful nation, #Libertarian #Veteran KASH JACKSON @KashJackson2018 would like to thank Americ\u2026
p230
aVOn behalf of an extremely grateful nation, #Libertarian #Veteran KASH JACKSON @KashJackson2018 would like to thank\u2026 https://t.co/6h8gAdWLWc
p231
aVRT @TexasFarmBureau: #NationalFarmersDay. Today. And every day. Working early mornings and late nights to grow our food, fiber and fuel. ht\u2026
p232
aVVOTE @KashJackson2018 !! https://t.co/OpPCSpiAjw
p233
aVVOTE @KashJackson2018 !! https://t.co/sAeDKbqq12
p234
aVRT @_IamAnita_D: \U0001f534\U0001f534Listen Up #Illinois You have a great choice4 #Governor \u2935\ufe0f\u000a@KashJackson2018\u000a\u000a\U0001f534\U0001f534I'm a Father, Friend, #Libertarian, #Veter\u2026
p235
aVRT @billschutt: @KashJackson2018 @JBPritzker Dems have done a stellar job of convincing victimhood and preaching enemy status of all but th\u2026
p236
aVRT @KashJackson2018: 84 years Dems have been in control of Chicago. When I look at the South and West sides I cant help but wonder why the\u2026
p237
aVRT @Education4Libs: The wall is going to be built whether Liberals like it or not.\u000a\u000aThe future of America &amp; the safety of my future childre\u2026
p238
aVRT @thotcrime2049: https://t.co/zIaoP4HKnm
p239
aVRT @mike_Zollo: Democrats say Brett Kavanaugh should be judged differently because it\u2019s a lifetime appointment, yet they\u2019ve been here forev\u2026
p240
aVRT @johnCedward2018: The Back-Up Plan. #WeThePeople #WWG1WGA #QANON #MEGA https://t.co/vlt4VoHKkZ
p241
aVRT @RealMattCouch: WATCH: Eric Holder Advocates Violence; When Republicans Go Low, "We Kick Them" https://t.co/qpPoq8pfJA
p242
aVRT @billschutt: Vote #Libertarian @KashJackson2018 #ILGov #twill #SchemeToDefraud #TeamJB #RejectJB #ResistJB #WalkAway from JB https://t.c\u2026
p243
aVRT @KashGovernor: My fellow Illinois Patriots ~ What's your all-time favorite Chicago sports team ???
p244
aVRT @_IamAnita_D: @DaveSchreiber3 @DallasBrownin16 @wisewoman_imw @Klrho1980 @CathieHoward @bella_inxs @Michell81941145 @JCKIGHTII @wethepeo\u2026
p245
aVRT @KashGovernor: PLEASE VOTE #Libertarian #Veteran KASH JACKSON  @KashJackson2018 THIS NOVEMBER to #RestoreIllinois! \U0001f4aa #KashJackson2018 #k\u2026
p246
aVRT @KashGovernor: @Brian_Hoenig @MarkDice But now they're an angry mob with absolutely nothing to lose, comprised of unchecked, unhinged cr\u2026
p247
aV@Brian_Hoenig @MarkDice But now they're an angry mob with absolutely nothing to lose, comprised of unchecked, unhin\u2026 https://t.co/igJEqVRntY
p248
aVRT @Brian_Hoenig: @MarkDice @KashGovernor That part is actually nothing new, what we are seeing now is what happens when they don't get the\u2026
p249
aVRT @MarkDice: The Democrat Party has become an angry mob.
p250
aVMy fellow Illinois Patriots ~ What's your all-time favorite Chicago sports team ???
p251
aVAnother American Badass \u000a\U0001f60e\U0001f60e\U0001f60e\u000a\u000ahttps://t.co/9IiaCbhsoA
p252
aV@realDonaldTrump There's only 1 smart choice for #ilgov Governor of Illinois this November = #Libertarian #Veteran\u2026 https://t.co/ug9xllVUxN
p253
aVRT @MaryObr6330: @KHQA @GovRauner @JBPritzker @KashJackson2018 @mccann_sam https://t.co/J8pUvRAi7Q
p254
aV@KHQA @GovRauner @JBPritzker @KashJackson2018 @mccann_sam VOTE @KashJackson2018 this November !! https://t.co/CQVSpN26Ii
p255
aV@KHQA @GovRauner @JBPritzker @KashJackson2018 @mccann_sam VOTE @KashJackson2018 this November !! https://t.co/nP0BbozOJI
p256
aVRT @KHQA: We spoke to the two candidates running against @GovRauner and @JBPritzker in the upcoming November election for #Illinois Governo\u2026
p257
aVDear @realDonaldTrump @POTUS: Please invite #Libertarian 20 yrs Navy #Veteran @KashJackson2018 who's running for\u2026 https://t.co/FhPggBLzKb
p258
aVHave no fear, my fellow Illinois Patriots, for God is truly on our side &amp; our cause is right and just. Stay strong,\u2026 https://t.co/p5Xuyh6BjO
p259
aVRT @billschutt: @JBPritzker @KaramoBrown @QueerEye @tanfrance This message is brought to you by the party of Financial Failure. Creating a\u2026
p260
aVRT @idntlkthsid2: Midterms folks\u000a\u000a#VoteRedMidterms2018 \u000a\u000aAnd ILLINOIS \u000a\u000aIf you want to save our state.\u000a\u000aVote @KashJackson2018 \u000aGovernor \u000a\u000aT\u2026
p261
aVI've been around this great big world and there's still nothing better than my Chitown Skyline !! \U0001f60d\U0001f60d #GOAT\u2026 https://t.co/EzD43xF6FG
p262
aV@KashChicago @ChitownJewrean @KashJackson2018 And now I switched my acct name again \U0001f602\U0001f602\U0001f602
p263
aVRT @RealMattCouch: President Trump wants a Photo ID in order to vote in every State, do you agree with him? \u000a\u000aI 100% back MY President on t\u2026
p264
aV@bobsinha @KashJackson2018 @BruceRauner @realDonaldTrump @JBPritzker Thank you and God bless !! \U0001f60a\U0001f60a
p265
aV@RWestChicago @BruceRauner @GovRauner This Veteran is VOTING #Libertarian and fellow #Veteran @KashJackson2018 for\u2026 https://t.co/TuujQOILws
p266
aVRT @RWestChicago: Here are the 5 most and least popular governors in America, according to their constituents\u000a\u000aGood job \u2066@BruceRauner\u2069 \u2066@Go\u2026
p267
aV#Rino @BruceRauner has a long history of hostility toward @realDonaldTrump. #LyingHackjob @JBPritzker openly tells\u2026 https://t.co/vDLQHW8JAD
p268
aVRT @idntlkthsid2: @fourloined @KashGovernor @bknuutila @ninjaswat @KashJackson2018 @JBPritzker @GovJVentura @BruceRauner Look folks I get t\u2026
p269
aVRT @idntlkthsid2: @KashJackson2018 \u000a\u000aThe only hope for Illinois \u000a\u000aYou decide https://t.co/0mG5WpaC9v
p270
aVRT @fourloined: @bknuutila @ninjaswat @KashJackson2018 @JBPritzker @GovJVentura Unfortunately Red for IL Governor is not a conservative. @B\u2026
p271
aVRT @KHQA: Illinois Governor candidate Kash Jackson stopped by the KHQA studio today ahead of the November election. See his interview tonig\u2026
p272
aVRT @EqualityPartyNY: Both Republican and Democrat have brought us to a point of no return.  We can no longer go on like this.  Our national\u2026
p273
aVRT @Do312: Been knew. https://t.co/dTy5OlqC0g
p274
aVRT @LairdMWilcox: https://t.co/CQGV2sTepi
p275
aVRT @KashJackson2018: @Matthew37478320 @fourloined @JBPritzker I'd love to represent you! Imagine having a governor who is not owned by spec\u2026
p276
aVRT @billschutt: @JBPritzker Election Alert: @JBPritzker was seen at this cemetery with a hacksaw. He claimed he was looking for cuts to mak\u2026
p277
aV@billschutt @JBPritzker @KashJackson2018 https://t.co/68y7iWzfUt
p278
aVPLEASE VOTE #Libertarian #Veteran KASH JACKSON  @KashJackson2018 THIS NOVEMBER to #RestoreIllinois! \U0001f4aa\u2026 https://t.co/XqqBdLOVkM
p279
aVRT @SanjMohip: Picture taken last night at @YALiberty's summit in St. Louis, Governor candidate @KashJackson2018, @RonPaul, and myself righ\u2026
p280
aV@realDonaldTrump @POTUS @DonaldJTrumpJr Dear Mr. President: Please come fix our beloved Chicago! #Libertarian 20 yr\u2026 https://t.co/q1IfshHHYK
p281
aV@Brian_Hoenig @Pissnofflibera1 @CNN That's hateful to call them "Hollywood Jews" ... Definitely not cool. Hollywood\u2026 https://t.co/cCHU9D4sAi
p282
aVRT @fritzkj: @realDonaldTrump Consider coming to #Chicago and meeting with @KashJackson2018 ! Our state needs help!!! https://t.co/7Kl2Xc8l\u2026
p283
aVRT @charliekirk11: The transformation of the Republican Party into the party of @realDonaldTrump is for the better in every regard\u000a\u000aWe are\u2026
p284
aVRT @rpglouboe: Kash Jackson is the only candidate in the Illinois governor raise who actually stands for something.  Ruaner tries to be all\u2026
p285
aVRT @74stasha: @realDonaldTrump when are you going to acknowledge the fact that @KashJackson2018 is the true patriot running for Governor he\u2026
p286
aVRT @MeisterMitch: @jaketapper Fingers crossed you get a chance to interview or follow @KashJackson2018 who's running as a Libertarian for G\u2026
p287
aVRT @KashJackson2018: @AmeriWify @MeisterMitch @jaketapper The Republican in this race has a 24% approval rating and is despised by Republic\u2026
p288
aVRT @KashJackson2018: 3/3\u000aThan the crime to be lowered. Many here still need jobs, proper housing and better schools. Together I know you, I\u2026
p289
aVRT @KashJackson2018: 1/3\u000aThough I am not in favor of stop and frisk as Governor I would welcome any help @realDonaldTrump would like to giv\u2026
p290
aVRT @SWB138: @KashJackson2018 @POTUS A true candidate touring all parts of the state! When was the last time @JBPritzker &amp; @GovRauner were i\u2026
p291
aVRT @KashJackson2018: 2/3\u000aSolving this issue once and for all. @POTUS I would like to give you a tour of both the South and West sides of Ch\u2026
p292
aVhttps://t.co/QvyENQb56c\u000a\u000aVOTE KASH JACKSON @KashJackson2018 for GOVERNOR OF ILLINOIS !!\u000a\u000a#ILGov #RestoreIllinois\u2026 https://t.co/Au5GtIZZTh
p293
aV#ILGov - Failed #RINO @BruceRauner blames all but himself. Lying #Shittergate @JBPritzker avoids taxes but wants to\u2026 https://t.co/GuO9CQ7KOb
p294
aVRT @CHEWYBARISTA: @jaketapper @KashJackson2018 is purposely excluded from the gubernatorial conversation by local #Chicago and #Illinois me\u2026
p295
aVRT @lamnymatman: @jaketapper Red title wave coming to a town near you.... #liberallosers
p296
aVRT @RoseTekstar: @jaketapper The media outlets of Illinois have largely ignored or outright excluded @KashJackson2018 from their coverage a\u2026
p297
aVRT @SWB138: @billschutt @JBPritzker @KashJackson2018 How can voters b on board w/#teamjb? The corruption, tax evasion, #blago tapes, union\u2026
p298
aVRT @billschutt: When pushed for details on his Tax Hike Plan @JBPritzker says \u201cIt does not matter\u201d what defines middle class. It sure as he\u2026
p299
aVRT @billschutt: @JBPritzker Wow! Alligator in The Lake! #RINO as Governor and a Hippo running  against him! \u000aStop electing animals!\u000aChoose\u2026
p300
aV@Jasmine_Jewels @JBPritzker https://t.co/cFpJmt2fC9
p301
aVRT @billschutt: @AmandaVinicky @BruceRauner @JBPritzker Anyone who believes @JBPritzker will be consolidating anything is sorely mistaken.\u2026
p302
aVRT @KashChicago: @jaketapper @KashJackson2018 is fighting to #RestoreIllinois and save it from another term of RINO lame-duck Bruce Rauner\u2026
p303
aVRT @jaketapper: Four weeks to go until midterms. I will be tweeting and RTing lots of stuff about local races here, from D's, R's, 3rd part\u2026
p304
aVRT @KashJackson2018: Do you think Democrats who are running for office will blame President Trump for large hurricanes like Hurricane Micha\u2026
p305
aVRT @74stasha: @realDonaldTrump @TheIACP @realDonaldTrump I asked you to take notice of @KashJackson2018 do to him running for Governor in I\u2026
p306
aVIllinois needs a real man for Governor !! Illinois deserves #Veteran #Patriot @KashJackson2018 !! \U0001f4aa\U0001f4aa #twill\u2026 https://t.co/WrsGbm7VFk
p307
aVRT @DutyOfAPatriot: Senator Lindsey \u201cFound My Mojo\u201d Graham!\u000aWALK THIS WAY... https://t.co/4YGp3rBMvV
p308
aVRT @vegasrenae: #AmericanRedMidterms  \u000aNevada \u000aGovernor Adam Laxalt @AdamLaxalt \u000aSenate Dean Heller @DeanHeller\u000aJoyce Bentley @JoyceBentley\u2026
p309
aVhttps://t.co/VsupYjbbr0
p310
aVRT @SanjMohip: Thanks to all those that came out and protested with us. It was an injustice that @KashJackson2018 was not invited to the de\u2026
p311
aV@ChitownJewrean @KashChicago Haha you're the best for liking my silly nail post !! You the real MVP lol \U0001f60a\U0001f60a Not even\u2026 https://t.co/YbNTkY5K8y
p312
aV@vegasrenae Thank you so much for your kind endorsement !! God bless you, fellow Patriot !! \U0001f5fd\U0001f44c\U0001f4af https://t.co/h3DIxQZOSu
p313
aVIllinois' next Governor !! VOTE @KashJackson2018 this November !! \U0001f5fd\U0001f4aa\U0001f4af #Vote4Kash #kash2018 #Kash #kashJackson2018\u2026 https://t.co/0Jx6SFi4KN
p314
aVRT @MikeGuadalupe: See @KashJackson2018 and @mccann_sam on Flannery fired up. No mudslinging, just issues. \u000a#twill\u000a#RestoreIllinois\u000a#resist\u2026
p315
aVRT @JohnBolenbaugh: Vote for the right candidate.  Kash Jackson is the real deal. https://t.co/1L5BWkOXvI
p316
aVRT @JohnBolenbaugh: @dawgfansteve64 @KashJackson2018 @jack You need to support Kash because hes the best man I know to fix the corruption f\u2026
p317
aVRT @billschutt: @NewsGrowl @JBPritzker I really think we should FLUSH this out before we throw our support in the TANK. This election is re\u2026
p318
aVRT @billschutt: @KashJackson2018 I\u2019m curious how much ad revenue @fox32news gets from #schemetodefraud @JBPritzker and #GovPaperweight @Bru\u2026
p319
aVRT @KashChicago: @robreiner Actually the vast majority of people are moderates, if the vast majority of people were as insane as you claim\u2026
p320
aVRT @KashJackson2018: Got worried this one wouldn't air. Thank God! https://t.co/GNUJvrzr7V
p321
aVRT @billschutt: While @JBPritzker &amp; @BruceRauner argue if tax fraud or scandal coverup is more disqualifying.... IL voters shake their head\u2026
p322
aVRT @StopSterigenics: The first governor candidate to make a public statement about an action plan. Thank you @KashJackson2018 .  #sterigeni\u2026
p323
aVRT @fourloined: @TheresaKudia @GOPPollAnalyst @JBPritzker @GovRauner Check out #Libertarian @KashJackson2018 common sense citizen candidate\u2026
p324
aVRT @MikeGuadalupe: Shots fired. She's right too. #ilgov #LessTaxesMoreKash @JBPritzker @BruceRauner #RestoreIllinois https://t.co/Advuc9TBjF
p325
aV@zironyxcyx Thank you very much and God bless you !! \U0001f60e\U0001f4af
p326
aV@realDonaldTrump @POTUS Never tired of winning, Mr. President !! \U0001f44c\U0001f44c\U0001f44c #GoodMorning #MAGA #Kavanaugh\u2026 https://t.co/betlIDXgLL
p327
aVRT @AsiansForTrump: THANK YOU @ChuckGrassley \u000aTHANK YOU @OrrinHatch \u000aTHANK YOU @JohnCornyn \u000aTHANK YOU @ThomTillis \u000aTHANK YOU @SenMikeLee \u000aT\u2026
p328
aVRT @brandongroeny: I refuse to be scared, nervous, or full of anxiety because I have a Trump sticker on my car. I refuse to be worried when\u2026
p329
aVRT @charliekirk11: After watching this Kavanaugh circus for the last 6 weeks I do not understand how any rational voter could support a Dem\u2026
p330
aVRT @WeAreOne_Q: The left will target all of us with their mob mentality. Rather than debate ideas or politics, they are using hatred and vi\u2026
p331
aVThanks and God bless you, Craig !! \U0001f4aa\U0001f4aa\U0001f4aa https://t.co/iYNHMBWQxH
p332
aVRT @KashGovernor: Please vote for @KashJackson2018 !! Illinois desperately needs this wonderful #Libertarian #Veteran #Patriot #Familyman a\u2026
p333
aV@LindseyGrahamSC That's right !! \U0001f4af\U0001f601\U0001f4af Vote for #Libertarian #Veteran #Patriot #FamilyMan @KashJackson2018 to\u2026 https://t.co/JdckCk4Ccn
p334
aV@graphicsGirl911 @POTUS @FBI @ICEgov OMG she just went with it !! \U0001f620\U0001f620 @realDonaldTrump https://t.co/0qdPvuz9WB
p335
aVRT @graphicsGirl911: Illegals being registered to vote in North Carolina! This is outrageous- @POTUS @FBI @ICEgov https://t.co/MrwCCy2fOh
p336
aV@bengal_coach The Trib has gone downhill since Blago.
p337
aVRT @fourloined: @JBPritzker @JesseWhite2018 Stop Billionaires from robbing your piggy bank!\u000aVote #Libertarian @KashJackson2018 #ilgov #twil\u2026
p338
aVRT @Shannon96574094: Term limits NOW \U0001f649\U0001f648\U0001f64a\u000a#VOTEGOP2018 \U0001f1fa\U0001f1f8 https://t.co/H0iU9xLSEW
p339
aVPlease vote for @KashJackson2018 !! Illinois desperately needs this amazing #Libertarian #Veteran #Patriot\u2026 https://t.co/NKfKubPdSV
p340
aVRT @Cordicon: OG Graham \U0001f3a4 Drop.\u000a\u000a\u2018Obama got the peace prize for not being Bush\u2019\u000a\u000a#VoteRedToSaveAmerica @Solmemes1 @Fuctupmind https://t.co/\u2026
p341
aVRT @DineshDSouza: A writer for Stephen Colbert reveals the progressive mentality stripped of its fake moral veneer @StephenAtHome https://t\u2026
p342
aVRT @74stasha: Call me crazy or tell me I don't understand the math again or my favorite @KashJackson2018 is only polling 4%......BULLSHIT!!\u2026
p343
aVIllinois needs @KashJackson2018 in Springfield as Governor !! \U0001f4af\U0001f4af\U0001f4af #twill #KashJackson #RestoreIllinois #Reject\u2026 https://t.co/jz28SOTyxF
p344
aV@Pissnofflibera1 @KashJackson2018 @jack Well Meredith here was perm suspended back in June for raising he'll on Gol\u2026 https://t.co/PHtjLsFFIi
p345
aVRT @bennyjohnson: I title this masterpiece:\u000a\u000a\u201cThe Ownership Of The Lib\u201d https://t.co/0rZFOC5Vei
p346
aVRT @GOPChairwoman: \u201cI stand before you today on the heels of a tremendous victory for our nation, our people, and our beloved Constitution!\u2026
p347
aVRT @ChrisNoelMills: Vote for Republicans in November! Our @POTUS is depending on Us!\U0001f1fa\U0001f1f8\U0001f1fa\U0001f1f8\U0001f1fa\U0001f1f8\U0001f4aa\U0001f4aa\U0001f4aa\U0001f600\U0001f600\U0001f600\U0001f682\U0001f682\U0001f682 https://t.co/5paaCTWczB
p348
aVA vote for #Libertarian #Veteran #Patriot @KashJackson2018 helps Illinois !! \U0001f601\U0001f601 #RejectJB #RESIST #TeamJB\u2026 https://t.co/H7QoqBM3jI
p349
aVRT @FFloatables: @thenationsrage This happens when a civilized society allows the uncivilized to make the rules. It is an assault on civili\u2026
p350
aVRT @DonaldJTrumpJr: This election comes down to a clear choice between Nancy Pelosi and her radical gang of resisters and my fathers Americ\u2026
p351
aVRT @KashJackson2018: That's the scariest pumpkin I've seen yet. Imagine how scary the next 4 years will be if this guy gets in. https://t.c\u2026
p352
aVRT @KayaJones: 1857: A slave, Dred Scott, sued for his freedom. \u000a\u000aSCOTUS ruled 7-2 to upheld slavery, deny citizenship to African Americans\u2026
p353
aVRT @GDVSource: The people of Illinois deserve a patriot for a governor. Vote @KashJackson2018 https://t.co/F1u9xETKLH
p354
aV@bertolotti1972 @KashJackson2018 I think the Art world would have a #metoo movement if we "kept our dick in our paints" \U0001f602\U0001f602\U0001f602
p355
aVRT @Leonard4Liberty: The two-party political establishment circus can go suck eggs in Litchfield. (Would've rounded it out with a Bubba sig\u2026
p356
aVPlease vote for @KashJackson2018 !! Illinois deserves #Libertarian #Veteran #Patriot #Familyman as Governor !! \U0001f4af\U0001f4af\U0001f4af\u2026 https://t.co/yW2HtBVkjD
p357
aVRT @RedBirdFan64: Voted their conscience, Kash could win. Do the right thing and listen to Kash and vote for him if you like what he says.\u2026
p358
aVPlease vote for @KashJackson2018 !! Illinois desperately needs this badass #Libertarian #Veteran #Patriot\u2026 https://t.co/bj3zHbjTwx
p359
aVPlease vote for @KashJackson2018 !! Illinois desperately needs this amazing #Libertarian #Veteran #Patriot\u2026 https://t.co/pNXL1yFOg5
p360
aVPlease vote for @KashJackson2018 !! Illinois desperately needs this wonderful #Libertarian #Veteran #Patriot\u2026 https://t.co/tUNyvEFg5P
p361
aVRT @KashJackson2018: It is as clear as day that I am a grave threat to the establishment and the status quo here in Illinois. They can't al\u2026
p362
aVThis Veteran LOVES #Veteran #Patriot #Familyman @KashJackson2018 for Governor of our great state of  Illinois !!\u2026 https://t.co/XkoOnlSU9i
p363
aVRT @descendant_a: @JohnQPrivate @AnthemRespect And this here is what ya get when you have large groups of people wearing pink pussy hats! A\u2026
p364
aVRT @TomCottonAR: Congratulations, Justice Kavanaugh. Thanks to you &amp; your family for standing strong in the face of the Democratic smear ca\u2026
p365
aVRT @DonaldJTrumpJr: Democrats love to make fun of Republicans for \u201cclinging to God &amp; guns.\u201d Well, what Kavanaugh proved is that when Republ\u2026
p366
aVLet your voices be heard. Write the Chicago Tribune [letters@chicagotribune.com] and Chicago Sun-Times [letters@sun\u2026 https://t.co/rgF9resq7Q
p367
aVThis Veteran hates both candidates and will stick with #Veteran #Patriot #Familyman @KashJackson2018 for Governor o\u2026 https://t.co/Rfo4BCEUOh
p368
aVRT @ReaganTea1773: Rauner betrayed Illinois Republicans. He had his chance, and he blew it. I'll be voting for #KashJackson #ILGovDebate
p369
aVRT @billschutt: @JBPritzker please comment on this distinguished Soldier\u2019s plea. I\u2019m curious what you think\U0001f914\u000aVote @KashJackson2018 #ilgovde\u2026
p370
aVRT @Rideordiefamof4: #ILGovDebate #ILGov Illinois voters #RestoreIllinois you have another option with @KashJackson2018 !  Don't let your v\u2026
p371
aVRT @Marquis_d_Mores: Recap of @ABC7Chicago #ILGovDebate: perennial liar and antagonist of the people of IL Crypt Keeper says racist Kool-Ai\u2026
p372
aVRT @keke75p: I think I\u2019ll vote 3rd party for the  first time ever bc I am not opening my borders w JB, and Rauner I forgot even existed tha\u2026
p373
aVRT @SanjMohip: Wednesday evening from 4:30p until 6 or 7 @KashJackson2018 will be doing some livestreaming in front of @ABC7Chicago studios\u2026
p374
aVRT @wphelan82: @ABC7Chicago is part of the problem with Illinois politics. They present the two mega-candidates in the debate as if they ar\u2026
p375
aVRT @eliyak: Don't miss @LWV turn on their principles and exclude candidates from a debate! Actually, do miss it. I will be outside the stud\u2026
p376
aV@realDonaldTrump @POTUS Hey all you people in Illinois  ~ Vote for @KashJackson2018 !! \U0001f44c\U0001f60e\U0001f44c Stand up to Big Billiona\u2026 https://t.co/zdB18zTvec
p377
aVPlease vote for @KashJackson2018 !! Illinois desperately needs this awesome #Veteran #Patriot #Familyman as Governo\u2026 https://t.co/2hl98qSnUt
p378
aVhttps://t.co/nwTiLF4kIn
p379
aVhttps://t.co/r8iSsx0rmB
p380
aV@Avgwhtman1 Most Trumplicans use #KAG2020 now
p381
aVRT @TheOnlyOtoha: Anyone supporting @KashJackson2018 please consider joining us at the @ABC7Chicago studios, 190 N. State st \u000a#kashjackson2\u2026
p382
aVRT @KashJackson2018: Calling all #Patriots in #Chicago and across #Illinois!!! Tomorrow I will be protesting my exclusion from the \u000a@ABC7Ch\u2026
p383
aVRT @SWB138: @JBPritzker @Hyatt They\u2019ll sign anything if u sweat them out, is that what u meant?\u000a\u000aUr hypocrisy will not win!Unions will c u\u2026
p384
aVRT @billschutt: @thebigjman57 @KashJackson2018 Watch the first debate where @KashJackson2018 was the only candidate not spending his time n\u2026
p385
aVRT @74stasha: @KashJackson2018 &amp; @realDonaldTrump supporters call ABC, LWV &amp; UNIVISION to include Kash &amp; Sam in the debate\u000a\u000aCall ABC\u000a 312-7\u2026
p386
aVRT @KashJackson2018: Do you support Judge Kavanaugh?
p387
aVRT @billschutt: So, let me get this straight. @JBPritzker tried to buy an office with \u201ccampaign contributions\u201d to Blago. That did not work\u2026
p388
aVRT @TheOnlyOtoha: HEY ILLINOIS!\u000aThere is a better option\u000a@KashJackson2018 Libertarian for Governor\u000aMeet him here, thanks to @nprillinois Me\u2026
p389
aVRT @WNIJNews: Over 40% of those surveyed by UIS &amp; NPR Illinois said when it comes to the race for governor, they will vote for a third part\u2026
p390
aVRT @KashJackson2018: The violence in Chicago is beyond out of hand and the rest of country can see that. It's time we do something about it\u2026
p391
aVRT @KashJackson2018: #Illinois absolutely needs a 3rd party to change our destructive political dynamic.\u000a\u000a40% won't even have a choice for\u2026
p392
a.