(lp0
V@TeamRoskam @SeanCasten Thanks for the tax increase, Roscoe. Thanks for voting to triple the deficit, Roscoe. Thank\u2026 https://t.co/M6OEqUwzNg
p1
aV@TeamRoskam @SeanCasten Roskam is neither the fiscal conservative, nor tgectwx reformer he claims to be. His tax-cu\u2026 https://t.co/0c7obQahSn
p2
aV@teachtv WGN saved from the clutches of Sinclair Broadcasting. But we really could use a nationwide progressive cab\u2026 https://t.co/mH9FIRHN9V
p3
aV@TeamRoskam @SeanCasten Hey Roskam - were your constituents laughing when you sold them out, cut their SALT deducti\u2026 https://t.co/DAQgSTPaNT
p4
aV@Brasilmagic Jeff Flake's 15 minutes of fame are over. Wish this talk-only, never walk-the-talk hypocrite would fad\u2026 https://t.co/GEtJHs9OMF
p5
aV@Brasilmagic @thehill Collins is just plain lying about this nonsensical pretend-time story cooked up by the flying\u2026 https://t.co/wi6oVu3zhO
p6
aV@marcorubio Oh, Marco, tsk tsk. How about offering some facts? Can't defend voting for a credibly charged sex offen\u2026 https://t.co/KOrmltrzAk
p7
aV@bryanbehar Without manchin, the Senate is 52 - 48 and McCon-UsAll  a. Lose two Senate seats instead of one and sti\u2026 https://t.co/8OltNOmVZq
p8
aV@tdpubs @WarkMaggy @chrislhayes How about the "52 state strategy"? Statehood for D.C. and Puerto Rico NOW!
p9
aVDon't mess with us Republican apostates. https://t.co/yD9Tt7L477
p10
aV@SuzySP @fetrow_judith @chrislhayes @UROCKlive1 No he didn't. You just made that up.
p11
aV@krassenstein Can America respond with go f*^$%*yourself, #fakepresident?
p12
aV@krassenstein These statements and tweets aren't meant for the rational, the informed, or those of us who insist on\u2026 https://t.co/Si9dWZisbu
p13
aV@benshapiro We got President Obama for two terms from two landslide elections. We got trump from Russian interferen\u2026 https://t.co/U2H1e6viwS
p14
aV@benshapiro This could LITERALLY be the most foolish statement I've ever read. Foolish on so many levels. First off\u2026 https://t.co/qCJzfDsNdp
p15
aV@TeaPainUSA @Jim_Jordan Talk about institutionalizing the Hastert rule....
p16
aV@PR_twit Shame them into giving back the money.
p17
aV@dkahanerules @SenBlumenthal Congress can hire Mueller. Legislation can force this to cut Trump off at the pass.
p18
a.