(lp0
VMy morality teacher just told us that somebody in his earlier class tried to cheat on a test.. MORALITY CLASS https://t.co/07F5XA6lt8
p1
aV@npc65325675420 @KEEMSTAR https://t.co/YEUxsxksjJ
p2
aVRT @ProudResister: Sarah Sanders just said Trump was elected by an \u201coverwhelming majority.\u201d She\u2019s lying:\u000a\u000a46.9% Didn\u2019t Vote\u000a25.6% Voted Hil\u2026
p3
aV@KEEMSTAR stop making bad content?
p4
aVRT @Weinsteinlaw: Columbine - 7134 days\u000aVirginia - 4212 days\u000aAurora - 2294 days\u000aNewtown - 2143 days\u000aCharleston - 1228 days\u000aUmpqua - 1122 da\u2026
p5
aVThis is necessary. There is no excuse for not believing that our actions have repercussions. #inconvenienttruth  https://t.co/bY9UchQqiO
p6
aVRT @RepAdamSchiff: Mail bombs. Death threats. Political shootings. The proliferation of violence has many causes, but we cannot discount th\u2026
p7
aVIn english class today, we were reading a part of Joseph McCarthy\u2019s 1950 speech. We got to the line \u201cI have in my h\u2026 https://t.co/rpnczF7mcE
p8
aVRT @GeorgeTakei: If you can line up to buy Powerball tickets, you can line up to vote. The chance that your vote decides an election is act\u2026
p9
aV\u201cWWF-The World Wrestling Federation\u201d
p10
aV@yunggravy 90's dad.
p11
aVRT @HillaryClinton: Seriously, you asked Russia to hack me on national television. https://t.co/YPktJyQ7Gx
p12
aVRT @NervousNick: I am weak. This is the smash roster after going through google translate 30 TIMES! https://t.co/3VXG5OLe6Y
p13
aVOnly one word: Charlottesville. https://t.co/W9bxH3nWSa
p14
aVRT @laurenduca: \u201cIt\u2019s Your Fault For Making Me So Angry\u201d by Brett Kavanaugh
p15
aVRT @ilyamerica: \u201cSenators, years from now you\u2019re going to be asked if you were at the party. And guess what? This is the party.\u201d\u000a\u000acc: @Sena\u2026
p16
aV@cmfarrell62 @SteveCarell Disappointed \u201cwe live in a society\u201d didn't make it. But I guess it really do be like that sometimes..
p17
aV@Idubbbz It\u2019s funny E
p18
aVThe world should\u2019ve ended in 2012. https://t.co/f7irNmwF38
p19
aVIf anyone's wondering how my day is going, I just lost a game of pool when I broke. https://t.co/JeZMduEcrK
p20
aVRT @yunggravy: ice on my wrist it took down the Titanic https://t.co/6NBqY7658h
p21
aVRT @yunggravy: my disciples, go forth as Yours Truly and play nothing but Gravy into your mic until you get a W https://t.co/9GvcnjIyO4
p22
aVRT @BenetRedwings: Benet Academy Rankings:  \u000a\u000aBest Catholic High Schools in Illinois\u000a3 of 67\u000aBest College Prep Private High Schools in Illi\u2026
p23
aVI live with a family of monsters. https://t.co/jmS9XFzBoW
p24
aVHey @Idubbbz how about using the coyote urine you received last year from #badunboxing to get rid of the coyotes fr\u2026 https://t.co/fHuBsZsFKY
p25
aV@jacksebben \u201cMy phone doesn't break watch this\u201d\u000a*screen shatters entirely*
p26
aVRT @fightfortheftr: Hey twitter, can we do the thing? Use https://t.co/xSJHbL8rxN to contact your reps now. https://t.co/SeYyd7dDJW
p27
aVRT @theodd1sout: I bet you guys don't even know what condescending means
p28
aVRT @NancyPelosi: There are concrete ways we can fight gun violence: strengthening background checks (backed by vast majority of gun owners)\u2026
p29
aVRT @CursedVideos: https://t.co/YI1FfWon5M
p30
aVRT @SenMarkey: BREAKING: The Senate just voted to restore #NetNeutrality! We won. \u000a\u000aTo all of those who kept fighting and didn\u2019t get discou\u2026
p31
aVRT @fightfortheftr: Hey\u000a\u000atwitter\u000a\u000athis\u000a\u000ais\u000a\u000anot\u000a\u000aa\u000a\u000adrill\u000a\u000athe \u000a\u000aFCC\u000a\u000ajust\u000a\u000aannounced \u000a\u000athat\u000a\u000a#NetNeutrality\u000a\u000aends \u000a\u000aon \u000a\u000aJune 11\u000a\u000aunless\u2026
p32
aVHow can you fulfill your promise to bring jobs back to America from China, while spending time, money, and resource\u2026 https://t.co/LjJmWncIzQ
p33
aVRT @ElvisTheAlienTV: This is America https://t.co/iKYoybfhTP
p34
aVRT @Pontifex: Every insult, injury or act of violence inflicted upon our neighbour, offends God our Father and Creator.
p35
aVRT @dodo: This feisty raccoon fell out of a tree when she was a baby. She got taken in by a family with dogs, and now she thinks she\u2019s a do\u2026
p36
aVRT @neiltyson: May the fourth be with you all.
p37
aVRT @owasibasi: @pewdiepie  https://t.co/ac74ZTsW0w
p38
aVRT @Pontifex: Praying means being with God, experiencing God, loving God.
p39
aVRT @DolanDark: Hey Vsauce, Michael Here. I don't feel so good... Or do I? https://t.co/F7qcpCkiBM
p40
aVRT @Fortnite_BR: JUSTICE has been served! \U0001f923 New #Fortnite emote https://t.co/pqbEo1J5Sn
p41
aVRT @SenSanders: You know what Amazon paid in federal income taxes last year?\u000a\u000aZero. https://t.co/2bVwXQNATl
p42
aVRT @SenFeinstein: Under the Trump administration, ICE is no longer prioritizing violent criminals for deportation. Instead, ICE is now indi\u2026
p43
aVRT @FortniteGame: Today is the last full day of Season 3. \u000a\u000aFinish strong! \U0001f4aa
p44
aVRT @neiltyson: innovations in Science &amp; Technology are the engines of today\u2019s Health, tomorrow\u2019s Economy, and perpetual Security.
p45
aVRT @SenFeinstein: 11 years ago the tragedy at Virginia Tech was the worst mass shooing the U.S. had ever seen. Today, mass shootings have c\u2026
p46
aVRT @SenFeinstein: If President Trump wants to address the humanitarian catastrophe that is the Syrian civil war, he should fulfill our obli\u2026
p47
aVRT @marsrader: Here are some interesting comparisons (MT = megaton):\u000aHiroshima: ~0.015 MT\u000aLargest North Korean bomb: ~0.25 MT\u000aChelyabinsk m\u2026
p48
aVRT @RepJoeKennedy: First Lady Barbara Bush has touched lives around the world with her faith, grace, and humor. Sending my thoughts to the\u2026
p49
aVRT @Idubbbz: #2012vs2018 https://t.co/8u4uVbIDfV
p50
aVRT @SenFeinstein: Pleased to see the Western Trauma Association of surgeons joining the growing chorus saying #EnoughIsEnough when it comes\u2026
p51
aVRT @Ninja: @esportslaw Can\u2019t just appreciate anything anymore man. Gotta change this mindset in the world.
p52
aVRT @USATODAY: Google Japan's "dog view" let's you take tours of cities via cameras on the backs of very good boys (and girls). https://t.co\u2026
p53
aVRT @FortniteGame: The #ReplayRoyale contest begins now! Show your mastery of the new Replay tool for a chance to win an @Alienware Aurora P\u2026
p54
aVRT @neiltyson: If you do the full calculation you will find that Friday the 13th is no less rare on the calendar than Thursday the 12th.
p55
aVRT @Avxry: Hunting Rifle and RPG's should be the only weapons with slow swaps. Bye.\u000a\u000aRetweet if you AGREE\u000a\u000a@FortniteGame @Loomin__ @EpicGam\u2026
p56
a.