(lp0
VRT @jonrom1: @MichaelAvenatti @ChuckGrassley Blue wave tomorrow! Vote. \U0001f30a\U0001f499
p1
aVRT @jasonbaum: @MichaelAvenatti @ChuckGrassley https://t.co/y2CoNq3xr0
p2
aVRT @MichaelAvenatti: .@ChuckGrassley - another week has gone by and still NOTHING has happened on your BS request for a criminal investigat\u2026
p3
aVRT @ida_skibenes: I know it\u2019s the middle of the night in America, but if you can\u2019t sleep, or if this is the first tweet you see in the morn\u2026
p4
aVRT @GrammarMFPolice: FK. THE GOP. WE VOTE BLUE \U0001f30a\U0001f30a\U0001f1fa\U0001f1f8 https://t.co/a2vKNjqBcX
p5
aVRT @techman4life_70: @AccActivist @hockeyjamie @jacksnowknows @olgaNYC1211 @AndreaChalupa @AynRandPaulRyan @sarahkendzior @RobinBrenizer @v\u2026
p6
aVFK. THE GOP. WE VOTE BLUE \U0001f30a\U0001f30a\U0001f1fa\U0001f1f8 https://t.co/a2vKNjqBcX
p7
aVhttps://t.co/tSxKz7LB4t
p8
aVRT @GenXresist: I don\u2019t regret for a minute changing my party affiliation from the GOP when Trump got the nom. They\u2019ve turned into a vile c\u2026
p9
aVRT @fred_guttenberg: Trump, at Florida rally, says Democrats would ruin the state - his second home.  My daughter died in what the Republic\u2026
p10
aVRT @rsanderlin: I used to write a conservative column for the daily newspaper in a military town. I voted early this year and voted Democra\u2026
p11
aVRT @AmandaRaeMSME: Registered Republican for the last 12 years. Voting for people who don't put babies in cages and don't hate people just\u2026
p12
aVRT @MaryDuffyAdams: @gaylelrichard @ProudResister I changed my party affiliation from  Republican to Democrat this past year. I find the GO\u2026
p13
aVRT @WilkaV: @madref1 @gaylelrichard @ProudResister We are the UNITED States of America.  #CountryBeforeParty #GOPvotingBlue
p14
aVRT @gaylelrichard: I\u2019ve been a Republican since I was 17 and learned about the parties in high school civics class. Today I voted early and\u2026
p15
aVRT @DesignationSix: This is a midterm party. To make your voice as loud as possible before the election please follow everyone who\u000a\u000aLIKES\u2744\ufe0f\u2026
p16
aVSUPPORTING this UNSTABLE ELITIST PSYCHOPATH is TOO GREAT A GAMBLE for AMERICA \U0001f3b2\U0001f3b2\U0001f4a5\U0001f525\U0001f628.  HELP ENSURE THAT FUTURE GENER\u2026 https://t.co/E2BspWj69l
p17
aVhttps://t.co/5MjupI3vLR
p18
aVRT @HillaryClinton: It's more important than ever this week to remember the children who have still not been reunited with their families a\u2026
p19
aVRT @TomArnold: @DonaldJTrumpJr @realDonaldTrump record is 7 N-words in one day on the set of The Apprentice. Same day he made you cry becau\u2026
p20
aVRT @Franktheshank88: Breaking News: @realDonaldTrump says he\u2019s a Nationalist\u000aHere\u2019s my National List:\u000aHe\u2019s a National Embarrassment\u000aHe\u2019s a\u2026
p21
aVRT @cathykaku1: @sonokocentral @rexcheat @pdacosta @CNN https://t.co/lGN8mqQxOa
p22
aVRT @sonokocentral: @rexcheat @pdacosta @CNN #Putinbot \U0001f447 https://t.co/ALxQoRAjNi
p23
aVRT @pdacosta: Patients eating dog food in #PuertoRico clinics as despair rises, @CNN reports
p24
aVRT @pdacosta: @CNN A link, for the venom-filled empathy-free non-believers. https://t.co/agBXG8sPGT
p25
aVRT @jameslwalkeresq: @realDonaldTrump @RonDeSantisFL I Am A @Yale Man, deeply offended that you would suggest in code talk that @AndrewGill\u2026
p26
aVRT @gretchen0912: i don\u2019t want old white republican men making anymore decisions for this country.\u000a\u000aThis is my first ever #FBRParty\u000a\u000aI WILL\u2026
p27
aVRT @CoryBooker: In under a week, we saw the murders of two African Americans in Kentucky, the anti-Semitic mass shooting in a Pittsburgh sy\u2026
p28
aVRT @davidhogg111: Thank you @FedEx for taking this bold step by ending your relationship with the NRA
p29
aV@realDonaldTrump GREAT JOB, trump. Now another NUT BAG has .fkn MASSACRED INNOCENT AMERICAN FAMILIES in a Pittsburg\u2026 https://t.co/bYF2YrlkTd
p30
aV@realDonaldTrump You are an IGNORANT Fkn. TOOL. https://t.co/enIjuD3Ry0
p31
aVRT @BetteMidler: He accepts NO RESPONSIBILITY FOR THE CURRENT HOSTILE CLIMATE.  THIS GUY IS UTTERLY CRAVEN IF NOT COMLETELY DELUSIONAL.
p32
aVRT @krassenstein: BREAKING: Twitter Just told trump that he's losing followers because they are FAKE!\u000a\u000a"Our focus is on the health of the s\u2026
p33
aVRT @LorenAOlsonMD: I don't recognize this country as the one I served four years in the U S Navy for.\u000a\u000a#FBRparty\u000a#FollowBack\u000a\u000aPlease do any\u2026
p34
aVRT @dreilc: @treasonstickers @gdirtydime Why didn't Hitler's followers realize he was a deranged meglomaniac? We can't change their minds,\u2026
p35
aVRT @BoycottUtah: It is Friday, October 26, 2018. One citizen, I humbly call for the resignation of Donald J Trump as President of the Unite\u2026
p36
aVWord! @breesy83 https://t.co/xERZKPOYhz
p37
aVRT @MichaelAvenatti: .@ChuckGrassley - let\u2019s start the investigation tonight. I will make my client available for a sworn interview and you\u2026
p38
aVRT @stucam7771: I'm not American, so answer me this. \u000a\u000aSo many of you are far more terrified of 'foreign terrorism' than 'domestic terroris\u2026
p39
aVRT @treasonstickers: Why can\u2019t MAGA see that Trump is a draft-dodging serial liar, sexual predator, racist son of a KKK member who illegall\u2026
p40
aVRT @DesignationSix: This is a midterm party! To gain more followers to make your voice louder before the election follow anyone who \u000a\u000aLIKES\u2026
p41
aVRT @MichaelAvenatti: It is ironic that Senator Grassley now is interested in investigations. He didn\u2019t care when it came to putting a man o\u2026
p42
aVRT @jwlarrabee: Trump has a shitty personality on multiple dimensions.  He's a liar. He's a bully. He's a racist. He's a sexist. He's a sex\u2026
p43
aVRT @bryanbehar: This presidency is crushing me. I had lunch w 2 otherwise normal people. \u000a\u000aExcept they...LOVE TRUMP\u000a\u000aAnd now I\u2019m filled w r\u2026
p44
aVRT @treasonstickers: Why are we sending military to the border to confront a caravan of people who will legally seek asylum through our ver\u2026
p45
aVRT @freddyatton: * #TrumpPoll ( @realDonaldTrump )\u000a\u000a(retweet)\u000a-----------\u000a\u000aDonald J. Trump is a "clear and present danger" to the USA, beca\u2026
p46
aV@Jennarain88 @dennis_gauda @MosesStewart7 @CoryBooker Here here! \u2764\ufe0f
p47
aVRT @GrammarMFPolice: Class, for today\u2019s .fkn lesson we\u2019ll read up on FECKLESS NRA DEATH SQUAD LEADER, @LSwitlyk and the HARMLESS, CLIFF-DWE\u2026
p48
aVRT @Lamasaysit: @LSwitlyk \u2639\ufe0f Extremely Sad &amp; Unfortunate.\u000a\u000aNo human deserves the right to disturb the ecosystem OR destroy forests &amp; wildli\u2026
p49
aVClass, for today\u2019s .fkn lesson we\u2019ll read up on FECKLESS NRA DEATH SQUAD LEADER, @LSwitlyk and the HARMLESS, CLIFF-\u2026 https://t.co/hXlGv6Ntpi
p50
aVRT @JesseofOB: @DeptofDefense @realDonaldTrump Keep in mind that your miserable, cowardly POTUS has yet to visit the troops in a combat zon\u2026
p51
aVRT @GrammarMFPolice: @fenrir_71 REPUBLI-PIG. #RepubliPig #BlueWave2018 #HoldHimAccountable
p52
aVRT @ChadMac19: Gosh, who could POSSIBLY have inspired someone to try and kill the Obamas &amp; the Clintons &amp; George Soros &amp; Kamala Harris &amp; Ma\u2026
p53
aVRT @ChristineCrab18: @model_daughters @dawnresist @CaptainResists @lfkraus @jomareewade @MsActiviss @americanmclass @IHaveDragons @immelza\u2026
p54
aV@fenrir_71 REPUBLI-PIG. #RepubliPig #BlueWave2018 #HoldHimAccountable
p55
aVRT @SecretService: CLARIFICATION: At this time the Secret Service has intercepted TWO suspicious packages - one in NY and one in D.C. Repor\u2026
p56
aVRT @lauren_hoggs: When our leaders preach hate and violence why do they act surprised when acts of hate and violence occur in our country ?
p57
aVRT @jonswaine: Trump backers who have suggested the bombs are a liberal hoax:\u000a\u000aAnn Coulter\u000aRush Limbaugh\u000aMichael Savage\u000aJames Woods\u000aMike Fl\u2026
p58
aVRT @itsJeffTiedrich: no one could have predicted that the party of Nazis, child molesters, wife beaters, income tax cheaters, pedophile wre\u2026
p59
aVRT @keanothedog: @seanhannity https://t.co/whdoydPifD
p60
aVRT @DesignationSix: Midterm party! To make your voices as loud as possible before the election, gain more followers by following everyone w\u2026
p61
aVRT @Amy_Siskind: So what does Trump want to discuss with Putin one-on-one in Paris 5 days after midterms?
p62
aVRT @Amy_Siskind: Bombs found targeting:\u000a*George Soros\u000a*Hillary \u000a*Obama\u000a*Time Warner/CNN\u000a\u000aWhat do these things have in common?  They have al\u2026
p63
aV@realDonaldTrump We WEEP for our GREAT NATION. OUTLAW FASCISTS are making a TOTAL MOCKERY of our DEMOCRACY. #AGAIN.\u2026 https://t.co/eSsRqWDEtb
p64
aVWe WEEP for our GREAT NATION. OUTLAW FASCISTS are making a TOTAL MOCKERY of our DEMOCRACY. #AGAIN. TRUMP and his GE\u2026 https://t.co/YpVmaqywpw
p65
aVRT @jennycohn1: @Amy_Siskind I\u2019ve been SCREAMING about Georgia\u2019s voting machines for over a year!!!  So have @MarilynRMarks1, @AVoiceForAll\u2026
p66
aVRT @pinkrocktopus: @jennycohn1 @Amy_Siskind @MarilynRMarks1 @AVoiceForAllGA @PeachResist @ScissorRunner33 @georgia_vv @honlarryvaughn Co-si\u2026
p67
aVRT @elizabethforma: No matter what hateful \u201credefinitions\u201d come out of the Trump administration, trans people exist &amp; deserve to be free fr\u2026
p68
aVRT @GrammarMFPolice: @DDujka @realDonaldTrump \U0001f44d Madam, YOU voted for an EVIL, PERVERTED, \u201cP***Y\u201d-GRABBING, MISOGYNISTIC, .fkn SOCIOPATHIC,\u2026
p69
aV@DDujka @realDonaldTrump \U0001f44d Madam, YOU voted for an EVIL, PERVERTED, \u201cP***Y\u201d-GRABBING, MISOGYNISTIC, .fkn SOCIOPATHI\u2026 https://t.co/lp6CehH9de
p70
aV@realDonaldTrump \U0001f44d Madam, YOU voted for an EVIL, PERVERTED, \u201cP***Y\u201d-GRABBING, MISOGYNISTIC, SOCIOPATHIC, RACIST, EL\u2026 https://t.co/ULYl1khAJo
p71
aVRT @SallyAlbright: Feeling helpless about this travesty of justice?\u000a\u000aHelp us make calls into FLORIDA!!!  Hit me up and I'll set you up. You\u2026
p72
aV*Central, Newsweek. Otherwise Amen on this whole Trump-as-Antichrist theme. https://t.co/FwP626iQVD
p73
aV@realDonaldTrump *Southern, you foolish tool.
p74
aVRT @krassenstein: BREAKING:  Carl Bernstein says that White House sources have told him that if Democrats win the house by a margin of 7 or\u2026
p75
aVRT @SenWhitehouse: And behind the campaign to ignore and disparage Dr. Blasey Ford was the same billionaire money that funded the selection\u2026
p76
aVRT @dennis0805a: @realDonaldTrump IF IT IS LEGAL, WOULD YOU BE WILLING TO PISS ON DONALD TRUMP'S GRAVE?
p77
aV@realDonaldTrump WE CANNOT let the Republi-PIGS SHIELD Trump\u2019s egregious MALFEASANCE for TWO MORE YEARS. All minori\u2026 https://t.co/hw23WBYzLO
p78
aVRT @AngryandAsian: Are we really surprised that Trump mocked a Sexual Assault Survivor? He is the EPITOME of Rape Culture. \u000a\u000aLines are bein\u2026
p79
aV@realDonaldTrump Remember this mob? You are a cruel, shameful, perverted, misogynist, racist, sociopathic thug. Don\u2026 https://t.co/eGGDemhvUN
p80
aV@dennis_gauda @MosesStewart7 @CoryBooker *your, and Godspeed.
p81
aV@Amy_Siskind @GretaResister WE CANNOT let the Repuli-PIGS SHIELD Trump\u2019s egregious MALFEASANCE for another TWO YEAR\u2026 https://t.co/FhKmLBb5ou
p82
aVRT @dupergramp: @TomPaine1737 Cheer up. We've been at this for months and months and months, and the end is in sight. Envision the #BlueWav\u2026
p83
aV@joimonki @stucam7771 I say the more people who\u2019re \u201dwoke\u201d the better, @Joimonki! And it\u2019s never too late. Each new\u2026 https://t.co/YeZD0pBCKy
p84
aV@FroggyBottomPnd @Stop_UTK_Now @AARP No. You are applying a second generalization (your own) to disprove the first.\u2026 https://t.co/iy2BbF57Ks
p85
aVCaption this! https://t.co/ZYQH9RB3MA
p86
aV@JordanUhl @thor_benson \u201cWill ya\u2019ll excuse me for a sec? Our White House Sith Lord is sending me another dark comma\u2026 https://t.co/2XiHVOS4um
p87
aVRT @TalbertSwan: Paying $130k to raw dog a porn actress with a \u2018horseface\u2019 makes you a certified horses ass.
p88
aV@302Nanny Oh we\u2019re so very sorry. There\u2019s just nothing harder than having an angelic little spirit like Winnie fade\u2026 https://t.co/6QNpFscCHt
p89
aVRT @SDSF3333: @Leia_Resists I voted already. But I am in a blue bubble. I like all 3 of my reps. I wish I could put in a vote that would he\u2026
p90
aVRT @ellievan65: I solemnly pledge that I will not stand idly by while others are harassed in my presence. I will speak up, stand up, defend\u2026
p91
aVRT @JordanUhl: Caption this: https://t.co/IMoj5j1KPf
p92
aVRT @franklinjoenz: @TuckerCarlson @mattklewis Something tells me this isn't going to age well Tucker.
p93
aV@nytimes BUH-BYE, lyin\u2019 Ted! We won\u2019t miss ya! #BlueWave2018 #PornPresident
p94
aVRT @business: "It's why the president called him Lyin' Ted." Democrat Beto O'Rourke lays into Ted Cruz during the second debate of the Texa\u2026
p95
aV@seanhannity @SenSasse We\u2019ll be purchasing 10 extra copies of your book, @SenSasse, thanks to Hannity\u2019s stellar rev\u2026 https://t.co/Y0wmqikTL6
p96
aVRT @cher: If Mary Todd Lincoln Was The Only Witness To The Assassination Of PRESIDENT \u000aABRAHAM LINCOLN,By John\u000aWilkes Booth,..&amp; Booth Told\u2026
p97
aVRT @HotPockets4All: @StormyDaniels @real_farmacist https://t.co/0nWmIe8Mew
p98
aVRT @JoyAnnReid: Like clockwork. https://t.co/FZEdOKamwf
p99
aVRT @neiltyson: Imagine how much more advanced society would be today if women, who comprise half the world\u2019s brain power, were socially &amp; i\u2026
p100
aVRT @robreiner: In 21 days we will decide if we\u2019ve had enough lying, greed, corruption and heartlessness. We\u2019ll decide if we want a Democrac\u2026
p101
aVRT @stucam7771: There seems to be a recent increase in rogue followers.\u000a\u000aThey normally have bad spelling, poor grammar, and use simple/chil\u2026
p102
aVRT @StephenAtHome: I\u2019m beginning to think that Trump never got around to reading that Be Best pamphlet Melania left on his nightstand.
p103
aVRT @krassenstein: BREAKING:  Twitter has suspended 1,500 accounts connected to a Pro-Trump group on Reddit under the "r/the_donald," subred\u2026
p104
aV@dennis_gauda @MosesStewart7 @CoryBooker No @dennis_gauda I sleep quite soundly each night as my party doesn\u2019t igno\u2026 https://t.co/yPMS4pahM7
p105
aV@NBCNews He won't accept the blame for his apocryphal behavior and the damage it has caused. #BigSurprise\u2026 https://t.co/MvRrhq0baF
p106
aV#PornPresident https://t.co/vxrvJ7755X
p107
aVRT @Stop_UTK_Now: #AARP has alway pushed RepubliCON policies. Most members vote GOP. Their target is wealthy old white folks because they\u2019r\u2026
p108
aV@tweetmommybop Give him a framed photo of his fellow Republicans! #BlueWave2018 #DumpTrump #PornoPresident https://t.co/SUXLwrrUkm
p109
aV@dennis_gauda @MosesStewart7 @CoryBooker Language is anything but trivial, troll-bot. If you actually LISTEN to the\u2026 https://t.co/5jOBg3m8hF
p110
aV@realDonaldTrump \U0001f611I\u2019m sorry that you don\u2019t have enough shame to admit when you\u2019re wrong. I\u2019m, literally, sorry that\u2026 https://t.co/COF1tGSIQh
p111
aV@realDonaldTrump No idea what you\u2019re talking about. You are a monster. Complete your sentences. #PornPresident
p112
aV@realDonaldTrump Shame on you, #PornPresident. https://t.co/pd0QQmNdrS
p113
aV#PornPresident https://t.co/GTaBPa1vJc
p114
aVRT @philosophrob: @SenSanders Reminds me of this quote by Noam Chomsky about you, Senator.\u000a\u000a"His [Bernie Sanders'] positions would not have\u2026
p115
aVRT @zippyman818: @MichaelAvenatti Our #PornPresident will have at least one asterisk next to his name in the history books. https://t.co/X5\u2026
p116
aVRT @CoryBooker: 21 days.\u000a\u000aElection Day is exactly 3 weeks away. This is the most important election of our lifetime\u2014we can't afford to sit\u2026
p117
aV@MosesStewart7 @CoryBooker Also, stop overusing the semicolon and go read something.
p118
aV@MosesStewart7 @CoryBooker Umm, no, @MosesStewart7. Take your head out of your butt and attempt to see the truth. T\u2026 https://t.co/2uUa8SBI7Q
p119
aV@ConservativeKER @CoryBooker https://t.co/Lzzswi4E8J
p120
aV@MichaelAvenatti https://t.co/5lGivmKzmq
p121
aVRT @jmd948: @realAliTweets @ShareJoyNow His base - forget it!\u000aThe rest - pay attention, read, use critical thinking, open your minds to oth\u2026
p122
aV@DouglasESchoen No, and no. As a reminder for those who seem to want to shift the focus away from an uncomfortable\u2026 https://t.co/f96ZoX7RY8
p123
aV@JATnLA @DouglasESchoen @EricHolder Couldn\u2019t agree more, @JATnLA. As a reminder for those who seem to want to shift\u2026 https://t.co/BjKFEv0c5G
p124
aV@60Minutes Oh, Donnie. Let\u2019s think about that for a moment. \u201cLet it be whatever it is to get the job done\u201d is an ap\u2026 https://t.co/3OQXnhQHBZ
p125
aVRT @Morning_Joe: .@SteveKornacki weighs in on Pennsylvania's First Congressional District race as possibly a 'Kavanaugh effect going the ot\u2026
p126
aV@CrystalCreek6s @FoxNews Also, *legitimate
p127
aV@CrystalCreek6s @FoxNews Totally agree. Can Trump now! #BlueWave2018
p128
aV@thehill I bet the chemistry is great, indeed. #BlueWave2018
p129
aV@TIME IQ Test: select the man in this image who does NOT belong with the others, barring maybe Nixon. Hint: he\u2019s a\u2026 https://t.co/z8wkxArOXr
p130
aV@Newsweek Guess this wasn't a planned component of the MAKE AMERICAN GREAT AGAIN agenda. America is not feeling so\u2026 https://t.co/xBkdyGK6wk
p131
aVRT @jethridge71: I\u2019m afraid of what \U0001f921 and his minions are doing to my country. I feel like my grandkids future is at stake so I\u2019m in.   #FB\u2026
p132
aV@KBAndersen Whoa. Talk about the Devil\u2019s Advocate.
p133
aV@WSJ @DanHenninger What a compelling read. So terrified, elevator-riding conservative white men across the nation a\u2026 https://t.co/qy4lRpnYO8
p134
aVRT @cnni: Someone bought the domain bearing US Supreme Court Justice Brett Kavanaugh's name and turned it into a site dedicated to helping\u2026
p135
aVRT @washingtonpost: "Our values are being shredded": Joe Biden denounces Trump at Kentucky rally https://t.co/QVN6lyKLon
p136
aVRT @KamalaHarris: Climate change is real. Global warming is real. They both pose a grave threat to our nation and our planet. We can\u2019t igno\u2026
p137
aVRT @KamalaHarris: An absolutely shameful attempt at voter suppression. Spread the word to voters in Georgia: if you or someone you know has\u2026
p138
aVRT @KamalaHarris: True strength is when you\u2019re fighting for the people who aren\u2019t in the room. In 24 days, let\u2019s vote in officials up and d\u2026
p139
a.