(lp0
VChina intends to further cut import #tariffs per Xi
p1
aVInteresting angle by new #Canadian #PrivateEquity firm Peloton Capital Management. They are widening the investment\u2026 https://t.co/3V7NUo8JhY
p2
aVA good Sunday morning to everyone! #Investment #banks have struggled along with the rest of banking industry compar\u2026 https://t.co/MU2m6ayr51
p3
aVThree companies control US machine voting industry. All three are backed by #PrivateEquity. The public v. private o\u2026 https://t.co/oU2g1JghTr
p4
aVGlobal M&amp;A is hot! It is up 26% year over year. Corporate #balance sheets look good and #borrowing costs are low pe\u2026 https://t.co/Ah9roy7l8A
p5
aV2-10 has #widened, BFCIUS+ is rising signaling healthy #business conditions, #vix is going back to sleep, and my\u2026 https://t.co/cyhHUUQtv7
p6
aVGood news for #savers! You can put another $500 into your 401(k)s and IRAs in 2019. #saveforthefuture #taxes #retirement #fsiep
p7
aV250k #uspayrolls 3.1% wage growth
p8
aVThe #federal #reserve yesterday proposed reducing the capital and #liquidity standards for #community and #regional\u2026 https://t.co/gW9EepGYM0
p9
aVPay attention to the #Illinois 6th congressional district race closely. @PeterRoskam v. @SeanCasten This might be t\u2026 https://t.co/x4kdnl4f7S
p10
aVI\u2019m watching #oil as it takes a dive. Down 14% from a month ago. #fsiep https://t.co/ww6aObfeZG
p11
aVThis #chart by my friends at Bloomberg shows how spending continues to exceed revenues. Get out to #vote on Tuesday\u2026 https://t.co/c82m1mExTr
p12
aVFederal debt over #GDP. The spending binge continues on the backs of future generations of #Americans. https://t.co/hQI2E1xiQ0
p13
aVHappy #Halloween!  The #leveraged #loan #market stole the witch\u2019s broomstick and is really taking off. Now that\u2019s s\u2026 https://t.co/oyeT1kkFev
p14
aVJPMorgan will likely have more employees in 10 years than it does now as the workforce evolves with technology - @Chase\u2019s Jamie Dimon #fsiep
p15
aVGood to see the @DowJones #spx500 and @Nasdaq all in the green today and YTD. Best performing exchange in the\u2026 https://t.co/IfhpWr9xk4
p16
aVConsumer confidence at a 18 year high! #fsiep #economy
p17
aVRegional banks are down YOY compared to the #SPX500.  #banks #markets #economy #fsiep https://t.co/bQSdr2VyZi
p18
aVThese two have been on a wild ride.  #Interest #rates, #Dodd-Frank, #technology, #TaxReform #markets #fsiep #banks\u2026 https://t.co/PzsX5gBmlC
p19
aVKnock-knock-knockin' on correction\u2019s door #spx #markets #stocks @gunsnroses #fsiep #tenpercentcorrection https://t.co/uye7itGJfP
p20
aVGood morning!  @DowJones off to a strong start. Let\u2019s keep this going!  #fsiep #economy #markets https://t.co/76SJIMN38C
p21
aVAs #president @realDonaldTrump proposes cutting the #tax #rates, here is a nice #historical #chart from #FRED on ta\u2026 https://t.co/jXZuYk7bl0
p22
aVHere is a #chart looking at the #Brazilian #stock #exchange along with #foreign #direct #investment in the last 12\u2026 https://t.co/qyvvhwKN8p
p23
aV\u201cGovernments that do not respect central bank independence will sooner or later incur the wrath of financial market\u2026 https://t.co/IZ7F1u6jfT
p24
aVThe #HedgeFund world is not doing so well as of late. Take a look at this latest chart. #fsiep #AssetManagement\u2026 https://t.co/kwaV6RYa2C
p25
aV#capex and #TaxReform are some of the key themes coming out of the GDP report. #tax driving consumer spending,\u2026 https://t.co/LoiEYX8H2U
p26
aV3.5%!! #GDP
p27
aVQQQ GDP coming out shortly!  So exciting! #fsiep
p28
aVI recommend taking a look at the Penn Wharton budget model on how they are forecasting effective tax rates after\u2026 https://t.co/oCcTQ1e4yI
p29
aVGood morning @RSMUSLLP #tax. I enjoyed talking to you yesterday about the value of industry at the general session\u2026 https://t.co/AsVScf1J7D
p30
aVHere is a question on #capex from the latest #Philadelphia #federal #reserve #manufacturing #survey regarding how\u2026 https://t.co/PrPvdvTZBH
p31
aVHey @joebrusuelas BFCIUS+ is down significantly from a month ago. What\u2019s your opinion on this? #fsiep https://t.co/7v6aH8lfxY
p32
aV#vix is on fire (in a bad way)!  #economy #fsiep #HedgeFund https://t.co/RpzP3Ej6e9
p33
aVRT @lauradietzel1: @JasonKuruvilla1 @TroyMerkel9 Total sales down driven by buyer sensitivity to interest rates; 30 year fixed rate interes\u2026
p34
aVRT @TroyMerkel9: @JasonKuruvilla1 @lauradietzel1 Continued decline. Rising interest rates combined with cost to build, are reducing afforda\u2026
p35
aVBig day for home sales data @lauradietzel1 and @TroyMerkel9.  What are the expectations?
p36
aVGood morning @RSMUSLLP #tax! I\u2019m looking forward to meeting you today at the general session of #SuperManTax2018 to\u2026 https://t.co/RfVfFOht6H
p37
aVIn addition to #hedgefunds, #ctas have seen $14B of outflows in 2018 according to Bloomberg and Eurekahedge.\u2026 https://t.co/MH5eAu5VQ3
p38
aVI\u2019m watching the #vix this morning as #markets continue to get #slammed. #fsiep #economy https://t.co/P693unlTaV
p39
aV@lauradietzel1 and I are excited to chat about Industry at the Q around lunch today. Please swing by for a few minu\u2026 https://t.co/2BeDPWHDyr
p40
aVIn the last 2 years, 65% of #hedgefunds have dropped the 2-20 expense structure. 1-30 might be the new normal going\u2026 https://t.co/5TCIrfGrOL
p41
aVI\u2019m watching the #leveraged loan market as #demand continues to rise via this Bloomberg chart. Less #oversight coul\u2026 https://t.co/1LvmWZsyIG
p42
aVPay attention to the deal made between @blackstone and #saudiwealthfund, revenue-linked discounts could be a common\u2026 https://t.co/DQ5rFNhbzB
p43
aV@subchapterk Qualified #OpportunityZones presents a great opportunity for #PrivateEquity firms to build their real\u2026 https://t.co/sCFlsBQRhn
p44
aVThe #president promises middle income tax cuts before the #midterms. Not sure how this will be accomplished with\u2026 https://t.co/570Mypswcs
p45
aVOutflows continue to plague the #hedgefund #industry, September #performance was barely a #percent as I #tweeted a\u2026 https://t.co/QIeEpoBx46
p46
aVThe #US #unemployment rate over time has shrunk and is at its lowest since the 60s per my friends at Bloomberg. Mor\u2026 https://t.co/4ZSKox1gYc
p47
aVAs the #us #government continues to spend, the #debt #ceiling becomes a factor. Next time we hit zero could be Dece\u2026 https://t.co/VoiqqhY2XD
p48
aVMandatory 401(k) plans for companies? It may happen if Democrats win the midterms and Rep Richard Neal of Mass lead\u2026 https://t.co/Py5kMzuYQm
p49
aV$200B worth of #tariffs on January 1, 2019 will be hit with 25% rate. #Consumers will feel this quicker than what i\u2026 https://t.co/RCkms7CFBd
p50
aVThe 2-10 spread is closing in on the #vix.  Remember what happened last week when that occurred? #fsiep #markets\u2026 https://t.co/ZdT4cdhwhc
p51
aVHere is the latest #fomc dot plot on where the members stand on #interestrates. #fsiep #economy https://t.co/r9R2iPCofO
p52
aVFor my 100th tweet, I want to send a shout out to all my colleagues at @RSMUSLLP! Industry is on the move, and I ho\u2026 https://t.co/g1SFcDELkd
p53
aVIn response to one of my #followers, #prop #trading is still #banned for #banks under the #updated #volcker rules. #fsiep
p54
aV#Banks should see some relief with the rollback of the #volcker rule, #market-making activities should pick up and\u2026 https://t.co/va8aI2Omaz
p55
aVImpressive numbers by @Netflix! 6.9 million new users in 3rd #quarter and expects 9.4 million new users in the 4th\u2026 https://t.co/NV7yk16v87
p56
aVFinancial conditions continue to be #positive after the #market upheaval last week.  The Bloomberg #financial\u2026 https://t.co/XotIDpyh4g
p57
aVDeputy Chief Economist Kevin Depew providing his outlook on the economy at the 10th annual investment industry summ\u2026 https://t.co/6FidmA56qq
p58
aVSeptember returns in the #HedgeFund space slid per Bloomberg by .19%. Best strategies were fixed income directional\u2026 https://t.co/hU7U2YLFyD
p59
aVWe\u2019re excited to announce that we\u2019re working with @AutomationAnywh to deliver robotic process #automation to the\u2026 https://t.co/YHhVr2YQrG
p60
aVCFOs are taking charge of #digitaltransformation to stay competitive. @RSMUSLLP #fsiep #HedgeFund #PrivateEquity. L\u2026 https://t.co/ZzWoHdnO4d
p61
aVRT @joebrusuelas: This is worthy of your time: 2018 Distressed Communities Index - Economic Innovation Group https://t.co/Z2AS7dFbc8
p62
aVThe #technological #revolution is disrupting our #ecosystems. #Banking is experiencing it right now. Here is a char\u2026 https://t.co/ZSpfeOt1OL
p63
aVHere is the latest #BUSFC+ #index reading. Still in #positive territory but has dropped from a few weeks ago.\u2026 https://t.co/gpRVjrTuCT
p64
aVA nice first step... #hedgefunds #cryptocurrency #bitcoin #PrivateEquity #fsiep https://t.co/uLOYixyrjs
p65
aV$250B in #Chinese #tariffs in place currently, potentially more down the road. #Administration wants fair #deal. Wa\u2026 https://t.co/OCnEQ3ywRn
p66
aVIt\u2019s #earnings season!  @BankofAmerica reported more #interest income this period since 2011 in connection with\u2026 https://t.co/l4pF6unVxK
p67
aVHere is the latest #chart from @TheTerminal comparing the 2-10 with #Vix. The 2-10 is below 30 basis points. https://t.co/G7EJ9QmrSm
p68
aVThis week...#Retail sales, #business inventories, #industrial production and #housing starts will help fill us in on 3rd quarter #GDP
p69
aVRT @RSMUSLLP: Join us in New York on Tuesday for RSM\u2019s 10th Annual Investment Industry Summit, including exclusive looks at the issues and\u2026
p70
aVWe are witnessing the fall of an iconic company @Sears, this is a great example for all companies that need to embr\u2026 https://t.co/gnTdREuwOI
p71
aVI\u2019m watching the #xlf this afternoon after the #earnings reports from the major #banks this morning. Here is the la\u2026 https://t.co/Gatp3sBGYY
p72
aVThe #globalization of #finance is developing. #Trade outside of traditional hubs in #US and #London but now between\u2026 https://t.co/B7p8wAoCRc
p73
aVThe leaders of @Citi and @jpmorgan agree that the #economy is performing really well! #FSIEP
p74
aVA couple a points from the #earnings calls...#FSIEP \u000a\u000a@jpmorgan #taxreform had a #positive #influence on their\u2026 https://t.co/9GVwJIZ33Y
p75
aVWith #regulated banks managing their loan risks, the speciality finance world are filling in the holes where\u2026 https://t.co/GJ098NUjYz
p76
aVPer @jpmorgan #dimon riskier loans going to non-banks. #FSIEP
p77
aVHere is the latest chart comparing the #vix with the #SP500. Once the #vix touches 25, #chaos. #FSIEP\u2026 https://t.co/9vKG09fqRK
p78
aVAre the lack of #corporate #stock #buybacks this week driving the market down?  Follow the #correlation #FSIEP\u2026 https://t.co/NVMaBxOBqA
p79
aVThe 3 day ride of the #gold bullion as the #equity markets have fallen. Time to listen to some #KanyeWest\u2026 https://t.co/HJ4jmvfq9o
p80
aV3rd quarter earnings from @jpmorgan @Citi @WellsFargo tomorrow morning. Looking forward to hearing how they address\u2026 https://t.co/nLHhZlCxWM
p81
aVNet inflows of capital into #ETFs still in the billion dollar range regardless of recent S&amp;P 500 performance. #FSIEP https://t.co/ILISezN9vc
p82
aV\u201cMain Street is starting to get hit by the emerging tariffs\u201d - my mentor @joebrusuelas #FSIEP
p83
aVOur modern day version of #Nixon v. #burns is on display.  #fomc independence is important!
p84
aVRT @TroyMerkel9: A Window Of Opportunity: OZs Are Ripe For Real Estate Investing via @forbes https://t.co/41A57eEXMj
p85
aV@jpmorgan advising investors to start adding bonds to their portfolios. Another bank advising waiting until yields\u2026 https://t.co/yB2F2cAJro
p86
aVGreat feature from @TheTerminal tracking the current path of #hurricanemichael2018 https://t.co/PK6aNCTELn
p87
aVRT @joebrusuelas: My discussion with \u2066@MarketWatch\u2069 on how the intensifying trade spat with China will result in US consumers pulling forwa\u2026
p88
aVRT @joebrusuelas: At a time when Chair Powell &amp; other prominent Fed members are getting in touch with their inner hawks this is a foreshado\u2026
p89
aVThe #VIX has been on the ride.  Expect more activity in the stock market as #volatility picks up.  #FSIEP https://t.co/byyll3UXCF
p90
aVA bright spot in the #HedgeFund community, millennium is up 8.3% versus industry at 1.7% per HFRI.  #FSIEP
p91
aVIMF World Economic Outlook Update.  Projections cut for US and China as the #tariffs are playing a role.  #FSIEP\u2026 https://t.co/7eNOL0FjVP
p92
aVAnother word of a close in the #HedgeFund community.  Jason Karp and Turbullion returning $1B back to investors.  I\u2026 https://t.co/eFtbZEHous
p93
aVJust a reminder for #individuals who #extended their #1040. One more week to go until the filing deadline! #tax @RSMUSLLP
p94
aV\u2615\ufe0f and #sugar #commodity prices have been hot! #coffee climbing 6% while #sugar is up 13% #Brazil #HedgeFund #FSIEP
p95
aVGood morning! Chances of the yield curve inverting unlikely as spread continues to widen.  I\u2019m looking forward to h\u2026 https://t.co/hucjemBSfo
p96
aVThe first #tech #revolution caused WW1, the second tech revolution caused WW2, the third tech revolution will not c\u2026 https://t.co/WWYDyRE3aY
p97
aVAction to pull back bank reserves by people\u2019s bank of China a reaction towards the Trump #Tariffs?  The additional\u2026 https://t.co/S4W5SIj9oX
p98
aVPresident of @NYSE advocating for streamlined process for companies to go public, more potential #investors, shared\u2026 https://t.co/Nkxiy3xMDF
p99
aV#HedgeFund industry not on a good start for the first three quarters of #2018.  Returns up 1.7% YTD but down 4.4% YOY per #HFRI.  #FSIEP
p100
aV10 years ago, a \u201cperson\u201d named Satoshi Nakamoto introduced us to the concept of @Bitcoin. #cryptocurrency #FSIEP\u2026 https://t.co/R5dI3o33GL
p101
aVHere is a #chart of the 2-10 spread after being on @Twitter for two weeks, no need for the #iron, we are on the\u2026 https://t.co/VcjAiNdDex
p102
aVShareholders of #REITS are one of the #winners of #TaxReform.  They will benefit from the 20% deduction on their or\u2026 https://t.co/AvIztMBQwk
p103
aV#OpportunityZones have so much potential to change lives, build #communities and #wealth.  Here is the latest map.\u2026 https://t.co/HbsDuGglmo
p104
aVI\u2019m taking a closer look at #Asian #currencies and there appears to be some slowdown in #China and #Japan.  The\u2026 https://t.co/O8WQYLXeKl
p105
aVWith 10 year yields going up, #investors are looking closely at #equity markets. Here is a chart of the #NASDAQ whi\u2026 https://t.co/BL2K6WUMSr
p106
aVPay close attention to the relationship forged between @ToyotaMotorCorp and #SoftBank. At latest briefing covered b\u2026 https://t.co/yDy0duetim
p107
aVI\u2019m keeping a close eye on my homeland early this morning.  #india keeps rates steady at 6.5%. Here is the latest F\u2026 https://t.co/ktjjNEzYFs
p108
aVOne of the many factors to the rise in the markets is due to #dividend payouts.  Check out this chart illustrating\u2026 https://t.co/Vj5MBf8VJJ
p109
aVAs #Treasury yields surge, will we see a mass exodus from the #equities markets?  @joebrusuelas how do you see this playing out?
p110
aVM&amp;A activity is about hit record heights! #tariffs, #TaxReform, and #interest rates could be some of the drivers of\u2026 https://t.co/Gw7qpleets
p111
aVThis chart looks at the relationship between #EmergingMarkets stocks and S&amp;P 500. Last time we were this low led to\u2026 https://t.co/fsl9yUspPY
p112
aVA win-win for all @TroyMerkel9. #tax savings, investing in communities needing capital to grow, and improving the l\u2026 https://t.co/WAanN3BQnu
p113
aVCheck out the growing spread between S&amp;P index and the global #HedgeFund fund index. One of the reasons why funds a\u2026 https://t.co/17F8HB6Kti
p114
aVStrong September #jobs results from @ADP, #bls, and Bloomberg confirm #chairmanpowell and #fomc comments that\u2026 https://t.co/MWl4HKmbtr
p115
aVHere is the latest update on the 2-10 spread after lots of chatter regarding 10 year yields #FSIEP https://t.co/GywKAxh0nt
p116
aVThe growing trend of #hedgefunds converting into #familyoffice has been in the news lately.... latest is #highfields #FSIEP
p117
aVOpportunity zones could be an option for #HedgeFund and #PrivateEquity managers subject to the reclass of carry due\u2026 https://t.co/7IZDkzAMAr
p118
aVOaktree\u2019s Howard Marks on Bloomberg \u201cWe\u2019re selling more than we are buying\u201d  He is calling for caution.  #FSIEP
p119
aVThe #middlemarket is exercising capex caution, and may be missing an opportunity: https://t.co/fdixFvlXgM.\u2026 https://t.co/fN6tHFOftD
p120
aV#GILTI , #FDII , #BEAT these three #tax acronyms need to be top of mind for #PrivateEquity #HedgeFund #familyoffice\u2026 https://t.co/TZ5RerzPVW
p121
aVTime is running out for 14 million taxpayers who filed a 6 month #extension! #tax #october15 #findyournearestrsmoffice
p122
aVAccording to research by state street and Bloomberg, institutional investor risk tolerance declined in September to\u2026 https://t.co/kAOZofVLDz
p123
aVGlobal mergers and acquisitions down based on Bloomberg\u2019s analysis of announced deals.  Check out volume 44 of\u2026 https://t.co/xNf1NFI9kj
p124
aVThe @ADP report is out private payrolls up 230k vs est of 184k, service providers added 184k since #January #FSIEP
p125
aVThe deal between @comcast and sky seems to be crazy with the amount of debt @comcast is taking on.  This chart from\u2026 https://t.co/u58ymJ1qxv
p126
aVWow take a look at this spike in #gold now over $1,200 #FSIEP #italy #Commodities https://t.co/2hDbziSbfC
p127
aV#stewardship one of the 5 values we follow here at @RSMUSLLP https://t.co/jIO6fyuBoQ
p128
aV#chairmanpowell continues his message at @business_econ today, unemployment at 50 year lows, inflation meeting expe\u2026 https://t.co/1cICgjRysV
p129
aVI wonder who the 499 lucky individuals fortunate to purchase this $1.85M @Ferrari Monza.  Oh she is a beauty!  I se\u2026 https://t.co/ATeCj0smt2
p130
aV@Tesla is #growing, @fiat @Chrysler had best September in 18 years with 15% growth! Everyone else is struggling wit\u2026 https://t.co/26iastkbKm
p131
aVMy family is traveling to @japan for #Christmas and #newyears, hope this trend continues upward! #FSIEP https://t.co/1wcFKvgbgY
p132
aVOil climbing past $75 for the first time since 2014.  @joebrusuelas what\u2019s your take on this? #FSIEP https://t.co/mGQn3IRJRO
p133
aVRT @joebrusuelas: NAFTA Modernization: Still working through text which is basically a modest update of NAFTA modernization inside TPP with\u2026
p134
aV@Fidelity is a #FS company that is on the move with its technology investments | #FSIEP | Thanks @TroyMerkel9 for s\u2026 https://t.co/cewkkPnjxg
p135
aVLack of funding to @CFTC forcing them to offer $25,000 buyouts for eligible employees.  These are the folks that wa\u2026 https://t.co/FRi1hcTl6C
p136
aVCongratulations to the 68 new owners of @RSMUSLLP. I\u2019m excited to work with each of them as we continue to\u2026 https://t.co/fGRqrEqvm4
p137
aVNo longer chairman of the board #musk
p138
aVCould we see a NAFTA deal this weekend between #usa and #Canada ?  Sources say we are close.
p139
aVThere has been a lot of chatter recently regarding drinking beer and here is something I came across on\u2026 https://t.co/8skaM4d5f2
p140
aVA nice thought leadership piece from my good friends in our Washington National #tax practice here at @RSMUSLLP\u2026 https://t.co/zoWAhyhQXq
p141
aV#house passes #TaxCutsAndJobsAct  2.0 with a vote of 220-191, #Senate appears busy with other things....such as fil\u2026 https://t.co/hVptaQCRqy
p142
aVRT @CNBC: Congress members ask SEC chairman for clarity on cryptocurrency regulation. https://t.co/UtGbDIVKqi
p143
aVNet inflows into #macro funds continue to exceed other strategies. Demand from investors for these #alternative inv\u2026 https://t.co/GC8vX8WpA6
p144
aVInteresting SALT workaround happening in #Connecticut for #HedgeFund and #PrivateEquity managers. Let\u2019s see how thi\u2026 https://t.co/4CRl5faRYe
p145
aV2/20 still cool in the #HedgeFund industry?  Doesn\u2019t look like it!  Check out this downward trend... 1.4/17 the new\u2026 https://t.co/PMZW6yGebx
p146
aVThe march towards ZERO.  The 2-10 spread this morning around 22 basis points.  #FSIEP https://t.co/jDSDmqGg56
p147
aV#AuditorProud @RSMUSLLP
p148
aVParticipants in the #HedgeFund and #Banking industries should watch the midterms very closely. If #democrats triump\u2026 https://t.co/J7mDvHhJHz
p149
aVRT @joebrusuelas: A look at the updated dot plot through 2021 following a solid if unspectacular Powell presser in which a series of incons\u2026
p150
aV25 basis point increase as expected by the #FOMC
p151
aVWatching the 2 and 10 year treasury spread closely as #FOMC considers an increase in interest rates.  The current s\u2026 https://t.co/PTbxB22hrn
p152
a.