(lp0
VForgot about Kent State.  Today our president is bordering on being a domestic terrorist. https://t.co/LcKIHDuaPE
p1
aV@redpainter1  The white hoods are now the red MAGA hat.  Red for blood. https://t.co/M838Z09A85
p2
aVDodge City More shenanigans to suppress voters and ACLU lost the lawsuit.  Judge claims too close to elections.  I'\u2026 https://t.co/hUMtSaYeOB
p3
aVOh!  You mean the emails and your party\u2019s 50+ times trying to repeal it. Still trying https://t.co/9YN2A1RA1k
p4
aVThere is a caravan coming to all our voting lovations on Tuesday. Better deploy troops. Blue wave is bringing troops.
p5
aVSays the conspicuously absent VP. Tell your boss that. https://t.co/dNTgCpuCTv
p6
aVPeter Roskam Illinois dist 6 i think. Doesnt hold town halls. Votes with Trump 95% of time in a democrat state. Emp\u2026 https://t.co/sQ2JUpUeca
p7
aVMy daughterhad many unexplained conditions such as immune deficiency, unexplainable allergies, gluten intolerance a\u2026 https://t.co/XuWq88redh
p8
aVThis and other reports confirmed my suspicions that people living close to Sterigenics have had many unexplained il\u2026 https://t.co/JVFKhvbt2Y
p9
aVAnother \u201cinvasion\u201d by the Trump family. https://t.co/2kGWitAyGS
p10
aVWhite House Braces for GOP Losses and Staff Exodus  https://t.co/uhjBRuTbyC
p11
aVThen when you wake up and realize that by doing and learning nothing, you have become complicit in the creation of\u2026 https://t.co/4uEBH76WJe
p12
aVUSA can begin the stopping of this global shift away from Democracy. #bluewave #bluetsunami https://t.co/0SbTQi77zg
p13
aVWe allow many hate groups like the KKK to continue to operate.  Ending hate gangs must be one of the highest law en\u2026 https://t.co/hTVa50tjKW
p14
aVTrump on Guns paraphrased:   Guns  have little to do with it.  If there were Guns inside the synagogue ....(insert\u2026 https://t.co/2QYhZJQLRj
p15
aV@jimsciutto @davidfrum Poor baby. It\u2019s so unfair.
p16
aV@politvidchannel And now we are in the twilight zone.
p17
aV@christinawilkie @dcpoll Just a card game to the leader who shown his colors brightly this month.
p18
aVOnly under Trump can we see so much domestic terrorism and Fascism. So much for the law and order presideny.
p19
aV@KassandraSeven @hilaryluros Perhaps that happened in the 2016 election also
p20
aV@Stop_Trump20 Illinois. Will never vote with the Republicans.
p21
aVBlue all the way. We need to get back Congress before it is too late. https://t.co/P0xCBkDoiH
p22
aVRT @politvidchannel: BREAKING: WOW Outdoor clothing company Patagonia endorsed 2 Democrats For Senate \u000a\u000a Rep. Jacky Rosen of Nevada and Sen\u2026
p23
aVRT @politvidchannel: President Obama Should Hold a Rally for Beto O'Rourke at the exact same time of Trump\u2019s rally for Ted Cruz So We can s\u2026
p24
aVYou forgot about ann coulter and the trump mob. https://t.co/kwNtqDWDIQ
p25
aVFlipper playing his games again. https://t.co/uh4uatIKuG
p26
aV@jaketapper Typical republican response. Take a potential symptom and think thats going to solve all of it
p27
aVApplies to Gerrymandering also
p28
aVAmerica is not a place where it is accepted to inhibit voters from voting, especially voters in a district that doe\u2026 https://t.co/dFedyoGke3
p29
aVI threw up watching and listening to this https://t.co/UT3QQxmS9g
p30
aVJust quit already. You have lost all credibility with the games you play. https://t.co/9DZY4xOKWR
p31
aVSays the quitter https://t.co/6e3DDxz3nA
p32
aVThis goes for all ages especially women now. https://t.co/PabSSizupF
p33
aVSix and somtimes a 12 pack https://t.co/n6gOGC0Hrl
p34
aVKavanaugh + #metoo = empowerment for the revolution
p35
aV@hahn_jessie @SenatorCollins The Collins facade is getting old
p36
aV@jimmy_dore If you vote progressive you may be spitting the vote enhancing the swamp. We need to stop the destruction of America
p37
aV@hardball The future: I ruled for something i shouldn\u2019t have.
p38
aV@disasterpastor Stupid is as stupid does. Forest Gump
p39
aV@jimmy_dore @TheDemocrats History shows it is about even. Almost all wars were non partisan.
p40
aV@thehill The American people are tired of you.
p41
aV@maydaymindy9 Why do you listen to fox news?
p42
aV@LauraLitvan She is a breath of fresh air compared to the other Republicans that only vote party line.
p43
aVIt\u2019s a witch hunt. Not fair. No collusion here. https://t.co/WYSc4QesY1
p44
aV@politico @soledadobrien Repubs stick together whether it is destructive to the country or not. Have the 50 been promised quid pro quo?
p45
aV@TimothyKenison @GOP The sheep following the turtle.
p46
aV@hilaryluros I need a brewski.
p47
aV.@SenatorCollins: Brett Kavanaugh would gut our constitutional rights, including abortion access. Mainers deserve better. #StopKavanaugh
p48
aV@GeorgeTakei Forgot the word destruction.
p49
aV@nytmike You can count on Trump attacking  you no matter whether you stay or go.
p50
aVTrump calls Dems con artists.
p51
aV@samstein Shall i start crying now?
p52
aV@GregStohr @tictoc Why use a fake news site?
p53
aV@thehill Not sure who lies more, him or Trump. The party of lies, even fake lies.
p54
aVRT @BethLynch2020: Just a thought, any cop who fails to turn their camera on isn't responsible enough to carry a fire arm or be a cop. And\u2026
p55
aVRT @tictoc: Scientists are stumped by how a deadly pig virus traveled from Africa to China -- the consequences of which could devastate the\u2026
p56
aVFEMA yes. Trump no. https://t.co/vAYOPcVC0C
p57
aVSenator @LisaMurkowski, thank you for standing up for Alaska women. We need you to do it again. Protect our constit\u2026 https://t.co/Gkvf84AVAu
p58
aV@LauraLitvan Where are the rest of you Dems?  We don\u2019t need to become the party of cowards also.
p59
aV@MelissaRyan @jljacobson #NoMore     Enjoy the few months left you have in office.
p60
aVThey should have thrown them back at Trump. Huge insult but he has no clue what he did wrong. https://t.co/VjmAmYKrw2
p61
aVAnyone ready to come out of the swamp yet? https://t.co/XSL1x7ch1F
p62
aVYou are soon to be history at FEMA https://t.co/8VX2u7tsdC
p63
aVGoid to know you are now following obamas plans. https://t.co/WwOmVdlZk4
p64
aVBullying is not tough https://t.co/L8g7slMiuq
p65
aVAlways resist when they say " a new world order"  It's never good. https://t.co/VWMkWLXYaa
p66
aVDon't worry Trump will keep us safe like he did with Puerto Rico. https://t.co/gviYLTEXDH
p67
aV@GeorgeTakei And you never know which way it will go next
p68
aV@politvidchannel Up 32% and increase of $222 Billion.  This is Trumps idea of a strong economy.
p69
aV@Feminist_af_13 Use the old " I know you are but what am I"
p70
aVOur administration wants Internment camps.  Let the administration be the first residents.  Give us a status update in 3 months.
p71
aVRT @AynRandPaulRyan: \U0001f6a8EXTREMELY important thread about how Paul Ryan's CLF PAC is ratf*cking @BlueWaveCS endorsed candidate, @SpanbergerVA0\u2026
p72
aV@thehill Potential upcoming headline \u201cwhite house takes down Trump\u201d
p73
aVI amgoing to subscribe to the \u201cfailing New York Times\u201d so i can keep tabs on how bad \u201cfailing Donald Trump\u201d is failing.
p74
aV@thehill Didn\u2019t take you long after McCain to show your true colors.
p75
aVYou can\u2019t be breathing without never calling him an idiot https://t.co/pazhhwth5e
p76
aVReminds me of burning Beatles records and memoravilia. Imagine if you had them now https://t.co/wUGLGf5fKD
p77
aVSo short after John McCains passing and the Repubs go back to their 100% partisan politics (assuming 100%) https://t.co/RUtSXgmwb2
p78
aV@Kokomothegreat I almost threw up listening to his manipulation of facts and lies. Lying Ted lives up to his reputa\u2026 https://t.co/zAXW7t6htA
p79
aV@joshtpm @WheelTod If the conservatives represent the majority of the people you would not have lost most members of your party.
p80
aV@RepSwalwell @maddow Why doesn\u2019t more people call this big baby out when he has his temper tantrums. Answer:  becau\u2026 https://t.co/SK8Dm0LpPR
p81
aV@KuesterDonna @KatrinaPierson @realDonaldTrump @POTUS Hypocrisy has no bounds
p82
aV@KatrinaPierson @realDonaldTrump @POTUS @katrinapierson. Some may never recover and that list gets larger every hour.   But karma is coming.
p83
aV@agada1 @Curious_Chak @ktumulty @SenJohnMcCain Get your facts straight and challenge the bs coming from faux news.
p84
aV@thehill The quality of their pizza is what hurts
p85
aVRT @SenKamalaHarris: Retweet if you:\u000a\u000a-Have a pre-existing condition\u000a-Love someone with a pre-existing condition\u000a\u000aThe fight over Kavanaugh\u2019\u2026
p86
aVRT @freddyatton: What grade do you give @realDonaldTrump\u2019s presidency? Please retweet to get a wide sampling.
p87
aV@navymomkelly @mlwag1 @jeneps @CNN And vice versa
p88
aV@natureofthings7 Did anyone really expect Any substantial action from this empty suit?
p89
aV@HillaryGuess @jimmy_dore @caitoz Since 1900, 35 conflicts have been launched by Republican administrations compare\u2026 https://t.co/902cCGxX1P
p90
aV@thehill Can a lawyer act in a way that includes him in Trumps collusion?
p91
aV@ABCPolitics Coming fr
p92
aV@thehill Too late
p93
aVNext is a birth certificate. https://t.co/KmmFgj2vqd
p94
aV@Molly3186 How much Gold will be used?
p95
aVWhat\u2019s good for the Goose is good for the Gander. https://t.co/V4ndTWTvov
p96
aV@triumph07 @morningmika @JoeNBC He puts out his crap everyday. He deserves ridicule.
p97
aV@JamesGunn @ReasonAwareness Government paid sushi
p98
aV@BarbaraBoxer Not just crooks but also destroyers of Our Democracy
p99
aVRT @ShaunKing: This police officer in Lancaster, Pennsylvania should be fired immediately. After he is fired, the District Attorney should\u2026
p100
aVTazer on the ground with multiple cops is uncalled for. But perhaps Payback for parking in a disabled spot. The iro\u2026 https://t.co/ejrxmRuGMl
p101
aV@MichaelAvenatti @seanhannity @TuckerCarlson Another psychotic breakdown
p102
aV@Nataya @KatyTurNBC #turbulence
p103
aV@washingtonpost It\u2019s the Trumps way
p104
aVRT @SenJeffMerkley: I was barred entry. Asked repeatedly to speak to a supervisor\u2014he finally came out and said he can\u2019t tell us anything. P\u2026
p105
aVAnd DT\u2019s tax returns https://t.co/xMzYPd2gk8
p106
aV20M is a small price to pay for investigating the cascading criminal abuses by DT and his cronies. https://t.co/8m8AZIbVJF
p107
aVNo person that i know claims to be a recipient of lower taxes. Maybe because i dont know any CEO\u2019s or wall street h\u2026 https://t.co/fTcEj2IxW1
p108
aV@davidfrum Stupid is as stupid does
p109
aV@CAPAction And followed by an increase in fees
p110
aV@davidfrum A system of power that allows and protects him regardless of blatant abuses of power.
p111
aV@edshow Middle class was 30K-80K.  Romnesia redefines it 200-250K or less. Will he redefine "life,liberty and the pursuit of happiness"?
p112
aV@MittRomney What do you plan on doing to make it easier for women?
p113
a.