(lp0
VRT @JBPritzker: 14 of our nations heroes and their spouses died after getting sick from Legionnaires at the Quincy Veterans\u2019 Home, a crisis\u2026
p1
aVRT @JBPritzker: This campaign is about fighting for our values. Juliana and I have fought for what\u2019s right our entire lives and that won\u2019t\u2026
p2
aVRT @JBPritzker: I\u2019m honored to have received the endorsement of the @suntimes editorial board. We are one Illinois and as governor, I will\u2026
p3
aVRT @JBPritzker: With Brett Kavanaugh\u2019s confirmation, we need unwavering leaders in Springfield who are committed to protecting women\u2019s righ\u2026
p4
aVRT @JBPritzker: This weekend, I was proud to stand alongside many strong women and allies at the Women's March to the polls. We need a gove\u2026
p5
aVRT @DickDurbin: Glad to join @SEIULocal1 @SEIU73 &amp; @SEIUhciimk to get out the vote for @JBPritzker! https://t.co/XVor8L3EJJ
p6
aVRT @JBPritzker: Today is the last day to register to vote online! You don\u2019t want to be left out of this election. Register and make sure th\u2026
p7
aVRT @JBPritzker: Voting early is easy, and you can vote on your schedule. Skip the lines on Election Day and vote anytime between today and\u2026
p8
aVRT @JBPritzker: This race is deeply important because our values are on the ballot - Make sure you\u2019re ready to stand up against Bruce Raune\u2026
p9
aVRT @JBPritzker: Come help #TeamJB get out the vote for our last Weekend of Action!\u000ahttps://t.co/UknSGj5Tm4
p10
aVRT @JBPritzker: The support of @LUnderwood630 means so much to me and Juliana. Lauren\u2019s a tireless leader who will fight for Illinois\u2019 fami\u2026
p11
aVRT @JBPritzker: One year ago today I gained an invaluable partner. @JulianaforLG brings energy, passion, and fun to our campaign every day,\u2026
p12
aVRT @KwameRaoul: November 6th is an emotional day for me. It's the day 15 years ago I lost my father to cancer. 14 years ago, it was the day\u2026
p13
aVRT @JohnsonforIL: IL House 65th District Map:\u000ahttps://t.co/c02aBudWrZ
p14
aVRT @JohnsonforIL: The confirmation of Brett Kavanaugh by our senate is nothing short of shameful. A nominee that has committed these acts h\u2026
p15
aVRT @JohnsonforIL: I had a great time at the Tri-Cities Democrats Potluck Picnic today. So inspiring to see so many people out supporting th\u2026
p16
aV@ezralevin @JohnsonforIL i,m so asamed of him ! even an ignorant man must realize and respect that he would not esist without WOMEN.   \u000a\U0001f60e\U0001f60e
p17
aV@JohnsonforIL Oh ! yes i have #2
p18
aVRT @EQILPAC: Howdy @KaneDems, we saw your tweet &amp; just want to share that the Equality Illinois PAC proudly supports @JohnsonforIL for Stat\u2026
p19
a.