(lp0
VRT @chelseahandler: This video is fucking awesome. https://t.co/8burXtqB6j
p1
aVRT @EdwardGLuce: The most effective thing Americans can do is boycott companies that advertise on Fox. They bankroll the poison that goes f\u2026
p2
aVRT @AJentleson: Trump is not a la carte. You don\u2019t get to pick what you like about him - like judges &amp; tax cuts - and pass on the hateful,\u2026
p3
aVRT @SarahKSilverman: Dogwhistle reminder that these words used by our openly Nationalist President are winks to the alt right:\u000aSoros = The\u2026
p4
aVRT @RonWyden: I am demanding answers from the White House about @realDonaldTrump\u2019s use of Air Force One for political purposes. American ta\u2026
p5
aVRT @roblee4: My response to @realDonaldTrump and his comments last night about my collateral ancestor, Robert E. Lee. https://t.co/ISw6nMsp\u2026
p6
aVRT @Sifill_LDF: Thank you @maddow for lifting up voter suppression of Prairie View students. Our client in our challenge to Tx\u2019s voter I.d.\u2026
p7
aVRT @moecoco12: Taking my newborn daughter go knock on doors for @BetsyforIL tomorrow - first time canvassing! Central Illinois deserves som\u2026
p8
aVRT @maddow: Why can't he discuss whether the scope of the investigation included whether Kavanaugh lied to Congress in his testimony? Can t\u2026
p9
aVRT @HamillHimself: Read every word of this message from @taylorswift13 If even a fraction of her 83.5M followers go to https://t.co/sbOmiO5\u2026
p10
aVRT @kylegriffin1: Heidi Heitkamp defends her vote against Kavanaugh in a new campaign ad: "Honestly I don't think he told the truth. And ev\u2026
p11
aVRT @krassenstein: BREAKING:  Christine Blasey Ford has just been nominated for the Distinguished Alumna award at her alma mater, University\u2026
p12
aVRT @fivefifths: A movement that describes itself as predicated on protecting the lives of the unborn claims today as a watershed moment, ye\u2026
p13
aVRT @Noleli: Red America may have more guns, but Blue America has more economic power. Sanctions are preferable to a civil war.\u000a\u000aBut in orde\u2026
p14
aVRT @staceyabrams: Georgia: Tuesday is the last day to register to vote.\u000a\u000aThis matters. \u000a\u000aYour voice matters. #gapol  https://t.co/lClnYYPro6
p15
aVRT @ChuckModi1: Thought he\u2019d just focus on Kavanaugh. Instead he gave best response on rape culture I\u2019ve ever heard from a man! \u000aI aspire t\u2026
p16
aVRT @ashleyn1cole: 18-29 year olds, do you really want the people 65+ to make your decisions for you? These are the people demanding you exp\u2026
p17
aVRT @Amy_Siskind: Lindsey Graham is up for re-election in 2020.  I will write a check to whichever Democrat can take him down, and I know I\u2026
p18
aVRT @SethAbramson: (THREAD) Tonight's revelation that Kavanaugh knew of allegations of sexual assault against him by Deborah Ramirez months\u2026
p19
aVI\u2019m collecting dreams or nightmares people had after the Kavanaugh/Blasey Ford testimonies. Even if you don\u2019t think\u2026 https://t.co/jLyCdRfNaz
p20
aVRT @ezraklein: If Kavanaugh believe he is wrongly accused, which is possible whether or not he is, I understand his fury. But the job he wa\u2026
p21
aVRT @coldxman: 3. From what I can see, Ford has behaved (more or less) exactly the way I\u2019d expect an honest, non-opportunistic victim to beh\u2026
p22
aVRT @Alyssa_Milano: I will say this...if a woman were to yell, interrupt and cry while being questioned, people would call her unhinged or s\u2026
p23
aVRT @7im: we're seeing a 53 year old man facing a consequence for the first time.
p24
aVRT @juliebux: This is a masterclass in what is acceptable behavior for men (yelling, tears, being indignant) and not ever acceptable for wo\u2026
p25
aVRT @KristinMinkDC: Whoa. Mitchell told Ford that this Judiciary Cmte, hearing broken into 5-minute increments, in public forum, is a bad wa\u2026
p26
aVRT @BlackProfessor: @LindseyGrahamSC Kinda like how thousands of kids continued to go to church regardless of what their pastor had done to\u2026
p27
aVRT @emilymbadger: When Sonia Sotomayor was nominated, there was much talk of how her working-class Bronx background might inform her worldv\u2026
p28
aVRT @OMGno2trump: UNBELIEVABLE:  Yale Law School has just cancelled classes so that students can protest Kavanaugh's nomination.  Yale is a\u2026
p29
aVRT @LUnderwood630: Delighted and honored to have the endorsement of @JoeBiden in the race for #IL14! https://t.co/pxFMLaNbKu
p30
aVRT @JackTorres00: We walked out today because NOT all high school boys are rapists like #Kavanaugh and because, unlike the gop senate, we #\u2026
p31
aVRT @rtraister: Much of defensive reaction I\u2019m seeing around Kavanaugh (&amp; not just from the right) suggests that lots of people think a regu\u2026
p32
aVRT @KailiJoy: A woman is trying to protect us from putting an attempted rapist on the Supreme Court, and she\u2019s going to be destroyed for it\u2026
p33
aVRT @ashleyfeinberg: kavanaugh\u2019s friend (mark judge) appears to have deleted his youtube page since i took this screenshot https://t.co/DBR8\u2026
p34
aVRT @CoreyRobin: If Kavanaugh is confirmed, that means every 5-4 opinion authored by the Court's conservative majority will include two men\u2026
p35
aVRT @BeschlossDC: Constitution of the United States was signed at Philadelphia today 1787: https://t.co/TrhkpmabYN
p36
aVRT @tribelaw: Anyone recall who hand-picked Pence as Trump\u2019s VP? Paul Manafort. And recall who led the squirrely transition? Mike Pence. Wa\u2026
p37
aVRT @emilynussbaum: Maybe stop using the word \u201cmeddling\u201d for theft, fraud and international espionage.
p38
a.