(lp0
VGm to everyone except Michigan Department of Environmental "Quality" who just approved Nestle to almost double the\u2026 https://t.co/mcm80uPxuR
p1
aVRT @ActionBronson: WHITE BRONCO https://t.co/ABAA2sxcPO
p2
aVRT @tonyhawk: @silenthooper I appreciate the hesitation though
p3
aVRT @jdotlarge: jawny azoff https://t.co/rXrxm72HZ7
p4
aVRT @kennybeats: lil terrio will not stop threatening me dawg I\u2019m bout to find his ass https://t.co/oUZ8Alk8Xy
p5
aVRT @ActionBronson: WHITE BRONCO TMRW AT MIDNIGHT!!!!!!!!!!!!!!
p6
aVRT @USGSstore: It's #FreeMapMonday! Retweet and follow us for a chance to win the Geologic Map of the North Cascade Range! #USGSStore (U.S.\u2026
p7
aV@mathennarrow_ We were walking together and saw some cornball dean hold Jose by his neck against the wall lmao
p8
aVRT @Popehat: Imagine if there had been 3 attacks this week by Islamic extremists, or some Left group, with 13 deaths in America. Imagine th\u2026
p9
aVRT @Wu_Tang_Finance: @elonmusk https://t.co/U57Nw0WXej
p10
aVSay if there was a thousand of us do u think they could stop us from eating jeff bezos like there's a thousand of us there's no way
p11
aVRT @nathanfielder: @diplo so the party was better than expected
p12
aVRT @dvergano: EPA's #climate change page changed from "being updated" to nobody home. -- https://t.co/VdkXKBipoW https://t.co/fH0jsVBZIu
p13
aVRT @theneedledrop: And there ya go: https://t.co/9YSgiWREc8
p14
aVSend ur girl to my place on a suicide mission like Chernobyl cuz this mass bout to go super critical \U0001f624\U0001f624\U0001f631\U0001f631\U0001f608\U0001f608\U0001f440\U0001f440\U0001f440
p15
aVMarcos fucked his little sister's teacher lmao what the absolute fuck was that
p16
aVRT @USGSstore: It's #FreeMapMonday! Retweet and follow us for a chance to win the Earthquakes &amp; Faults of Southern California product! #USG\u2026
p17
aVRT @USGSstore: It's #FreeMapMonday! Retweet and follow us for a chance to win the Earthquakes &amp; Faults of Southern California product! #USG\u2026
p18
aVRT @vincestaples: You know them tweets everybody send out insinuating they got new music ? This one of those.
p19
aVRT @lilmissmilk: my fatass thought this was Diorite   the igneous rock composed of the silicate minerals plagioclase feldspar biotite hornb\u2026
p20
aV|\uffe3\uffe3\uffe3\uffe3\uffe3\uffe3\uffe3\uffe3\uffe3\uffe3\uffe3|\u000a  WE'RE GONNA RUN\u000a  OUTTA WATER WAY\u000a  BEFORE CLIMATE \u000a  CHANGE FUCKS US UP\u000a|\uff3f\uff3f\uff3f\uff3f\uff3f\uff3f\uff3f\uff3f\uff3f\uff3f\uff3f|\u2026 https://t.co/Ab5pMdnp7R
p21
aVRT @Dr_TacoMD: when i win this powerball im gonna hunt dan bilzerian for sport
p22
aVRT @BarstoolBigCat: Diesel https://t.co/NKoMnq8bA9
p23
aVRT @ActionBronson: PRINCE CHARMING***** OUT EVERYWHERE NOW https://t.co/HvF7VaGacC #WHITEBRONCO
p24
aVRT @PFTCommenter: |\uffe3\uffe3\uffe3\uffe3\uffe3\uffe3\uffe3\uffe3\uffe3\uffe3\uffe3|\u000a         The NFL still\u000a     hans't suspended\u000a        OJ Simpson\u000a|\uff3f\uff3f\uff3f\uff3f\uff3f\uff3f\uff3f\uff3f\uff3f\uff3f\uff3f| \u000a                \u005c (\u2022\u25e1\u2022) /\u2026
p25
aVRT @ActionBronson: FUCK THATS DELICIOUS IS FOREVER BITCH. I OWN ALL RIGHTS. I CREATED IT.
p26
aVRT @ActionBronson: WHITE MOTHERFUCKING BRONCO NOVEMBER 1st EVERYWHERE. FUCK A LABEL.
p27
aVRT @ActionBronson: YOU WEIRDO MOTHERFUCKERS ARE LUCKY TO HAVE EVER BEEN IN MY PRESENCE. FUCK YOU AND ALL YOUR BULLSHIT. ILL TAKE MY TALENTS\u2026
p28
aVRT @chancetherapper: City Hall pull up https://t.co/RO31aO9bPI
p29
aVRT @USGSstore: It's #FreeMapMonday! Retweet and follow us for a chance to win the North America Tapestry of Time &amp; Terrain! #USGSStore (U.S\u2026
p30
aVRT @USGSstore: It's #FreeMapMonday! Retweet and follow us for a chance to win the North America Tapestry of Time &amp; Terrain! #USGSStore (U.S\u2026
p31
aVRT @chancetherapper: Im thinkin maybe I should
p32
aVRT @LILBTHEBASEDGOD: Who more thick Kanye or trump - Lil B
p33
aVThis Tweet from @JSandersChicken has been withheld in: United States.
p34
aVI wish there was an edit button cuz I realized I forgot Remy and that rat is better than those dumb white ladies
p35
aVOk fr fr if we're ranking celebrity chefs it goes like this:\u000a1. Isaac Toupes\u000a2. Action Bronson and Meyhem\u000a3. J Kenj\u2026 https://t.co/eeqqXqvvsL
p36
aVRT @failingupwards: diving dick first into this jonah ep #soakszn - https://t.co/CsCFEbsyaa\u000a\u000ahttps://t.co/wuOR6qtzzf
p37
aVRT @SenatorDurbin: The Republican Party is the only major political party in the world that doesn\u2019t accept the science on climate change. T\u2026
p38
aVRT @AndersonPaak: 11.16.18 #Oxnard https://t.co/aSsd68VrSS
p39
aVYour boy is officially a geology major https://t.co/BC9tGdL4m7
p40
aVRT @KateAronoff: Scared by that new report on climate change? Here's what you can do to help:\u000a\u000a\u2022 Seize the state\u000a\u000a\u2022 Bring the fossil fuel i\u2026
p41
aVRT @failingupwards: THURSDAY. https://t.co/NMvbmaBKQ5
p42
aVRT @washingtonpost: The world has barely 10 years to get climate change under control, U.N. scientists say https://t.co/kYW75kYZeM
p43
aVTattoo girls are the new horse girls dont @ me
p44
aVRT @vincestaples: &amp; no I am not high I have never been under the influence of anything except Cripping my entire life and if you\u2019re eating\u2026
p45
aVRT @fawfulfan: Reminder: even before this cop shot Rice, he was forced out of another police department because he lost his temper on the f\u2026
p46
aVRT @mathennarrow_: @cesayiawnkis your ex is a dick lol https://t.co/KgZ6vpYnve
p47
aVRT @REALpunknews: Andrew W.K Releases His Calendar From 1982 to Prove He Was at Every Party https://t.co/PdBebom2c2
p48
aVRT @kevinabstract: I am a black man https://t.co/1eQ1V2XzKt
p49
aVRT @Rico_nastyy: Rare . https://t.co/N714oS5eFr
p50
aVRT @zackfox: anybody can be racist sure but y\u2019all been winning the championship every year since 1492, y\u2019all are the Harlem globetrotters o\u2026
p51
aVRT @tylerwatamanuk: zedd getting dunked on by the "mo bamba" producers is GOLD https://t.co/OIEzqp8yMv
p52
aVRT @Dr_TacoMD: trump got rejected from raya
p53
aVRT @BarstoolBigCat: Arenado should be happy he got a hug from the MVP
p54
aVRT @SenDuckworth: Who\u2019s going to tell him? https://t.co/5mpQCt6Obe
p55
aVRT @bycycle: Brockhampton is taking over \U0001f64c https://t.co/1AtIOyZrHm
p56
aVOk what the fuck there was only like 2 questions on A'a lava flow smh call me an A'a lava flow cuz I'm irrelevant
p57
aVCall me an A'a lava flow cuz on the surface im cool but underneath it's actually hot heavy n turbulent hahahaha I h\u2026 https://t.co/XK8queKd3D
p58
aVToday's episode is brought to you by our friends at For Hims https://t.co/CV1txqm2HS
p59
aVRT @Rico_nastyy: Lalalalallalalalaa \U0001f3b9 @kennybeats https://t.co/dMed8rU6Tx
p60
aVRT @nathanfielder: Me learning about Devil's Triangle for the first time https://t.co/w9xAsPOixf
p61
aVis Mo Bamba a P.E.D
p62
aVRT @chartdata: US chart report (via @HITSDD): @brckhmptn's 'iridescence' debuts #1 with 106k units.
p63
aVhey girl are you a fossil fuel cuz i wanna scoop you up and develop a long lasting relationship until i realize ur\u2026 https://t.co/fbz8Hy2hbd
p64
aVRT @jbendery: Whoa--the American Bar Assn just delivered a letter to Grassley/Feinstein urging them to hold off on a confirmation vote for\u2026
p65
aVRT @BarstoolHubbs: \u201cI will murder all of you if this escalates to a brawl\u201d https://t.co/eLVNkvuUeT
p66
aVRT @Wu_Tang_Finance: For real tho, support locally owned authentic restaurants fam. Otherwise you stuck with salmon vanilla poisoning.
p67
aVRT @BurgerKing: |\uffe3\uffe3\uffe3\uffe3\uffe3\uffe3|\u000a|                      |\u000a|    LOOK        | \u000a|    DOWN       |     \u000a|                      |\u000a| \uff3f\uff3f\uff3f\uff3f\uff3f_ | \u000a(\u005c__/) ||\u2026
p68
aVRT @blondedocean: Moon River music video directed by Spike Jonze coming soon. https://t.co/j5YVK1CPmJ
p69
aVRT @chancetherapper: Look at this line up \U0001f629 #MCD https://t.co/BGsP2nSUkI
p70
aVRT @talldrankawata: Y\u2019all remember 2 yrs ago when Chance brought the livest concert I\u2019ve ever seen to the south side?  Cuz SAMEEE @chanceth\u2026
p71
aVRT @Wu_Tang_Finance: Kava- https://t.co/cyasM3I6D9
p72
aVRT @brockhamptonfp: Spotify calls BROCKHAMPTON "Arguably the greatest boyband in history" on their New Music Friday playlist. https://t.co/\u2026
p73
aVRT @SartoriallyInc: supreme tees are like baseball cards for dudes who have even less sex
p74
aVIllinois TV rn:\u000a\u000a"JB PRITZGER the PORCELIN PRINCE removed ALL his TOILETS fer TAXES what a BILLIONAIRE LOSER (vote\u2026 https://t.co/3M06Uubbbz
p75
aVRT @kevinabstract: @theneedledrop sending love big dog
p76
aVRT @bearfaceington: stream iridescence or die
p77
aVRT @BarstoolBigCat: Bears Are Back https://t.co/SJWEAlqByN
p78
aVRT @pattymo: https://t.co/OtUf9s3H0L
p79
aVRT @brckhmptn: IRIDESCENCE OUT NOW\u000a\u000ahttps://t.co/6IWb80VKuU https://t.co/I8LAEzaKfm
p80
aVRT @BurgerKing: \U0001f43b\U0001f451 https://t.co/kGdlneV6zh
p81
aVRT @merlynwood: JOBA on J\u2019ouvert &gt;&gt;&gt;&gt;&gt;&gt;&gt; \u000aEverything else by anybody this year
p82
aVRT @brckhmptn: BROCKHAMPTON - J\u2019OUVERT\u000a\u000ahttps://t.co/NfJqPS40ty
p83
aVRT @failingupwards: heard the general release god was tryna smite u holler at us if u need any best practices diddy kong @BarstoolNate
p84
aVRT @SartoriallyInc: kneeling in front of the army navy surplus store not to make a political statement but because they sold out of carhart\u2026
p85
aVRT @ComfortablySmug: Drinking milk by the glass is completely disgusting. Who the hell does that
p86
aVRT @_HoboJohnson: we played tiny desk. thanks bob. https://t.co/kdN9ohUqcQ
p87
aVRT @theneedledrop: Only a few more days til Iridescence.\u000a\u000aWhat\u2019s your cum level?
p88
aVRT @failingupwards: THURSDAY. https://t.co/SdZC2Lu7Wv
p89
aVRT @radleybalko: Last year, Mississippi cops served a wararant on the wrong house, shot the family dog, then shot a Latino man dead in his\u2026
p90
aVRT @noname: "why does she rap so soft all the time, I can't hear shit she sayin"\u000a\u000aI make lullaby rap music.
p91
aVRT @zackfox: https://t.co/Hr6Cr2Nhqq
p92
aVIf you drink milk as an adult you're a brokeback bitch I'm sorry that's what it says in the constitution https://t.co/Qqrnnikj9o
p93
aVRT @Rico_nastyy: Don\u2019t call me a bitch. For one . For two im aware of the food ur talking about but this tastes Different then that . Move\u2026
p94
aVRT @danozzi: Liam Gallagher's response to the Beatles masturbation story is perfect. https://t.co/pXk2Kh3YR2
p95
aVRT @BarstoolBigCat: I asked a very important question on today's show. At what point do sports stop impacting your happiness? https://t.co/\u2026
p96
aVRT @YUNGBANS: Y\u2019all know damn well Russ ain\u2019t beat my ass.. FUCK RUSS https://t.co/XtYQhCneeU
p97
aVRT @brckhmptn: MERCH DROP 01\u000a\u000ahttps://t.co/hW7QOs9hXO
p98
aVSO HOW ABOUT BASEBALL RIGHT WISCONSIN SUCKS AT BASEBALL RIGHT THEY CANT RUIN THAT RIGHT RODGERS CANT HIT FOR SHIT HAHAHA AMIRTIE
p99
aVRT @BarstoolBigCat: I hate Football so much. What\u2019s even the point?
p100
aVRT @yunghawtebony: Bruh and he never said nigga
p101
aVSome people workout to impress their sexual partners\u000a\u000aSome do it to stay healthy\u000a\u000aOthers workout to push themselves\u2026 https://t.co/fGdV1otffD
p102
aVRT @chancetherapper: U gotta have a overflowing hate in your heart to burn something in protest. shoes, cross, flag or effigy. Like an engu\u2026
p103
aVRT @shaunking: BREAKING: After charging this young man, 21 y/o Raheem Howard w/ the 1st degree attempted murder of a police officer, the DA\u2026
p104
aVLook at Mr popular over here who's friends will actually talk to him without the threat of losing a streak https://t.co/vlLRoJvXwh
p105
aVYou can achieve anything if u believe https://t.co/lu0JjGjUw4
p106
aVRT @Popehat: did you know that through various subsidiaries and affiliates Nike manufactures like 99.5% of seat belts
p107
aVRT @KrangTNelson: [extremely Fox News grandparent voice] well I certainly will not be buying any more Air Jorbans
p108
aVRT @conner_omalley: Happy Labor Day https://t.co/EroZrQ27S4
p109
aVThis is the type of targeted advertising I wanna see https://t.co/8Dgif0zwAv
p110
aVBroke: new rap has no content or lyricism and is just hard beats\u000a\u000aWoke: TPAB has content and lyricism\u000a\u000aWokith: "my\u2026 https://t.co/dHoj8TZOSl
p111
aV"who do u kno here" https://t.co/4vXMpnIgg3
p112
aVRT @SartoriallyInc: sorry i hate eminem but i had a wonderful childhood
p113
aVOh thank God https://t.co/kErGdj9Me2
p114
aVRT @DomMcLennon: Also whoever invented the term mumble rap did a great job at giving old white people a new way to discredit and dismiss yo\u2026
p115
aVRT @ErickFernandez: This is so gross and the level of racial profiling going on here will make your blood boil.\u000a https://t.co/XRV116dayV
p116
aVIf ur in a frat you cant vote im sorry but it's the law
p117
aVRT @failingupwards: \U0001f5e3 it's the craigslist ad that launched a thousand would-be sugar mommas\u000a\u000a\U0001f464 @WazDOPE \u000a\u000a\U0001f50a https://t.co/i9dvEQkDRZ https:/\u2026
p118
aVRT @oneunderscore__: lol incredible https://t.co/QN4QSjq71K
p119
aVRT @Wu_Tang_Finance: CREAM GET THA MONEY, AND REINVEST IN PROFITABLE ENDEAVORS AND RAISE WAGES JK BUYBACK SOME EQUITY AND COMPENSATE YALLS\u2026
p120
aVRT @Wu_Tang_Finance: WE MEN HAVE AGENCY AND WILL NOT BE SHAMED INTO ADHERING TO YO ARCANE FASHION EXPECTATIONS NO LONGER https://t.co/OQZEQ\u2026
p121
aVRT @Popehat: Maybe he didn't sue you because your petty, cretinous swipe at him was hyperbole, insult, and toolbag buffoonery, not a provab\u2026
p122
aVRT @Rulxx_r: When Chief Keef said \u201cI think my chopper gay I pulled him out the closet\u201d https://t.co/hoEDjwQ2UX
p123
aVRT @brckhmptn: https://t.co/6UmWXDggQb
p124
aVCan someone pls explain Hobo Johnson to me like I dont get what he does I dont know man
p125
aVRT @goofoffartiste: This is weird; despite being vegan &amp; commuting 95% by bike and public transit for almost 20 years, the air is lung-sear\u2026
p126
aVRT @SenDuckworth: The Dept of Interior hired a high school friend of Ryan Zinke's w/ no relevant experience to oversee the grant process &amp;\u2026
p127
aVRT @lexi4prez: count the conservatives who politicize Mollie Tibbett\u2019s murder and yet conveniently ignored Nia Wilson (a young black woman\u2026
p128
aVRT @Rico_nastyy: NOW WHEN MY NIGGA ON THE GAME HE CAN LISTEN TO ME HAHAHAHA Thank u NBA LIVE \U0001f389\U0001f389\U0001f389\U0001f389\U0001f389\U0001f389\U0001f389For Making me A Part of This https://t.\u2026
p129
aVRT @TheOnion: Obama Endorses Not Doing Goddamn Thing To Fix Illinois In Midterms https://t.co/fyio8rHk30 https://t.co/jwOwjUkcDS
p130
aVRT @BarstoolBigCat: \u201cHaha Dogs are so dumb\u201d  \u000a\u000a-Me, guy who yells BALL after every fumble and WATCH OUT whenever someone comes around the e\u2026
p131
aVBiggie said "Allow me to lace these lyrical douches in your bushes" and we just like\u000a\u000aLet it happen?
p132
aVRT @ColeyMick: Someone shoot G-Easy with a crossbow in broad daylight
p133
aVRT @x__ciara__x: oh no :( popular music is an ever changing medium that responds to trends in audience and culture :( i was born in the wro\u2026
p134
aVRT @fatherlyjada: Rico nasty with kids is the funniest thing https://t.co/hA71H5N305
p135
aVRT @BillRatchet: how long u think kodak bout to be out of jail for
p136
aVRT @nickschadegg: i just made a citizens arrest. cop twitter has been apprehended https://t.co/4vncLd6QiI
p137
aVRT @failingupwards: @stoolpresidente @TheCousinMike this man nutted in ur mom legends truly beget legends
p138
aVRT @chancetherapper: \u201cTHIS NIGGA LOVE GOD\u201d https://t.co/5bPgyb66Ct
p139
aVRT @erik_anson: .@failingupwards @Four_Pins https://t.co/wHoS3jtCmJ
p140
aVcall me the Maillard reaction cuz ur boy crispy af
p141
aVRT @KrangTNelson: lol just give the money to charity you enormous weirdos. you could just do that without being a weird stalker abt it http\u2026
p142
aV@mathennarrow_ Nah man it was Ligma '09 we all had puma
p143
aVRT @kanyeitan: https://t.co/AqIJ7ZgBSW
p144
aVRT @Dr_TacoMD: fuck ur supreme post this is the only capital j journalism that matters today https://t.co/374T0GxPT9
p145
aVGod King Steve Cook https://t.co/RNBcPX0Uje
p146
aVRT @Popehat: Ben, you aim to showboat and illustrate the fragile silliness of her economics. She\u2019s a isolated socialist in a safe Dem distr\u2026
p147
aVIf I dont get a black eye at this Rico Nasty show tonight I want my money back
p148
aVRT @RampCapitalLLC: Too soon? $TSLA https://t.co/FGa5PXodsM
p149
aVIf I see another striped Guess Jeans tshirt with those soft ass colors I will hatchet myself in the forehead
p150
aV"voTe FOr mE IM petER ROSkam meh meh meh" https://t.co/r7jwRTPlbg
p151
aVRT @ADiaz456: Only cornballs https://t.co/ncN9k5rbNc
p152
aVRT @Hdmii1: https://t.co/veXwZAxNJn
p153
aVRT @andyonhere: Well here\u2019s Eric Andre with Death Grips wearing what I think is a \u201cPee Is Stored In The Balls\u201d Joy Division shirt https://t\u2026
p154
aVRT @henocksileshi: thx lollapalooza https://t.co/lZi8bL5P3N
p155
aVThere's a booth at lollapalooza that's swabbing for cancer imagine finding out you have cancer at fucking lolla fuck
p156
aVRT @Wu_Tang_Finance: ALCOHOL IS THE SAME AS GROCERIES FOR 20% OF THE POPULATION https://t.co/zqISl8hQCX
p157
aV@Dr_TacoMD Get in a car wreck and die lit, kinda
p158
aVRT @stereogum: Frank Ocean and @PlayboiCarti have recorded five songs together https://t.co/MZGrAyVYbL https://t.co/Ao2bcKNke0
p159
aVRT @suzytokarski99: i hope @JonahHill is having a phenomenal day
p160
aVRT @Do312: FLASH GIVEAWAY: We just found an extra pair of #Lolla 4-Day GA tickets. Follow us and retweet for a chance to win!* https://t.co\u2026
p161
aVRT @Dr_TacoMD: *extreme blink182 voice*\u000a\u000awhere are https://t.co/3To3n99dwr
p162
aVRT @333333333433333: people who wear fanny packs as shoulder bags are insecure ethically bankrupt social climbers
p163
aVRT @Rico_nastyy: Chicago sold out \U0001f525\U0001f525\U0001f525\U0001f525\u000aSee you aug 9th
p164
aVRT @alyssavingan: New York\u2019s City Merchandise is suing Balenciaga for copyright infringement and my tweet is in the formal complaint lmaooo\u2026
p165
aVRT @charliefranc0: i told justin bieber and hailey baldwin that in high school my friends and i would have to speak in code over text and c\u2026
p166
aVRT @Popehat: @BillOReilly You should probably work on your protocol for asking journalistic questions like \u201cwill you please touch my dick.\u201d
p167
aVRT @kevinabstract: NEW BROCKHAMPTON VIDEO SPREAD THE WORD SHOW EVERYONE YA KNOW  https://t.co/1Clbi1Sk7c
p168
aVRT @jiandeleon: Waiting for a @failingupwards fan to show up at an ICE protest with a \u201csupport the homies not deport the homies\u201d sign.
p169
aVRT @guwop: https://t.co/0idNKvidzV
p170
aVRT @Wu_Tang_Finance: THOSE \U0001f44f ARE \U0001f44f NOT \U0001f44f THE \U0001f44f CORRECT \U0001f44f LYRICS.\u000a\u000aAS SUCH, YOU MUST NOW PROTECT YA NECK https://t.co/H8CKHJkGph
p171
aVRT @theprophetpizza: tired: McCaughany and Zac Efron hanging in tie dye and Hawaiian shirts in the new Harmony Korine \u000a\u000awired: Leo and Brad\u2026
p172
aVRT @PFTCommenter: spelling is 4 ppl who have too many letters in there brains and not enough on there jackets https://t.co/UeREXm4QzQ
p173
aVRT @Wu_Tang_Finance: Girls be like "I'm in delta gamma" baby u aint about this Beta (correlated volatility of an asset) life tho gtfoh
p174
aVTo Iranian President Rouhani: FUCKERS IN IRAN ALWAYS TELLIN ME, ALWAYS IN THE WH TALKIN BOUT, US AINT BOUT THIS, US\u2026 https://t.co/9YmoTqNrD4
p175
aVRT @urgaldanielle: fuck keke. her name is noel i have a dream about her she rings my bell i got gym class in half an hour oh how she rocks\u2026
p176
aVRT @heIIojojo: Yeah sex is great and all but have you ever heard one direction\u2019s cover of teenage dirtbag https://t.co/cV84g1Ie5N
p177
aVRT @Dr_TacoMD: replace all plastic straws with twizzlers boom climate change solved next question
p178
aVWow thats so sad Alexa play I dont like by Chief Keef https://t.co/dw2E1djCoT
p179
aVRT @richbrian: No brooke we just take a picture together https://t.co/ZZiijXQ0rb
p180
aVIs it cultural appropriation to look this fuckin cute
p181
aVRT @disco_socialist: @boredskeptic @Bro_Pair The study is right next to BOFA DEEZ NUTZ!! https://t.co/gTPLbOqmer
p182
aVSomebody need to start calling me ugly before I whip out this fit and murder you hoes https://t.co/SEiICwGSkW
p183
aVRT @Rico_nastyy: NASTY ! https://t.co/9ny4kZ623d
p184
aVRT @chancetherapper: I could spare a rib to get my baby back. I just wanna fall asleep where my baby at\u000aSo I don't wake up wondering where\u2026
p185
aVRT @failingupwards: \U0001f6a8NEW MERCH ALERT\U0001f6a8 \u02e1\u1d49\u1d50\u1d50\u1d49 \u1d4d\u1d49\u1d57 \u1d58\u02b0\u02b0\u02b0 black out with the purist and support the homies \U0001f635\U0001f91d\U0001f4c8 - https://t.co/zebUvNzbnz https:/\u2026
p186
aVRT @kevinabstract: a whole lotta new brockhampton tonight https://t.co/RKWGo9COR4
p187
aVRT @chartdata: Frank Ocean's 'Blonde' re-enters this week's Billboard 200.
p188
aVWomen want a man like Chip but aren't even trying to be like Joanna smfh \U0001f644\U0001f644\U0001f624\U0001f624\U0001f624\U0001f624
p189
aVI WANT A WHOLE ASS GOSPEL ALBUM @chancetherapper I WANNA HEAR MORE MY COUSIN NICOLE
p190
aVWHAT https://t.co/6tgODFfiaJ
p191
aVRT @MikeLayher: @SofaNice97 NEVER
p192
aVRT @pixelatedboat: This is the darkest hour in the history of the American presidency. Let\u2019s call this what it is: Treason https://t.co/0zL\u2026
p193
aVRT @Rico_nastyy: Nothing funnier than OLD ass women hating on me . BITCH Fix ur credit that u ruined on a nigga who don\u2019t love u . He still\u2026
p194
aVRT @Rico_nastyy: Photo of me giving a fuck on a rare occasion https://t.co/s44EhfH9Ay
p195
aVRICO NASTY CAN BENCH MORE THAN DRAKE https://t.co/XWdQx87fq2
p196
aVRT @Rico_nastyy: Big dick energy freestyle RT to unlock
p197
aVRT @Rico_nastyy: What exactly is \u201cbig dick energy\u201d ?
p198
aVRT @_allisonlynne_: they don't wanna see u win https://t.co/IeN8isGcRr
p199
aV@RJD_26 is soft https://t.co/BxeGBZEcW4
p200
aV@camesjooper pull the fuck up you know where we at tomorrow
p201
aV@suzytokarski99 hmm sounds like excuses tell your coworkers u need a cig break then come back with a black eye u wont
p202
aV@NathanMorrow219 7:22 tomorrow night u know where
p203
aV@RhyleighKeef 7:21 tomorrow night east side of the mall I need a 30 sec rest between fights
p204
aV@brooke_wellman 7:20 tomorrow night east side of the mall
p205
aV@suzytokarski99 Srry that's past my bedtime what other day works
p206
aV@suzytokarski99 7:15 tomorrow night east side of the mall
p207
aVRT if u wanna fist fight
p208
aVRT @PFTCommenter: Why does a milleneal get endless Retweets for switching seat's with a horny stranger on a plane, but Donald Trump gets ri\u2026
p209
aVRT @RampCapitalLLC: @CNBC Yes it will
p210
aVRT @goatgrl3: YOU GOT SOME FOLLOWERS, SO WHAT ? DO YOU WANT YOU A COOKIE ? @Rico_nastyy https://t.co/6xfhPaFPkM
p211
aVLmao "Ages 13+" just like the girls he goes after https://t.co/2evSCi59fB
p212
aVRT @camesjooper: Rt if you wanna get roasted
p213
aVRT @theneedledrop: I think a lot about Rico Nasty screaming \u201cOH MY FUCKING GOD!\u201d
p214
aVRT @theneedledrop: @GleebglarbuLoL The scorpion album is for low energy sad boys who can\u2019t talk to girls.
p215
aVRT @TylerIAm: This our energy now fellas https://t.co/UptKnN1keo
p216
aVRT @chancetherapper: She said yes \U0001f517
p217
aVRT @BarstoolBigCat: Happy 4th of July. May the buns run fast and the Peta protestors be non existent https://t.co/LPDaY0O0YU
p218
aVRT @Dr_TacoMD: cop tf up\u000ahttps://t.co/mlV4nQ5f0R https://t.co/Ur5NFb0pRO
p219
aVRT @Rico_nastyy: Shhhhhhhhhh not right now i told u about this https://t.co/lzaT28W7xl
p220
aVRT @Rico_nastyy: This is what happens when i search my name https://t.co/hJ4Np2e7ok
p221
aVRT @StevenArmstrong: 7000 cars, circa 4 hours. \u2764\ufe0fFord Team\u2764\ufe0f https://t.co/FZSclsFoS0
p222
aVRT @SartoriallyInc: failing upwards and a fan https://t.co/jnQtOiMoS3
p223
aVRT @JoeG3x: @Rico_nastyy Who\u2019s Abuelita is this \U0001f602\U0001f602\U0001f602\U0001f480 https://t.co/qVIuAAsA70
p224
aVRT @bjork_yorke: rico nasty makes me wanna step on a man's face and get paid for it
p225
aVRT @BarstoolBigCat: 20 years ago today https://t.co/P9qhk2BmPD
p226
aVRT @woodmasterfresh: @VR0NLINE Leonardo DiCaprio exclusively stars in films that are misunderstood by business majors
p227
aVJohnny Test is short for Johnny Testosterone
p228
aVRT @missmayn: If I can\u2019t go to Planned Parenthood for a routine pap smear without being screamed at and harassed by Christian protestors th\u2026
p229
aVRT @suzytokarski99: @JSandersChicken https://t.co/dgDUtkLsgK
p230
aVRT @suzytokarski99: rt and i\u2019ll draw ur avi but it\u2019s not even gonna try to be good
p231
aVRT @vincestaples: Public service announcement: if you see me in real life, don\u2019t drive by slow and yell \u201chey Vince\u201d with the window down. Y\u2026
p232
aVRT @ChiefAleel: Girls who listen to Rico Nasty got the best credit score
p233
aVRT @suzytokarski99: imagine being heartless lmao https://t.co/WmAgTllY0q
p234
aVgirls that listen to @Rico_nastyy will send u dick pics
p235
aVRT @jjordan_34: @djmich_8 Most immigrants that come here illegally have jobs, that\u2019s why they came here in the first place. They\u2019re not a \u201c\u2026
p236
aVRT @chancetherapper: Please listen to my new song with @RealCottontale @yebbasmith Daniel Caesar and Rex. Its an honor to be on record with\u2026
p237
aVRT @trashslyn: Niggas that listen to jcole vs niggas that listened to rico nasty https://t.co/6ij0GKSkC3
p238
aVRT @suzytokarski99: can men start wearing crop tops please it\u2019s such a look
p239
aVRT @Rico_nastyy: Listen to My Lastest Project NASTY \u000aTour Tickets Are Now Available You Can Also Watch The Official Music Video For Countin\u2026
p240
aVRT @Abby_Anyse: "Law is law" until yall wanna drink when you're not the legal age https://t.co/1RHBPQXDXD
p241
aVRT @Rico_nastyy: You Can\u2019t Even Handle a Bitch Like Me https://t.co/Rk0b5yDWOF https://t.co/k5uaVLbIMF
p242
aVRT @Lexual__: Where were all of these \u201cy\u2019all gotta show some empathy\u201d tweets when he said he beat a gay guy half to death for looking at hi\u2026
p243
aVXXX was/is a scumbag and if you defend him by saying "oh he changed/hes improving" you're a scumbag too. But he did\u2026 https://t.co/5O4GtcprRY
p244
aVRT @newbalance: Thanks @IHOb, but dad's got this. https://t.co/YPrDuWgozZ
p245
aVBibbidi bobbidi ban all guns https://t.co/ZDCAtzvYzw
p246
aVRT @77cyko: Disrespecting the Wu-Tang Clan is worth exactly $4.5 million. https://t.co/8bKLUG45Ot
p247
aVRT @brckhmptn: https://t.co/gWyuuMCDCY
p248
aV@mathennarrow_ @howieman43 what the heck chad try to be nice im not a mean person https://t.co/3WVqywHW8A
p249
aVCountry Mac would be so proud https://t.co/qeXiEx1Okl
p250
aVRT @theneedledrop: welcome to the club https://t.co/GhNJ2LeNM4
p251
aVRT @PFTCommenter: Yeah well Great Britan lost to a expansion team in 1776 sir. have u no decorum or capacty for patriotism sir resign sir h\u2026
p252
aVRT @theMasonRamsey: If they were any better it'd be illegal https://t.co/91VDIvTV26
p253
aVRT @lilpump: ME &amp; J COLE COOL NOW SO NOW ITS FUCK RUSS
p254
aVRT @lexi4prez: It truly amazes me how people will call every rape victim a liar, and say \u201cinnocent until proven guilty\u201d, then when people (\u2026
p255
aVChili is just meat cereal https://t.co/tYUgqWNHT8
p256
aVRT @AngryManTV: Crowd cheers when Kentucky HS valedictorian Ben Bowling quotes Trump, then groans when he reveals the inspirational quote w\u2026
p257
aVRT @deepjayrao: good maybe some of y\u2019all can develop a personality lol https://t.co/tpIPnojPWL
p258
aVRT @theMasonRamsey: They always say yee haw, they never ask haw yee https://t.co/d7s9cuvQFo
p259
aVRT @roywoodjr: In Houston in 2006, I tried to prank call J. Prince, CEO of Rap-A-Lot Records. We had a conversation that made me not only l\u2026
p260
aVRT @brooke_wellman: don\u2019t complain about us not learning \u201cuseful things\u201d. if u have that big of a problem, learn it urself instead of sitti\u2026
p261
aVRT @PFTCommenter: I will go to my grave beleving old ppl have allways been old. No chance George mcphee or like John Madden were ever 18
p262
aVRT @delaney_goss: rip 6ix9ine https://t.co/OeYiO8lSD6
p263
aVRT @asvpxrocky: GET OFF MY DICK KEEP MY NAME OUT DAT GOSSIP BLOG SHIT. WHOS PROVIDING TIPS? QUIDDITCH ASS NIGGAS, RIDIN HARRY POTTER STICK\u2026
p264
aVKanye out here making killing people cool. In the club screaming out "PREMEDITATED MURDER"
p265
aVRT @Wu_Tang_Finance: 5 MOST CERTAIN THANGS IN LIFE:\u000a\u000a1) DEATH\u000a2) TAXES\u000a3) MEAN REVERSION\u000a4) DRAKE BEING SENSITIVE\u000a5) @PIERSMORGAN BEING A B\u2026
p266
aVRT @Wu_Tang_Finance: CURRENT EVENT CONFLICTS, RANKED:\u000a\u000a1) PUSHA v DRAKE\u000a2) ROSEANNE v  BUG PHARMA\u000a3) MURDERED PUTIN CRITICS v MORTALITY\u000a4)\u2026
p267
aVRT @Wu_Tang_Finance: Puerto Ricans got absolutely screwed by the US Government, Maria is a tragedy that killed more people than Katrina and\u2026
p268
aVRT @JasperDolphin: Just watch and smile https://t.co/5Nfi49mpoC
p269
aVMethod Man just killed his verse on Protect Ya Neck then Wu Tang'd a blunt on stage. I can die happy now
p270
aVRT @brckhmptn: https://t.co/49lWbDcXzl
p271
aVRT @HYPEBEAST: .@gucci keeps the waist pack trend going. \u000ahttps://t.co/asepybQVXh
p272
aV@mathennarrow_ @camesjooper @Max_Kurinsky Def a rap battle not like we talked to middle schoolers for 30 minutes cuz thatd be lame
p273
aVRT @mathennarrow_: Magnum shoutout to @camesjooper @JSandersChicken and @Max_Kurinsky who came out to the inaugural Charlestown Mall Parkin\u2026
p274
aVRT @Popehat: Look I don\u2019t see why you\u2019re so upset about ICE\u2019s new policy of forcibly separating children from their parents in detention. S\u2026
p275
aVRT @PFTCommenter: Exactley. Ppl (heroes) like me and Brit who donated zero dollars to charity technicaly support the miltary more by paying\u2026
p276
aVRT @Popehat: This is so true.  If NFL players had decided to kneel during the anthem to commemorate fallen cops, they'd be invited on Fox e\u2026
p277
aVRT @Popehat: Political correctness is ruining free speech in America. To fight it, we insist that professional athletes participate in nati\u2026
p278
aVRT @OGMeatBoy: Pro tip for teens: don't buy into this bullshit. Your talent is worthy of pay. Don't chase money, chase what you're passiona\u2026
p279
aVWhy dont i vote?\u000a\u000aGr8 question. i refuse 2 vote until a candidate gives the people what we really want, a genocide\u2026 https://t.co/8SOOtoTo27
p280
aVRT @KT_So_It_Goes: &lt;cop shoots philando castile in cold blood in front of his girlfriend and little daughter&gt;\u000a\u000a\u201cwell, he had weed so, you k\u2026
p281
aVRT @PFTCommenter: My communicaton style is not you\u2019re costume https://t.co/S7X5LwadSR
p282
aVRT @dcsportsbog: We wrote a story about @PFTCommenter, a local kid made good.  https://t.co/yWm22MJN7n
p283
aVRT @Wu_Tang_Finance: Only loser federal narcs think this is #shocking https://t.co/pSZztDouel
p284
aVRT @TheOnion: \u2018No Way To Prevent This,\u2019 Says Only Nation Where This Regularly Happens https://t.co/eXR1qR75zb https://t.co/kPUGL7zAzn
p285
aVRT @Wu_Tang_Finance: lmaooooooooooooooooooooooooooooooooooooooooooooooooooooooo, not even the onion https://t.co/zs33A1dETO
p286
aVRT @JamesCageWhite: Thanks everyone for buy my t shirt,now i have money to buy a nice belt,tomorrow I'm gonna wear this belt to company,ver\u2026
p287
aVRT @SaulH_24: What have I done \U0001f480 https://t.co/lvgawaWg4S
p288
aVRT @PFTCommenter: @boonafideAF i dont smoke drugs i just smoke fool's like u on the basketball court
p289
aVRT @failingupwards: the failing upwards difference https://t.co/LuhcEbkzrI
p290
aVRT @RampCapitalLLC: This version is more appropriate @donaldglover https://t.co/7OeOXEkGh6
p291
aVRT @cataphant: The west is not getting more hostile to Christians, I don\u2019t buy into that narrative. We are being called out on our BS and m\u2026
p292
aVRT @failingupwards: ur supposed to drink the bleach not spill it all over ur fake raf pants https://t.co/nrbO6kqFrn
p293
aVRT @DJPromote: Welcome, This Is America Remix @lecrae @ltsGambino #ChildishGambino #ThisIsAmerica #Lecrae #WelcometoAmerica https://t.co/Oc\u2026
p294
aVRT @vincestaples: I\u2019m the hottest up and coming artist in Long Beach auntie Tam Bam https://t.co/BN5fwc3duo
p295
aVRT @iv_larry_iv: GIVEAWAY\u203c\ufe0f\u203c\ufe0f\u000aFOLLOW and RT for a chance to win an inverse pastel t-shirt! \u000a             I\u2019ll announce the winner tomorrow\u2026
p296
aVRT @Dr_TacoMD: @piersmorgan @MailOnline  https://t.co/cSupiT5tSZ
p297
aVRT @failingupwards: when they made the carpet cream this year https://t.co/8yVQJvA01n
p298
aVRT @BarstoolBigCat: I take back all my Yodel Kid slander. Legend https://t.co/jlutANOZ78
p299
aVRT @bbpoltergiest: NEW TRACK from the upcoming album Year of the Snitch: "Streaky"\u000a\u000ahttps://t.co/bLYcdlNlhC
p300
aVWhen Biggie said "Gon fill my belly, a T-bone steak, cheese, eggs, and Welch's grape" I felt that
p301
aVRT @SartoriallyInc: swaecation all i ever wanted swaecation had to get away
p302
aVRT @PFTCommenter: buddy if u reach ur hand out to take my osama bin laden toilet paper i keep on a plaque above my KISS pinball machine you\u2026
p303
aVRT @PFTCommenter: wow this beta hate's man caves. u can have my neon bud ice sign&amp; my framed female body inspecter shirt autographed by Guy\u2026
p304
aVRT @greentoepalacio: Last Night I Really Made Every Girl Who Stepped On My Chanel NMDs Venmo Me 50 Bucks. https://t.co/uX5Aq7ofKh
p305
aVRT @UncleChaps: Lots of people at the airport are going crazy about my purse. It\u2019s leather and from Pakistan. Sorry to stunt.
p306
aVRT @Genius: \u201cit's an allegory to acid, more so than just a tape about acid.\u201d \u2014@chancetherapper\u000a\u000a\u2018acid rap\u2019 is officially five years old tod\u2026
p307
aVRT @Four_Pins: PETE DAVIDSON - https://t.co/E6V1OKIm2Q
p308
aVRT @Popehat: While we\u2019re dragging ICE for wrongly imprisoning citizens without due process and abusing the rights of non-citizens, let\u2019s no\u2026
p309
aVRT @failingupwards: listening to the new kanye bars https://t.co/NQLvc88Gnf
p310
aVRT @chancetherapper: My fault yo https://t.co/TIWhG8o1ST
p311
aVRT @chancetherapper: Nah that aint it yo https://t.co/hqA1NYGxE2
p312
aVRT @theneedledrop: No, I really do care about your Kanye opinions, even tho you don\u2019t listen to him and didn\u2019t follow his career up until r\u2026
p313
aVRT @jaboukie: me listening to the college dropout https://t.co/JL0eMmTL2v
p314
aVRT @vincestaples: Got you *ahem* ... Crip Gang https://t.co/P7GUuq1ZjL
p315
aV@mathennarrow_ This better not be like the winter break laser tag thing where you tweeted it and it never happened
p316
aVRT @chancetherapper: https://t.co/FtB67jzAR2
p317
aVRT @TheOnion: Nation Suddenly Concerned About Black Man's Opinion https://t.co/9g5mJ4mCzd https://t.co/fYR464F85d
p318
aVWhy does 6ix 9ine sound like he has a lit cig in the back of his throat at all times
p319
aVRT @JamilSmith: Police brutality often looks like this.\u000aRead this thread from start to finish. https://t.co/etbIX1DHtV
p320
aVRT @nathanfielder: Happens to the best of us https://t.co/WJYL6io45W
p321
aVRT @NostromoSerg: Ja Rule literally trapped the rich on an island with minimal food and water. https://t.co/e7WiEK3GPQ
p322
aVRT @ccaitlinss: why won\u2019t men just wear crop tops what are they going to gain from it
p323
aVRT @Wu_Tang_Finance: https://t.co/um30px7gnd
p324
aVRT @BarstoolBigCat: This is my favorite video of 2018 and it\u2019s not even close https://t.co/x26F4XDrxo
p325
aVRT @Dr_TacoMD: what stage of late capitalism is this https://t.co/2x7dmF9OiK
p326
aVRT @pixelatedboat: *anyone else says something positive and inspirational*\u000aMe: Fuck off\u000a*Kanye says something positive and inspirational*\u000aM\u2026
p327
aVRT @dylanfootball51: Blessed to receive my 3rd offer from Western Michigan University! \U0001f434#LetsRide #MAC https://t.co/oTNUh4bxUj
p328
aVRT @Wu_Tang_Finance: Next up I wanna hear Bernie\u2019s take on Biggie\u2019s \u201cThe What\u201d and the importantance of laissez faire economics https://t.c\u2026
p329
aVRT @nathanfielder: Always a delight to see Dumb Starbucks employees showing up in regular Starbucks coverage https://t.co/5jRLofGAAO
p330
aVRT @IllyBocean: yeah it totally owned how in his most iconic role he broke a marine recruit down until he took his rifle and blew his brain\u2026
p331
aV@GVandermyde35 @mathennarrow_ Issa joke my guy why you gotta be like this
p332
aVRT @failingupwards: @BarstoolBigCat lets build https://t.co/msbQbu7NQT
p333
aVRT @aboynamedandy: ladies and gentlemen, vince staples on r kelly https://t.co/SmZdYu9PNJ
p334
aVRT @Kaepernick7: https://t.co/pg71tJl7z3
p335
aVRT @JustinEGiboney: Christians on the political right are viewed as hypocrites &amp; Christians on the political left are too often indistingui\u2026
p336
aVRT @missydepino: @Starbucks The police were called because these men hadn\u2019t ordered anything. They were waiting for a friend to show up, wh\u2026
p337
aVRT @JohnFPfaff: Thousands--millions--of disproportionately poor people of color with excessive punishments due to crimes resulting from sad\u2026
p338
aVRT @greg_doucette: In today's criminal justice news, an unarmed 14-year-old black boy missed the bus and tried to walk the bus route to sch\u2026
p339
aVRT @Dr_TacoMD: karl got 30 in the clip https://t.co/INVYDoofam
p340
aVRT @stereogum: The adorable yodeling boy is going to perform at Coachella today https://t.co/Efu6Baiuge https://t.co/odaLECuTKJ
p341
aVRT @Wu_Tang_Finance: https://t.co/GMeLaDxZQW
p342
aVRT @Wu_Tang_Finance: A reasonable policymaker would consider the federal government itself a \u201cpredatory\u201d student loan lender. https://t.co/\u2026
p343
aVRT @adamsteinbaugh: A professor fired after defending a Black Lives Matter event on Tucker Carlson's show is suing Essex County College, wh\u2026
p344
aVRT @tundeolaniran: i live in Flint. i haven't washed my hair in my home in 4 years. when I brush my teeth, i use filtered water. i shower a\u2026
p345
aVRT @NOTSportsCenter: Sister Jean can\u2019t be hanging those BP fastballs like that\u000a\u000a(Video via @BustedCollege) #Cubs  https://t.co/5N0OBIC9GF
p346
aVRT @Wu_Tang_Finance: Oh the horror of the existence of Facebook what a fucking nightmare compared to $20 trillion of national debt, endless\u2026
p347
aVRT @EyesOnTheRight: I sure as fuck hope so. https://t.co/RGXPlav3ED
p348
aVRT @jtLOL: (This is a picture of a dog) https://t.co/uwBi1TUm3k
p349
aVRT @SimonMaloy: https://t.co/58NnzaY5fF
p350
aVRT @heyamine: it\u2019s ok, niggas in line at supreme thought i was carti https://t.co/Ns1UZOZURq
p351
aVRT @failingupwards: we're accepting listener submitted questions btw. this counts https://t.co/xrmpHK5PlM
p352
aVRT @AnselElgort: Dinner w really good people. https://t.co/jquSFgrJUj
p353
aVRT @Timodc: Please take note the Trump Admin is saying that 80% of the women fleeing their homes for America have been raped as part of the\u2026
p354
aVRT @vincestaples: My favorite thing about the Bible is that it\u2019s a nigga named Paul just walking around the middle east with his friends.
p355
aVRT @kevinabstract: OMFG BITCH WE IN THE CAR WITH ANSEL AND HES  DRIVING JUST LIKE BABY THIS IS SO scary
p356
aVRT @_cingraham: \U0001f643 https://t.co/gGcpYfo8sb
p357
aVRT @Cubs: \U0001f3b6 Hey, Milwaukee, what do you say\u000aHow \u2018bout one more L today \U0001f3b6 https://t.co/DuMTbQqGXE
p358
aVRT @musicalmegano: Yes! Let me know if you're interested and I'll hook you up https://t.co/awY62S2u4k
p359
aVRT @jonlovett: OK https://t.co/T01J3SAgT0
p360
aVFun fact Drake Bell only recently returned to the limelight because he just finished his 3rd tour of duty in Afghan\u2026 https://t.co/LjkihsGh1P
p361
aVRT @TheOnion: Report: This Not A Gun https://t.co/FFgwpmGBJb https://t.co/scHUMTaOp3
p362
aVRT @Wu_Tang_Finance: SLAY QUEEN https://t.co/bQeET2qE8I
p363
aVRT @Genius: 2pac's handwritten liner notes from \u2018don killuminati\u2019 have surfaced and they contain some not-so-subtle shots at jay-z, dr. dre\u2026
p364
aVRT @Wu_Tang_Finance: @Rebel_Rail Get a life
p365
aVRT @_cingraham: \U0001f643 https://t.co/JIhmuZ8e5e
p366
aVRT @2Fast2Finkel: omg https://t.co/5G4p7Rsqbm
p367
aVRT @crhwx_wvva: @theneedledrop @Hunt_Wx thanks melon, we'll give you a shout out on our weathercasts if you give MBDTF the rating it deserv\u2026
p368
aVRT @chrissyteigen: Yes the shop specializes in coverups that aren\u2019t 32 million dollars https://t.co/2hklA6Ix4P
p369
aVRT @Popehat: People:  Fight the deep state!  Down with big government!  Government out of our lives!\u000a\u000aSame people:  well, if the cops shot\u2026
p370
aVRT @Wu_Tang_Finance: He is @RZA indeed https://t.co/nKXUu4z3d0
p371
aVRT @Starting9: Bryce Harper out here rockin' Supreme cleats on Opening Day https://t.co/WgPqlLgdwc
p372
aVRT @thehill: Autopsy: Unarmed Stephon Clark was shot 8 times to the back or side, contradicting police narrative https://t.co/I8PiUJAyR5 ht\u2026
p373
aVRT @BarstoolNewsN: Howard students found out employees stole over $1M in financial aid so they took over their Administration building and\u2026
p374
aVRT @TPCarney: Unless there's more--a lot more--to this story than what we're getting, this is a travesty of justice so immense, it's hard n\u2026
p375
aVRT @Popehat: swear to god i'm trying to be open minded and take this guy seriously even just to be polite to his fans\u000a\u000ai'm trying so hard\u2026
p376
aVRT @BuckyIsotope: I can\u2019t do it https://t.co/5vGxghAZbm
p377
aVRT @ThabitiAnyabwil: A final thought: If our churches are so ensconced in culture that they make it difficult for people from outside that\u2026
p378
aVRT @JeffPassan: Trevor Bauer wanted to be paid $6,420,969.69 this year. When he won a higher salary in arbitration, he hatched a plan: He w\u2026
p379
aVRT @BarstoolBigCat: Agreed, I only want to hear from our politicians, they're the real truth-tellers of society! https://t.co/1LMfkdLGdg
p380
aVRT @failingupwards: \U0001f6a8spoiler alert\U0001f6a8 https://t.co/J39BWBK5Ls
p381
aVRT @DOM_Frederic: joe maddon said publicly he wants to manage 5 more yrs. hes 64
p382
aVRT @vincestaples: Emissions are out we saving the planet all 2018 so mandate it. Chevy Volt the new Bugatti mandate it.
p383
aVRT @ultralightbeam: this picture changed the world https://t.co/c9mfSEO2RK
p384
aVRT @JonahNRO: Absolutely mind-blown that so many \u201cconservatives\u201d think pointing out the hypocrisy of liberals is an excuse for the scummine\u2026
p385
aVRT @joshuadubois: The work of a select few evangelicals to wrap the good name of Jesus around this moral disaster of a leader will go down\u2026
p386
aVRT @GeorgeFoster72: And there it is https://t.co/m5AuhcSqtG
p387
aVRT @KrangTNelson: listen kids I know u want to stop getting violently murdered by assault rifles but you need to grow up and realize that t\u2026
p388
aVRT @pattymo: Hey Siri, show me the most depressing image on the Internet https://t.co/H71xUCOpYp
p389
aVRT @darkskinmanson: As a gun owner both u Niggas are crazy. And the NRA used y\u2019all to promote faux diversity and shit on your own people. i\u2026
p390
aVRT @robertontenient: ayo i was gonna tell u to fuck off but i spent last night watching joan baez interviews and i\u2019m feeling a lil extra pa\u2026
p391
aVRT @BarstoolNewsN: This kid gets it. https://t.co/nSLjq0ySVU
p392
aVRT @Four_Pins: salute (via https://t.co/3PEX7vKIM6) https://t.co/TzghtLQpVV
p393
aVRT @gabrielmalor: This is another one of those shot-by-police-if-you-do, shot-by-police-if-you-don't cases. Officer yells, "show me your ha\u2026
p394
aVRT @SenatorDurbin: The President misspelled "Republicans" here, who just yesterday blocked the Senate from passing the Dream Act. https://t\u2026
p395
aVRT @Wendys: The mixtape drops now. Not pulling punches. We Beefin\u2019. https://t.co/H1Rm1ODYC4
p396
aVRT @2morrowsTech: Luke Franta is only 23 years old, owns his own business and is the youngest ASE World Class Tech. Here's how he did it: h\u2026
p397
aVRT @SenatorDurbin: Deal https://t.co/S5DwT543dx
p398
aVRT @theneedledrop: This won\u2019t stop until the system / society police function within DISINCENTIVIZES them from doing this via punishments,\u2026
p399
aVRT @NumbersMuncher: I'll never forget how the 3 cable news networks would cut away from speeches by Hillary/Bernie/Rubio/Cruz/etc to cover\u2026
p400
aVRT @hannibalburess: Yeah I agreed to the content restrictions for the Loyola.\u000a\u000aWho hasn\u2019t lied at a job interview before??  \U0001f602\U0001f602\U0001f602  \u000a\u000aWhy is n\u2026
p401
aVRT @henocksileshi: BROCKHAMPTON - PUPPY \u000a\u000aSUMMER 2018 https://t.co/zCZF1HTlDk
p402
aVRT @nytopinion: It's harder to enjoy your burger when you think of the greenhouse gas emitted in producing it https://t.co/VtRAzUu2ap
p403
aVI will fight you if you think Touch the Sky is better than Ultralight Beam. Kanye and Chance exposed themselves and\u2026 https://t.co/szxDiAOePs
p404
aVRT @SenatorDurbin: The war on drugs didn\u2019t work in the 80\u2019s, and it won\u2019t work now by reviving failed deterrence measures like the death pe\u2026
p405
aVRT @MikeLayher: A college republican guy with a Trump hat just asked me \u201cdo you like freedom?\u201d And my first response was \u201cI do, but I don\u2019t\u2026
p406
aVRT @DJ_SKEME: The Migos and Drake are not letting up off the gas this year. Video idea creative af \U0001f525 https://t.co/AcWw9hWeWJ
p407
aVRT @nikkimaceyy: @MitchGuillaume yeah it\u2019s not like two sweet innocent girls were shot last year right? stce doesn\u2019t know the pain at all f\u2026
p408
aVRT @GNCordova: Rihanna responding to Snapchat's ad. I can't believe they did this. https://t.co/TpHQIXTm4j
p409
aVRT @maggieNYT: Set this thought to repeat  https://t.co/RhEVYflm8N https://t.co/6EcMaEHbWv
p410
aVRT @STCEStc: Today would have been Brittany and Tiffany Coffland\u2019s 18th birthday. Hard to believe it\u2019s been a whole year without them. Our\u2026
p411
aVRT @theneedledrop: Oh mannnnnnnn https://t.co/0sgXeQFLw3
p412
aVRT @Popehat: Maybe I could introduce you to a past client with a fourth grade education who took $200 to drive a package of meth and got te\u2026
p413
aVRT @Dr_TacoMD: synopsis of thursday\u2019s ep https://t.co/2wdFRZ18HF
p414
aVRT @PFTCommenter: @Ravens fuck u
p415
aVRT @midgetlife2k14: New trick https://t.co/tBpYqJfse2
p416
aVRT @bourgeoisalien: Dems put off making changes to superdelegates\u000a\u000aDems put off making changes to support Medicare for All\u000a\u000aDems put off ma\u2026
p417
aVRT @ByeWeekSTCE: On a serious note, we want to say how much we miss the twins today. It\u2019s been a pretty tough year for the east community b\u2026
p418
aVRT @ShaunKing: Not enough. At all. They did this months after they were exposed. https://t.co/e5pcZveUlv
p419
aVRT @ashleyfeinberg: lmaooooooooo https://t.co/IsvQN873kJ
p420
aVRT @theneedledrop: *gasp* Someone get poor old George Orwell on the phone! Seems we can\u2019t make up stories to explain a political point. \U0001f631\u2026
p421
aVRT @kevinabstract: You can be straight and still love a boyband https://t.co/p2ILyqKebd
p422
aVRT @netflix: looking forward to the 1,138th episode of Conan tonight https://t.co/VZ04fAshoo
p423
aVRT @Freeyourmindkid: So the manager of the Phoenix Theater in North Versailles called a group of little black girls who were playing in the\u2026
p424
aVRT @ABC: Father of Parkland victim slams NRA videos:\u000a\u000a"If this was put out by a terrorist organization, we would be raising the terror thre\u2026
p425
aVRT @chrissyteigen: Puddy would have wanted this https://t.co/UVSbsSCrAz
p426
aVRT @BarstoolBigCat: I own a team https://t.co/hLUhweEeGB
p427
aVRT @vincestaples: Every penny counts. https://t.co/78fGzStj8h
p428
aVRT @MsPackyetti: Black and Brown people are not political pawns. The @NRA doesn't get to use us to prove a point-while repeatedly devaluing\u2026
p429
aVRT @nojumper: https://t.co/WaCwndkNvx
p430
aVRT @evboogie: this one goes without saying, right? #Rap3Peat https://t.co/9j4vDEHJDZ
p431
aVRT @CaseyIwanski: Hi hello the Illinois primaries are coming up and I took 7 pages of notes on the candidates based on their websites. If a\u2026
p432
aVRT @sahilkapur: Take a moment to appreciate the last week in guns:\u000a\u000aNRA spent ~9 years saying without evidence Barack Obama and Hillary Cli\u2026
p433
aVRT @KyleKulinski: When I tell people we're bombing 8 different countries they're typically shocked. Imagine if corporate media spoke about\u2026
p434
aVRT @Wu_Tang_Finance: \u201cAnd we give it back to you...... the people\u201d https://t.co/NVVLWF1zRX
p435
aVRT @barstoolsports: "Mr. Goodell there's video of a player beating his wife"\u000aGoodell: "I'm busy"\u000a"The police report also said he might've s\u2026
p436
aVRT @frodeci: You would destabilize Wakanda for vibranium if you could https://t.co/ZiBuYfEKth
p437
aVRT @JoyAnnReid: I've been genuinely flummoxed, wondering what could be behind @OrrinHatch's obsequious, slavish devotion to Donald Trump. C\u2026
p438
aVRT @Bengoa_Marta: @ScottPaulAAM @dikenson @scottlincicome So telling us just bc economy large is OK to make it less dynamic? Also your micr\u2026
p439
aVRT @Seinfeld2000: @olivegarden what the fuck https://t.co/k8gWP5hWT9
p440
aVcan sum1 pls tell me which one is the Migos and which 1 goes woo https://t.co/sJawKGCMC5
p441
aVRT @CliffordAsness: The lack of grasp of anything to do with how trade works, when you benefit or not, etc, is simply utterly breathtaking.\u2026
p442
aVRT @nataliesurely: PLEASE STOP framing climate change denial as matter of ignorant yokels disbelieving science. It\u2019s a deeply coordinated p\u2026
p443
aVRT @nathanfielder: @thehill I got the same one cool https://t.co/ReMC5vuxYE
p444
aVRT @JonahNRO: It's also peak Trump because it's a terrible idea. So there's that too. https://t.co/pzbNbOhiYo
p445
aVRT @shannonrwatts: She means due process for white people. @NRA\u2019s Loesch said Philando Castile, a black man, deserved to be shot because he\u2026
p446
aVRT @Wu_Tang_Finance: 13) those who believe Taylor Swift staying out of politics is treasonous\u000a14) those who think Taylor Swift is the music\u2026
p447
aVRT @kevinabstract: playing the same festival as wu tang, fuckkkkkkk https://t.co/9PHymEn2mp
p448
aVRT @Dr_TacoMD: please. my son. he\u2019s very sick https://t.co/FRmihDpdxx
p449
aVRT @shannonrwatts: Did you know a licensed gun dealer can choose to sell a gun to a buyer after three days if their background check hasn\u2019t\u2026
p450
aVRT @Wu_Tang_Finance: 8) social security/entitlement funding deficiency apologists\u000a9) New Yorkers who cannot accept Chicago deep dish pizza\u2026
p451
aVRT @kikomerley: WHY IS BARI HOLDING A PICTURE OF BABY ME https://t.co/yaqWo8FaB9
p452
aVRT @RealSaavedra: Father of Florida school shooting survivor Colton Haab admits he altered CNN's email by removing the words \u201cthat he submi\u2026
p453
aVRT @Wu_Tang_Finance: TWO C\u2019S THICC\U0001f631\U0001f631\U0001f631\U0001f631 ALEX JONES GETTING ABSOLUTELY BODIED BY THE HOGG https://t.co/KJomaQM2Qg
p454
aVRT @mathennarrow_: If someone says rap music is making our generation more violent there\u2019s a 150% chance they don\u2019t listen to rap music
p455
aV@NathanMorrow219 read the tweet i said thats it
p456
aVRT @TEEJUS___: So I just started driving for uber and Lyft and I\u2019ve been getting a lot more compliments on my music since generalizing my p\u2026
p457
aVLet's be honest if we're ranking the Zas in order of coolness it goes\u000aRZA\u000aGZA\u000aPizza\u000aSZA\u000aand that's it
p458
aVRT @BarstoolWMU: Yeah this is where cars are suppose to travel. https://t.co/QtJFbGRTuP
p459
aVRT @lgbtqnation: Bill making it legal to ban gays &amp; lesbians from adopting passes in Georgia https://t.co/ZTCDCRxvxr https://t.co/zY1FVHmtdo
p460
aVRT @merlynwood: Yeehaaaa https://t.co/1vicyLYVPg
p461
aVRT @bobgoff: Most of us spend our entire lives avoiding the people Jesus spent His whole life engaging. #Everybodyalways
p462
aVRT @NYDailyNews: Philando Castile's mom slams NRA chief Wayne LaPierre as a hypocrite: "If he really cared about the good guys out here, he\u2026
p463
aVor information that supports the statement that a fetus experiences pain at 20 weeks\u2019 gestation.\u201d
p464
aV3. The "killing of the unborn" thing I assume you're talking about abortions performed past 20 weeks which are done\u2026 https://t.co/DKCrFzLCcU
p465
aVThis is probably one of the dumbest tweets I've seen in awhile. \u000a1. Violence has been in movies, music, and all med\u2026 https://t.co/Hc2uNBMMLB
p466
aVRT @realDonaldTrump: I will be strongly pushing Comprehensive Background Checks with an emphasis on Mental Health. Raise age to 21 and end\u2026
p467
aVRT @jessesingal: The number of conservatives who have been making TRIGGERED LIBS jokes for the last several years but who have been driven\u2026
p468
aVRT @Wu_Tang_Finance: FBI can undercover an illegal $200 meal by a Duke player but completely ignores a psycho self identifying future schoo\u2026
p469
aVRT @EdKrassen: These companies have business relationships w/ the @NRA\u000a\u000a@Fedex @TrueCar @Hertz @Avis @Budget @LifeLock @Enterprise @Alamo @\u2026
p470
aVRT @AriSchulman: Some thoughts on why we and our institutions may be failing to deal with mass shootings because we approach them as part o\u2026
p471
aVRT @realDailyWire: 'We Have To Do Something!' Okay, Here Are Some Things We Can Do To Minimize Mass Shootings. https://t.co/FZ1UTSYC5u @ben\u2026
p472
aVRT @theneedledrop: Projection: Gun manufacturers and the NRA benefit greatly off the opportunity to play victim, make rallying cries, and r\u2026
p473
aVRT @Wu_Tang_Finance: An injustice to society https://t.co/yW0DzUKVaI
p474
aVRT @Nick_Offerman: .@NRA @DLoesch our good-hearted show and especially our Leslie Knope represent the opposite of your pro-slaughter agenda\u2026
p475
aVRT @molly_knight: Do not give Marco Rubio a gold star for talking to his constituents. He is their senator. This is his job. He works for T\u2026
p476
aVRT @PFTCommenter: In additon to giving guns to elementary school teachers, we shoud arm crisis actors that way they woudnt get shot at such\u2026
p477
aVRT @kylegriffin1: Trump tweet from May 2016. https://t.co/4LJ0bnOQ3A
p478
aVRT @SenatorDurbin: I wholeheartedly support this effort \u2013 we need robust funding and a comprehensive strategy to combat this threat and pro\u2026
p479
aVRT @marcorubio: Claiming some of the students on tv after #Parkland are actors is the work of a disgusting group of idiots with no sense of\u2026
p480
aVRT @jessesingal: I don't think people who proudly announce "I was a liberal until some 20-year-olds on Tumblr offended me" understand what\u2026
p481
aVRT @colesprouse: @BillOReilly A bigger question: should young voters care about the opinions of balding men who value their trauma less tha\u2026
p482
aVRT @krassenstein: BREAKING:  With Parkland students present, the Republican-led Florida House just voted down a motion to take up a weapons\u2026
p483
aVRT @BenMarter: Three Quinnipiac polls over five months asked: "do you support or oppose requiring background checks for all gun buyers?"\u000a\u000aO\u2026
p484
aVRT @PFTCommenter: @diannaESPN choking hazerd
p485
aVRT @kevinabstract: I actually walked backstage and said omg niggas I got a funny joke then I said the joke and everyone laughed then I twee\u2026
p486
aVRT @StevenTDennis: This is not a Tweet from 2017 or a third world country. https://t.co/nKhIJQvrB1
p487
aVRT @sahilkapur: A revealing admission. The animating fear on the right is less about amnesty for lawbreakers, more that they\u2019ll vote Democr\u2026
p488
aVRT @schoolwalkoutUS: On Friday, April 20th we want students to attend school and then promptly WALK-OUT at 10:00 am. Sit outside your schoo\u2026
p489
aVRT @SenatorDurbin: Give me a break. You killed DACA and have now rejected six bipartisan deals to protect Dreamers. I\u2019ve been fighting for\u2026
p490
aVRT @Wu_Tang_Finance: I MADE 500 THOU\u2019 THEN I ALLOCATED IT IN A TAX EFFICIENT MANNER https://t.co/0nzl3nU5Kn
p491
aVRT @ashleyn1cole: Teens have been eating tide pods for like a month and legislators in multiple states have already introduced bills design\u2026
p492
aVRT @theneedledrop: https://t.co/NHo9p6MkJr
p493
aV@djspisme Appreciating assets homie
p494
aVOH YOU THOUGHT I WOULDN'T DO IT?? https://t.co/foQdkvyaxk
p495
aVRT @David_C_Steele: Your president just blamed the victims https://t.co/O5hZxsbvFW
p496
aVRT @Wu_Tang_Finance: 1) congrats on the sex Christina\u000a2) lots of your rock and roll was trash\u000a3) boomers bankrupted our country\u000a4) we have\u2026
p497
aVRT @bessbell: $3,303,355.00 https://t.co/rz8BPWS7QS
p498
aVRT @TheOnion: \u2018No Way To Prevent This,\u2019 Says Only Nation Where This Regularly Happens https://t.co/AiYGBQLaGW https://t.co/Zr0X8qcDqJ
p499
aVRT @SenSanders: Maybe, just maybe, after 18 school shootings in America in just 43 days of 2018 the Congress might want to consider common-\u2026
p500
aVRT @richbrian: great headline guys https://t.co/jjtzfPX0P5
p501
aVRT @Wu_Tang_Finance: Send this to ur bae https://t.co/m9tUd6kILg
p502
aVRT @Wu_Tang_Finance: Home made Valentine\u2019s Day card for procrastinators https://t.co/SzDCNIMHRy
p503
aVRT @PFTCommenter: @ProFootballTalk hope its a automatic becuz he still cant find the clutch
p504
aVRT @KyleKulinski: For fucks sake your approval rating is 36% move on https://t.co/eVxdL6J4UD
p505
aVRT @PFTCommenter: glad its just his birthday for a second i thought something terrble had happened https://t.co/DGuGAWNsEJ
p506
aVRT @PFTCommenter: @jaketapper @calizoned Pls issue retracton along w a note that I hate hitler more then you
p507
aVRT @scottlincicome: The GOP has become the abusive hippie boyfriend in Forrest Gump https://t.co/PNkeUaFETs
p508
aVRT @iowahawkblog: Great, now do the Central Park 5 and Ted Cruz's dad\u000ahttps://t.co/311wzGjYlx
p509
aVRT @barstoolcarl: Darvish to Cubs done deal after being evaluated by team docs #scoopcity
p510
aVRT @Wu_Tang_Finance: Who the fuck retire at 27 https://t.co/yqaEAlmUjy
p511
aVRT @Wu_Tang_Finance: MARKETS REBOUNDING SAME DAY WE HAVE NEW KENDRICK ALL HAIL KING KENDRICK
p512
aVRT @RandPaul: I ran for office because I was very critical of President Obama's trillion-dollar deficits. Now we have Republicans hand-in-h\u2026
p513
aVRT @Wu_Tang_Finance: \U0001f5e3PRESIDENTS DONT CONTROL STOCK MARKETS NOR IS THEY REFLECTIVE OF ECONOMIC HEALTH. TRUMP HAD A HIGHER POINT GAIN, OBAMA\u2026
p514
aVRT @Yair_Rosenberg: If you squint to read the tiny print, this story only gets worse: "Children may have been among those sexually exploite\u2026
p515
aVRT @MichaelDTubbs: 1.  I\u2019m 27\u000a2.  Please look up the word universal.  \u000a3.  We haven\u2019t been bankrupt for years and are actually the 2nd fisc\u2026
p516
aVRT @LeftSentThis: \u2022 The LAPD shot and killed 16-year-old Anthony Weber. \u000a\u000a\u2022 The LAPD claimed that after they killed Weber, as they surround\u2026
p517
aVRT @NBCNews: BREAKING: U.S. official in charge of protecting American elections from hacking tells NBC News that Russians successfully pene\u2026
p518
aVRT @Four_Pins: jonah hill fit watch 2k18 https://t.co/MU2Ni5xQNl
p519
aVRT @RampCapitalLLC: \U0001f6a8\U0001f6a8\U0001f6a8PUBLIC SERVICE ANNOUNCEMENT\U0001f6a8\U0001f6a8\U0001f6a8 https://t.co/ETBnOMKK7E
p520
aVRT @washingtonpost: Exclusive: At Trump\u2019s direction, Pentagon is planning large-scale military parade inspired by France's Bastille Day cel\u2026
p521
aVRT @steak_umm: I thought about pitching a new line of Lady Steak-Umms just for women but then I remembered I'm not an idiot
p522
aVRT @rcsanchez93: listen, I'm no economist... https://t.co/BNHGuK4p3x
p523
aVRT @Wu_Tang_Finance: Another day in the markets another lesson it doesn\u2019t fucking matter who is president, markets will market
p524
aVRT @SenDuckworth: Last November, I asked Ms White to explain why she thought #RFS raised food prices (it didn\u2019t) and why she claimed that e\u2026
p525
aVRT @KylieJenner: Me and my baby http://t.co/NOrlyK86
p526
aVRT @richbrian: emma that is no way to greet a person https://t.co/ChFUfezb8D
p527
aV@OGMeatBoy @ me next time
p528
aVRT @ChrisMeatbag: a #melon chant broke out at the #BROCKHAMPTON show @theneedledrop https://t.co/fb63EulRfo
p529
aVRT @bluemangroup: @kevinabstract No beef only love \U0001f499\U0001f499\U0001f499. DM us if you want to collab, Saturation 4?
p530
aVRT @TedJacksonPhoto: In 1990, a homeless man looked me in the eye and said, "You aught to do a story about me." \u000aI asked him why. \u000a"Because\u2026
p531
aVRT @OGMeatBoy: Y'all are bogus as fuck. Don't insult someone's baby because you don't agree with their politics, in fact just never insult\u2026
p532
aVRT @lilbootycall: "damn" LMFAOOO https://t.co/3i1ZsYEsD0
p533
aVRT @kendricklamar: Black Panther The Album 2/9 https://t.co/MqhsEcj6iF
p534
aVRT @dansenor: This infrastructure proposal plus a new family leave entitlement are reminders that \u2014 on fiscal conservatism \u2014 the GOP is unr\u2026
p535
aVRT @jeremypgordon: This headline rules https://t.co/QOD9dNrSp7
p536
aVRT @thelateempire: a shitcoin startup called Prodeum just exitscammed with millions of investor dollars and left them the following message\u2026
p537
aVRT @SenMarkey: Trump\u2019s EPA just ended a key policy under the Clean Air Act. Here are a few of the pollutants you will be breathing more of\u2026
p538
aVRT @Queerty: Less than half of Americans now accept LGBT people in a dangerous reversal of progress - More at: https://t.co/QwA1wJVp77 http\u2026
p539
aVRT @Wu_Tang_Finance: How to get to 4.00% growth;\u000a\u000a1) deport boomers to GITMO upon they desired retirement and lack of contribution to socie\u2026
p540
aVRT @madflavor: I\u2019d love to thank the young man with the green hair who gave me the edibles on stage last night.....I saw the devil!!!!
p541
aVRT @theneedledrop: @joeyBADASS Everybody likes to complain that things generally suck, but don\u2019t show up to support when artists are doing\u2026
p542
aVRT @_CharlesPreston: Englewood students resisting the closure of their schools\u2013\u2013WITH DIRECT ACTION\u2013\u2013is underreported.\u000a\u000aThey engaged in a si\u2026
p543
aVRT @PFTCommenter: There shoud only be two teams in XFL one led by johnny manzell and 1 by tebow. Every games a saints and sinners party for\u2026
p544
aVRT @JonahNRO: You seem almost nice https://t.co/CUFTlrgEq9
p545
aVRT @PFTCommenter: @Pontifex  https://t.co/g6WDWOEvX8
p546
aVRT @PFTCommenter: Humbeled to have been nomnated by @matthewdelly to do the #ALSPepperChallenge. And for my nomnation, your up Riley Curry.\u2026
p547
aVRT @nicky_robby: Put together the best clips from the past couple days the only way it made sense #GoBirds https://t.co/zz9VMcG947
p548
aVRT @normative: Once of the most famous attacks on protectionism is Frederic Bastiat\u2019s famous satirical \u201cpetition\u201d in which candlemakers dem\u2026
p549
aVRT @Wu_Tang_Finance: faux protectionism gonna cost us business and weaken international relationships, cool tho https://t.co/azfRgMOsrl
p550
aVRT @NOW1SOLAR: As a solar company, we are devastated to learn Trump has imposed a 30% tariff on solar panels virtually killing the solar in\u2026
p551
aVRT @jjordan_34: Damn. Good thing there\u2019s not a flu epidemic or anything like that going on because then it would be REALLY bad https://t.co\u2026
p552
aVRT @sahilkapur: Yikes. Sen. Tammy Duckworth (D-IL): \u201cI will not be lectured about what our military needs by a five-deferment draft dodger.\u2026
p553
aVRT @scottlincicome: Interesting to see a lot of conservative culture warriors defend Trump's first year on policy grounds (taxes, judges, d\u2026
p554
aVRT @PFTCommenter: Love the consistency. Putting Big Ben in charge of a womens safety is like putting rick Perry in charge of the deparment\u2026
p555
aVRT @Wu_Tang_Finance: What other #personalfinance tips do you have? My favorite is basically do the opposite of what the Chainsmokers advoca\u2026
p556
aVRT @markberman: The @tide social media team is now spending its time responding to people who say they ate Tide Pods https://t.co/uHhALzYJ89
p557
aVRT @theneedledrop: this man is president! https://t.co/57U7twlRux
p558
aVNeed a plug ya boy tryna de glaze up in this bitch n need a good white wine some1 hml
p559
aVRT @Wu_Tang_Finance: Family Values amirite https://t.co/drMLJEaWF5
p560
aVRT @mathennarrow_: Fuck:\u000a\u000aGuns\u000aThe Bush Family\u000aGeorge Zimmerman\u000aBruce Rauner\u000aThe NRA\u000aThat \u201cclean coal\u201d bullshit\u000aMicrobeads \u000aCancer\u000aThe War\u2026
p561
aV@mathennarrow_ You forgot @PeterRoskam
p562
aVRT @RudyHavenstein: "There is no bubble. There is no recession. And with core inflation a mere 2.1 percent over the past twelve months, the\u2026
p563
aVRT @chrissyteigen: The entire principle of this should be fought - an NDA to stay quiet about this serial monster with over 140 accusers, b\u2026
p564
aVRT @PFTCommenter: I woud like to amend this to include a live performence of in the air tonight by phil collins https://t.co/w3frzt93J0
p565
aVRT @Mediaite: Awkward: Arpaio Learns on TV that Accepting His Pardon was a Legal Confession (VIDEO) https://t.co/M6lo0bWhAn https://t.co/Jg\u2026
p566
aVRT @mun_dane: ILLINOIS REPRESENT https://t.co/XaLlpWavz5
p567
aVRT @Logic301: @kevinabstract Congrats!
p568
aVRT @FortuneMagazine: Ford CEO has sharp criticism of cars https://t.co/RZq7BjzBaB
p569
aVRT @PFTCommenter: Gronks fucked if NFL start\u2019s testing for tide pods
p570
aVRT @barstoolsports: You have to be ready to answer the door when opportunity knocks (via @JasonMan811) https://t.co/LC4sBumI44
p571
aVRT @hannibalburess: i calmly closed the doors to the balcony and went to my computer and put a bet in on the patriots.  told the bookie to\u2026
p572
aVRT @Wu_Tang_Finance: Have u ever made investments for a pharaoh? Put them assets in a sarcophagus. they claiming high returns bruise they e\u2026
p573
aVRT @BarstoolBigCat: Sorry for stuntin\u2019 https://t.co/YxmWZu6fEJ
p574
aVRT @Wu_Tang_Finance: FIRST OF ALL BABY BOOMERS DIDNT SAVE FOR RETIREMENT EITHER DESPITE FINANCIAL MARKETS GOING BONKERS THEIR ENTIRE WORKIN\u2026
p575
aVRT @BarstoolBigCat: I didn\u2019t like Gravity because my dumb brain got tricked by George Clooney still being alive https://t.co/leTX7atxsZ
p576
aVRT @jbarro: Elon Musk went to a sex party by accident https://t.co/aSYux6DdQ8
p577
aVRT @SenSchumer: There's one word for this kind of behavior: shameful. https://t.co/q1PKK2niN3
p578
aVRT @prchovanec: @KeithLFC10 @LoriJSchaffer @FoxNews @BarackObama 1) true 2017 number is just above 2 million, but below the previous years\u2026
p579
aVAn idea: Kohls starts their own cryptocurrency "Kohlscoin" but it's backed by Kohls cash and you can mine it by che\u2026 https://t.co/lCX4be52xl
p580
aVRT @WalshFreedom: If one more caller phones into my radio show and tells me that Trump is playing 5-D chess, I'm hanging up on em.\u000a\u000aRespect\u2026
p581
aVChicks will spend $200+ on hoco/prom dresses they only wear once but when I wanna buy a Coogi sweater that I'll wea\u2026 https://t.co/XwFXx2h2Jc
p582
aVRT @Wu_Tang_Finance: FAKE NEWS FOX NEWS AKA BITCH ASSES https://t.co/WcaYratCLC
p583
aVRT @BarstoolBigCat: I'm trying to watch Dave on Tucker Carlson and this guy is lecturing me on rap lyrics being dangerous to kids. Wtf
p584
aVRT @BNicholsLiberty: Scary marijuana stats:\u000a\u000a1. 88,000 deaths are annually attributed to excessive use.\u000a\u000a2. Every day, 30 people in the US\u2026
p585
aVRT @OneTrickTofani: https://t.co/hRIMhKRbfX
p586
aVRT @pixelatedboat: Wow, this extract from Wolff\u2019s book is a shocking insight into Trump\u2019s mind: https://t.co/1ZecclggSa
p587
aVRT @AnselElgort: Nyc snowstorm no worries baby will give u a ride \U0001f60e https://t.co/oUyVi787BH
p588
aVRT @ComfortablySmug: Opioids and heroin are gutting communities and Sessions is worried about marijuana. This is so ridiculous and if Repub\u2026
p589
aVRT @kevinabstract: to those who think i can only rap about being gay, you\u2019re right. that\u2019s all i can and wanna rap about. go listen to some\u2026
p590
aVRT @UncleChaps: Puerto Ricans aren't illegals, dummy. They are Americans. https://t.co/CUcRifTW4c
p591
aVRT @KFC_UKI: McDonald\u2019s leader Ronald just stated he has a \u201cburger on his desk at all times\u201d. Will someone from his big shoed, red nosed re\u2026
p592
aVRT @PFTCommenter: @ProFootballTalk Yea,, on champagne
p593
aVRT @GonePatrol: Send of the Year? https://t.co/k2TEEEvg5M
p594
aVRT @yeetztweetz: bro ur wcw made her new years resolution to drink more water lmao there\u2019s so many things she can act on and change in this\u2026
p595
aVRT @BradThor: This is tragic https://t.co/7TgMBBZ0fd
p596
aVRT @benshapiro: One day we\u2019ll all look back on these tweets and laugh and laugh and who are we kidding we\u2019re all gonna die aren\u2019t we
p597
aVRT @barstoolsports: Strict parenting in the year 2018 #VapeIsLife https://t.co/cpDErPzv0L
p598
aVRT @ComfortablySmug: Trump signing legislation banning pilots from crashing planes like https://t.co/kk5NUmeEEk
p599
aVRT @fancyrectangles: god I'm a sucker for a good Cask of Amontillado gag. I will follow anywhere you lead for the promise of a good Cask of\u2026
p600
aVRT @MikeLayher: 2018 is the year that I begin to actively advocate for everything that I believe in
p601
aVRT @OGMeatBoy: Like when someone says "I had such a rough night last night," don't say "oh yea I did too," be a little considerate and ask\u2026
p602
aVRT @TheOnion: Shrimp Would Be Pissed If He Could See The Lame Party He\u2019s Going To Be Served At https://t.co/wuqbZpvYi2 https://t.co/Q3Jk8pB\u2026
p603
aVRT @RyanSeales5: @salonpretzel  https://t.co/Idh7hw8edG
p604
aVRT @SweeneyABC: Because of an unexpected delay, Hawaiian Airlines flight 446 took off in 2018 and will land in 2017. #timetravel https://t.\u2026
p605
aVRT @mineifiwildout: just do it already @NorthKorea https://t.co/nNRs8ZBnd9
p606
aVRT @BarstoolNewsN: Cancel 2018. Nothing can be as dumb as this https://t.co/HktMLNmvTN
p607
aVRT @benshapiro: Why does he keep coming back? https://t.co/M7z3KINu3y
p608
aVIF YOUR EMPLOYER OFFERS 401K MATCHING, MAX THAT SHIT OUT
p609
aVWRONG. \u000a1. START MONTHLY CONTRIBUTIONS TO A ROTH IRA WHEN YOU CAN AFFORD IT.\u000a\u000a2. MAX OUT THOSE CONTRIBUTIONS ASAP N\u2026 https://t.co/H6s6xfxfVp
p610
aVRT @joerogan: We are fucked. https://t.co/Lh5ZXfGW7L
p611
aVRT @quenblackwell: here\u2019s my first vine for V2: https://t.co/iIs1BpEgLx
p612
aVRT @ikebarinholtz: Stupidest tweet of the year with three days left to spare https://t.co/6BY1tsLzg4
p613
aVRT @Jamie_Weinstein: Holy https://t.co/EdWh4oo2SU https://t.co/HiVlLCqn3B
p614
aVRT @jaketapper: Thread https://t.co/WLSy5WYRzh
p615
aVRT @Chargers: soo hungry need to find my wife and head to pf changs 
p616
aV@MikeLayher Oh so we still your residents even tho you're leaving us?????
p617
aVRT @BillRatchet: not anymore https://t.co/eEhl58zuoN
p618
aVRT @KingBoeChrist: Niggas who spent $40 on a durag.... https://t.co/eJTK97T3xH
p619
aVRT @PFTCommenter: V humbeled to have this importent blog about modesty included on a year end list of the best blog\u2019s ever written by hands\u2026
p620
aVRT @WalshFreedom: At 18yrs old, you can enlist in the American military without parental consent.\u000a\u000aLook, if you're old enough to fight &amp; di\u2026
p621
aVRT @chancetherapper: No one has the time to read all this but a few ppl lived through every long day and night of this year with me. Thank\u2026
p622
aVRT @chrissyteigen: Hands down my favorite takes of the night. Not just 2 people wanting to go to tokyo for new year\u2019s eve and sushi nope ht\u2026
p623
aVRT @funtomcorps: https://t.co/J9MDj4KAvV
p624
aVRT @TheOnion: Departing Obama Tearfully Shoos Away Loyal Drone Following Him Out Of White House https://t.co/1bkg1wdscs #OurAnnualYear http\u2026
p625
aVRT @barstoolhrtland: USA Hockey is do or die \U0001f1fa\U0001f1f8 @spittinchiclets https://t.co/zwevaNTCKV
p626
aVRT @suzytokarski99: in hundreds of years, this tweet will be yet another mystery of the past https://t.co/ZjlhyFRxFv
p627
aVRT @jrauser: My son's a little worried that Santa may skip our house because he was sometimes bad this year.  I explained that Santa uses a\u2026
p628
aVRT @joerogan: I saw baby driver last night and I fucking loved it. Best movie I\u2019ve seen in a long time.
p629
aVRT @kevinabstract: this is our tree this year and everyone got each other presents and wrapped them aw except this nigga ameer got everyone\u2026
p630
aVRT @AmericanIndian8: In Victory for Standing Rock Sioux Tribe, Court Finds That Approval of Dakota Access Pipeline Violated the Law https:/\u2026
p631
aVRT @JonahNRO: Spent a lovely morning on the beach. Gonna come back this afternoon with metal detector and look for bitcoins.
p632
aVRT @benshapiro: Jesus was a Middle Eastern Jew. https://t.co/3FKpOzM7il
p633
aVRT @tedcruz: .@RandPaul appreciate the kind Festivus sentiments.  Call me, next time you need somebody to mow your lawn.... https://t.co/m0\u2026
p634
aVRT @PostMalone: shout out to Elon lol
p635
aVRT @chicagotribune: Education Secretary Betsy DeVos reverses Obama policy that forgave student loan debt for students who were defrauded by\u2026
p636
aVRT @mathennarrow_: \u201cOh no what do I call this TRANSGENDER PERSON?1!?!\u201d\u000a\u000aIdk how about their fucking name?
p637
aVRT @WalshFreedom: One more thing to remember about this tax bill: \u000a\u000aThe tax cut for corporations is permanent.\u000a\u000aThe tax cut for you is temp\u2026
p638
aVRT @Diddy: I would like to buy the @Panthers. Spread the word. Retweet!
p639
aVRT @Wu_Tang_Finance: Guys literally only want one thing and quite frankly it\u2019s disgusting https://t.co/bK3zVl1Efm
p640
aVRT @WalshFreedom: If President Trump fires Robert Mueller, he will be impeached. \u000a\u000aAnd he will deserve to be impeached.
p641
aVRT @chancetherapper: Merry Christmas Lil Mama NEXT WEEK https://t.co/ixUUGqCoxF
p642
aVRT @SenWhitehouse: MUST WATCH: Republican @SenJohnKennedy asks one of @realDonaldTrump\u2019s US District Judge nominees basic questions of law\u2026
p643
aVRT @abstractnights: WAIT WAS THAT... https://t.co/UZokZBioPA
p644
aVRT @DavidKlion: Net neutrality dies 3-2. It's really remarkable how many consequential, society-altering decisions are being decided in clo\u2026
p645
aVRT @SenMarkey: I plan to introduce a Congressional Review Act resolution that would restore the Open Internet Order and reverse the @FCC\u2019s\u2026
p646
aVRT @RealMikeM: I see a ton of lies going around the Internet about Net Neutrality and how you're going to wake up tomorrow &amp; have to pay $1\u2026
p647
aVRT @DLeonhardt: After we published a list of Trump's lies this summer, some of his supporters asked us to compare Trump to other presidents\u2026
p648
aVRT @BarstoolBigCat: @DrHipHops Tex you looked very handsome today
p649
aVRT @elonmusk: @kaaningilamo Our existence cannot just be about solving one miserable problem after another. There need to be reasons to liv\u2026
p650
aVRT @suzytokarski99: someone who\u2019s good at science answer this: if someone with mono vapes do the clouds contain mono
p651
aVRT @elainaplott: Moore\u2019s refusal to concede speaks volumes about the current crisis of Christian evangelicalism in America.
p652
aVRT @NBCNews: Reporter: "What message did the election send last night?"\u000a\u000aSen. Johnson: "Alabamians didn't want somebody who dated 14-year-o\u2026
p653
aVRT @brckhmptn: BROCKHAMPTON - BOOGIE \u000a\u000ahttps://t.co/6BuNTQXfKy
p654
aVRT @brckhmptn: BILLY STAR\u000a\u000ahttps://t.co/Nv5oC83uLN
p655
aVRT @theneedledrop: BOOGIE is crack cocaine.
p656
aVRT @chancetherapper: Just got done at work, see ya soon baby. https://t.co/tFskWH8bVk
p657
aVRT @TheOnion: Unpatriotic Man Does Not Maintain Erection During National Anthem https://t.co/hc4PwhHeA2 https://t.co/zXqp7N3KuY
p658
aVRT @okzacb: Brave bullied boy shares heart-wrenching account of mistreatment at the hands of his peers https://t.co/7WyJSstdGZ
p659
aVRT @tomsegura: Hey Keaton, don't get to full or yourself with all this attention. I will fuck You up and there's not a thing that your mom\u2026
p660
aVRT @RobertMaguire_: This isn't an accusation Trump can brush off. In 2005, he *bragged* to Howard Stern about going into the dressing rooms\u2026
p661
aVRT @AnselElgort: \U0001f633 I CAN'T BELIEVE THIS! Violetta woke me up this morning telling me I was nominated for a GOLDEN GLOBE for baby driver!!!\u2026
p662
aVRT @benshapiro: The 13th was pretty big https://t.co/H0PMLH2uTf
p663
aVRT @BIGBABYDRAM: Just googled \u201cnet neutrality\u201d...yeah, we gotta keep that.
p664
aVRT @Eugene_Scott: Moore to an African American asking when he last thought America was \u201cgreat\u201d: \u201cI think it was great at the time when fami\u2026
p665
aVRT @SenSanders: A disaster. A joke. A lie. Here's how these millionaires describe the fraudulent trickle-down economic theory: https://t.co\u2026
p666
aVRT @mikehtrujillo: SOURCES:  @CNN and @washingtonpost working on exposing 20-30 congressional members 4 sexual harassment. #DC
p667
aVRT @Jordan_Morris: I'm sick of these libs telling me I can't say "Happy Honda Days" because I might offend someone who celebrates Toyotatho\u2026
p668
aVRT @NatBurner89: My lungs collapsed. COLLAPSED. https://t.co/ATv5L0kS4C
p669
aVRT @PATAFRIA: He's a child molester. He plead guilty to molesting a child. https://t.co/AkghASiiy6
p670
aVRT @chipgaines: I remember the first time I dropped brush off at the Waco landfill. I was overwhelmed by the sheer mass of it. \u000a\u000aWe have to\u2026
p671
aVRT @chancetherapper: @joeynemati Stop trying to make people hug you Joey. No one wants your hugs or hyperbolic racist comparisons or unbutt\u2026
p672
aVRT @SenatorDurbin: .@SecretaryZinke gave me \u2014 and the American people \u2014 his word that he would protect our country\u2019s historic and magnifice\u2026
p673
aVRT @TheOnion: Alabama Forced To Release Thousands Of Sex Offenders After Inmates Deny Charges https://t.co/kcwsapW4CX https://t.co/fXKDJjwf\u2026
p674
aVRT @djspisme: Keep Christ in Christmas by being Christ this Christmas. https://t.co/D2g27O9GGG
p675
aVRT @sanchez_riley: it\u2019s almost like....wait for it.....climate change is real https://t.co/7ymQAWq099
p676
aVIf you don't like the Tax Cuts and Jobs Act, stop rting shit and actually do something. Our Representative is in th\u2026 https://t.co/bqEdoqZDYI
p677
aVRT @benshapiro: I hope he was clear who \u201cem\u201d was https://t.co/0E5x0wqwK6
p678
aVRT @ilooklikelilbil: good Pussy sound like texting  \u201csave birth control\u201d to the number 22422 to save planned parenthood
p679
aVRT @SenatorDurbin: .@SecretaryZinke and the Trump Administration are keeping Americans in the dark about their plan to shrink our national\u2026
p680
aVRT @maybetomhanks: My two rules are:\u000a\u000a1. Never tell me what to do \u000a\u000a2. Please help me
p681
aVRT @yashar: The gang rape was horrific. The NAACP sent Rosa Parks to investigate. https://t.co/GrBS8aPxoG
p682
aVRT @hannibalburess: I just want to acknowledge that I\u2019ve seen this and you all can stop sending it to me. https://t.co/2UTGHvh3gD
p683
aVRT @theneedledrop: RT to bless a timeline with the image of Jake Paul's dog giving its "seed" to another dog and making new puppies. https:\u2026
p684
aVRT @Pontifex: The earth, our home, is beginning to look more and more like an immense pile of filth.
p685
aVRT @brianschatz: Please RT if you think that every Senator should be given enough time to read a multi-trillion dollar piece of legislation.
p686
aVRT @SenatorDurbin: BREAKING: Senate Democrats just tried to get Senate Republicans to adjourn for a few days and take the time to actually\u2026
p687
aVRT @brckhmptn: https://t.co/pmmCXyEjrn
p688
aVRT @HuffPost: Republicans admit that CEOs and donors really need the tax cut bill to pass -- or else https://t.co/CxJotMRJip https://t.co/o\u2026
p689
aVRT @realDonaldTrump: The Christmas Story begins 2,000 years ago with a mother, a father, their baby son and the most extraordinary gift of\u2026
p690
aVRT @SInow: It is a rare person who gives up what he loves in exchange for what he believes. \u000a\u000aColin Kaepernick is the winner of SI\u2019s Muhamm\u2026
p691
aVRT @suzytokarski99: oh wait a minute https://t.co/6eppJxPgFv
p692
aVRT @nytimes: Horovitz's son Adam, a member of The Beastie Boys: "I believe the allegations against my father are true, and I stand behind t\u2026
p693
aVRT @SenatorDurbin: Just some of the headlines on the #GOPTaxScam. Do I need to say more? https://t.co/x2D7DfQEVs
p694
aVRT @charlescwcooke: \u201cThe belief that GDP growth or this month\u2019s jobs report provides a meaningful judgment on the performance of the presid\u2026
p695
aVRT @kevinabstract: album done. december.
p696
aVRT @thisismarlow: Joyner Lucas - I'm Not Racist | content like this is definitely needed in these times.. https://t.co/hBiy8H7ATY
p697
aVRT @WalshFreedom: Poll shows 71% of millennials want a 3rd political party.\u000a\u000aGood.\u000a\u000ahttps://t.co/2N3S10DdNf
p698
aVRT @CatoInstitute: States that have legalized marijuana for medicinal use have seen a dramatic decrease in opioid use &amp; overdose rates. htt\u2026
p699
aVRT @nbcchicago: Suburban #Chicago mall to close as holiday shopping season continues https://t.co/genacK8jgM https://t.co/qyyTQpbpun
p700
aVRT @LEBassett: NBC sending clear message that sexual predators aren't welcome in the media. Congress and WH sending opposite message about\u2026
p701
aVRT @TODAYshow: Matt Lauer has been terminated from NBC News. On Monday night, we received a detailed complaint from a colleague about inapp\u2026
p702
aVRT @OmarNajam: My son \U0001f64b\U0001f3fd\u200d\u2642\ufe0fwas SO cute today, he asked me "dad are clouds candy?" \U0001f60d I told him they were water. \U0001f4a6 Then he asked "dad, what'\u2026
p703
aVRT @SenSanders: 37 of 38 experts agreed that the Republican tax bills would cause U.S. debt to increase "substantially" faster than the eco\u2026
p704
aV@bluecker43 After this tweet you have 7
p705
aVRT @WalshFreedom: Media is broken. Republicans are broken. Democrats are broken. All of Washington, DC is broken.\u000a\u000aSo we get this guy named\u2026
p706
aVRT @theneedledrop: The only scenario in which people look up to G-Eazy: https://t.co/Nd3pikbmNw
p707
aVRT @redsteeze: So the 2020 campaign started today. Sweet https://t.co/IyUIcA5UIQ
p708
aVRT @ddale8: Trump is holding this event honouring Native American code talkers, and insulting Warren as "Pocahontas," in front of a portrai\u2026
p709
aVRT @GPollowitz: Prince Harry's kids will be Americans. What if one grows up to be president and is in line for the throne at the same time?\u2026
p710
aVRT @Butsay_: why are you so sick ae other cunt\u2019s genders as if it\u2019s any yer actual business? sittin up at night pure foamin at the mouth hi\u2026
p711
aVRT @intelwire: In cybersecurity news, you can get the President of the United States to click on a link from his phone by praising him. htt\u2026
p712
aVRT @WalshFreedom: When I got elected in 2010, a bunch of pissed off small business owners ran for Congress for the 1st time.\u000a\u000aIn 2018, we'r\u2026
p713
aVRT @jessesingal: It's not worth it\u000a\u000aThe bad guys always win\u000a\u000aSeriously\u000a\u000aWhoever already has the money ALWAYS gets to make all the rules, fo\u2026
p714
aVRT @djspisme: Count your blessings.\u000a.\u000a.\u000a.\u000acc: @chancetherapper https://t.co/yrCQBnMFVT
p715
aVRT @UncleChaps: Playgirl called to say that I was PROBABLY going to be named \u201cMan (Person) of the Year,\u201d like last year, but I would have t\u2026
p716
aVRT @chrissyteigen: Nahhhh b https://t.co/BqrHRoq0V5
p717
aVRT @maggieNYT: Last year one of the parody accounts hit me and a few others. I did a double-take on this. It's real. https://t.co/zohgnuwb0J
p718
aVRT @JamesMartinSJ: In case anyone has forgotten:\u000a\u000aChild abuse is a sin.  \u000aSexual abuse is a sin.  \u000aSexual harassment is a sin.  \u000aRacism, an\u2026
p719
aVRT @christinawilkie: As a journalist, this is borderline offensive. \u000a8:06AM: White House makes pool reporter issue a correction to say "The\u2026
p720
aVRT @benshapiro: You get the feeling that Trump is one of those people who gives a birthday gift, then waits by the mailbox for a thank you\u2026
p721
aVRT @kevinabstract: trilogy + demos https://t.co/GnRNhAIbW4
p722
aVRT @SenatorDurbin: This will tear families apart, damage our economy, and harm U.S. national security interests. I call on the Trump Admin\u2026
p723
aVRT @SenSanders: Ridiculous. The idea of \u201cclean coal\u201d is pure fiction. It's a concept intended to keep us tied to fossil fuels when we shoul\u2026
p724
aVRT @bobby: 3. the wire\u000a2. the sopranos\u000a1. this two-minute clip of nathan for you https://t.co/OeOY3U9UOv
p725
aV@TomiLahren Finally, I went to their website and these socks are advertised for $14.99. You can buy higher quality\u2026 https://t.co/PBXfJGUfyg
p726
aV@TomiLahren Crappy socks. Third, notice how the fabric doesn't change at the toe? Good socks will have thicker toe\u2026 https://t.co/ufixb3MPcc
p727
aVYou obvi don't know good socks @TomiLahren so lemme give you a lesson on high quality socks. First off look at the\u2026 https://t.co/J0CpVj9aYD
p728
aVRT @SenatorDurbin: I'll save you a click. It's easy for dangerous people to get guns in America. https://t.co/Bqat9Tk63F
p729
aVRT @barstoolsports: \u201cAnd don\u2019t even get me started on Lonzo. I thought Hillary was crooked until I saw his jump shot. His field goal percen\u2026
p730
aVRT @WalshFreedom: We have a stupidly complicated, convoluted tax code that screws average Americans and takes too much of our money.\u000a\u000aRepub\u2026
p731
aVRT @MessyBunLuvr: LMFAOOOOOOOOOOOOO https://t.co/iMMmvW8Slx
p732
aVRT @realDonaldTrump: Put big game trophy decision on hold until such time as I review all conservation facts. Under study for years. Will u\u2026
p733
aVRT @lilnativeboy: Just a reminder last year on Thanksgiving that Natives were being tortured with dogs, illegal scare tactics, being run ov\u2026
p734
aVRT @drewtoothpaste: this is the only good skate vid i have seen in my entire life https://t.co/BaTXhbe6jY
p735
aVRT @Wu_Tang_Finance: Trump when he tweet about Al Franken https://t.co/7UikNvZEBG
p736
aVRT @thehill: #BREAKING: Keystone pipeline shut down after large oil spill https://t.co/RCucUa0tx7 https://t.co/9SKyUFPeS0
p737
aVRT @CNN: 210,000 gallons of oil have leaked from the Keystone Pipeline in South Dakota, according to TransCanada, the pipeline\u2019s operator h\u2026
p738
aVRT @WalshFreedom: .@amandacarpenter just nailed it: "There is no partisan high ground on sexual harassment. For every Trump, there's a Clin\u2026
p739
aVRT @frankthorp: CBO\u2019s updated estimate on repealing the individual mandate: \u201cThe number of people with health insurance would decrease by 4\u2026
p740
aVRT @SenatorDurbin: Yesterday in the dark of night, Senate Republicans decided they want to raise your taxes and health care costs at the sa\u2026
p741
aVRT @politico: Tim Kaine calls for eliminating superdelegates https://t.co/9wT14ztIrq https://t.co/ntqurvzzb2
p742
aV96% favor requiring background checks for all gun purchases, 75% favor a 30 day waiting period for all gun sales, 7\u2026 https://t.co/0sOXwYs7Bm
p743
aVIn America you don't say "I don't listen to my constituents" you say "It is not the time to be talking about gun co\u2026 https://t.co/lKM9PZKMMj
p744
aVRT @SenatorDurbin: Republicans now want to pay for tax cuts for the wealthy by taking health care away from 13 million Americans.
p745
aVRT @Coach_Lantz: Congratulations to @maxhatch99 on being named @RoseHulmanFB Week 10 Offensive Scout Player of the Week! @CoachBFarquhar #W\u2026
p746
aVRT @SenSanders: Renewable energy, like wind and solar, are the kinds of projects the federal government should be focused on\u2014not more drill\u2026
p747
aVRT @barstoolsports: Cards Against Humanity is buying land on the Mexican Border so President Trump can't build his wall\u000ahttps://t.co/eJYFOC\u2026
p748
aVRT @PastorJS3000: No, fellow Christians, it\u2019s not always persecution. Sometimes you\u2019re just being really weird and it\u2019s making everyone unc\u2026
p749
aVRT @AymanM: WOW==&gt; US congresswoman @JackieSpeier (D-CA) tells Chuck Todd: \u201cthere is about 15 million dollars that has been paid out by the\u2026
p750
aVRT @SenatorDurbin: The American people are still in the fight against climate change \u2014 even if the President isn't. #StillIn https://t.co/O\u2026
p751
aVRT @Tesla: MIT researchers rebut misleading @FT article \u2014 truth is that EVs are way cleaner than petrol cars https://t.co/Pv7K9tU7hr https:\u2026
p752
aVRT @TheOnion: "Our data confirm that the vast majority of cyclist injuries can be avoided simply by driving an automobile instead of biking\u2026
p753
aVRT @barstoolsports: This is easily the best Easter Egg from Stranger Things 2\u000ahttps://t.co/t7spM2sS2Q https://t.co/4qWTw843hW
p754
aVRT @ActionBronson: The worlds most famous arena. https://t.co/TZ7PeQkpz9
p755
aVTop Christmas tracks of all time:\u000a\u000a1.) Merry Christmas lil Mama (the entire album) by Chance and Jeremih\u000a\u000a2.) Chris\u2026 https://t.co/OAIIRRk0LL
p756
aVRT @angelAmyV: WAIT THIS IS SO COOL https://t.co/Yfb6rFFeHg
p757
aVRT @theneedledrop: Keurigs suck anyway, and are really wasteful.\u000a\u000aJust make coffee like a regular non-lazy human adult.
p758
aVRT @MyStephanomics: This has not has nearly enough attention today. https://t.co/64rohB0JjR
p759
aVRT @WalshFreedom: Trump says Putin told him again that Russia didn't meddle in the election. And Trump says he believes him.\u000a\u000aSmh. Putin is\u2026
p760
aVRT @BarstoolBigCat: https://t.co/TlcWs0kMMd
p761
aVRT @SenSanders: It's nice to see Republicans in Congress looking out for the people who really matter: their wealthy donors. https://t.co/B\u2026
p762
aVRT @stoolpresidente: MACTION https://t.co/bKhahsVTri
p763
aVRT @Wu_Tang_Finance: MAX\u000aOUT\u000aYOUR\u000aMOTHA\u000aFUCKIN\u000aRETIREMENT\u000aACCOUNT\u000aCONTRIBUTIONS
p764
aVRT @barstoolsports: PSA: Dont Do Drugs https://t.co/erlLtAteMB
p765
aVRT @SenatorDurbin: Syria has now joined the Paris Climate Agreement leaving the U.S. as the only country that's rejected it.\u000a\u000aThis is embar\u2026
p766
aVRT @SenatorDurbin: The President should change his slogan to \u201cAmerica Last.\u201d https://t.co/JTyyUI6ii6
p767
aVRT @SenatorDurbin: 93% of gun owners want background checks on every gun sale. Why can\u2019t the United States Congress take this up? https://t\u2026
p768
aVRT @lilyachty: On cod tonight w @UglyGod &amp; my @FaZeClan family
p769
aVRT @SenatorDurbin: 94% of Americans (93% of gun owners) want background checks on every gun sale. Retweet if you do too.
p770
aVRT @theneedledrop: https://t.co/CLM0iYrXio
p771
aVRT @mathennarrow_: In reality, cities like DC, Baltimore, and New Orleans have significantly higher gun violence rates per capita
p772
aVRT @TheOnion: \u2018No Way To Prevent This,\u2019 Says Only Nation Where This Regularly Happens https://t.co/ZtrimxH2yD https://t.co/L17GlAA9ym
p773
aVRT @BarstoolBigCat: Have you seen Silver Fox Blago? He's gonna crush outside of prison https://t.co/HYkFvI20AD
p774
aVRT @Cubs: Historic. https://t.co/0y8EhWYLMM
p775
aVRT @PostMalone: STOP ADDING ME ON XBOX I LOVE U BUT I DO NOT WANT TO PLAY WITH U
p776
aVRT @kdill1235: Unbelievable https://t.co/VW3rdrqc8k
p777
aVRT @Starting9: Alex Bregman is a damn LEGEND https://t.co/ZyxHRAkTUl
p778
aVRT @MatthewACherry: What a time https://t.co/7A8zGUsoiO
p779
aVRT @barstoolsports: Carlos Correa 1000% played the entire game with that ring in his back pocket @Starting9 https://t.co/YM6tPy50ig
p780
aVRT @TulsiGabbard: The DNC shrugged off the qualms of independents &amp; progressives in 2016. Unfortunately, it appears they haven\u2019t learned fr\u2026
p781
aVRT @Wu_Tang_Finance: Chemical dependency is an illness, not a character flaw. https://t.co/3P7VkQOZNN
p782
aVRT @UncleChaps: Welcome To November 1st: The Official First Day Of Christmas Season https://t.co/6bgOoM4REA
p783
aVRT @chancetherapper: Happy Halloween https://t.co/rwEwQWwLyw
p784
aVRT @lilpump: DR PUMP IM A HARVARD GRADUATE https://t.co/vBusAYPZBd
p785
aVRT @BarstoolBigCat: If you aren't excited for #MACtion tonight check your pulse. #DegenerateChristmas https://t.co/oroNoxuzQg
p786
aVRT @Starting9: You\u2019re damn right that friend of the program, @D_Ross3, knows the drill https://t.co/oeaUIbwSzy
p787
aVLeave Daddy in 2017. It's almost 2018 now my girl calls me Sarge and I call her Maggot
p788
aVRT @djspisme: \u201cToday was when Martin Luther posted his Yelp review about the Church.\u201d @JSandersChicken
p789
aVRT @nbcsnl: Ready for November. #SNL https://t.co/sigwYZzlqh
p790
aVRT @FinnSkata: Oh god https://t.co/2PsDpdmkhb
p791
aVRT @FinnSkata: Yo France just drank from your water fountain. Why is it in a toilet, and why does is taste weird? #thewondersofeurope
p792
aVRT @theneedledrop: HOLY CRAP THIS IS AWFUL: https://t.co/ZU3Jzlvw7k
p793
aVRT @AdamSchefter: Vascular surgeons are trying to save Bears TE Zach Miller's leg, not just his career, per @mortreport.
p794
aVRT @JoseCanseco: Maybe I am from the Upside Down? Maybe all humans are a invading species from another dimension from old open gate? Would\u2026
p795
aVForget the flag code what is she actually supposed to be?? It's Halloween not the forth get a real costume ya dweeb https://t.co/yycwATd3lO
p796
aVRT @lilpump: LIL PUMP https://t.co/8yk9qKjpDs
p797
aV@OGMeatBoy Wild night brother
p798
aVRT @OGMeatBoy: Spent two racks on a new chain\u000a\u000aMy bih luh do cocaine \u000a\u000aYUH https://t.co/9RTbua4LF2
p799
aVRT @therealautoblog: Americans waste $2.1 billion on premium fuel, @AAAauto says: https://t.co/7T2nsygSPq https://t.co/1lpcahUlVE
p800
aVRT @NathanMorrow219: HOMIE MLA CITED AND EVERYTHING https://t.co/IcaVAzKX9M
p801
aV@OGMeatBoy Dude it's an actual fact that the Earth's temperature is rising but what people debate about is man made climate change
p802
aVRT @OGMeatBoy: Joey I'm your friend and I'm supposed to support you but holy hell what are you blabbering about all this for? \U0001f602\U0001f602 https://t.\u2026
p803
aV@OGMeatBoy Save the earth dude
p804
aVAlso fuck cows because they fart out SO much methane (greenhouse gas) and still save the bees. I'm done now
p805
aVThis means even as we get rid of gas/diesel cars we are still polluting the world from the energy used to power these cars
p806
aVhttps://t.co/Y1WYVKnALI Both coal and natural gas still produce CO2 which means 64% of our energy generation produces CO2. Which is stupid.
p807
aVRenewable energy only makes up 14.9% of our energy generation. The majority of our electricity comes from natural gas and coal 64.2%!!!!!
p808
aVCOAL IS NOT CLEAN. CLEAN COAL IS NOT A THING. If we wanna talk about clean energy lets talk about renewable energy so lets talk.
p809
aVThe CO2 causing ocean acidification is largely produced from burning coal for energy and from our cars. So no matter what anybody says:
p810
aVThe Great Barrier Reef is dying and it's getting worse https://t.co/HSKqNjIxOk I dont think I have to explain why this is a big fuckin deal
p811
aVhttps://t.co/vPqFUngFeD CO2 is leading leading cause of ocean acidification. This is not a future problem this is a now problem
p812
aVI'm sure you all know about the greenhouse effect so I'm not gonna talk about that. Instead lets talk about the acidification of the oceans
p813
aVFirst, the world is getting warmer. That's a fact. https://t.co/EwqkItnhWy
p814
aVBuckle up ladies and gents because this is gonna be a good one
p815
aV1 like and I'll go on a rant about how we're destroying the Earth
p816
aVRT @barstoolsports: Marshawn Lynch spent his 1 week suspension Beast Mode-ing his old high school team\u000ahttps://t.co/2Si9Z2F8Eh https://t.co\u2026
p817
aVI don't know what turns me on more the car or the possibility of a Baby Driver sequel https://t.co/zKjXhEAnix
p818
aVRT @IASIPALLCAPS: Group Costume Idea https://t.co/H3cpXqz8Lv
p819
aVRT @itsbaeily: "Turn on the jets they said. It will feel nice they said." I'M CRYING\U0001f602\u000a https://t.co/9dkKdtJkJ6
p820
aVRT @Wu_Tang_Finance: Oh yeah let\u2019s discourage saving money when the majority of people already have inadequate retirement savings good fuck\u2026
p821
aVRT @SenSanders: .@SenTedCruz said he never called Social Security a Ponzi scheme. But Ted, we got it on the damn screen. https://t.co/GZmID\u2026
p822
aVRT @JustJOSH_ingYa: Burger King just released one of the best anti-bullying PSAs I've ever seen https://t.co/0RV1JUvBd2
p823
aVRT @OGMeatBoy: Some questions are too profound for the human mind https://t.co/NFsb3tsBRm
p824
aVRT @hannibalburess: Both of y'all need to grow up. https://t.co/96UmmKUoct
p825
aVRT @tedcruz: @BenSasse  https://t.co/CRKdrSDWes
p826
aVRT @chipgaines: Just hangin with my boy @TomCruise. He \u201cdemanded\u201d that I let him wear my hat.. so what could I say. https://t.co/kdKsKejIxR
p827
aVRT @Starting9: You know you\u2019ve gone and fucked up when someone is Mutumbo finger wagging right in your face https://t.co/UMTOj2JYtB
p828
aVRT @Knorr: 1.2bn #food posts a year, 815M go to bed hungry. 1 RT=1 meal donated by Knorr to @WFP up to 1.5m #ShareTheMeal https://t.co/2Mew\u2026
p829
aVRT @SInow: The Gronkowskis challenged A-Rod and the Sharks to a game of flip cup on Shark Tank \U0001f602 https://t.co/y1YhpnAlEn
p830
aVRT @barstoolsports: Action Bronson knows #SAFTB https://t.co/vexPy50nwt
p831
aVRT @Tstraikerd303: Mrs J shared her survivor \u201860 Vette with our Auto students today.  Siiiiiick! \U0001f60e https://t.co/RABT4Pbmwk
p832
aVRT @D_Ross3: Way to get it done @Cubs \U0001f44a #FlyTheW
p833
aVRT @Cubs: #Cubs win the NLDS!\u000a\u000aWe advance to our 3rd straight NLCS! #FlyTheW https://t.co/s7NkDsuPn7
p834
aVRT @barstoolsports: What. A. GAME. The defending Champs move on to the NLCS https://t.co/Mpkl18VW41
p835
aVRT @barstoolsports: This candy commercial during the ALDS was all sorts of fucked up\u000ahttps://t.co/29Dg8fIL10 https://t.co/Dy2msCcI2K
p836
aVRT @Tstraikerd303: Auto Club and ISO prepping for the Homecoming Parade together in the auto shop.  Cool kids riding is style tomorrow! \U0001f60e #\u2026
p837
aVRT @barstoolsports: A Chicago company is paying to keep the DC Metro open late tonight https://t.co/4g4l56FsPb https://t.co/POXWs9PaDU
p838
aVRT @SenSanders: We looked into it, @realDonaldTrump. It\u2019s called the First Amendment to the U.S. Constitution. You should check it out some\u2026
p839
aVRT @UglyGod: It's so sad that y'all believe that Zodiac shit. You read a bland COMMON description &amp; use it as an excuse to do the bullshit\u2026
p840
aV@Max_Kurinsky Correction: Strasburg had diarrhea yesterday. Everybody knows you can't pitch like shit if all the sh\u2026 https://t.co/4XprI6qMg3
p841
aVRT @BarstoolBigCat: Strasburg should really be wearing a coat today, he may catch a cold
p842
aVStrasburg didn't have a cold he had diarrhea and he's gonna shit himself mid pitch today #BrownMound @Max_Kurinsky
p843
aVRT @G59Records: $UICIDEBOY$ @ LOLLAPALOOZA\u000a\u000a\U0001f4f9: @MaxDotBam https://t.co/b25GXnuPoo
p844
aVRT @iamcardib: I can\u2019t take it no more \U0001f622\U0001f622\U0001f62a\U0001f62a\U0001f62a\U0001f62a\U0001f62a\U0001f62a I gotta take a shit on this plane and I hate to do it to people
p845
aVRT @Starting9: Will someone please let Bryce Harper out of the locker that Granny just stuffed him in? https://t.co/T0ZAjsDCzw
p846
aVRT @barstoolsports: The Cubs are guaranteed to win Game 4 if these ladies in the bleachers keep chanting "Bryce has lice"\u000ahttps://t.co/Wqlr\u2026
p847
aVRT @NathanForYouOoC: https://t.co/syBBLXalOM
p848
aVRT @barstoolsports: Thoughts and prayers to anyone who bet the under today https://t.co/hdem7Dzrb2
p849
aVRT @chancetherapper: Effortless https://t.co/4hayVGYpKz
p850
aVRT @chancetherapper: Philosopher https://t.co/4hayVGYpKz
p851
aVRT @KiranADavid: Ya'll think Derrick Rose gonna take a knee this season? https://t.co/8cmC90au0L
p852
aVRT @SenJeffMerkley: You've got to be kidding me with this nominee. https://t.co/85w8Ru2618
p853
aVRT @barstoolsports: Meanwhile in the NHL we have a literal bloodbath going on https://t.co/2Vwiulv78e
p854
aVRT @MeninistTweet: the ball is respecting women https://t.co/mA56DjRp5e
p855
aVRT @Wu_Tang_Finance: GET LEARNT.\u000aNOT TURNT.\u000aITS A THURSDAY.
p856
aVRT @barstoolsports: This dude skateboarding his car down a hill is the dumbest/funniest thing you'll see today\u000ahttps://t.co/gpTBfi9HY3 http\u2026
p857
aVRT @BasebaIlKing: The Cubs hype video is absolutely amazing \U0001f60d\u000a\u000ahttps://t.co/nty0IyBJl3
p858
aVRT @RevoltTV: Ahead of @MarshallMovie hitting theaters, REVOLT's @daniellesaid explains why @ChanceTheRapper embodies the spirit of Thurgoo\u2026
p859
aVRT @barstoolsports: \U0001f5e3 PLAYOFF BASEBALL SZN IS HERE https://t.co/zEO4D23VRK
p860
aVRT @BabyDriverMovie: The most stylish film of the year is available on Digital now! Step on the gas and own Baby Driver today! https://t.co\u2026
p861
aVRT @OGMeatBoy: #StopPostingEverydaySceneryOnYourSnapStory2017
p862
aVRT @FakeSportsCentr: "In my defense guys, I tried to F**KING retire." - Jay Cutler https://t.co/haupuW0Z5U
p863
aVRT @Starting9: Pablo Sandoval hit a walk-off home run like a fucking idiot that cost the Giants the No. 1 overall pick: https://t.co/rMxSOp\u2026
p864
aV@OGMeatBoy "I have to wipe"
p865
aVRT @OGMeatBoy: Fixer Upper will go down as the best HGTV show of all time don't @ me
p866
aVRT @ActionBronson: IM CRAZY LIT ON THE @RachaelRayShow RIGHT NOW.
p867
aVRT @barstoolsports: BYU ends their ban on caffeinated beverages, students go BANANAS\u000ahttps://t.co/jHRh1tbAsM https://t.co/04AdDyt9qg
p868
aVRT @barstoolsports: WMU students protest after the school changes "Goofball" Buster the Bronco Mascot to be more "Lean and Athletic"\u000ahttps:\u2026
p869
aVRT @mathennarrow_: Your sorority is not your "new home". Stop.
p870
aVRT @barstoolsports: The Emmys were last night and for the 12th year in a row, the best show on TV Always Sunny wasn't even nominated. https\u2026
p871
aVRT @hannibalburess: Atlantic City.  Borgata. https://t.co/ilrtaZGbZg
p872
aVRT @chancetherapper: Please watch the Minion https://t.co/30pqNyFBji
p873
aVRT @LeleTill: See you in court Palmer Paint Products https://t.co/0mxXgGCQcn
p874
aVRT @barstoolsports: .@RobbieBarstool: Is the Indians' win streak as impressive as the Undertaker's undefeated streak at WrestleMania? https\u2026
p875
aVRT @ActionBronson: JUST TO LET YOU KNOW ILL BE RAPPING IN CHICAGO AT RIOT FEST ON FRIDAY, PHILLY ON SATURDAY AND BC7000 RELEASE PARTY AT TH\u2026
p876
aVSome balding 40 year old dude in Sperrys just out benched me
p877
aVRT @VERRLUST: if you're having a bad day, here's a video of post malone and vic mensa singing hey there delilah together \U0001f62d https://t.co/lQZ\u2026
p878
aVRiff raff is a national treasure https://t.co/3HjBrBabud
p879
aVRT @richchigga: Omg @PostMalone surprised me back with a full gospel choir this is the best birthday gift of all time. https://t.co/6Ryc5Al\u2026
p880
aVRT @BarstoolBigCat: I love twitter https://t.co/MDQLrMwM4Y
p881
aVRT @flightkyum: PLEASE TALK ABOUT BARBUDA. DONATE MONEY FOR BARBUDA. DONT FORGET ABOUT BARBUDA. THEY NEED HELP. https://t.co/WsZXcMIds5
p882
aVRT @barstoolsports: #OperationClownFace  https://t.co/KMt9LdVJ6R
p883
aVRT @barstoolsports: #OperationClownFace was a complete success https://t.co/g3fAZq9JmI
p884
aVRT @undisputed: .@ShannonSharpe: JJ Watt raised $20M for charity and no one told him to stick to sports. They did when Kap donated $1M out\u2026
p885
aVRT @hondadeal4vets: where da fook is maywedda
p886
aVBlind USC long snapper with eye cancer comes onto the field\u000aKid behind me:\u000a"He probably stared at the eclipse"
p887
aVRT @fakeshoredrive: 12 years ago today\u000a\u000aSeptember 2nd, 2005 https://t.co/p0ZlAhDVA5
p888
aVRT @LILBTHEBASEDGOD: Lonzo ball is a few seconds away from being cursed his rookie year on the lakers, nas is hip hop and always relevant,\u2026
p889
aVRT @LILBTHEBASEDGOD: Did lavar ball really say something about nas that was not of the highest respects concerning hip hop? You have been w\u2026
p890
aVRT @soundboi1017: Action Bronson bumping Lil Pump \U0001f62d Legendary.. \U0001f602\U0001f62a @ActionBronson @lilpump https://t.co/aVjnjNgObV
p891
aVRT @erilu99: Oh https://t.co/JOBvY7qFjg
p892
aVRT @barstoolsports: This is the closest thing you'll see to an Iverson crossover on a baseball field @Starting9 https://t.co/kIg95tqQET
p893
aVRT @umksig: Kappa Sig will be donating $0.25 for every RT and $0.10 for every like this tweet gets towards #HurricaneHarvey relief efforts\u2026
p894
aVRT @BarstoolNewsN: Even hurricane evacuees are putting CNN in a body bag. https://t.co/3knetmyoEx
p895
aVRT @ActionBronson: THAT MOTHAFUCKING BLUE CHIPS 7000 IS HERE..
p896
aVWtf is up with like 8 artists dropping music on a goddamn Thursday night
p897
aVRT @eggsbruh: im trying to be this stoned for the rest of my life https://t.co/uHBt8YCvO1
p898
aVRT @ActionBronson: 40 YARD CHICKEN PARM BOMB!!!!!!!!!!!!!' HOLY FUCK!!! https://t.co/eXs6TroOMN
p899
aV@djspisme 30 seconds later "yeah we gave them the technology to gas the Jews thats on us"
p900
aVRT @SenSanders: Here's what happened when a Republican senator challenged a Canadian doctor on their single-payer health care system. https\u2026
p901
aVRT @RyanGafford: @UglyGod 25k rts you drop another single?
p902
aVRT @DcCallie: https://t.co/jLVUGVNs0m
p903
aVRT @ActionBronson: In my country you insult someone's Father you get sent to the farm to fuck a horse. -Svetlana
p904
aVWomen are all the same. They just want our waterbeds fellas
p905
aVRT @stceulti: Huge shoutout to @StCharlesD303  for purchasing the team brand new frisbees for next season. Much better then wasting taxes o\u2026
p906
aVRT @BBWslayer666: https://t.co/ZOTNdhootP
p907
aVRT @lmScampi: Kendrick literally had an entire arena spitting HUMBLE. for a solid minute completely acapella. FUCKING HYPE. https://t.co/F1\u2026
p908
aVRT @Wu_Tang_Finance: Yo. IDGAF if it's Prime Day, earth day, your birfday or monday. Don't buy shit you don't need
p909
aVRT @pitbull: Thank you @MaddyBurke_ Dale! https://t.co/BD1j9XgWUa
p910
aVRT @NPR: Volvo will launch 5 fully electric cars between 2019 and 2021; 3 will be Volvos and 2 sold under the Polestar brand. https://t.co/\u2026
p911
aV@__alliethomas__ The police right there
p912
aVRT @PhillyCustoms: Mask Off (really on the molly and percocets edition) https://t.co/hm8bM6IfT6
p913
aVRT @OGMeatBoy: No one likes gluten-free communion @gsumcyouth https://t.co/iMA22PiaeQ
p914
aVRT @stfuslutx: 8. ) you must be really SICK  https://t.co/2UZ044pFdv
p915
aVRT @ActionBronson: LEMME BREATHE MOTHAFUCKA https://t.co/F6Y4iBhkvQ
p916
aVRT @WMuckian: everyone is ridiculing Michael Phelps for racing a shark but we don't even know for sure if the race is happening in water
p917
aVRT @TheNotoriousMMA: THE FIGHT IS ON. https://t.co/KhW0u3jRft
p918
aVRT @TeslaMotors: Tesla Model X is the first SUV ever to receive a 5-Star safety rating in every category \u000ahttps://t.co/hTUyeBrxvI
p919
aVRT @ActionBronson: NEW HEAT DROPPING THIS FRIDAY!!! ZANE WIT ZE EXCLUSIVVVVE. https://t.co/7berwJcleY
p920
aVRT @elonmusk: Or is it more about the way you use it? https://t.co/VvqgOX3XFJ
p921
aVRT @isco__: @elonmusk @TeslaMotors BREAKING: $TSLA stocks see record high as CEO Elon Musk confirms he goes commando. More at 11. https://t\u2026
p922
aVRT @elonmusk: @rolandscahill @TeslaMotors Wearing anything at all is just a conspiracy by the capitalist running dogs of Big Underwear
p923
aVRT @PatriotHole: Hmm...Weird how liberals LOVE when Chester Cheetah wants to talk about Cheetos, but HATE him when he offers to drive them\u2026
p924
aVRT @Hoemar___: IT WAS ONE OF MY COUSINS FROM THE REUNION.
p925
aVRT @mathennarrow_: D303 hates fun
p926
aVRT @JessieFagann: "I'm afraid that if I give birth to a kid, I won't love it"-Muffin 2017
p927
aVRT @colesprouse: Greatest part about the USA becoming feudal is that I can finally wear full plate armor without it being called 'larping.'
p928
aVRT @mathennarrow_: Dolphin on Wheels- Kill the Noise
p929
aVRT @SenSanders: I know a $15 minimum wage is radical to Republicans.\u000a\u000aYou know what\u2019s radical? That people working 40 or 50 hours a week li\u2026
p930
aVRT @EastAutos: Mr. Straiker has a burning passion for East Side Autos https://t.co/C0f3JdfJc5
p931
aVRT @Tstraikerd303: Congrats Saints Auto III Sanders, Middendorf, Kane, Fletcher, Meneses, Kennedy, Spagna on earning ASE certs yesterday! \U0001f3c6
p932
aVRT @EastAutos: https://t.co/kUpVvIoV72
p933
aVRT @AriRabinHavt: Pre Butte rally @BernieSanders and @RobQuistforMT shoot some hoops https://t.co/BoKdvE3W7Y
p934
aVRT @NathanMorrow219: Just a couple guys blazin' with their teacher https://t.co/ynnprtHEdT
p935
aVRT @NathanMorrow219: @Max_Kurinsky has never caught a pull in his life, don't believe this FAKE NEWS https://t.co/3ya081aatO
p936
aVRT @mathennarrow_: ROUND 2 FEAT YUNG MATT GILL
p937
aVRT @mathennarrow_: Jim Richter please stop talking
p938
aVRT @stceulti: STCEULTI is pleased to present the Distinguished Pull Catcher Scholarship:\u000aa coupon for a small boneless wing from B-Dubs, to\u2026
p939
aVRT @stceulti: STCEULTI is pleased to present the Distinguished Pull Dropper Scholarship:\u000aa Quaker Oats Chewy Dipp Granola Bar, to @NathanMo\u2026
p940
aVRT @stceulti: "Catch your D's or you're cut."\u000a-@jakeohara4 https://t.co/V7cF2ME8jx
p941
aVRT @NathanMorrow219: Get ready for the greatest holiday of the year\u000aThis Friday (May 19):\u000aDress like Alan Evans day https://t.co/NLDNlEmqNg
p942
aVRT @nedoliver: Things are getting dark at Washington Post Magazine https://t.co/9mNZj2t3jr
p943
aVRT @SenSanders: 99.8% of Americans would not receive a nickel in tax breaks from the repeal of the Estate Tax. https://t.co/U71xD4NPvM
p944
aVRT @sarahischica: peep my senior quote @UglyGod https://t.co/x9gmpU8BwF
p945
aVRT @SenSanders: No president since Nixon has secretly recorded conversations in the White House. If Trump did make recordings they must be\u2026
p946
aVRT @richchigga: BORN IN '99 AND I GOT 99 CHICKS IN MY CRIB
p947
aVRT @OGMeatBoy: Only 8 more months. I know you're nervous but we'll make it through this together. Happy Mother's Day. https://t.co/LDpW880q\u2026
p948
aVThis is some real hot garbage https://t.co/fucMsf4qAe
p949
aVRT @EastAutos: Pictures from our first official meeting https://t.co/MxNeZnKDfO
p950
aVRT @LILBTHEBASEDGOD: I apologize to James harden I'm ready to talk and end the curse... it's time to talk and be the leader everyone believ\u2026
p951
aVRT @EastAutos: Did a oil change on a Porsche. Very nice car if I say so myself\U0001f609 https://t.co/izg4ShYYOb
p952
aVRT @DennysDiner: do you ever yearn for the soft touch of a pancake
p953
aVRT @EastAutos: Thank Mrs. Veto for your support. We are happy to be your heroes\u2764\ufe0f https://t.co/GjNHFhvkRy
p954
aVRT @ClickHole: Embarrassing: Mug Has Recalled 40,000 Cases Of Root Beer That The CEO Just Wanted Back https://t.co/GOLQ3XYsIz, https://t.co\u2026
p955
aVRT @EastAutos: Our Assistant Manager and Sales Rep are proud to support STC's marketing classes #saintssupportingsaints https://t.co/PS0OjH\u2026
p956
aVRT @billwurtz: bout to explain the entire world, i guess
p957
aVRT @EastAutos: Master Tech putting pads on Mr.Sloan's Car https://t.co/p8Tc843ORb
p958
aVRT @myfavoritenumbr: me after #apmacro today https://t.co/QxCio4pRAu
p959
aVRT @stceulti: My Wauconda don't want none unless you got hucks hun. Saints take 2 more W's from Wauconda and Batavia ending the season with\u2026
p960
aVRT @EastAutos: Thank you Mr Evans for the positive feedback. We love happy customers like you. https://t.co/UpNsH4ZspK
p961
aVRT @mathennarrow_: Pussy Supply Increases b/c FOMO BBIM
p962
aVRT @mathennarrow_: Bong, with Monster instead of water, it's a vape, fidget spinner as you hit it, exhale Mountain Dew and dorito dust
p963
aVRT @barstoolsports: Now teeing off, Randy Johnson https://t.co/9ZyG59gedi
p964
aVRT @ewee33_: AP Calc exam: what I expected vs what I got #apcalc https://t.co/sSYil3HqFS
p965
aVRT @EastAutos: Preparing to fix a leak on the Toyota Tundra https://t.co/VOWhyhiAvJ
p966
aVRT @EastAutos: The management team busy doing finances and ordering parts https://t.co/Je1D5sDNXB
p967
aVRT @EastAutos: Master Tech diagnosing an issue. https://t.co/jXVYYocsPC
p968
aVRT @EastAutos: Patching a tire for Mr.Collons https://t.co/KkWTyZOqfR
p969
aVRT @EastAutos: Back to work after a fun weekend! https://t.co/PhIe1FhZuF
p970
a.