(lp0
VThe \u201cPearl level\u201d\u2014named for owner Dana Pearl\u2014goes above and beyond LEED\u2019s highest level for sustainability and ener\u2026 https://t.co/7uBmqd242o
p1
aV\U0001f44f\U0001f3fc https://t.co/KpYFaJ9NCU
p2
aVBeat the SAD \U0001f44a\U0001f3fc https://t.co/Z9YaEkVOV1
p3
aVThe Casten/Roskam race in Illinois's 6th Congressional District is one of the most closely watched races this midte\u2026 https://t.co/Bmf8LGalXu
p4
aVRT @TBrandStudio: Want renewable energy? Try growing it in saltwater. In the future, algae could be a major source for biodiesel fuels. htt\u2026
p5
aVRT @redeyechicago: Planters peanut IPA collaboration with Chicago brewer tastes better than a gimmick\u000a\u000ahttps://t.co/beL0T4ZIYk https://t.co\u2026
p6
aVSo excited to be at @ChicagoCouncil\u2019s Global Health and Development Symposium! #arewethereyet? https://t.co/Q5okDeP7TW
p7
aVRT @chicagotribune: Chicago Mayor Rahm Emanuel announces he will not seek a third term https://t.co/2jNYFzeI6y
p8
aVThe $3.9 bil deal had aimed to create a conservative broadcasting giant, with Sinclair proposing to control 233 sta\u2026 https://t.co/oYrPuOrgL2
p9
aV#medillfriday outside Billy Goat Tavern #Team8 https://t.co/DjHloVOghI
p10
a.