(lp0
VRT @AdamSchefter: Here's an interesting one in Gregg Williams' first game as Browns' HC: Cleveland safety Damarious Randall is a healthy sc\u2026
p1
aVRT @BetoORourke: On the road again! Hope you'll join us at:\u000a\U0001f69912:00 in Austin at the Pan American Neighborhood Park\u000a\U0001f6994:00 in San Antonio at\u2026
p2
aVRT @MikeLupica: The guy who murdered 11 people at a synagogue, and the guy who sent the mail bombs, and the guy who shot up a yoga studio i\u2026
p3
aV@greggutfeld Dude, it's a comedy show, they make fun of people, it's their job
p4
aV@MDayne @MaryAnnAhernNBC @Ward_Room Awesome!!!\U0001f602\U0001f602\U0001f602
p5
aVRT @MDayne: @MaryAnnAhernNBC @Ward_Room A small gesture.  Get it, small, as in Little Marco.
p6
aVRT @StaceyWeikel: I am a woman who is tired of old white men telling me what I can do to my body.\u000a\u000aThis is my first ever #FBRParty\u000a\u000aI WILL\u2026
p7
aVRT @JBPritzker: .@BruceRauner refused to negotiate a budget for over two years, and Illinoisans are still suffering the consequences becaus\u2026
p8
aVRT @ChrisCuomo: Ur a \u201cProud Christian\u201d? No wonder pride is a deadly sin. Think Jesus would call migrants \u201cillegals\u201d? You know your faith as\u2026
p9
aVRT @elizabethforma: 10/17: @realDonaldTrump says he is too "busy" to visit American soldiers in Iraq and Afghanistan.\u000a\u000a10/18: @realDonaldTr\u2026
p10
aV@GOP That's why people on Republicans  administration's have been indicted only 89 times, compared to democrats, wh\u2026 https://t.co/yVlKfpwgk4
p11
aVVote Beto, say no to lying Ted Cruz https://t.co/uaYh1RiSBB
p12
aVRT @SoxOn35th: In honor of Angel Hernandez blowing every call at first base tonight, let\u2019s take a look back at this beauty from 2013. https\u2026
p13
aVRT @elizabethforma: Hey @realDonaldTrump, hope you\u2019re having fun at your rally. Too bad you\u2019re the least popular incumbent president in mod\u2026
p14
aV@kpowell720 I'm going to go bold and say the rookie Harrison Bader. Highest above average runs saved this year with 17, it led the league
p15
aVRT @ChiSoxFanMike: AND THIS BALLGAME IS OVAH! FLY THE L! FLY THE L! FLY THAT L! THE CUBS ARE DONE!\u000a\u000aLETS GO!!!!!!!!!!!!!!
p16
aVRT @SirWilson72: I have seen this many times and am finally joining the party. Strength in numbers.\u000a#FBRParty\u000a#FollowBackResistance\u000a\u000aI'll f\u2026
p17
aVRT @PPact: BREAKING: GOP @senjudiciary members have advanced Brett Kavanaugh\u2019s nomination to the floor. They have railroaded his nomination\u2026
p18
aVI'm ready to see the #Browns bring it on #TNF @nflnetwork. Who you got?
p19
aVRT @BillWeirCNN: After @realDonaldTrump touted an \u201cunsung success\u201d in #puertorico we just confirmed an airport runway-full of FEMA bottled\u2026
p20
aV@realDonaldTrump Quote from one of lowlife scums in the USA
p21
aV19 #soxmath
p22
aV@jasonbenetti thanks for the shout out
p23
aV@jasonbenetti stop, I just yawned too
p24
aVRT @NBCSWhiteSox: A.J. Pierzynski made quite the grab next to Hawk in the booth on Hawk Day:\u000a\u000ahttps://t.co/JEelyBe8gB https://t.co/y4S4RzEp\u2026
p25
aV#soxmath 21
p26
aVRT @whitesox: Mercy! RETWEET for a chance to win 2 tickets to the Hawk documentary premiere event on September 6. https://t.co/pRsMZs6VOY
p27
aVRT @scottmerkin: The numbers don't quite show it yet, but Moncada looks more comfortable at the plate over the last 10 days to 2 weeks. 3-0\u2026
p28
aVRT @BNightengale: The Chicago #WhiteSox will NOT call up prized prospect Eloy Jimenez in September, but are hardly alone among clubs execut\u2026
p29
aV#soxmath
p30
aV42#soxmath
p31
aVRT @thomaskaine5: trump's APPROVAL rating is at 44%and 90% among GOP...I don't get it...are these people nuts?...means we have to push hard\u2026
p32
aV#soxmath 18
p33
aVRT @ChuckGarfien: Records since the All-Star break:\u000aWhite Sox 19-17\u000aAstros        17-15\u000aNationals   18-18\u000aDodgers     17-18\u000aPhillies\u2026
p34
aV#soxmath  147
p35
aVRT @BarackObama: Congratulations to Hawaii for winning the Little League World Series! You make America very proud. \U0001f919\U0001f3fe https://t.co/8Un7LPX\u2026
p36
aV#soxmath 3
p37
aVRT @arturaskerelis: @realDonaldTrump https://t.co/7ifjkfonV4
p38
aV#soxmath 42
p39
aV@jasonbenetti I want for baseball Christmas for the Whitesox to call up Eloy in September!!!!
p40
aV@jasonbenetti Is Steve in a crabby mood tonight, I'm at the game so i don't know what's going on in the booth
p41
aV@fromthe108 This sucks, his first game, can't even get through two innings! hopefully they'll let him come back out.
p42
aVRT @donlemon: #Cohen &amp; #Manafort. Let the tweet storm begin. https://t.co/7gtb9E1gpv
p43
aVRT @whitesox: RETWEET for a chance to win an autographed @MichaelKopech5 baseball! \u000a\u000a\U0001f517: https://t.co/7q1KVA8nXu \u000a\U0001f39f: https://t.co/55ArzXsN5T\u2026
p44
aV50\u000a#soxmath
p45
aVRT @jasonbenetti: We are in a delay.\u000a\u000aMichael Kopech is not.
p46
aVRT @TheDemocrats: Democrats know that #FamiliesBelongTogether and we will hold the Trump administration accountable. Every family must be r\u2026
p47
aVRT @Starting9: Happy Birthday to the one true \U0001f410 https://t.co/2bnDpkvtzG
p48
aV45\u000a#soxmath
p49
aVRT @ChiSoxTrump: ESPN has ignored our great organization for years, constantly working against us. Now, after me and my supporters boycotte\u2026
p50
aV63\u000a#soxmath
p51
aVRT @ChiSoxFanMike: Since the Cubs and Brewers play each other today, I thought I'd compare them head to head:\u000a\u000aLineup: Brewers\u000aStarting rot\u2026
p52
aV17\u000a#soxmath
p53
aV17\u000a#soxmath
p54
aVIt was great seeing Jim Thome being honored at last night's game
p55
aVRT @jasonbenetti: Tough to find anyone more genuine and kind than Jim Thome.
p56
aVRT @ChrisCuomo: You want an easy win? Here is a pro tip: go after the Nazis peddling hate, not our sports heroes who are protesting injusti\u2026
p57
aV42\u000a#soxmath
p58
aVRT @ananavarro: #hypocrites https://t.co/ktGD95wqvc
p59
aV@ananavarro Thank you for pointing out Trump's failures as President, for reporting #realnews, and for being a grea\u2026 https://t.co/Sphdr5zfLO
p60
aVRT @donlemon: Happy birthday big guy. I meant every word. \U0001f382 https://t.co/ePgoaQmDiT
p61
aV@BillWeirCNN @thehill Sad, we need to continue pointing EVERY mistake Trump makes until Election day when the dems\u2026 https://t.co/Ma5evwTlMG
p62
aVRT @Ken_Rosenthal: #Phillies acquiring 1B Justin Bour and cash from #Marlins for a minor-league pitcher, sources tell The Athletic.
p63
aVRT @TheDemocrats: In 88 days we have the opportunity to take our country back and fight back against the GOP agenda. Do you have everything\u2026
p64
aV@JBPritzker Yes!
p65
aVRT @MichiganDems: How is there no money to fix the water crisis in Michigan, but we can afford to fund Trump\u2019s #spaceforce?https://t.co/yV3\u2026
p66
aV@realDonaldTrump You are not the Commissioner of the NFL, quit fuc**ng talking about it, and be a man!!!
p67
aV@Danielbpalka Palk Smash
p68
aVRT @TheWrap: Chris Cuomo Boosts CNN's Primetime Ratings by Double Digits in First 2 Months https://t.co/dCCOt1R7VS https://t.co/qh4qYGXNQR
p69
aVRT @Acosta: My comment to @StephenAtHome in response to @realDonaldTrump attack on the press that we are the enemy of the people. \u201cIn a gov\u2026
p70
aVRT @BillWeirCNN: I spent a soul-crushing and infuriating day with scientists trying to find the "smoking gun" in Florida's red tide dead zo\u2026
p71
aV@jasonbenetti @whitesox Manny ramirez
p72
aV@jasonbenetti You guys should bring back the root beer floats in the booth. They might bring us some luck!
p73
aVRT @SenFeinstein: President Trump already slashed the refugee cap from 110,000 to 45,000, and he\u2019s likely to admit fewer than half of that\u2026
p74
aVRT @TrumpsareNazis: @PalmerReport @realDonaldTrump Join the team. Midterm Massacre. https://t.co/MrHgD7ehkl
p75
aV@Allenswifee @IngrahamAngle @BillWeirCNN @SturgisRally @realDonaldTrump Ya, I can't stand fox news, I just said how they could get better
p76
aV23\u000a#soxmath
p77
aV@JBPritzker I'm too young to vote, however both my parents have got your vote. Continue fighting for what is right
p78
aV@BillWeirCNN Great job reporting in Sturgis, you did a great job. Continue to be the great journalist and reporter you are.
p79
aVReally impressed with @IngrahamAngle with this tweet. We need more of them from both sides. https://t.co/rtv9q0XjCs
p80
aV@IngrahamAngle @BillWeirCNN @SturgisRally @realDonaldTrump Fox news could be really great if other newscasters coul\u2026 https://t.co/qMIcAfT8sC
p81
aV24\u000a#soxmath
p82
aVRT @Broncos: "It's a great time to be a Bronco."\u000a\u000aWe agree, @VonMiller. \U0001f44f\u000a\u000a\U0001f4fa: @nflnetwork https://t.co/R5tDy3aa9D
p83
aVRT @ChiSoxFanMike: Cease (AA) on 7/25:\u000a7 IP, 1 H, 0 ER, 1 BB, 12 K\u000a\u000aRodon on 7/29:\u000a7.2 IP, 5 H, 2 ER, 1 BB, 6 K\u000a\u000aCease (AA) on 7/30:\u000a6 IP,\u2026
p84
aVHappy Birthday to President Barack Obama !!! https://t.co/CFO7y3cG1I
p85
aVRT @donlemon: Who\u2019s the real dummy? A man who puts kids in classrooms or one who puts kids in cages? #BeBest https://t.co/XO50qVksnR
p86
aVRT @colinmochrie: LeBron James donated 8 million to open a school for at risk kids. Lord Dampnut donated 300,000 to a porn star to keep qui\u2026
p87
aV@realDonaldTrump But I thought Cnn was fake news? No Donald, ur the fake news
p88
aV54\u000a#soxmath
p89
aVRT @nprpolitics: President Trump won Ohio's 12th congressional district by double digits in 2016.\u000a\u000aNow, Republicans fear they'll lose an up\u2026
p90
aVRT @SenateDems: Why are Republicans working so hard to hide Judge Kavanaugh\u2019s records as WH Staff Secretary? \u000a\u000aKavanaugh touted that job as\u2026
p91
aV@wasram @BearsBarroom Don't want to get injured again though
p92
aVRT @TheDailyShow: Trump\u2019s Best Words of 2017 https://t.co/jHeHQ7RNmd
p93
aV147\u000a#SoxMath
p94
a.