(lp0
VThose about to GOTV, we salute you! #gotv #bluewave #ildems
p1
aV@RodneyDavis has never had a good relationship with the truth. https://t.co/hGAQ63EEfQ
p2
aV8 years (actually more) and she\u2019s still sticking with me. I\u2019m a lucky guy! Happy Anniversary Jen! https://t.co/zgcVWVnNca
p3
aV@PeteButtigieg said it best. @BruceRauner has turned Illinois into a dumpster fire. #ThanksRauner https://t.co/06fkwirLJ5
p4
aVRT @AndyManar: For different reasons, that shout out from @BruceRauner for #FixTheFormula was almost as satisfying as the shout out I got f\u2026
p5
aV\u201cThis election will determine our children\u2019s and grandchildren\u2019s future.\u201d I couldn\u2019t agree more @BruceRauner. That\u2019\u2026 https://t.co/JAJPI68aYA
p6
aVRT @IllinoisWorking: omg rauner is touting the grand bargain that HE SUBMARINED \u000a\u000a(cc: christine radogno)\u000a\u000a#ilgovdebate #ilgov #twill
p7
aV@BruceRauner talking about raising the minimum wage is laughable. He believes that $8.25 is too high. #ILGovDebate #JBforGov #ILDems #twill
p8
aVGovernment employees are owed the pensions that they earned. Unfortunately @BruceRauner doesn\u2019t agree. #ILGovDebate #JBforGov #ILDems #twill
p9
aVCan @BruceRauner name one company that is growing in Illinois that will leave when he loses? #ILGovDebate #JBforGov #ILDems #twill
p10
aV@JBPritzker lands a good zinger. \u201c@BruceRauner is living in a state of denial and the rest of us are living in the\u2026 https://t.co/od93b2T2xV
p11
aVHey @AndyManar, do you remember @BruceRauner leading on changing the public school funding formula? #ILGovDebate #JBforGov #ILDems #twill
p12
aVWatch @BruceRauner try to take credit for the public school funding formula change. Just remember folks, he\u2019s vetoe\u2026 https://t.co/dZ1LKujMMO
p13
aV@BruceRauner talking out of both sides of his mouth on tariffs. You can\u2019t oppose tariff wars but agree with\u2026 https://t.co/EZkJWUaVmE
p14
aVProgressive taxes is a tax on the top 1%, not the middle class. Stop lying @BruceRauner. #ILGovDebate #JBforGov #ILDems #twill
p15
aVHey @BruceRauner, people are leaving Illinois because you have gutted higher education. #ILGovDebate #JBforGov #ILDems #twill
p16
aVFair point, @GovernorQuinn created more jobs during his time in office than @BruceRauner has created during his tim\u2026 https://t.co/u4mf1pXRRU
p17
aV@BruceRauner goes on rant to try to deflect from his colossal failure as Governor. Desperation is not a good look f\u2026 https://t.co/O4N9bJc0C2
p18
aVWait a second, @BruceRauner\u2019s administration kept the outbreak at the Quincy Veterans Home a secret. That\u2019s pretty\u2026 https://t.co/TnZjMLR6g2
p19
aV\u201c1st day action was taken to keep veterans safe.\u201d @BruceRauner starts the debate with a whopper of a lie.\u2026 https://t.co/UxVfBNaaqO
p20
aVRound 3 of live tweeting for tonight\u2019s Governor\u2019s Debate. #ILGovDebate #JBforGov #ILDems #twill
p21
aVYesterday was in the 90s in @Springfield_IL. Today it will be in the 60s. Yep, nothing is wrong with our climate.
p22
aVOuch https://t.co/J319EJF1ig
p23
aVRT @cljmitchell: .@JBPritzker: we\u2019ve had Republicans as gov most of the last 40 years; but only gone two years without a budget: under Bruc\u2026
p24
aVI can\u2019t wait till @BruceRauner gets the term limit he so desperately wants. #GivinBruceTheBoot #twill #ILGovDebate #JBforGov
p25
aV@BruceRauner opposes Illinois being a \u201csanctuary state\u201d for immigrants but is okay with Illinois allowing counties\u2026 https://t.co/94if2RZf6d
p26
aVThank you @SenatorBush, @susanamendoza10, &amp; @StateRepAmmons for leading the charge on changing the culture of campa\u2026 https://t.co/EUlgW0jNKx
p27
aV\u201cBest education system cradle to career\u2026\u201d by gutting higher education. How many state universities are hanging on b\u2026 https://t.co/oii93aaXE6
p28
aVFACT: @BruceRauner vetoed the new school funding formula. He doesn\u2019t support public education and doesn\u2019t get to ta\u2026 https://t.co/Ekd6yNgUvB
p29
aVThe fact is, if you have earned a public pension, @BruceRauner doesn\u2019t believe that you deserve it. #twill #ILGovDebate #JBforGov
p30
aVTHE DEATH PENALTY IS NOT A DETERRENT TO MASS MURDER! #twill #ILGovDebate #JBforGov
p31
aVRT @IllinoisWorking: RAUNER claims supermajority could have passed whatever they wanted\u000a\u000aREALITY: Rauner "convinced" a key Democrat to stay\u2026
p32
aVOh wonderful, we\u2019re back to @BruceRauner dropping his \u201cg\u2019s\u201d again. #twill #ILGovDebate #JBforGov
p33
aV@BruceRauner owes an explanation to the families of the veterans who died under his watch. Everything else aside, v\u2026 https://t.co/RgKs3stIZl
p34
aVDidn\u2019t @BruceRauner make his millions by chopping up companies, selling them for parts, and walking away with the p\u2026 https://t.co/Rnty5IteEt
p35
aV@BruceRauner talking about stand up for the middle class is an absolute joke. His goal has always been to destroy t\u2026 https://t.co/K33i1VMczo
p36
aVLet\u2019s try this live tweeting thing again. #twill #ILGovDebate #JBforGov
p37
aVCounty Chair McCombs was one of the first County Chairs to take me under her wing on my first statewide campaign. S\u2026 https://t.co/i4YmDWvH3c
p38
aV@RonHolmesIL @ILDCCA Thanks for your help with the Brunch.
p39
aV46 days till @BruceRauner gets booted out of office. #JBforGov https://t.co/QXtsDayUlX
p40
aV@sneed_mike @KashJackson2018 I only counted 5 but it was a little loud at the watch party I was at.
p41
aV@BruceRauner, have you ever taken responsibility for anything? Ever? #ILGovForum @JBPritzker
p42
aV@BruceRauner you didn\u2019t do anything to improve the education funding formula. @AndyManar has led this issue and you\u2026 https://t.co/jg7XeIikor
p43
aV@BruceRauner helping eduction in Illinois. #ILGovForum @JBPritzker https://t.co/wXiMNOnfbI
p44
aVDidn\u2019t @BruceRauner keep his money offshore? #forgetmuch #ILGovForum @JBPritzker
p45
aV@BruceRauner #ILGovForum https://t.co/heU0upW0oK
p46
aVIt\u2019s apparent that @BruceRauner can\u2019t keep his cool during this debate. Not the traits of a leader. #IlGovForum @JBPritzker
p47
aV@BruceRauner gutted social services when he held the budget hostage. Can\u2019t lie about that. #ILGovForum @JBPritzker
p48
aV@BruceRauner doesn\u2019t get to answer the @Kaepernick7 question? #ILGovForum @JBPritzker
p49
aV26 minutes for the first dropped G\u2026 @BruceRauner
p50
aVPeople want stability in government, not 2.5 yrs of being a cry baby and holding the state budget hostage. Thanks\u2026 https://t.co/oN2iiUyBzo
p51
aVBottom line is @BruceRauner doesn\u2019t believe that public sector employees deserve their pensions that they are owed. #ILGOV @JBPritzker
p52
aVIt\u2019s a little insulting when @BruceRauner lies and laughs about it. #ILGOV @JBPritzker
p53
aV@BruceRauner plays fast and loose with the truth. Progressive income tax is a increase on the top 1%. Middle class\u2026 https://t.co/0oN3FJPMoi
p54
aVHere you go @BruceRauner. #ILGOV @JBPritzker https://t.co/mIQlNljzho
p55
aVI\u2019m going to try live tweeting the #ILGov debate tonight. First attempt at something like this. \u000a\u000aUnder / over on t\u2026 https://t.co/zORdkpgzlh
p56
aVRT @ILDCCA: Tonight at 6:00 we'll be watching the #ILGov candidates debate between @JBPritzker and @BruceRauner. Follow us here using the #\u2026
p57
aV@sfdlocal37
p58
aVHat tip to the @SFD_IL on the quick response today. My son was excited to see all the fire trucks there. https://t.co/3GiABVYIzi
p59
aVRT @SangamonDems: A great turnout tonight for the Sangamon County Democrats! Thanks to Treasurer Mike Frerichs for stopping by and helping\u2026
p60
aVTOUCHDOWN IRISH! @NDFootball #NDvsMICH
p61
aV@cbwhitson83 Very tasteful of course.
p62
aVWhat do you bring to the #SecondCivilWar? Cheese plate, beer, voter registration forms? Someone please share the me\u2026 https://t.co/2OpsM9HbUU
p63
aVWell done, boss! @Doug_DEM_House #ProudDemocrat https://t.co/redBhVt95E
p64
aVSo\u2026 the sky is orange right now. Pretty sure this is supposed to happen. https://t.co/Kvq0WyPX0L
p65
aVI\u2019m looking forward to this year\u2019s @ILDCCA County Chairs\u2019 Brunch!\u000a\u000ahttps://t.co/NdK1r1Lkcj https://t.co/rjICHq7de0
p66
aVRT @ILDCCA: Are you a young, or young at heart, professional in the Chicago area and your looking for a way to help the #BlueWave in Illino\u2026
p67
aV@Terminix The technician said I\u2019d be getting a survey about his visit and anything less than 9\u2019s would mean he fail\u2026 https://t.co/weaQedWOgY
p68
aVI would love, just once, that @Terminix actually showed up on time.
p69
aVRT @VR3995: Kudos to Dan Kovats for a great Democrat Day in Springfield. #hardworkandcommittment https://t.co/oesMwHGNsk
p70
aV120 plus candidates getting ready to take the fight to the Republicans! Proud to play a small part in making that h\u2026 https://t.co/M5MHKokDWL
p71
aVRT @zakouts84: What @ILDCCA has accomplished under the leadership of Chairman House and @DanKovats is nothing short of incredible. Keep it\u2026
p72
aV@zakouts84 @ILDCCA Thanks @zakouts84! Always happy to help. @Doug_DEM_House is great to work for.
p73
aVRT @ILDCCA: Thank you Senator @DickDurbin, @JBPritzker and @KwameRaoul for stopping by our Springfield Reception this evening. Democrats ar\u2026
p74
aVRT @JBPritzker: If you\u2019ve ever thought about running for office, then the time is now. It\u2019s easy to run - sign up today to run with Project\u2026
p75
aVHonored to be elected the 1st Vice Chair of the @SangamonDems! Time to get to work to elect Democrats and beat Bruce Rauner. #Democrats
p76
aVParked for two hours on I-55 at Pontiac. This is ridiculous. @IDOT_Illinois https://t.co/u0oW2asbra
p77
aVUnbelievable https://t.co/H02pSwhzFH
p78
aVRT @ILDCCA: Congrats to @JBPritzker &amp; @JulianaforLG! Let\u2019s work together to unite @demsforillinois and win in November! #JBForGov #Democrat\u2026
p79
aVI was honored to watch @JBPritzker accept the Democratic nomination for Illinois Governor tonight. I\u2019m looking forw\u2026 https://t.co/I2jvYTdraL
p80
aVThank you to all the campaign staffers working the Illinois Democratic Primary Election. You have put your candidat\u2026 https://t.co/zpuhOmIXGS
p81
aVYour staff is playing Uno\u2026 I don\u2019t think \u201cbusy\u201d means what you think it means. https://t.co/JJn1z2Qu6L
p82
aVIf your Irish everyday or just today, Happy St. Patrick\u2019s Day!
p83
aVRT @ILDCCA: \u201cAll  Democratic candidates and campaigns should have a meaningful and  legitimate policy on sexual harassment,\u201d said Doug Hous\u2026
p84
aV@BrotherRice I knew it looked familiar!
p85
aVWait a second. Was that the Main Gym at @BrotherRice HS I just saw in a Humria commercial?
p86
aVBravo @GDouglasJones, @aldemocrats and @TheDemocrats! Now let\u2019s gear up for 2018! #Democrats https://t.co/IwY1ON7ltg
p87
aVRT @ananavarro: Roy Moore lost. \u000aSteve Bannon lost. \u000aDonald Trump lost.\u000aPedophilia lost.\u000aBigotry lost.\u000aHomophobia lost.\u000aRacism lost.\u000a\u000aDoug\u2026
p88
aVHAHAHAHAHA!!! You have to have accomplished something to be named \u201cPerson of the Year\u201d. https://t.co/F7iYW2bp7a
p89
aVRT @Pres_Bartlet: .@butterball If I cook stuffing inside the turkey is there a chance I could kill my guests? I'm not saying that's necessa\u2026
p90
aVI\u2019m looking forward to helping get @Kelly4SouthrnIL elected to Congress! https://t.co/4u7HbmmfKU
p91
aVRT @NOTSportsCenter: REPORT: Since it\u2019s 7-0, The Cubs have asked if they can switch to football and put Mitch Trubisky into the game to try\u2026
p92
aV@ChicagoBears win, @packers lose, @Cubs lose! https://t.co/sSrSeIQil7
p93
aVRT @JBPritzker: .@JulianaForLG and I are humbled to receive the endorsement of the @ILDCCA as we build our statewide, grassroots campaign!\u2026
p94
aV@renato_mariotti Whats the line when we say enough is enough? 100, 200, 500 murdered? I can't figure out what it's\u2026 https://t.co/zNtKCYAPy0
p95
aVUnfortunately I think we'll send our thoughts and prayers, then proceed on like nothing happened. Typical response from our country.
p96
aVWhen are we going to say maybe we should consider something, anything really, to stop gun violence in our country.
p97
aVWhat level of mass shootings is too much? Shooting school children, targeting elected officials, country music concert? When is enough?
p98
aVAnother senseless mass shooting in America. https://t.co/7ELQ7DuZju
p99
aVNothing better than helping @TheDemocrats get on the ballot for 2018! @susanamendoza10 @MikeforIllinois\u2026 https://t.co/1Kd4WEqnfr
p100
aV@realDonaldTrump You keep using the word "united". It does not mean what you think it means.
p101
aVRT @BarackObama: Proud to cheer on Team USA at the Invictus Games today with my friend Joe. You represent the best of our country. https://\u2026
p102
aVIt must be hard to be this insecure. https://t.co/pdBiPQ7oM2
p103
aVRT @BarackObama: We remember everyone we lost on 9/11 and honor all who defend our country and our ideals. No act of terror will ever chang\u2026
p104
aV@ChicagoBears And there's the @ChicagoBears defense we know and love\u2026
p105
aVThe @ChicagoBears are actually playing decent football today. Not great but not that bad.
p106
aVRT @Toby_Ziegler: In the future, @realdonaldtrump, if you're wondering: 'Hurricanes. Boy, I don't know' is when we decided to kick your ass\u2026
p107
aVRT @USAWrestling: The United States of America. The 2017 World Champions in men's freestyle wrestling at the World Championships in Paris,\u2026
p108
aV@GovRauner How many police/fire LODD families didn't receive survivor benefits bc you held the budget hostage? But\u2026 https://t.co/r0VlovC5Zc
p109
aVRT @traecrowder: Liberal Redneck - Virginia is for Lovers, Not Nazis\u000a\u000a#Charlottesville #LoveYall https://t.co/TsNrRVjyS3
p110
aVThis is what you say when you can't bring yourself to call it what it really is\u2026 a terrorist attack by a white supr\u2026 https://t.co/hmXTkTOAwc
p111
aVRT @IllinoisWorking: Our one word review of @GovRauner's Fox News interview:\u000a\u000aBroken. \u000a\u000aSee for yourself &gt; https://t.co/hbdWnjZsvJ
p112
aVThis is what it's like when you work in politics. \u000a\u000aWhen I\u2019ve completely lost the concept of weekends https://t.co/6PgRb6L0ao
p113
aVRT @RadicalCandorIL: For just $6.96, the cost of a few coffees, you can help @GovRauner learn how a bill becomes a law - https://t.co/YiZwg\u2026
p114
aVRT @TomPerez: This is not a drill. Mitch McConnell wants to vote to repeal the ACA today. Call now, and then keep calling: (202) 224-3121.
p115
aV@boyscouts @Nationaljambo17 If I wasn't reconsidering put my young son into @boyscouts, I am now.
p116
aVAs an Eagle Scout, I'm embarrassed that the @boyscouts had someone address the @Nationaljambo17 who doesn't live up to the Scout Oath &amp;Law.
p117
aVRT @BarackObama: John McCain is an American hero &amp; one of the bravest fighters I've ever known. Cancer doesn't know what it's up against. G\u2026
p118
aVRT @RadicalCandorIL: Let's just see if the Governors Office cameras still work...they do!  Live look at the 16th floor. #winning #twill htt\u2026
p119
aVRT @ILAFLCIO: IL has a budget.  Despite @GovRauner veto, legislators passed a budget.  Rauner can't hold budget hostage to pass his anti-un\u2026
p120
aVRT @IllinoisWorking: BREAKING - ILLINOIS HOUSE OVERRIDES GOV. RAUNER, PASSES BIPARTISAN BALANCED BUDGET!\u000a\u000aIllinois has a budget for the fir\u2026
p121
aVhttps://t.co/JZe3wu9P7X
p122
aVGetting really tired of morale victories. We need to work to put up some Ws to stop Trump.
p123
aVI don't know whether to laugh or be embarrassed. #ThanksRauner https://t.co/U2xKLU4r04
p124
aVThe @HouseofCommons, it's like Congress with a two drink minimum. https://t.co/vET4mmeRMV
p125
aV@realDonaldTrump, at least your still number one at something\u2026 https://t.co/ZM5aRr17Z0
p126
aVI have a hard time understanding house hunters shows\u2026 tonight is newlyweds who are starting their first jobs. Total budget is $800,000\u2026
p127
aVAlderman suggests it would be good if 25-30 kids disappeared from gang violence &amp; now claims he was misunderstood.\u2026 https://t.co/GZTRzxo9Qh
p128
aVAnd this is why he's the Captain! https://t.co/0QBZdNX5OR
p129
aVI need a cup of #covfefe in the morning before I deal with the stupidity of @realDonaldTrump. https://t.co/piLRcMQCFn
p130
aVAdventures in Springfield driving\u2026 when the @SMTD_Online bus cuts across 2 lanes of traffic to make a right turn from the left lane.
p131
aVRT @ILDCCA: This past weekend close to 100 candidates completed the first ever IDCCA &amp; National Democratic Training Committee... https://t.\u2026
p132
aVAn amazing day at the @ILDCCA &amp; @TrainDems Candidate Boot Camp. We have some amazing candidates getting ready for 2\u2026 https://t.co/WBHud4kTcP
p133
aVNice to see the offense step up. https://t.co/UkOWGvHQSX
p134
aVRT @McJesse: TRUMP: Can't be an investigation if there's no FBI Director. https://t.co/iX3YrP95sP
p135
aVRT @PolitiFact: We've updated our Trump Golf Tracker. As of April 29, the count:\u000a\u000aObama 1, Trump 14 https://t.co/BQrYsVMyRz https://t.co/3I\u2026
p136
aVRT @SamSeaborn: In case you were wondering, "Governing, boy I thought it would be easier," is when we decided to kick your ass. #resist
p137
aVBut I thought I'd be tired of winning by now @realDonaldTrump.\u2026 the only thing you've accomplished is embarrassing\u2026 https://t.co/4HZtoo9MpY
p138
aVAt least I'm not going to have to drop a mortgage payment watching the @NHLBlackhawks this postseason.
p139
aVTrue story https://t.co/RjAOJhWwUW
p140
aVRT @traecrowder: Liberal Redneck - Mama Missiles and Baby Dictators\u000a\u000a(Full video on YouTube channel) https://t.co/OUa7eaC4uF
p141
aV@aerszk @hellbentpod @CheriBustos Thanks for the mention @hellbentpod! A lot of great things are happening with Illinois Democrats! @ILDCCA
p142
aVRT @CarolAmmons4IL: "We won in areas Republicans never expected us to be competitive in." -@DanKovats of @ILDCCA \u000a#CompeteEverywhere https:\u2026
p143
aV"We had a pretty good day" https://t.co/gfHgIVQxZc
p144
aVHypocrite in Chief @realDonaldTrump, wasting tax payer money to prove he's horrible at golf. https://t.co/tBsn7cyiVT
p145
aVRT @Toby_Ziegler: That moment when you're watching the White House press briefing and yelling "STOP TALKING. STOP TALKING RIGHT NOW" at the\u2026
p146
aVRT @NOTSportsCenter: The Cubs turned Stephen Piscotty into Scott Sterling\u000a\u000a(Video via @RT_Ohio)\u000ahttps://t.co/UfX00S7fE4
p147
aVRT @DiCensoforWard6: I'm looking forward to serving the residents of Ward 6 as their Alderwoman! https://t.co/70nb16jiwM
p148
aVFor all my campaign friends\u2026 don't take anything for granted tomorrow. CKD! https://t.co/TaqL4DTpoi
p149
aVI'm looking forward to seeing @DiCensoforWard6 on the Springfield City Council! #DiCensoForWard6 https://t.co/zEyI3DohRo
p150
aVRT @ananavarro: Stalled travel ban. Wire-tap lie revealed. Investigation on Russia ties. Health-care debacle. Trump must be getting really\u2026
p151
aV@realDonaldTrump didn't realize that healthcare could be so complicated\u2026\u000a\u000ahttps://t.co/RJbu3BlVfM
p152
aV@realDonaldTrump didn't realize that healthcare is complicated\u2026 https://t.co/OpDs0mqdhB
p153
aVSomeone let @realDonaldTrump play with a big boy truck. https://t.co/IEQPMRia80
p154
aV@plain_tim, To the good St. Patrick, Happy St. Patrick's Day boyo.
p155
aVRT @NOTSportsCenter: BREAKING: Your bracket is already busted. Better luck next year. #selectionsunday
p156
aVDoesn't U.S. Government tap all communications between our citizens &amp; known enemies our of country? This speaks vol\u2026 https://t.co/0blUSkA2eq
p157
aVBecause dictators don't like free press. https://t.co/kRx12tNCSK
p158
aVToday has been a fun day at the office. https://t.co/HNpaKz8BXf
p159
aVDoesn't @realDonaldTrump get @POTUS intel briefings &amp; would know that nothing happened in Sweden? #SwedenStrong\u2026 https://t.co/CsPX29IwSB
p160
aVWithin the first month of being in office @realDonaldTrump has gone on vacation 3 weekends in a row. Let that sink\u2026 https://t.co/o9Jd6kmjzm
p161
aVBrutally honest truth https://t.co/Uz9BgXWaND
p162
aVEveryone shall now point and laugh at @realDonaldTrump. Your #MuslimBan has been stopped! https://t.co/qtf8fsYBux
p163
aVSo much for stepping away from family businesses. I wonder how much money @realDonaldTrump stands to lose. I hope i\u2026 https://t.co/YACLQ395D4
p164
aVEvery time @realDonaldTrump speaks\u2026\u000a\u000ahttps://t.co/9uI9dmblje
p165
aVSo when do you leave @realDonaldTrump? https://t.co/yvguTbzPq4
p166
aV@realDonaldTrump and his #MuslimBan now caused Iran to ban Team @USAWrestling from the World Cup. #ThanksTrump https://t.co/g95QFOf8G7
p167
aVRT @chrislhayes: Not *one word* about the Muslims slaughtered in their house of worship by a white supremacist Trump fan. Not one. https://\u2026
p168
aVSince @realDonaldTrump has been running the country like a reality show, I'm disappointed that the #SCOTUSnominee w\u2026 https://t.co/yzWGxv7Wb9
p169
aVRT @ILDCCA: The straw poll results are as follows.  These results were tabulated from 5,352 responses and examined for... https://t.co/NTfg\u2026
p170
aVHow's that Muslim ban working out @realDonaldTrump? One week in office and the courts had to stop you. https://t.co/USKblEpZgM
p171
aVIt's nice to see @realDonaldTrump focused on issues like made up "voter fraud". My three yr old son has less temper tantrums than this guy.
p172
aVWho should run to take on @BossRaunerIL? Vote in the straw poll and share with your friends! https://t.co/P8kfFTrsf9
p173
aV#alternatefacts must be @realDonaldTrump code for blatant lies. https://t.co/2c8bzlDhIa
p174
aVRT @PolitiFact: White House Press Sec. @seanspicer: "That was the largest audience to witness an inauguration, period." https://t.co/9GOBo3\u2026
p175
aVFirst day in office &amp; @realDonaldTrump needs to have a measuring contest. "My event was bigger than yours\u2026" Acting\u2026 https://t.co/ZTB3W6UhVj
p176
aVWhen @realDonaldTrump says "Buy American" what he means is buy stuff that makes him money. He could care less about\u2026 https://t.co/8fzfHQ1xZG
p177
aV@POTUS44, you were better than we deserved. Thank you for your service. https://t.co/qChiUYe9b0
p178
aV#BarackandJoe #Bromance #ThanksObama https://t.co/Lukty909Wn
p179
aV#4moreyears \u000a#ObamaFarewell https://t.co/4DW3KKTUCU
p180
aV#ObamaFarewell https://t.co/l2MnfuwYz1
p181
aVExcited to meet @keith4dnc last night! https://t.co/Z3F8KEercb
p182
aV@BarackObama, first ballot Hall of Famer at pissing off shitty white people! https://t.co/SNwrYIqAlb
p183
aVI can only blame one group for all the agony that we all experienced in 2016. Thanks #ChicagoCubs, this is why we can't have nice things.
p184
aVProud of @AnnaValenciaIL and everything she's going to accomplish! #CKD https://t.co/DYZaPn5NuN
p185
aVRT @KeithOlbermann: And look in a mirror, @realDonaldTrump, and let your eight chins break it to you: you're blowing this. You've erased yo\u2026
p186
aVRT @TIME: Donald Trump falsely says millions of people voted illegally in the election he won https://t.co/UgVBEF6Fxx
p187
aVNever let the truth get in the way of a good tweet\u2026 https://t.co/VRfZZYdxSt
p188
aVRT @NOTSportsCenter: Jim Harbaugh is very fussy, may need a diaper change \u000a\u000a(GIF via @SBNationGIF) #MICHvsOSU\u000ahttps://t.co/LfW3s1I9in
p189
aVHe's not dealing with reality https://t.co/MZSb0l2icu
p190
aVThe Cubs will find a way to screw this up.  https://t.co/5mm8tzEfnO
p191
aV#ImWithHer https://t.co/w3zLoMicvx
p192
aVGreat evening w/ Democrats in Macoupin County. Thanks Congressman Glenn Poshard for coming! @AndyManar @Mathis95th\u2026 https://t.co/9zAA7vso9M
p193
aVFox News is still keeping it classy and racist\u2026 https://t.co/Wh3OYrYgst
p194
aVIt's going to be a long season https://t.co/JbDXhI1mfm
p195
aV#ImWithHer https://t.co/tHKmgdBsTw
p196
aVRT @NOTSportsCenter: Live look-in at the Bears: https://t.co/biGWdnM1of
p197
aVCan't wait to hear Donald Trump call General Powell a liberal hack\u2026 https://t.co/RzlExmf1DN
p198
aVAnother informative @ILDCCA newsletter! https://t.co/mP4tploWc8
p199
aV#USCvsBAMA Two of the best college football teams that money can buy.
p200
aV@TonyDelGiorno will be a great voice for the middle class and for Sangamon County! https://t.co/GKocbOv1XS
p201
aVLooking forward to seeing @HillaryClinton in the Quad Cities on Monday! @RICoDemocrats  https://t.co/1Fc6DkRH15
p202
aVCrusaders off to a great start! https://t.co/jDa9ERQ95L
p203
aV#firstworldpoliticalproblems When your @TonyDelGiorno yard sign stolen from front of your house. Not to worry,  have another sign coming.
p204
aVhttps://t.co/aHLhVQxJQU via @youtube
p205
aV#TrumpSacrifices are trying to choose the red wine or the white wine to go with the chicken or fish\u2026
p206
aV#ImWithHer https://t.co/GcNvFIiWcv
p207
aVRT @ILDCCA: Several Chairmen are on the floor tonight representing their home County Parties and the @ILDCCA. #DemsInPhilly https://t.co/aa\u2026
p208
aVGetting ready to watch history tonight. I'm proud to be a Democrat! #DemsinPhilly #DNCinPHL #Imwithher
p209
aVRT @ColMorrisDavis: Awaiting @FoxNews to tell us how @BarackObama, @HillaryClinton and America suck a$$ and the Orange Judas @realDonaldTru\u2026
p210
aV"Democracy isn't a spectator sport"
p211
aVRT @TheDemocrats: "We all need to get out and vote for Democrats up and down the ticket." -Pres. Obama https://t.co/nfJOzLl7pQ https://t.co\u2026
p212
aVRT @HillaryClinton: \u201cThis one\u2019s for you, Hill.\u201d #WeMadeHistory https://t.co/Iq24zuhybS
p213
aVRT @OwensDamien: I hear you, Sanders supporters who plan to vote Trump. One time I asked for Coke but they only had Pepsi, so I set fire to\u2026
p214
aVEveryone's thinking it, she just said it! #DemsInPhilly #DNCinPHL #ImWithHer  https://t.co/lVhesy1wYt
p215
aVRT @jonfavs: So because you couldn't win an argument at the polls, you show up to boo a speech by someone you agree with on 99% of the issu\u2026
p216
aVRT @BernieSanders: We have got to defeat Donald Trump and do everything we can to elect Hillary Clinton to the White house. #DemsInPhilly
p217
aV#ImWithHer #RNCinCLE #NeverTrump  https://t.co/sjzhiFiBaR
p218
aVRT @JillBidenVeep: My thoughts and prayers are with the fact checkers. #RNCinCLE
p219
aVI thought the @Browns were the only hot mess in Cleveland. The #RNCinCLE has taken that mantle.
p220
aV#RNCinCLE https://t.co/mwolHYfL81
p221
aVTrump is the epitome of being born with a silver spoon in his hand. Trying to make him seem like a common man is laughable. #RNCinCLE
p222
aVRT @AnnaKendrick47: "I have had it with these mothahfuckin' snakes on this mothahfuckin' plane" #FamousMelaniaTrumpQuotes
p223
aVDay 1 of the Make America Hate Again Convention is in the books. 3 more days of fear mongering and racism to go! #RNCinCLE
p224
aVRT @dan_bernstein: Nothing says "Make America Safe" like envisioning nuclear launch codes in the hands of a racist, venal, impulsive sociop\u2026
p225
aV#RNCinCLE https://t.co/oKSGkI1oiI
p226
aVRT @NOTSportsCenter: Tim Tebow will speak at the Republican convention. However, GOP officials only expect him to complete about 40% of his\u2026
p227
aVProud to say #ImWithHer  https://t.co/GoetX7yRa8
p228
aVConservatives were going to be upset no matter what happened with HRC's emails. #ImWithHer https://t.co/4qyTlsnFwO
p229
aVIt's a really bad time to be a Republican right now.   https://t.co/mlMFl7ymwU
p230
aV#democrats #imwithher  https://t.co/ihnP7NpebP
p231
aV@GeurtsenAnthony Thanks!
p232
aV@HilIaryRClinton opening up a big lead on Trump! \u000a\u000ahttps://t.co/qFhcuC8H3W
p233
aVhttps://t.co/JFTQwXXe5Y
p234
aVShow me one yard sign that voted in the last election and I will take this seriously. \u000a#yardsignsdontvote\u000ahttps://t.co/TxSokUKY6E
p235
aV#ImWithHer https://t.co/SHrGyjrTFc
p236
aVRT @AP: BREAKING: @AP finds Clinton reached the number of delegates needed to clinch the Democratic nomination for president https://t.co/e\u2026
p237
aVRT @ILDCCA: These are crazy times that we are living in. Reality television celebrity Donald Trump has officially wrapped up... https://t.c\u2026
p238
aVLadies and gentlemen\u2026 the Republican Presidential nominee\u2026  https://t.co/MGKkTsK7HO
p239
aVRT @PolitiFact: Trump says he wanted to keep veterans fundraising 'quiet,' but he touted it. Pants on Fire https://t.co/5SAhp8K0gU https://\u2026
p240
aVI'm getting a little tired of this. Sanders lost a while ago. #ImWithHer \u000aThe System Isn\u2019t 'Rigged' Against Sanders https://t.co/T8wqOdZMVm
p241
aV\u201cI\u2019m Voting For The Democrat In November Because I\u2019m Not A Human Tire Fire\u201d by @SaraJBenincasa https://t.co/SPxfJ3R2on
p242
aVHow I imagine what #crossfit is like. https://t.co/XfakTV85SB
p243
aVEITHER DEMOCRAT IS BETTER THAN TRUMP https://t.co/UPofse595R
p244
aV10,000 strong standing against Rauner! https://t.co/NP5jWrF47N
p245
aVRT @ILSenDems: No one loses under SB231. Here's who loses under the governor's proposed ed funding plan https://t.co/wYVgfBUfbn https://t.c\u2026
p246
aVRT @davidaxelrod: Trump &amp; Ryan saying they're  "totally committed to working together" is like me saying I'm totally committed to losing 10\u2026
p247
aVRT @whitesox: While we're on the subject of grand slams...\u000a\u000a#USCF25: https://t.co/Q1Q0xwajnT\u000ahttps://t.co/xbvUYGGsXK
p248
aVRT @ILDCCA: The national Republican Party has done the unthinkable. They will be nominating a candidate for President who is... https://t.c\u2026
p249
aVRT @CoachQsMustache: A horse named after a Detroit Red Wing wins the Kentucky Derby and the Canucks immediately sign it to a 6-year, $60M d\u2026
p250
aVThe self proclaimed "Pro Education" Governor\u2026 https://t.co/JZimCLTf57
p251
aVRT @elizabethforma: .@realDonaldTrump spews insults and lies because he can\u2019t have an honest conversation about his dangerous vision for Am\u2026
p252
aV"Intellectual collapse of the conservative movement." Best. Response. Ever. To. The. GOP! #Trump2016 #Trumpwillnotbepresident
p253
aVAngry White Guy Endorses Angrier Orange Guy https://t.co/NEKbQHhLOy
p254
aVWhen I get campaign mail at my house https://t.co/s2Dzx1iAhi
p255
aVRT @whitesox: The Sox recorded their @MLB best 5th shutout of the season. Their most after 22 games.\u000a\u000aThey also lead @MLB in wins. https://\u2026
p256
aVRT @seanstott: Stop-gap higher ed deal shows, once again, when @GovRauner puts aside anti-worker demands things get done https://t.co/hN0Mn\u2026
p257
aVRT @alexhanns: "It's beyond Bernie &amp; Hillary. We need to think about the whole ticket, electing Democrats from top to bottom." -Dan Kovats\u2026
p258
aVRT @NHLBlackhawks: #ItWas3to1
p259
aVRT @NHL: Winner-take-all on Monday.\u000a#Game7 #StanleyCup\u000ahttps://t.co/hTSpgHigay
p260
aV#BecauseItsTheCup  https://t.co/1cTh0f1Dx5
p261
aVRT @CollegeDemsIL: .@DanKovats, Exec Director of @ILDCCA: "We know it's a complete lie when @GovRauner says he is pro-education." https://t\u2026
p262
aVRT @ILDCCA: "DEMS ALREADY POUNCING -- Last night, the Illinois Democratic County Chairmen's Association was at the Hubbard... https://t.co/\u2026
p263
aVRT @keeperofthecup: Both are shined and ready if needed. #StanleyCupFinal #BecauseItsTheCup @NHL @HockeyHallFame http://t.co/PspRPYYbvD
p264
aVRT @ChiTribCloutSt: Rauner doling out campaign cash in final weeks of session http://t.co/M0VQp2gmeE
p265
aVRT @sneed_mike: @plain_tim @DanKovats http://t.co/BLAe6rV3Hv
p266
aV\u201c@politico: Rep. Aaron Schock resigns: http://t.co/MKdtiilYTE\u201d Now this will get interesting
p267
aV@plain_tim To the good St. Patrick!
p268
aVRT @WhiteHouse: "For South Siders and Sox fans all across the country...Minnie Minoso is and will always be 'Mr. White Sox.'" \u2014Obama: http:\u2026
p269
aVRT @TheFakeESPN: Katy Perry awarded Star Cup after successfully performing through multiple Mario Kart courses.
p270
aVRT @NOTSportsCenter: England has informed the U.S. that if they ever send the #Knicks there again, they will consider it an act of terror a\u2026
p271
aVRT @GovernorQuinn: To the people of Illinois, it has been an honor and a privilege to serve as your Governor.
p272
aVRT @Suntimes: ESPN anchor Stuart Scott dies at 49 after cancer battle. http://t.co/n6SMX5p7Mv http://t.co/jXNqoxD0tF
p273
aVRT @thinkprogress: 4 things that were supposed to happen by 2015 because Obama was reelected http://t.co/gT8y9gQZYv http://t.co/VUpCAQt6FY
p274
aVI wonder if the hack of Sony and the threats over "The Interview" were all to boost up a bad movie. #TheInterview #goodcomediansbadactors
p275
aVGas prices are under $2.00 in Springfield. #ThanksObama
p276
aVRT @TheDemocrats: Dinner table debate? Don't panic - we've got you covered: http://t.co/KNa8CZFUDD http://t.co/7ED7CYPUmD
p277
aVRT @chicagotribune: Update:  President Obama condemns killings of 2 NYPD cops this weekend http://t.co/jdaPeMpzWd http://t.co/PVjJTtPifq
p278
aVRT @Benaskren: Awesome crowd for @FPLwrestling in New Lonox, IL! http://t.co/GRIUGCrNqb
p279
aVRT @chicagotribune: The Mass Exodus of 2014: Is Chicago losing its 30-somethings to the cold? http://t.co/Na4NdxkUaE http://t.co/bojOzK3C8N
p280
aVRT @NOTSportsCenter: BREAKING: #Bears QB Jay Cutler extends league leading interception total to 19 after having his starting job intercept\u2026
p281
aVRT @SJRbreaking: Springfield City Council votes 9-1 to establish watchdog office http://t.co/zijArAvSvn
p282
aVRT @WBBMNewsradio: Illinois To Say Goodbye To Judy Baar Topinka At Memorial - More: http://t.co/HJh1cyGdjX http://t.co/RpBb8BIIoN
p283
aVRT @USAWrestling: Millikin University in Illinois reinstates varsity wrestling team: http://t.co/YjmSbzN4bg
p284
aVApparently there was a JV football game tonight in Chicago. I thought high school football was over. #BearsBags #HalasIsRollingInHisGrave
p285
aVJon Stewart mocks Andrea Tantaro\u2019s \u2018awesome\u2019 rant: \u2018The most ridiculous thing I have ever heard\u2019 http://t.co/0vTODyOmc2
p286
aVRT @SJRthedome: Topinka remembered as magnetic, trailblazer http://t.co/GwynaS6Ifn
p287
aVJust rejoined Twitter. Let's see how this goes. #IDontKnowWhatImDoing
p288
a.