(lp0
VAwesome pic of @_idilozer greeting an adoring fan. https://t.co/W29O9hosEm
p1
aVRT @ChiTribNuccio: Gov. Rauner spotted at MAGA event in Murphysboro. https://t.co/7xJhw0s5KF
p2
aVRT @MaryAnnAhernNBC: Confirmation from @GovRauner team, he will be at @realDonaldTrump rally Murphysboro #ILGov18
p3
aVRT @CNNnewsroom: "Get to the poll, because if not, you are going to have another two or another six years of this craziness." Michael Cohen\u2026
p4
aV@LUnderwood630 been waiting to do this for a minute. Can\u2019t wait till you\u2019re my member of Congress!!!! https://t.co/o2oDu4LX1F
p5
aVRT @AriMelber: Sometimes I hang my favorite clothes on the better hangers, like some tiny reward for their status. Does everyone do that?
p6
aVThis city is wild, man https://t.co/J4o0CyyFti
p7
aV@OMG_its_DR3 LMAO I KNEW I WASN\u2019T THE ONLY PERSON WHO FOUND THIS GLITCH IN THE MATRIX
p8
aVRT @OMG_its_DR3: So one of the hotels I go to every morning for free continental breakfast told me they will call the police next time.
p9
aVI can\u2019t \U0001f923\U0001f923\U0001f923 https://t.co/pkfcTonCg3
p10
aVRT @guycecil: Dear Democrats. Stop obsessing over every public poll. Go knock on doors, make phone calls &amp; register voters to change them.
p11
aVRT @AmbassadorRice: Me https://t.co/93qNxN7Ky9
p12
aVRT @davidplouffe: 11/06/18.\u000a11/03/20.
p13
aVRather than relearn math &amp; science when I was growing up my mom would just buy the teachers edition of my textbooks. I love her.
p14
aVhttps://t.co/Zdb51Ze1Zd \U0001f436
p15
aVhttps://t.co/iLcQHGInXF
p16
aV@machinegunkelly so @Eminem responded to Rap Devil \U0001f608 https://t.co/1UkZV7DCsP
p17
aVI weigh 148 pounds.
p18
aV@_idilozer @DenisMcDonough Lol, you didn\u2019t. I just was saying never change https://t.co/NyKKSDFNWM
p19
aV@_idilozer @DenisMcDonough https://t.co/7TEvE2hUCv
p20
aV@michaelcdirksen Obama\u2019s speech also happened at 11am
p21
aVRT @realDonaldTrump: Only the Obama WH can get away with attacking Bob Woodward.
p22
aVToday I learned that Donald Trump is afraid of sharks
p23
aVhttps://t.co/bYl0XD63Os
p24
aV@Allbirds just got my 2nd pair! https://t.co/21bbBuUnfl
p25
aV@_idilozer Let me know what @RepHuizenga says after you tell him that.
p26
aV@taymillikan @_idilozer Luddites of the world, unite!
p27
aVRIP @SenJohnMcCain https://t.co/HgVHtitINI
p28
aVhttps://t.co/ZcOsXaAYGF
p29
aVIgnorantia juris non excusat.
p30
aV@DaHaighter You\u2019re thinking of an Emmy award. The Academy of Motion Pictures Arts and Sciences only gives out Oscar\u2026 https://t.co/LUeoDn8LiH
p31
aVBuying a keg is never worth the trouble.
p32
aVRT @souljaboy: In this world you either crank that soulja boy or it cranks you
p33
aVDid that podium say @VP ??? https://t.co/dE1mb4qgAJ
p34
aVPh.D level trolling. https://t.co/Xw9Gieofuw
p35
aV@michaelcdirksen It\u2019s the main reason Woodrow Wilson\u2019s Presidency was such a failure. That and the hidden stroke #LeagueOfNations
p36
aVYou can eat as many low-fat calorie packs as you want but the more that you eat, the higher those calories add up to.
p37
aVThe phrase \u201cgrassroots\u201d is to politics what \u201cartisanal\u201d is to restaurants.
p38
aV\U0001f64c\U0001f64c\U0001f64c\U0001f64c\U0001f64c\U0001f64c\U0001f64c\U0001f64c\U0001f64c\U0001f64c\U0001f64c https://t.co/dzJ42vj8YE
p39
aV@AldiUSA what happened to your pink sweet valley soda? Was a huge fan growing up then you discontinued it. Red crea\u2026 https://t.co/JV3cIj3cJk
p40
aVTo everyone up in arms about the new Scarlett Johansson movie, please watch. https://t.co/9kJZmPT7sm
p41
aVI\u2019m amazed this happened in Canada and not Florida. https://t.co/RBdQUVBBq7
p42
aV\u201cWhat are you streaming?\u201d is the new \u201cWhat are you smoking?\u201d
p43
aVRT @Ocasio2018: With respect to the Senator, strong, clear advocacy for working class Americans isn\u2019t just for the Bronx.\u000a\u000aSen. Sanders won\u2026
p44
aVAbsolutly not. I am against the idea of electing anyone to Congress who wasn\u2019t alive when the constitution was draf\u2026 https://t.co/P1AOUNILtx
p45
aVRT @hwinkler4real: What a way to start the day https://t.co/nZ23FuubIm
p46
aVI have no patients for people who count calories out loud in the workplace only to then get blackout drunk every weekend.
p47
aV@JeffDye just saw you @ZaniesChicago and couldn\u2019t have been more impressed. Thanks so much for taking the time to t\u2026 https://t.co/H6v94MxFpL
p48
aVMe walking into @thetiebar today https://t.co/IcGn85oZUW
p49
aVRT @Scaramucci: You can\u2019t simultaneously argue that family separation isn\u2019t happening, that it\u2019s being used as a deterrent, that the Bible\u2026
p50
aVRIP @xxxtentacion https://t.co/2DGjXgjeCc
p51
aVWhen are you making a #BlackLivesMatter Train? https://t.co/DGGr2sOYrS
p52
aVHave some dignity, Lindsey. We all remember what happened during the primary #PeopleDontForget https://t.co/3HHVE9UZFV
p53
aV@KaitMarieox Don\u2019t you think we get things back that are comparable? Military, public schools, transportation infrastructure ect
p54
aV@nealbrennan 2nd Chicago show last night was phenomenal. Keep up the good work, Neal! You keep on impressing.
p55
aVJust use a sock next time, @EPAScottPruitt https://t.co/za77HVOndv
p56
aVI usually hate anyone who plays loud music on public transportation but bruh was blasting @GGYOUNGBOY so rethinking\u2026 https://t.co/JiCMkTfhB4
p57
aVSavage level approaching 1 billion. https://t.co/I4hkxegXrp
p58
aV@UberEats https://t.co/dxkGm29BNH
p59
aV@taymillikan How ya like dem\U0001f34e
p60
aVChristmas lights as a source of interior lighting is so undergrad.
p61
aVI can\u2019t take men under 5\u20194 seriously.
p62
aVIt\u2019s important we understand the present in the context of history.
p63
aV\u201cThe hate of men will pass, and dictators die, and the power they took from the people will return to the people. A\u2026 https://t.co/E6G1bqz03g
p64
aVRT @FoxNews: .@POTUS granted a posthumous pardon to Jack Johnson https://t.co/Wy8cv7OS0d https://t.co/RPrIbSD4co
p65
aVAaron Schlossberg is a perfect example of why free speech should never be limited. While the government is constitu\u2026 https://t.co/pGt6uiPEPC
p66
aVStill haven\u2019t fired Pruitt and FBI gave you the Presidency, jackass. Stop chasing phantoms and admit the walls are\u2026 https://t.co/ZIpQrTKfYS
p67
aVFemale coworker: A candy bar in the middle of the day?\u000a\u000aMe: My body, my choice. \u000a\u000aFemale coworker: Your 10 year old\u2026 https://t.co/AcOgrU123r
p68
aVMay 4, 1970 https://t.co/Qwhs0TyTs0
p69
aV@billmaher I haven\u2019t missed an episode of your show in 10 years, I\u2019m 25. Bill, thank you for showing me that, while\u2026 https://t.co/TR8y6E1CRE
p70
aVTold cashier I didn\u2019t need a recipt while my transaction was still processing then immediately crossed the street i\u2026 https://t.co/ZHlrs9b7Ee
p71
aVBeing surprised a Lars Von Trier film garnered controversy means you\u2019ve been willfully ignorant of his career for d\u2026 https://t.co/vf0QkznHk9
p72
aVStop reporting about the amount of money movies are making at the box office. The only people that information is o\u2026 https://t.co/5YoSPolH2j
p73
aVRT @ForecasterEnten: Term limits are for the most part a bad idea. There's a slew of poli sci on the subject. It emboldens extremism, lobby\u2026
p74
aV@Complex I\u2019m Not Black, I\u2019m Kanye.
p75
aV@kanyewest No, critical thinking is a super power.
p76
aVhttps://t.co/Jbw1T5RbqR
p77
aVNo one has self-confidence, you just gotta fake that mess.
p78
aVI\u2019m always losing socks in the dryer so I decided to get a sock tattooed on my left foot this weekend so I\u2019ll alway\u2026 https://t.co/Ou1R3fRLEu
p79
aVRT @RobertFeder: This just in: @Politico promotes @NatashaKorecki to national correspondent: https://t.co/O84EUvWn1L https://t.co/lI6JEk5saU
p80
aV@taymillikan @Softmanhands Start gettin these jokes and we\u2019ll stop using it #WatershedMoment https://t.co/bdVSHtV1YM
p81
aV@Softmanhands @taymillikan We try to be gentle with Ryan. https://t.co/cR0VTLjFj2
p82
aVRT @MonicaLewinsky: blaming the intern is so 1990's. \U0001f644 https://t.co/6CGPERpNqx
p83
aV@taymillikan Donald Glover \u000ahttps://t.co/9ouz9bKwyf
p84
aVI won't stop until they say James Franco is the white Donald Glover
p85
aVWhy does he always do this whenever he gets in trouble in the court of public opinion?\u000a\u000ahttps://t.co/qiQC7iLXIj
p86
aVKanye Westworld https://t.co/yRarqYWrb3
p87
aVStop clapping. The audience is problematic.
p88
aV@chancetherapper right now after @realDonaldTrump tweeted about him https://t.co/qvQOwKCjOV
p89
aVIt's not capitalism if it's organic.
p90
aVI\u2019d like to respectfully point out that this is the 3rd US President that @kanyewest has gotten to engage with him\u2026 https://t.co/BWo3dm8Hxc
p91
aVI'm back by unpopular demand\u000a'Least he still poppin' in Japan, shoppin' in Milan\u000aHoppin' out the van, screams from\u2026 https://t.co/LntFdwKtud
p92
aV\u201cWhere are you going?\u201d she asked me, surprised to see me there, when she thought I was at my uncle's. \u201cI'm going to\u2026 https://t.co/ZsLDxTeB17
p93
aVDislike https://t.co/qvRoDyHGvc
p94
aV\u201cWillfully Ignorant\u201d is my middle name.
p95
aVS/O to @ChicagoKentLaw y\u2019all do open bars right https://t.co/X1sF2aw6yA
p96
aVRT @kanyewest: my album is 7 songs
p97
aV#IdLikeToBeRichEnoughTo think i\u2019m qualified to hold political office.
p98
aVRT @evanmcmurry: Pres. Trump sends his regards to "Barbara's husband of 73 years\u2014I'll never beat that record." https://t.co/lpu6AX35nB
p99
aVIf you don\u2019t know this phone number we can\u2019t be friends 281-330-8004
p100
aV#BREAKING @kendricklamar official response to becoming the first non-classical or jazz artist to win the Pulitzer Prize for music: \u201cDamn\u201d
p101
aVAfter finding out that Michael Cohen went to Cooley Law School things are seriously starting to make sense. He thin\u2026 https://t.co/xj6bRdvd29
p102
aVJ. EDGAR HOOVER you illiterate fool https://t.co/eWFTzH4ME5
p103
aVThe customer service @ATT is competly obtuse: blatent disregard for people\u2019s time doesn\u2019t go unnoticed. Even upon c\u2026 https://t.co/8WO33127y7
p104
aVhttps://t.co/mM80SA04R9
p105
aV\U0001f923\U0001f923\U0001f923\U0001f923\U0001f923\U0001f923\U0001f923https://t.co/rM5hao71oz
p106
aV@TVietor08 @EWErickson Agree w/ everything including the criticism of the 1994 Academy Awards #GetBusyLivingOrGetBusyDying
p107
aV*Only when you break the law! https://t.co/HIgm4hltZ3
p108
aVVery happy for Tammy Duckworth today after giving birth of yet another beautiful girl. Hope things go better for he\u2026 https://t.co/6gCUAozVAw
p109
aVCourage wasn\u2019t a coward. Apprehensive maybe, but you would be too after being thrown into bizarre misadventures inv\u2026 https://t.co/EfvWEZHwD2
p110
aVhttps://t.co/9n7n2apttS
p111
aV@taymillikan https://t.co/eofEwCgRWP
p112
aVPlanning on disapearing for a few years just to return w/o notice so someone I used to know can call out my name an\u2026 https://t.co/NiinGmLZiM
p113
aVhttps://t.co/IGIn2LH9OR
p114
aVA match made in heaven set the fires in hell.
p115
aVJustice Stevens was apointed by a Republican you dolt. https://t.co/RWdFStlXax
p116
aVThe Revolution Will Not Be Monetized
p117
aVThe unchecked white privilege playing out in the streets of Chicago on #StPaddysDay is astounding. If I did one of\u2026 https://t.co/r4MPDixorC
p118
aVAs a pedestrian, I always make a point of making prolonged, uncomfortable eye contact with people who pull out prematurely into crosswalks.
p119
aVJust did a couple laps in my home pool And my daughter right there gettin' homeschooled I\u2019m blessed #KanyeMadnessBracket
p120
aVXi Jinping really does look like Winnie The Pooh. Also, the letter \u201cN.\u201d https://t.co/Z4h7tTFUm2
p121
aV@thehill I mean, FDR was elected 4 times and that worked out pretty well. If the people want tou to stick around an\u2026 https://t.co/UFRENUwjvR
p122
aVReal talk, how do all the #BernieorBust people feel now that we\u2019re a year and some change into going bust? Serious\u2026 https://t.co/vHIM5xGN6G
p123
aVI really enjoy walking in on people in public restrooms checking themselves out in the mirror who are less attracti\u2026 https://t.co/7aelcE732l
p124
aVKillmonger &gt; Black Panther \u000a\u000a\u201cBury me in the ocean with my ancestors who jumped from ships, cause they knew death w\u2026 https://t.co/yD8uoeQ0vW
p125
aVPeople say that young black men are an endangered species. I disagree, the government protects endangered species. \u000a-Chris Rock #Tamborine
p126
aV#ValentinesDay2018 https://t.co/xBQ3x6D2Je
p127
aV@JoeBiden @KamalaHarris @SenWarren @SenDuckworth @CoryBooker @PeteButtigieg @SenSherrodBrown @JerryBrownGov\u2026 https://t.co/7JKwDbDnDE
p128
aVHopefully this last longer than @BillSimmons HBO show https://t.co/dtF2AblV0L
p129
aV@realDonaldTrump ICYMI https://t.co/qp1O020qsF
p130
aVHow\u2019s this any different form the time @KendallJenner appeared in that @pepsi ad attempting to monetize the resista\u2026 https://t.co/TGfwlwVugw
p131
aVFound out today that @Pret Is Latin. It means: I work in an office building and have too much going on today so I\u2019m\u2026 https://t.co/Pyu4AfmK4x
p132
aV#BlackMenSmiling https://t.co/5Z2NJVH7S5
p133
aVNo one will ever be able to take away the fact that I saw Mr. &amp; Mrs. Smith (2005) in theaters more than once. https://t.co/2Ne8zsNpEm
p134
aVThanks white savior. https://t.co/EWSYEObXaS
p135
aVThe Shape of Water https://t.co/X6kLRoyQhX
p136
aV@DJ_Profess Dilated Peoples ft Kanye West - This Way https://t.co/FA6lbhsAZ7
p137
aVRT @FullFrontalSamB: Three months ago, you walked out of an event in disgust because of a non-violent protest by black athletes.\u000ahttps://t.\u2026
p138
aV@FBI how\u2019s your #MLKDay going? Remember when you wrote a letter to Dr. King convincing him to commit suicide? Don\u2019t\u2026 https://t.co/XwYEBpoXJ8
p139
aVMy aunt gave me a giftcard as a late christmas present then told me not to spend it all in one place \U0001f914
p140
aV@RepMiaLove It isn\u2019t courageous to speak out against @realDonaldTrump when he insults you personally. Your silence\u2026 https://t.co/0Erg5f5xkq
p141
aV@JoshJohnson there\u2019s another josh johnson on spotify that used your resume joke.
p142
aV\u201cThe fool doth think he is wise, but the wise man knows himself to be a fool.\u201d https://t.co/FEv1stAGx4
p143
aV@NeelKolhatkar discovered you today and have been endlessly entertained. Keep up the amazing work, Neel! You\u2019re a t\u2026 https://t.co/1iSM4UA4GR
p144
aVActual text I received today: \u201cMy partner and I registered our dog as an emotional support animal so we don\u2019t have\u2026 https://t.co/811NsQ5AuN
p145
aV@garyowencomedy keep up the good work in 2018.
p146
aV@dustyslay saw you preform 4 years ago and bought your album (actually bought it twice.) Have followed your career\u2026 https://t.co/f9Rcfirwwr
p147
aV@aliwong love your humor and hope to see many more great things in 2018!
p148
aV@natebargatze You\u2019re amazing. You\u2019re comedy is top tier. Keep at it and I\u2019ll financially support you to the best of\u2026 https://t.co/0516h1b4Kr
p149
aV@JoshJohnson met you in DC last year and you were nothing but kind and talked to me for 20+ minutes. You inspired m\u2026 https://t.co/FRoEbQjKRj
p150
aV@nealbrennan you\u2019re funny, you have value and I\u2019ll never question your talent because you have so much of it. Hopin\u2026 https://t.co/3WGwNlLK5h
p151
aV@kylekinane keep killing it in 2018. You\u2019re an inspiration and I can\u2019t reiterate how much I enjoy your humor.
p152
aV@GaryGulman is one of the most talented, original and entertaining comedians I have ever seen. I not only owe my ow\u2026 https://t.co/cXYdSB4Noc
p153
aV@marvel Thank you so much for giving us a black superhero in @theblackpanther Much like the 2017 Alabama Senate ele\u2026 https://t.co/Eo7eu53VvK
p154
aVI\u2019m pretty sure that this woman is from the past. https://t.co/aJdldT3dTw
p155
aVLet me pass around your resume is code for \u201clet me get your hopes up for no reason.\u201d
p156
aVPretty apt metaphor for the entire #ALSenateRace special election: shocked silence, mind-boggling stupidity, and ev\u2026 https://t.co/4pl4KEbluf
p157
aVStop getting on busses to ask the driver where the bus is going. You\u2019re more than capable of doing the homework on\u2026 https://t.co/w6nyXcBpsj
p158
aVMy new doormat https://t.co/Ti4dY16i4T
p159
aV\u201cLook, I'm taking out anyone in my way. I'm not playing with you, bitch, this not the WNBA.\u201d -Big Sean
p160
aVIf I could get drunk off of seltzer water, I totally would. #waterchamp
p161
aVI think \U0001f914 youtube advertisements with yuppys launching socially conscious brands are getting repetitive at this point.
p162
aV@SecretaryZinke  https://t.co/O47uuRDVr4
p163
aVHaving cash at bars is like being royalty or a superhero: treated better, bartenders are more responsive and they undercharge for good tips.
p164
aVCommenting on YouTube videos is never a smart move. A moment of being clever isn\u2019t worth the barrage of racist emails one gets.
p165
a.