(lp0
VSmall but mighty...we\u2019ll be back!!! See you in February #CHIstudentsvote @WhenWeAllVote @ChicagoVotes #iamavoter https://t.co/G48P88hluZ
p1
aVJust crushed #EarlyVoting \U0001f5f3\u2705\U0001f44a #GOTV2018 @ChicagoVotes @WhenWeAllVote #CHIstudentsvote #MidtermsMatter https://t.co/v9M29mVHTC
p2
aVOut here celebrating a first time voter! #chistudentsvote #votingsquad https://t.co/4wNFDn2TgU
p3
aVLet\u2019s do this!!!!!! #chistudentsvote @ Chicago, Illinois https://t.co/ufInXX2i25
p4
aVCheck out https://t.co/mqgtqmKnES to view your sample ballot and explore what you are voting for!
p5
aVRT @ashlm_12: We\u2019re up gettin educated y\u2019all! Thank you @ChicagoVotes for leading voter education \u270a\U0001f3fe@CHIstudentsvote #votereducation #votin\u2026
p6
aVWe\u2019re here at @TFA_ChicagoNWI offices getting ready\u2014Thank you @ChicagoVotes for leading voter education! Next, we m\u2026 https://t.co/Ns0jSaNvhi
p7
aVRT @CHIstudentsvote: Voting isn\u2019t just about the candidates! Don\u2019t forget the ballot measures. Educate yourselves and #VOTE !!!  https://t.\u2026
p8
aVVoting isn\u2019t just about the candidates! Don\u2019t forget the ballot measures. Educate yourselves and #VOTE !!!  https://t.co/8NE2KJQSWb
p9
aVRT @CHIstudentsvote: Tomorrow we\u2019re marching to the polls at 175 West Washington at 10:30 with Chicago students because #EveryVoteMatters \U0001f5f3\u2026
p10
aVTomorrow we\u2019re marching to the polls at 175 West Washington at 10:30 with Chicago students because\u2026 https://t.co/HiFOqUA5HJ
p11
aVWe can\u2019t wait to see you guys tomorrow!!!!! #CHIstudentsvote https://t.co/oqirkRALb1
p12
aVThis Saturday, first we march. Then we #vote. Join us as we march to the polls for #early voting at 175 West Washin\u2026 https://t.co/PN1Sdf9BUf
p13
aVRT @BeNobleAdvocacy: This Saturday @CHIstudentsvote will be marching to the polls with high schoolers including some @BeNobleSchools schola\u2026
p14
aVWe\u2019ve still got space on our buses for Saturday! Contact us ASAP so you can join our journey to the polls\u2026 https://t.co/G8o1g7abOS
p15
aVYour vote is your chance to make your voice heard. #midtermsmatter  #yourvoicematters #CHIstudentsvote @sophiabush\u2026 https://t.co/HFzFOwuyEa
p16
aVRT @ChicagoVotes: 2018 Voter Guide | Chicago Votes https://t.co/0lsSF0HFeq
p17
aVRT @TFA_ChicagoNWI: In the 2014 #midterms, approximately 20% of 18-29 year-olds voted. #teachforamerica alum @ashlm_12 (Chicago-Northwest I\u2026
p18
aVRT @ashlm_12: https://t.co/FX5YKuZVA3 5 days away from our early voting action with students! Please help @CHIstudentsvote cover the cost o\u2026
p19
aVChicago residents, your vote is your voice. #chistudentsvote #whenweallvote #powertothepolls @ Chicago, Illinois https://t.co/nIf36z65sq
p20
aVPutting together our #VotingSquad of Chicago students, educators, and community members!  We\u2019re voting early on Nov\u2026 https://t.co/vNQHnOXglx
p21
aVOne week countdown! Who\u2019s with us? #CHIstudentsvote @letamericavote @PodSaveAmerica @ChicagoVotes @chancetherapper\u2026 https://t.co/P37L4x5mwV
p22
aVWe\u2019re getting ready for #EarlyVoting with Chicago\u2019s newest voters on November 3rd. Who\u2019s with us? @chancetherapper\u2026 https://t.co/Q1e1F8ifUC
p23
aVRT @ashlm_12: https://t.co/FX5YKuZVA3 Thx 2 the individuals, schools, &amp; orgs that are actively supporting @CHIstudentsvote student voter mo\u2026
p24
aVRT @GKMC18: We\u2019re at the polling place on 43rd and cottage with @YCCSTheMovement asking people to vote and sign voter pledges! They swear t\u2026
p25
aV@AmaraEnyia @chancetherapper we love how you\u2019re engaging young Chicagoans in important political matters!!! Will yo\u2026 https://t.co/of34zkXZPp
p26
aVRT @ashlm_12: This happening y\u2019all! 2 schools confirmed today, buses are getting scheduled. Don\u2019t miss the boat (... the bus) contact us @C\u2026
p27
aVRT @sarcampb: A huge barrier to voting for young people is transportation, but we know their voices deserve to be heard. Help us get them t\u2026
p28
aVSupport our students at the polls! Want to help? Go to: CHI Students Vote! - Midterms 2018 https://t.co/D7rNcyBJU1
p29
aVRT @ashlm_12: Did you miss @CHIstudentsvote on @theacgreenshow ? No worries, you can check out a snippet of the conversation here! #chistud\u2026
p30
aVRT @letamericavote: Illinois: TODAY is the LAST day to register to vote online! https://t.co/6oq7ChpLRo https://t.co/SwiGH8LIGe
p31
aVChicago voters: you can register at the polls, but why wait? Register online NOW! Then join us Nov. 3!\u2026 https://t.co/3G0NArgbjn
p32
aVRT @ashlm_12: @CHIstudentsvote https://t.co/DNrJO2w95d live stream here!
p33
aVRT @MarkRuffalo: Indiana Voters: 500,000 voter registrations have been purged. Make sure yours hasn\u2019t been: https://t.co/20uQg01Xro
p34
aVChicago! Tune into 106.3 AC Green show today at 2pm to learn more about #CHIstudentsvote! https://t.co/2ewwPbm9i6
p35
aVWe\u2019re still looking for school partnerships to bring students to the polls! #Chicago  teachers, reach out to get in\u2026 https://t.co/jHQqruXYoZ
p36
aVRT @ashlm_12: Tune in to the AC Green show this Sunday at 2:00pm to hear about the @CHIstudentsvote campaign to get registered, age-eligibl\u2026
p37
aVWe\u2019ve launched a GoFundMe page so that we can support our student voters and take them to the polls. Link in bio to\u2026 https://t.co/CHveLUon9C
p38
aVRT @ashlm_12: School\u2019s out for the weekend! But @CHIstudentsvote is still at work to secure school partnerships! Interested in getting your\u2026
p39
aVRT @IndivisibleTeam: Think your vote doesn't matter? Think again. https://t.co/zotYbQ5wmu
p40
aVFirst time voters can make a DIFFERENCE! Link in bio to support #CHIstudentsvote ! https://t.co/vrgOuXU1o5
p41
aVRT @ashlm_12: Yes! @CHIstudentsvote will turn out fresh new voters for the midterms too. And we\u2019re going early! #chistudentsvote https://t.\u2026
p42
aVOn November 3 we\u2019re bringing students to the early voting polls to show them their voices matter. Want to help? https://t.co/tuQx4o62Kj
p43
aVRT @CHIstudentsvote: Approximately 20% of 18-29 year olds voted in the midterm elections in 2014.   Election Day is only 19 days away. Our\u2026
p44
aVApproximately 20% of 18-29 year olds voted in the midterm elections in 2014.   Election Day is only 19 days away. O\u2026 https://t.co/BXeyLlQrJr
p45
aVIllinois Voters: it is NOT TOO LATE to register! #PowerToThePolls #chistudentsvote https://t.co/sUKF73m4fq
p46
aVExcited to have 14 more teachers on board with us to get students to the polls on 11/3! #chistudentsvote
p47
aVSome students will vote by mail for the very first time in 2018! Others? We hope you\u2019ll join us on November 3 for e\u2026 https://t.co/x6c6CRo39h
p48
aV@ashlm_12 @GKMC18 @YCCSTheMovement @ChicagoVotes @ChicagoVotes has been crushing voter registration.\u2026 https://t.co/mvo66boiFg
p49
aVContact us @CHIstudentsvote and @ashlm_12 for more info. WE ARE MAKING THIS HAPPEN because #chistudentsvote
p50
aVCommit to a partnership! Promote youth participation in electoral politics! Sponsor a bus! Support voter education!\u2026 https://t.co/qvky7lefSq
p51
aVWill you join our team for the next 18 days to make this voter mobilization action a reality? @ChiPubSchools\u2026 https://t.co/9JMi6W0AAE
p52
aVWe have a vision for a student voter mobilization action that leverages relationships between school networks, educ\u2026 https://t.co/r4myCB7sg7
p53
aVHelp us get 200 Chicago students to vote on November 3rd #chistudentsvote
p54
a.