(lp0
VRT @DaddyDaddymac: RESISTERS!!\u000a\u000aNOTHING AND I MEAN NOTHING \u000ashould keep you from the polls tuesday! NOTHING\u000a\u000aIf your sick, tough shit..\u000aIf\u2026
p1
aV@EdKrassen @krassenstein Happy Birthday!
p2
aVRT @DalaiLama: We need to be determined to achieve positive change, and also be able to take a long view of what needs to be done. What is\u2026
p3
aV@DogginTrump Voted Blue! Always do!!
p4
aVRT @brian2596: It\u2019s about to be the holiday season so...\u000a\u000a800-273-8255 - Suicide Hotline\u000a\u000a877-226-3111 - Addiction Hotline\u000a\u000a844-228-2962 -\u2026
p5
aVRT @sirDukeDevin: Trump just said in his press conference that if the migrants start throwing rocks, they will be treated as if they have a\u2026
p6
aVRT @BrianKarem: Remember the date well 11/1/18. On this day in history President Donald Trump announced building massive concentration camp\u2026
p7
aVRT @Alyssa_Milano: Can you do me a favor? Can you retweet this if you plan to #VoteDem on Tuesday, or if you already have? Thanks!
p8
aVhttps://t.co/PdN12A2MWi
p9
aV@Stop_Trump20 https://t.co/VsgmKfQO8r
p10
aVRT @colbertlateshow: On #LSSC tonight: Beware the Caravan! https://t.co/Ni76wAtD2O
p11
aVhttps://t.co/CAzqsr8zrq
p12
aV@brycetache My dogs make me happy \u2764\ufe0f I had some more surgery yesterday &amp; they never left my side after I came home\u2026 https://t.co/gw5wWfYRkx
p13
aVRT @amervoices: Ivana Trump wasn't a US citizen until 1988. She gave birth to Don Jr in 1977, Ivanka in 1981, and Eric in 1984.\u000a\u000aTherefore\u2026
p14
aVRT @brycetache: It shouldn\u2019t be scary to be who you are\u000aTo love anyone\u000aTo worship any god\u000aOr none at all\u000aTo speak any language\u000aTo come from\u2026
p15
aVRT @TheRickyDavila: A journalist, Justin King, beautifully explains how the GOP\u2019s fear-mongering about immigrant caravans is complete BS. L\u2026
p16
aVRT @DanRather: \u201cI swore never to be silent whenever and wherever human beings endure suffering and humiliation. We must always take sides.\u2026
p17
aV@darraghforpitt Oh I\u2019m so sorry. They are such great dogs. What a wonderful long life though \u2764\ufe0f\U0001f494
p18
aVRT @real_farmacist: \u201cWhen words stop meaning anything, when people can just make up anything, democracy doesn't work. Society can't work. I\u2026
p19
aVRT @_SJPeace_: You would have thought she was describing Donald Trump but nope, She is describing Adolf Hitler\u000a\u000aRETWEET THIS! https://t.co/\u2026
p20
aVRT @DalaiLama: I don\u2019t think of myself just as a Tibetan or a Buddhist, but as a human being. We have to think of the whole of humanity. Be\u2026
p21
aV@realDonaldTrump You are to blame &amp; nothing about you is even remotely presidential. Resign!
p22
aVWhat a shocker ... not https://t.co/XDfHlGHPzF
p23
aVRT @joncoopertweets: Now that we know the terrorist bomber suspect had pro-Trump, right-wing stickers all over his van, there's no remainin\u2026
p24
aV@krassenstein Just beautiful! Congratulations!
p25
aVRT @ananavarro: I don\u2019t like people getting harassed in public places. \u000aBut those equating that to sending explosive devices, are being obt\u2026
p26
aVThis right here ... this is what we need in this world. What wonderful men. Love your fellow man - kindness in this\u2026 https://t.co/Btwbaq5N0b
p27
aV@_SJPeace_ Gosh I love this \u2764\ufe0f Yes, this is what we need in this world. So much this \u2764\ufe0f\u2764\ufe0f
p28
aV@Dax_x98 \U0001f641 Hang in there!
p29
aVRT @robreiner: Donald Trump tells his cult followers protesters are paid for by Soros. Hillary Clinton should be locked up. John Brennan sh\u2026
p30
aV@krassenstein Beautiful! Congratulations!
p31
aV@Brasilmagic D ... don\u2019t even need to think about that one.
p32
aVRT @ProudResister: He calls for jailing his opponents.\u000a\u000aHe calls for violence at his rallies.\u000a\u000aHe calls the press the enemy of the people.\u2026
p33
aVRT @DaddyDaddymac: we will never erase racism. But we can send it right back in the shadows where it belongs and keep it there!\u000a\u000aIf all POC\u2026
p34
aV@DaddyDaddymac Yes! Stronger together!
p35
aV@Dax_x98 I\u2019m so sorry. I hope that everything will be ok &amp; that your dad can get the help that he needs. Please tak\u2026 https://t.co/RzpaCUvZ38
p36
aV@DaddyDaddymac Done already! Proud to #VoteBlueToSaveAmerica2018
p37
aV@DogginTrump Voted Blue already!!
p38
aVRT @dylanmsmitty: Donald Trump declares himself a nationalist, while also saying that everyone besides his followers, Americans included, a\u2026
p39
aVRT @jamaicatouch: \u201cI am a Nationalist\u201d\u000a\u2014Donald Trump \u000a\u000aHis minions cheer &amp; applaud. \u000a\u000aFYI- Here are some other famous Nationalists in histo\u2026
p40
aVRT @tweetmommybop: Retweet the hell out of this!! \u000a\u000a https://t.co/fzWXCjj4Zs
p41
aVJust as cute as can be \u2764\ufe0f https://t.co/uSVpvjcLP8
p42
aV@_SJPeace_ \u2764\ufe0f\u2764\ufe0f\u2764\ufe0f\u2764\ufe0f\u2764\ufe0f
p43
aVA day off of social media ... in nature with the wonderful beings that keep me sane in an insane world \u2764\ufe0f\U0001f43e\U0001f341\U0001f342 https://t.co/FMN3KGVrlZ
p44
aV@agilitybcs93 You could just ignore it like I do lol \U0001f61d
p45
aV@Emma4Change Thank you Emma &amp; congratulations! You are an amazing role model for all young people \u2764\ufe0f
p46
aV@Stop_Trump20 \U0001f602\U0001f602\U0001f602
p47
aVRT @DanRather: A family weekend in nature: I feel the crisp air and see the forest prepare for winter. I smell the birches and hear the rus\u2026
p48
aVRT @dylanmsmitty: RETWEET THIS IF YOU ARE FED UP! THAT YOU, JUST LIKE ME, DON\u2019T EVEN KNOW WHAT TO TWEET MANY TIMES BECAUSE REPUBLICANS/TRUM\u2026
p49
aV@ida_skibenes Lauren Underwood - Illinois @LUnderwood630
p50
aVRT @mmpadellan: Every day, I'm exhausted.\u000a\u000aI've never seen a more nonstop parade of ugliness.\u000a\u000atrump kicked over that ugly rock, and all th\u2026
p51
aVhttps://t.co/pn7T5DSNaU
p52
aVThis! I don\u2019t know how to put it better. I am so disgusted with the vile piece of garbage that is 45. He makes me w\u2026 https://t.co/jihys55Tkp
p53
aV@jwheels74 Disgusting cowards! I wish those elephants would have stampeded them to death!!!!
p54
aVRT @DanRather: Whatever you may be feeling today about our country, hold on, stay steady, and know this: the good and decent mass majority\u2026
p55
aVThere really are still good people in this world \u2764\ufe0f https://t.co/uj3EzXjkok
p56
aVVOTE! https://t.co/XiLIuewPjd
p57
aV@RandyRainbow Keep up your day job Randy! You are the best! \u2764\ufe0f We need you! Especially now!!
p58
aV\u2764\ufe0f\u2764\ufe0f https://t.co/O1VftNTMK3
p59
aVRT @1pissedPolack: America is no longer a country others look up to it\u2019s a reality tv show that other countries laugh at.
p60
aV@TheChickLivesOn https://t.co/MygdsUjy9z
p61
aV@brycetache Welcome back!
p62
aVRT @AndyVanDyke: The price of anything is the amount of life you exchange for it.  #quote #dailymotivation\u000a@MondayMotivation https://t.co/G\u2026
p63
aV@Malcom69400875 @TalbertSwan And I truly thank you for that. I never meant for my comment to cause such an uproar.\u2026 https://t.co/uuItt9swY1
p64
aVI will not engage with people out here that do not know me. When you know me &amp; what I stand for, then we can talk. https://t.co/7gIf2DCuFQ
p65
aVRT @AMAZlNGNATURE: This is the best thing I've seen today https://t.co/l2gAONWDoC
p66
aVRT @SharedMotivati1: Need strength to face the reality of Monday.\u000a\u000a#MondayMorning https://t.co/LStnAGqKhx
p67
aVRT @DogsQuotes: #Dogs never bite me. Just humans.
p68
aV\u2764\ufe0f https://t.co/t9gNxlHEIG
p69
aV@TheRickyDavila https://t.co/HpHsr3wskS
p70
aVRT @TheRickyDavila: In case no one told you today, you are powerful, you are intelligent, you are courageous, you are appreciated, you are\u2026
p71
aVRT @InspowerMinds: Life is too short to worry about what others say or think about you. So have fun and give them something to talk about.
p72
aV@IAmBirgitta @TalbertSwan Yes. So true. Thank you.
p73
aV@davidmweissman Same!
p74
aV@Poweredbyhugs @TalbertSwan Never said I was offended. My response was not about being offended.
p75
aV@IAmBirgitta @TalbertSwan You are right &amp; I try every day. I did not mean my response as anything bad or to shut do\u2026 https://t.co/1weqcpG6cf
p76
aVRT @sahluwal: Here\u2019s a video of a puppy blowing bubbles...\u000a\u000a-Go Vote on November 6th.\u000a\u000ahttps://t.co/ZtaZepyk9k
p77
aV@TalbertSwan Please don\u2019t lump us all into this. This is wrong &amp; not normal. I am a white woman &amp; I would never act\u2026 https://t.co/pAKVjyfl1L
p78
aV@AKADonaldTrump @60Minutes @CBS Never!
p79
aV@Dax_x98 Me either! #StillWithHer
p80
aVDo we really want this to be our America?! This is sick ... VOTE! https://t.co/bEo9NiPgUz
p81
aV@ProudResister This is sick. This should never be ok. This should never be our America. We all need to vote &amp; vote Blue!!
p82
aVhttps://t.co/XKbodfowK2
p83
aV@EndDeportations https://t.co/jHiuOCUKNg
p84
aVI have always taken an interest in politics &amp; have exercised my right to vote from the time I was able to, but neve\u2026 https://t.co/9RMDm2b3uU
p85
aV@TalbertSwan Omg, wtf, this is disgusting &amp; terrifying. I am at a loss - seriously, how do we stop this?!
p86
aV@TheRickyDavila https://t.co/vlAtzlBnxz
p87
aV@TheChickLivesOn https://t.co/57NSJrYiO8
p88
aVRT @middleageriot: For a brief moment during Kanye West's visit, Donald Trump miraculously transformed into something he had never been bef\u2026
p89
aV@i2America @maydaymindy9 And it is something that keeps me sane in this insane world we are living in now.
p90
aV@DogginTrump Voting blue like I always do!!
p91
aV@i2America @maydaymindy9 It really is a blast! My dogs love it &amp; so do I.
p92
aVWTF ... https://t.co/j1MotoCUJr
p93
aVRT @wordsmithviv: -The Dow fell 800 points today. \u000a-The deficit is $925 billion. \u000a-Ford\u2019s laying off 20,000 workers.\u000a-Gas is almost $3 a ga\u2026
p94
aVRT @sirDukeDevin: Republicans are trying to run a smear campaign against the left, painting them as a largely violent group of sore losers.\u2026
p95
aV@lisaguestGTM Be safe!
p96
aV@maydaymindy9 I play agility with my dogs &amp; I also teach a fun little beginner class in agility. https://t.co/iIJ7LhHd7N
p97
aVRT @joncoopertweets: RBG Plans to Serve Supreme Court Until She's 90, Blocking Another Trump Pick\u000a\u000aLongtime Supreme Court \u000aJustice Ruth Bad\u2026
p98
aV@Alt_FedEmployee I\u2019m so very sorry \U0001f622
p99
aVRT @Alyssa_Milano: This. This. And this. https://t.co/QbiDshdEA8
p100
aV@Bornabrit1 HELL YES!
p101
aV#VoteBlue #VoteThemAllOut https://t.co/Dus1vEWGT9
p102
aV@LgbtResistance https://t.co/7tFgTD0KRS
p103
aV@DaddyDaddymac Amen!
p104
aV@DaddyDaddymac Yes! They make me want to vomit \U0001f92e
p105
aV@DogginTrump Fuck yeah! \u270a\U0001f3fb https://t.co/BSUdWxOsxw
p106
aVhttps://t.co/HHSfYpjOmQ
p107
aVRT @DanRather: March forward, without fear, and the winds of justice at your back. Feel the ranks swell of those who will not cower in the\u2026
p108
aVThese are real men ... thank you \u2764\ufe0f https://t.co/s4kz9rfcd2
p109
aV@sahluwal Wow! Thank you! \u2764\ufe0f
p110
aV@sirDukeDevin YES!!!!!
p111
aV@DogginTrump Fuck you Collins &amp; Manchin!!!!!!!!! \U0001f595\U0001f595\U0001f595\U0001f595\U0001f595\U0001f595\U0001f595\U0001f595
p112
aV@jwheels74 \U0001f602\U0001f602\U0001f602
p113
aV@johnpavlovitz My pups &amp; all of the things that we do together. Helps take my mind off of all that is going on in t\u2026 https://t.co/wj5tLtQtu4
p114
aV@ChasingOzPhotog Northern Illinois
p115
aVRT @bubbagump324: I will stay woke, crawl over glass and thru fire to vote all of you old white, miserable, misogynistic money grubbing gri\u2026
p116
aVhttps://t.co/vGVYVWdeo1
p117
aVRT @MoveOn: .@WillieNelson debuts his new song, "Vote 'em out" and it's officially our favorite song of this election season. #VoteEmOut ht\u2026
p118
aV@Dax_x98 Right there with you!
p119
aV@tweetmommybop I am crying every day. I can\u2019t take these people. I don\u2019t get it. I cannot wait to vote! #VoteBlue
p120
aV@BarackObama @MichelleObama Happy Anniversary to a wonderful couple!! My President &amp; First Lady always \u2764\ufe0f\u2764\ufe0f
p121
aV@MichelleObama @BarackObama Happy Anniversary!! 2 of some of my favorite people \u2764\ufe0f\u2764\ufe0f
p122
aV@ManInTheHoody https://t.co/E3nGZ0Jbgn
p123
aV@maydaymindy9 https://t.co/wQnsxJY3hc
p124
aVRT @_SJPeace_: 2 Hispanic women were approached and verbally assaulted by a racist white lady for speaking Spanish in store. \u000a\u000aAnother whit\u2026
p125
aVRT @middleageriot: The only message I want to receive from Donald Trump over the National Wireless Emergency Alert System is "I resign."
p126
aV@TheRickyDavila Happy Birthday!
p127
aVRT @KamalaHarris: My mother was a renowned breast cancer researcher so I know how important #BreastCancerAwarenessMonth can be. Early detec\u2026
p128
aV@TalbertSwan He is a disgusting &amp; vile pig
p129
aVSuch a vile &amp; disgusting piece of garbage .... how does anyone support this?! https://t.co/sa97fx1Y4K
p130
aVThis!!! https://t.co/CZPf0NBXRk
p131
aV@TalbertSwan Yes! This!!
p132
aV@DesignationSix @JackA43541850 Blocked. Thank you.
p133
aV@jwheels74 @DonaldJTrumpJr I have a grown son. I would never worry about him as he was raised right. Come on Jr. Ma\u2026 https://t.co/bxkkUZQcOG
p134
aV@TheChickLivesOn \U0001f602
p135
aV\U0001f92c https://t.co/idt0RbMi7M
p136
aV@Doug415510330 They always have enough coffee .... never enough left for me lol
p137
aVRT @ProudResister: No, Democrats are not flooding our streets with \u201ccriminal aliens\u201d as Trump just claimed at one of his cult gatherings. H\u2026
p138
aV@tweetmommybop \U0001f621\U0001f92c\U0001f621\U0001f92c
p139
aV@thomaskaine5 Can\u2019t fix stupid ... ugh
p140
aV@LgbtResistance I\u2019m so sorry \U0001f625
p141
aV@amvetsupport Thank you, and so very sorry.
p142
aVRT @TalbertSwan: I understand why Trump and Kanye like each other. They have a lot in common. They both say ignorant stuff that has no basi\u2026
p143
aVRT @DogginTrump: Tweeps,\u000a\u000aI understand there\u2019s a protest tomorrow to go silent. I respect your protest &amp; understand the idea behind the mes\u2026
p144
aV@Top_Sergeant \U0001f922\U0001f92e
p145
aVRT @akadams0690: Just get out and vote! \u000a#BlueWave #FBR #VoteThemOut #BlueWave2018 https://t.co/f9FXOBntsg
p146
aVRT @DanRather: Trump beaming like a grade school crush about Kim Jong-Un, mass-murdering, duplicitous dictator: "We went back and forth, th\u2026
p147
aV\u2764\ufe0f https://t.co/8jpghqnsw1
p148
aVRT @SamuelLJackson: Funny as hell, but there\u2019s nothing funny about his Lying Fratboy Ass!!! https://t.co/rSHcrMzMUM
p149
aV@Learning2GetBy My pups \U0001f49c\U0001f49b\u2764\ufe0f\U0001f499 https://t.co/N3pIkcyxeQ
p150
aV@DaddyDaddymac Not one damn thing! https://t.co/DfjY4qwEyK
p151
aV\U0001f602\U0001f602\U0001f602\U0001f602 https://t.co/CCLdI55cGM
p152
aV@tweetmommybop @kstreet111 \U0001f602\U0001f602\U0001f602
p153
aVRT @CyrusMMcQueen: Thank God for the women of this country who continue to drag us kicking and screaming into the future... Sometimes the s\u2026
p154
aVRT @TeaPainUSA: Disgusted once again by the Republican Party\u2019s totally dismissal of women?  Take this feelin\u2019 with you into the votin\u2019 boot\u2026
p155
aVRT @brycetache: Yesterday was a disgrace. But I\u2019m glad it was all on live TV. Republican men and their staggering hate. Their fury. Their l\u2026
p156
aVRT @funder: #VoteNo, let\u2019s roll.\u000a\u000aTrend session starts now. Tweet it out, retweet others, let\u2019s get it trending. \U0001f1fa\U0001f1f8
p157
aVhttps://t.co/lZWO5zyqIY
p158
aVRT @emrazz: Regardless of what you think about the allegations against him, there is absolutely no way that this rageful little brat should\u2026
p159
aVRT @peterdaou: The man who gave a press conference yesterday does not belong anywhere near nuclear weapons.\u000a\u000aThe man who is yelling at sena\u2026
p160
aVRT @tweetmommybop: Dear Republicans, \u000a\u000aBelieving Dr. Christine Ford doesn\u2019t make you a Democrat, it makes you human.
p161
aVRT @SenJeffMerkley: Thank you Dr. Ford for coming forward and telling your story. What you did today took tremendous courage and was incred\u2026
p162
aVRT @TheRickyDavila: As Corrupt Kavanaugh, yells angrily and blames democrats for him being accused by multiple women of sexual assault, let\u2026
p163
aV@DaddyDaddymac Take care of yourself!
p164
aV@Stop_Trump20 \u2705YES!
p165
aV@jwheels74 You are welcome! Hope it was a great day!
p166
aV@jwheels74 Happy Birthday!
p167
aV\U0001f602\U0001f602\U0001f602 https://t.co/7v6LoYiuSp
p168
aV@DaddyDaddymac Yes.
p169
aV@davidmweissman https://t.co/YIgCkHRK6s
p170
aV@realDonaldTrump https://t.co/Wqyay2Uwdg
p171
aV@realDonaldTrump https://t.co/T3HKpO8G42
p172
aV@realDonaldTrump https://t.co/CNITefi0JL
p173
aV@IndivisibleNet https://t.co/XyOFT4asaN
p174
aV@DogginTrump She\u2019s a racist idiot ... https://t.co/ibWjOFD5GV
p175
aVRT @TopRopeTravis: President Obama was NEVER laughed at, unless he told a joke, when he addressed the world\u2019s leaders at the UN.\u000a\u000aAs a matt\u2026
p176
aVRT @TopRopeTravis: While addressing the UN, Trump once again boasted that he had accomplished more than any other President in U.S. history\u2026
p177
aVAnd the \U0001f921 is laughed at ... \U0001f644\U0001f926\u200d\u2640\ufe0f https://t.co/I5LlEwiyD7
p178
aV@realDonaldTrump https://t.co/eFNyaZRpEB
p179
aV@Stop_Trump20 https://t.co/WqXVuhZgWg
p180
aV@DearAuntCrabby https://t.co/jMtcONtvGL
p181
aVRT @justbethegirl: #StrongerTogether #ImWithHer https://t.co/2u4Gtho9oK
p182
aVAll sounds so very familiar \U0001f914 https://t.co/1ITg75AXTY
p183
aVRT @AMluvinit2: Everyday I wake up and wonder how low Trump can go, and he always find a way. His supporters gobble it up. They cheer him o\u2026
p184
aVRT @Bornabrit1: Young women,1st time voters, listen up- \u000aThe coathangers you see represent the years when women had to self abort using the\u2026
p185
aVRT @realMatMolina: Help me prove a point and RT if @realDonaldTrump has damaged/strained a relationship between you and a friend/loved one
p186
aVRT @DaddyDaddymac: do you want old Christian men telling you what to do with your bodies?\u000a\u000ado you want to see civil rights back to the way\u2026
p187
aVRT @TheAnalogKid74: When I hear @BetoORourke speak I am instantly inspired. My hope for a better and brighter tomorrow grows exponentially.\u2026
p188
aVRT @kenolin1: There is nothing more arrogant, more insensitive, more ignorant than old men judging what is and is not the appropriate and b\u2026
p189
aVUnbelievable.... I will never understand Republican women.... how do they live with themselves? https://t.co/o9A2EdeguK
p190
aVRT @funder: Dear Judge Kavanaugh-\u000a\u000aWe request that you withdraw your nomination. Whether it's the stolen emails, hidden documents, your per\u2026
p191
aV@leeleeb50 Orange overlord
p192
aVRT @TravisAllen02: BREAKING: Deputy Attorney General Rod Rosenstein once proposed secretly recording President Trump and removing him via t\u2026
p193
aV@MrsRabbitResist How awful \U0001f615 I\u2019m sorry you had to go through this.
p194
aVRT @RepJoeKennedy: 2 out of 3 sexual assaults are never reported. Might have something to do with the fact that for every 1,000 rapes, 994\u2026
p195
aVRT @SRuhle: \u201cWhy didn\u2019t someone call the FBI 36 years ago?\u201d\u000a\u000aThe words of the @realDonaldTrump tonight\u000a\u000aThe cruel words of thr President of\u2026
p196
aVRT @goingglocal: I keep seeing people speaking "against diversity." I can't understand people being threatened by diversity. We live in a d\u2026
p197
aVRT @Goss30Goss: Children in cages, hurricane victims, women who have been sexually assaulted.\u000a\u000aThe lack of empathy for suffering human bein\u2026
p198
aVRT @dylanmsmitty: No woman in America should ever, under any circumstances, vote for a Republican. Ever fucking ever.\u000aIf you do, you are vo\u2026
p199
aVIt is insane .... https://t.co/eX7k9OBOPq
p200
aVWTF https://t.co/5ysWggrkSG
p201
aVRT @ProudResister: The Republican party is:\u000a\u000a\u2014 Blaming women.\u000a\u2014 Shaming women.\u000a\u2014 Denying women.\u000a\u2014 Abusing women.\u000a\u2014 Grabbing women.\u000a\u2014 Assaul\u2026
p202
aVRT @wvjoe911: It was a Democrat who brought peace between the Israelis and Egyptians\u000aJimmy Carter. \u000a\u000aIt was a Democrat who saved the econom\u2026
p203
aV@jwheels74 WTF!
p204
aV@realDonaldTrump @GeraldoRivera https://t.co/Z9zzM6ca6X
p205
aVOne can hope ... https://t.co/nioZyyIvqq
p206
aV@coleyworld WTF
p207
aVShitler in chief has been awfully quiet ... \U0001f914\U0001f606 https://t.co/YjSaaxyItD
p208
aVRT @carissashumaker: Republicans are upset that Beto O'Rourke was once in a punk rock band but want to put an accused rapist on the Supreme\u2026
p209
aV@mcspocky Sending her many positive thoughts!!!
p210
aVRT @itsJeffTiedrich: George Papadopoulos: in jail\u000aMichael Flynn: awaiting sentencing\u000aMichael Cohen: awaiting sentencing\u000aPaul Manafort: abou\u2026
p211
aVRT @freddyatton: *\u000a(After you vote, please retweet - to get a wide sample of "both sides" - thanks.)\u000a\u000aWhat grade do give to ( @realDonaldTr\u2026
p212
aVRT @JeffMerkley: This is a fight for the soul of our nation. There comes a moment in every generation, when it\u2019s time to take a stand. When\u2026
p213
aVRT @chelseahandler: Now trump is claiming the death toll in Puerto Rico is fake news. That deaths are not real. Republicans-stay under your\u2026
p214
aVRT @AMluvinit2: For nearly two years, Republicans in Washington have assaulted our health care, engaged in corruption by stacking the deck\u2026
p215
aV@realDonaldTrump https://t.co/qHY0dZBPiw
p216
aV@AynRandPaulRyan https://t.co/hcKJbzsaE2
p217
aVRT @LucyWins2018: I never planned to run for office. After my son Jordan was shot and killed, my life completely changed. This is my story\u2026
p218
aV@realDonaldTrump https://t.co/rUHCc1LKEQ
p219
aV@mmpadellan \u270b
p220
aVRT @DanRather: I try to keep steady in covering the news. But the willful and outrageous lies by the President around his administration's\u2026
p221
aV\U0001f602\U0001f602\U0001f602 https://t.co/R3HoqEleTX
p222
aV@StopTrump2020 \U0001f602\U0001f602\U0001f602
p223
aV@Dax_x98 Northern Illinois
p224
aVI never thought that it was possible to loathe this idiot more than I do ... until this \U0001f92c\U0001f621 https://t.co/2jOW0xeHyy
p225
aV@realDonaldTrump @BreitbartNews https://t.co/4gQP8LjF1V
p226
aV@AynRandPaulRyan https://t.co/CSCmeIuw0G
p227
aV@joncoopertweets https://t.co/vcwIoyMFoL
p228
aVRT @AynRandPaulRyan: Y'all are being way too hard on Trump. \u000a\u000aAfter all, who among us hasn't shown up to a 9/11 memorial this way?\u000a\u000aHe lite\u2026
p229
aVRT @RepJoeKennedy: 17 years ago, before the smoke and ash settled, America revealed her true greatness: her people. For every family shatte\u2026
p230
aV@realDonaldTrump https://t.co/DtofMxpClc
p231
aV#NeverForget \U0001f494\U0001f1fa\U0001f1f8 https://t.co/pAi6pyjVFj
p232
aVRT @TopRopeTravis: Omarosa released a tape today of Trump making a joke to his staff about American soldiers getting killed in Niger.\u000a\u000aHe l\u2026
p233
aVRT @DBlack_Mountain: Thanks Nike for contributing and supporting our soldiers.\u000a\u000aTrump hasn't visited our troops, he's afraid and a snivelin\u2026
p234
aV@DogginTrump Unite!
p235
aVRT @AndyVanDyke: Darkness cannot drive out darkness: only light can do that. Hate cannot drive out hate: only love can do that. \u000a\u2015 Martin L\u2026
p236
aVRT @Bornabrit1: Independents &amp; Non Trump Republicans :\u000a\u000aPLEASE, WE ARE BEGGING YOU. \u000aTake a GOOD LOOK.\u000aAt what TRUMP is doing to this COUNT\u2026
p237
aVRT @tonyposnanski: I\u2019m sorry but if you verbally attack a black man who kneels to spotlight police brutality against African Americans, are\u2026
p238
aVRT @realAliTweets: To all those criticizing Obama for breaking the norm of ex-presidents criticizing a sitting president:\u000a\u000aHow many norms h\u2026
p239
aVRT @real_farmacist: just how important are the midterms? let @BarackObama tell you https://t.co/Kv4VFi61vy
p240
aV@Alyssa_Milano This is heartbreaking \U0001f494
p241
aV@leeleeb50 So sorry \U0001f622
p242
aVRT @TheRickyDavila: President Obama on why he\u2019s speaking out now, about everything, including the sheer importance that the midterms are fo\u2026
p243
aV@IndivisibleNet This is disturbing...
p244
aV#JustDolt \U0001f601 https://t.co/cSIpuYCV3y
p245
aVhttps://t.co/mZlolfIA4f
p246
aV@Kokomothegreat https://t.co/XkavQ6qht8
p247
aV@LGund71 @Kokomothegreat Same ... always moved to tears when he speaks. It is so hard to see what we no longer have.
p248
aV@Kokomothegreat Me!!!!!!!!! https://t.co/kKdpc0SGPf
p249
aV@leeleeb50 https://t.co/0tvoIV6nDM
p250
aV@DaddyDaddymac @Astronome12 Ignorant
p251
aV@JoeBiden @BarackObama You both are so missed!!
p252
aVYes! https://t.co/bzWdl1tgBJ
p253
aVRT @adamcbest: If you watched President Trump yell and drool on himself last night in Montana and prefer that over the heartfelt eloquence\u2026
p254
aVRT @ProudResister: President Obama:\u000a\u000a\u201cWe are Americans. We\u2019re supposed to stand up to bullies\u2014not follow them. And we sure as heck are supp\u2026
p255
aVRT @funder: \u201cWe're sure as heck supposed to stand up clearly and unequivocally to Nazi sympathizers! How hard can that be? Saying that Nazi\u2026
p256
aV\U0001f602\U0001f602\U0001f602 https://t.co/PLbLFCMtER
p257
aV@Dax_x98 https://t.co/6qvauWqo0g
p258
aV@DaddyDaddymac Ignorant &amp; uneducated.
p259
aV@DaddyDaddymac So so so much \U0001f499 https://t.co/6ax7tliTOT
p260
aVWow ... I can\u2019t even ... no words for this. No words ... https://t.co/zLCLrs8MDM
p261
aVRT @SenJeffMerkley: Let\u2019s stop today for a moment to remember that there are STILL 416 children separated from their parents because of @re\u2026
p262
aVRT @DaddyDaddymac: #TrumpPaysRallyAttendees \u000a#TrumpPaysRallyAttendees\u000a#TrumpPaysRallyAttendees\u000a#TrumpPaysRallyAttendees\u000a#TrumpPaysRallyAtte\u2026
p263
aV@BarackObama \U0001f499 https://t.co/r8NEr5dyRP
p264
aV@jwheels74 This makes me so ill. I am so sickened by what I have seen. What more can we do to fix this? I am at suc\u2026 https://t.co/B3UMSBog6q
p265
aVRT @middleageriot: I know it's not a politically correct thing to say, but I miss having a president who speaks English.
p266
aV\U0001f602\U0001f602\U0001f602\U0001f602 https://t.co/PLSH6LdyNZ
p267
aV@ManInTheHoody \U0001f602\U0001f602\U0001f602
p268
aV@AynRandPaulRyan https://t.co/7h5JsKclIe
p269
aV@ManInTheHoody Anonyiamanass
p270
aV@DogginTrump https://t.co/10JPJjulur
p271
aV@DaddyDaddymac 1
p272
aV@CoryBooker Thank you Senator!
p273
aV@realDonaldTrump https://t.co/svhLGbUAuf
p274
aV@realDonaldTrump https://t.co/Vcn1qcgq82
p275
aV@Stop_Trump20 \U0001f602\U0001f602\U0001f602\U0001f602\U0001f602
p276
aV@DogginTrump https://t.co/v5JihoWiGa
p277
aVhttps://t.co/AKOv6v1irh
p278
aVRT @Bornabrit1: I HONESTLY  believe that TRUMP should  be taken away in a\u000a\u000aSTRAIGHT JACKET\u000a\u000aIMMEDIATELY? \u000a( SERIOUSLY)\u000a\u000aDO YOU ?\u000a\u000aIf  YES p\u2026
p279
aVRT @krassenstein: The upstanding black President couldn't select a SC Justice in his final year, but the white President who is an unindict\u2026
p280
aVRT @dylanmsmitty: America needs more Cory Bookers and less Trump Republicans.\u000a\u000aAmerica is built on transparency, which is greatly lacking i\u2026
p281
aVRT @Amy_Siskind: Just notice ALL the Republicans on the Senate Judiciary Committee are:\u000a1) white\u000a2) straight\u000a3) male\u000a\u000aHow does that represe\u2026
p282
aVRT @nightlypolitics: BREAKING: Corey Booker just said he will risk expulsion from the US Senate and will release the confidential \u201cracial p\u2026
p283
aV@realDonaldTrump https://t.co/wFoILVZeSu
p284
aV@TheRickyDavila Thank you! Goodnight!
p285
aVThis is laughable ... these questions are far too difficult for tRump\u2019s base lol https://t.co/AuK69ml9ia
p286
aV@DaddyDaddymac These questions are far too difficult for his base lol
p287
aV@johnpavlovitz @realDonaldTrump YES! Gladly co-sign!!!!!!!!!!!
p288
aV@DaddyDaddymac Totally get it. No need for any explanation!
p289
aV@JOY_4_44 @DaddyDaddymac Love this!
p290
aVRT @davidhogg111: Our political leaders are so owned by the NRA that they have successfully turned America into a country that gets more of\u2026
p291
aVRT @ProudResister: First we find out Donald Trump is an unindicted co-conspirator.\u000a\u000aThen we find out Trump\u2019s cabinet has considered invokin\u2026
p292
aV@realDonaldTrump https://t.co/bjC5KPwQ1h
p293
aVRT @Kaepernick7: Believe in something. Even if it means sacrificing everything. #JustDoIt https://t.co/x5TnU7Z51i
p294
aV#StopKavanaugh https://t.co/zabN93bNVz
p295
aV\U0001f602\U0001f602\U0001f602 https://t.co/WChRjNhw1X
p296
aVRT @nowthisnews: Levi\u2019s is taking a huge stand against gun violence https://t.co/iN0nrpWqxO
p297
aV\U0001f602\U0001f602\U0001f602 https://t.co/9fMSsazAeP
p298
aV@realDonaldTrump https://t.co/aoSvbqq4sx
p299
aV@realDonaldTrump https://t.co/wdsPYH6cbc
p300
aV@realDonaldTrump https://t.co/HhZSbheKG0
p301
aV@realDonaldTrump And yet more lies ...
p302
aVhttps://t.co/IXsoqE5ZHP
p303
aVRT @dylanmsmitty: No further proof is needed:\u000a\u000aDonald Trump is mentally unfit to be President of the United States!\u000a\u000aRT if you agree.
p304
aVRT @YoniMarten: Why is it, we love the varying hues of a rainbow, the differing hues on a work of art, the different colors used when knitt\u2026
p305
aV@EdwardP26273646 @PhoenixAzsn @VicenteAccon @realDonaldTrump Dumbest comment I have ever seen. Do your research &amp; get your facts straight.
p306
aVRT @TravisAllen02: Many many people are saying that Trump is the WORST PRESIDENT IN THE HISTORY OF THE UNIVERSE.\u000a\u000aRT and like if you agree!
p307
aVRT @tweetmommybop: Orrin Hatch called a protestors a #loudmouth and asked to have her removed.\u000a\u000aI\u2019m a #loudmouth and stand behind the right\u2026
p308
aV@wordsmithviv Omg! Wtf lol
p309
aVhttps://t.co/mZe7EX2odt
p310
aV@leeleeb50 Sick ...
p311
aVRT @mmpadellan: You made a "hard" choice of country over sports and sneakers. Good.\u000a\u000aBut, when trump saluted North Korean generals, and bow\u2026
p312
aVRT @TopRopeTravis: For the few that are burning your Nike shoes &amp; throwing out clothes, instead of participating in #NikeBoycott, why not d\u2026
p313
aVRT @Bornabrit1: DEMOCRATS beware:\u000aUntill it happens,all this talk about a BLUE WAVE is just that. TALK\u000a\u000aOnly WE can make A BLUE WAVE happen\u2026
p314
aVRT @OfficialJonZal: Fanfuckingtastic. https://t.co/qOoc2AI8aa
p315
aV@davidmweissman @BarackObama Thank you for this. I really hope there are others like you out there. Please vote Blu\u2026 https://t.co/j9Ki6IYHP2
p316
aVRT @krassenstein: BREAKING:  Nike announces that they will make Colin Kaepernick the face of their "Just Do It" 30th anniversary campaign!\u2026
p317
aV@realDonaldTrump https://t.co/pgm83JdlxS
p318
aVRT @chelseahandler: There are incredible candidates running for office this year. We have an administration that separated children from th\u2026
p319
aVHell no ... https://t.co/Jio2NDtY0y
p320
aV@irishrygirl I\u2019m so very sorry.
p321
aV@RandyRainbow Love you Randy!! \u2764\ufe0f
p322
aV@ida_skibenes \U0001f602\U0001f602\U0001f602
p323
aV@TheJoker_really @realDonaldTrump He is a horrible person. I would never wish that on any animal.
p324
aVRT @johnpavlovitz: \u201cIt\u2019s no small coincidence that this brief moment of national renewal happened in the physical absence of the current Pr\u2026
p325
aVRT @DanRather: The courage of this statement in the midst of unspeakable tragedy is a true moment of American grace. The contrast to those\u2026
p326
aV@tonyposnanski https://t.co/DxQiAsl6bt
p327
aVRT @funder: .@realDonaldTrump-President Obama is trending, because America misses having a real president. Get out of the White House. You\u2026
p328
aVRT @funder: Ted Cruz should lose his re-election in Texas to Democrat Beto O\u2019Rourke. Retweet if you agree. @TheDemCoalition knowns we can w\u2026
p329
aV@JeffMerkley @BarackObama Always .... https://t.co/QIqSNqtxHV
p330
aV@brycetache How awful!!!! I am so saddened by what this country has become. Please be safe.
p331
aVRT @AynRandPaulRyan: President Obama: Despite \u201creal\u201d and \u201cdeep\u201d disagreements with John McCain, "We never doubted we were on the same team\u2026
p332
aVRT @AynRandPaulRyan: President Obama on his conversation with John McCain about speaking at his funeral: "After all, what better way to get\u2026
p333
aV@realDonaldTrump https://t.co/uaOZni1l22
p334
aV@CyrusMMcQueen Happy Birthday!
p335
aV@realDonaldTrump https://t.co/A6NKRV50m6
p336
aV@realDonaldTrump https://t.co/qz0FzN3XkQ
p337
aVRT @Concerned_Doc1: This morning my posts about the many Trump scandals reached @EricTrump and he responded by blocking my account. Please\u2026
p338
aV@realDonaldTrump https://t.co/cv1qmxxaJj
p339
aV@DogginTrump That would be wonderful!
p340
aVRT @DaddyDaddymac: I think these trumptards should leave the country. they have zero redeeming qualities. they are the worst this country h\u2026
p341
aVRT @kurteichenwald: Trumpers going nuts because Meghan Mccain said "\u201cThe America of John McCain has no need to be made great again because\u2026
p342
aV@realDonaldTrump https://t.co/R1OgpgvMRs
p343
aV@realDonaldTrump https://t.co/RrUNwwTiSa
p344
aV@realDonaldTrump https://t.co/4psWnxibsI
p345
aV@TheRickyDavila I am the same way! Every single time ...
p346
aVRT @Bornabrit1: "Supposed President" Trump:\u000a\u000aI know you are watching John McCain's service .\u000a\u000aThe outpouring of people honoring this COURAG\u2026
p347
aV@realDonaldTrump https://t.co/A9V76fbwwa
p348
aV@realDonaldTrump https://t.co/uKIxpL3I8A
p349
aV@realDonaldTrump @Rasmussen_Poll https://t.co/qE0idkawQZ
p350
aVRT @DaShanneStokes: I can't tell you how important this is: Please do not think for a minute that a blue wave will necessarily come in Nove\u2026
p351
aVRT @myserenity69: Seeing #Obama &amp; #Biden speak recently was bittersweet. \u000a\u000aWe were blissfully unaware of things  to come..\u000a\u000aEloquence, gone\u2026
p352
aV@Turnip2020 Every day ....
p353
aV@davidmweissman Thank you for sharing. I truly hope there are many more like you that feel the same.
p354
aVRT @DanRather: "Disapproval of Donald Trump is at a new high, support for the Mueller investigation is broad and half of Americans in a new\u2026
p355
aVRT @StopTrump2020: Do you think @realdonaldtrump wants to be a dictator? https://t.co/ZuTy5SiWx0
p356
aVRT @OfficialJonZal: Imagine how fucking stupid you'd have to be to hear this guy speak and subsequently conclude that he should be in charg\u2026
p357
aVRT @Molly3186: Repub voters say Dems are the enemy.\u000a\u000aWell,\u000a\u000aIn the last 18 years Repubs have voted 9 times in favor of raising their own sa\u2026
p358
aVRT @johnpavlovitz: "We don't have an adult President right now.\u000aWe don't have a leader.\u000aWe don't even have an impotent figurehead.\u000aWe have\u2026
p359
aVRT @TravisAllen02: A new ABC/Washington Post poll shows Trump\u2019s DISAPPROVAL RATING at 60%, an ALL TIME HIGH.\u000a\u000aAre you tired of winning yet?\u2026
p360
aVRT @politvidchannel: Trump last night LIED TO His Supporters said democrats  "want to raid Medicare"\u000a\u000a Trump is the one Who has proposed cu\u2026
p361
aV@kenolin1 I\u2019m so sorry. So very hard to lose a parent.
p362
aVRT @Alyssa_Milano: Trump\u2019s tax plan gave tax cuts to corporations.\u000a\u000aToday, he thought it would be a good idea to cancel pay raises for fede\u2026
p363
aVRT @davidaxelrod: To state the obvious, denying federal workers a pay raise because you\u2019ve lavished a trillion dollars of tax cuts on corpo\u2026
p364
aVRT @Bornabrit1: A tearful  LINSEY GRAHAM On the senete floor:\u000aSaid that there is a little bit of John McCain in us all.\u000a\u000a"DONT delude yours\u2026
p365
aVRT @DemitriDawson: .@realDonaldTrump just decided to cancel a planned raise for federal workers saying \u201cthe budget can\u2019t support it.\u201d\u000a\u000aIf o\u2026
p366
aVhttps://t.co/cbd9xBA8fd
p367
aVRT @johnpavlovitz: "We don't have an adult President right now.\u000aWe don't have a leader.\u000aWe don't even have an impotent figurehead.\u000aWe have\u2026
p368
aV@realDonaldTrump https://t.co/Fz6T0D3DMn
p369
aVRT @brycetache: It\u2019s not just fake news anymore. It\u2019s fake people &amp; books &amp; history &amp; social media &amp; Google searches.\u000a\u000aIf you knew someone\u2026
p370
aVRT @middleageriot: Fool me once, shame on you.\u000a\u000aFool me twice, shame on me.\u000a\u000aFool me repeatedly, I must be a Trump supporter.
p371
aV@QuancyClayborne https://t.co/iDTzthdjAz
p372
aVRT @adamcbest: NBC News: \u201cfudging\u201d tapes\u000aCNN: \u201cfake news\u201d\u000aGoogle: \u201crigged\u201d\u000aFB/Twitter: \u201csilencing millions\u201d\u000a\u000aTrump is trying to create an O\u2026
p373
aVRT @dylanmsmitty: Barack Obama was a better President and is a better man than Donald Trump could ever hope to be.\u000a\u000aRT if you agree.
p374
aVRT @RexHuppke: I remember when Americans didn\u2019t have to spend each morning deciphering the rage-tweets of a dishonest, addled nincompoop. I\u2026
p375
aV@realDonaldTrump https://t.co/LlmRFBDWtl
p376
aV@realDonaldTrump https://t.co/07ZXzuXLR5
p377
aV@realDonaldTrump https://t.co/EgZpUD2RBH
p378
aVRT @brianklaas: Trump\u2019s first unhinged tweet yesterday (about how the internet is rigged against him) was at 5:24 am. His last unhinged twe\u2026
p379
aVRT @Alyssa_Milano: We know who Kavanaugh is because time and time again he\u2019s shown us. \u000a\u000aWe need the @SenateDems to do everything they can\u2026
p380
aV@realDonaldTrump https://t.co/WmcLntO1qJ
p381
aVRT @coleyworld: I\u2019m tired as hell today... \u000aTired of being tired of Trump\u000aTired of the post truth era\u000aTired of science deniers\u000aTired of rac\u2026
p382
aV@realDonaldTrump @carlbernstein https://t.co/E4g8TfPaUY
p383
aV@realDonaldTrump @BretBaier OMG enough already \U0001f925\U0001f921\U0001f476
p384
aV@realDonaldTrump @carlbernstein https://t.co/sHzh8lBwzB
p385
aVRT @ProudResister: Could you imagine if @BarackObama had ever called for violence if the Democrats lost a midterm election? No, you couldn\u2019\u2026
p386
aVNow this is a wonderful man &amp; a great President. How I miss him in office. https://t.co/t5MsA6CX3k
p387
aV@BarackObama Thank you for all of the wonderful things you have done &amp; continue to do. You are a great man &amp; a grea\u2026 https://t.co/t8DzGiufnf
p388
aV@reenie62 @QueenRegina2020 @ItsJeffHudson @BarackObama Very much so \u2764\ufe0f
p389
aV@realDonaldTrump https://t.co/nLMXfyfCNM
p390
aV@realDonaldTrump https://t.co/5sGwgL0Nwy
p391
aVRT @DanRather: Openly racist rhetoric from elected officials and candidates brings me back decades to covering the civil rights movement. I\u2026
p392
aVRT @SassyKadiK: Trump warns there will be violence, if Dems win at the polls in Nov.\u000aHe is threatening the people of America with violence,\u2026
p393
aVRT @SenKamalaHarris: Retweet if you:\u000a\u000a-Have a pre-existing condition\u000a-Love someone with a pre-existing condition\u000a\u000aThe fight over Kavanaugh\u2019\u2026
p394
aV@realDonaldTrump https://t.co/4ESfabJN7T
p395
aVRT @itsJeffTiedrich: remember how Obama would spend every morning tweeting about how unfair everything was? of course you don't, Obama put\u2026
p396
aVRT @joncoopertweets: The official death count in Puerto Rico after Hurricane #Maria has increased to 2,975 people. @realDonaldTrump utterly\u2026
p397
aVRT @robreiner: The lunatic cites The Daily Caller to dump more bullshit on US, lying about China hacking Hillary\u2019s emails. This November TR\u2026
p398
aVRT @mmpadellan: Name one President, DEM or GOP, who ever threatened that there would be violence if their party lost the midterm elections.\u2026
p399
aVRT @David_Leavitt: Please retweet to remind the world:\u000aWe have thousands of children sitting alone in detention centers at the border while\u2026
p400
aV@realDonaldTrump https://t.co/k5ser1PJCK
p401
aVOh how I miss this great man .... https://t.co/jEOtfBIAG0
p402
aVRT @DanRather: Pres. Trump attacking Google is akin to his attacks on the press. It's about undercutting truth, muddying facts and dismissi\u2026
p403
aV\u2764\ufe0f https://t.co/3Xk0KvXCPN
p404
aV@_SJPeace_ \u2764\ufe0f\U0001f62d
p405
aVRT @joncoopertweets: Only 70 days until Election Day. Retweet if you plan to #VoteDem! \U0001f1fa\U0001f1f8 Dems are #ForThePeople, not just the rich, as GOP\u2026
p406
aVRT @TravisAllen02: For my birthday, I am donating money to the @ACLU.\u000a\u000aThey have been on the frontlines of the #Resistance since day one!\u2026
p407
aV@wesley_jordan @danicalynn1988 WTF
p408
aV@DogginTrump https://t.co/4c99KXhEgm
p409
aV@stonecold2050 https://t.co/PZYQJkC4HY
p410
aVRT @ida_skibenes: Use empathy. Use your heart. Show sympathy. Use your brain. Listen. Stop being afraid of the unknown and the different. L\u2026
p411
aV@MrsRabbitResist https://t.co/JHtXp4ffXn
p412
aV\U0001f602\U0001f602\U0001f921\U0001f476\U0001f602\U0001f602 https://t.co/X7F8h4vp5o
p413
aVRT @chelseahandler: According to a new poll, Trump is the worst president ever. We don\u2019t need polls to tell us this anymore... you can turn\u2026
p414
aVRT @DaddyDaddymac: After 48 hrs of doing nothing, @realDonaldTrump finally was dragged kicking and screaming to acknowledge McCain\u2019s death\u2026
p415
aV@realDonaldTrump Don\u2019t you have anything better to do????!!!!! https://t.co/n3xJhnNeYA
p416
aV@joncoopertweets You would think it would be about 90%!
p417
aVSo my tweets can\u2019t be all political lol. I have to remember what keeps me sane in an insane world. My littlest redh\u2026 https://t.co/S5bFEQRFQ9
p418
aVRT @DanRather: Reading John McCain's farewell words makes my eye glisten with a tear of recognition. We all must face mortality and should\u2026
p419
aVRT @Alyssa_Milano: I'm a Democrat. Here's what that doesn't mean and here's what it means: https://t.co/JyunP0AYSn
p420
aV@MarkSchweitzer https://t.co/3f7rEk1T42
p421
aVRT @middleageriot: Donald Trump's Twitter feed is like a douchebag-a-day desk calendar where every year is 10,000 days long.
p422
aV@jeaniemattone @realDonaldTrump Yes! L. Pety
p423
aV\U0001f602\U0001f602\U0001f602 https://t.co/hNZdICVR4d
p424
aVhttps://t.co/XYHkruKaoX
p425
aVRT @jeaniemattone: Dear @realDonaldTrump , We, the people do hereby demand your resignation, effective immediately!   We\u2019ve had enough!!! P\u2026
p426
aV\U0001f921\U0001f476 https://t.co/tBhLqFqWT8
p427
aVRT @DanRather: Watching the American flag go up and down the White House flag pole over whether and how to honor the life of John McCain is\u2026
p428
aVRT @Stop_Trump20: Americans rank Barack Obama as best president of their lifetimes: Poll  https://t.co/Zf3bVgdD6o
p429
aVRT @joncoopertweets: John McCain requested the 43rd and 44th presidents \u2014 both bitter political rivals of his at one point in time \u2014 to del\u2026
p430
aVRT @DaleDiamond6: Condolences to the family and friends of American hero and patriot John McCain.  Americans can honor him by only voting f\u2026
p431
aV@realDonaldTrump https://t.co/8MveaaCXfV
p432
aV#fuckit \U0001f602\U0001f602\U0001f602 https://t.co/V6S87Z3Nlt
p433
aV@Alyssa_Milano \U0001f602\U0001f602\U0001f602
p434
aV@realDonaldTrump https://t.co/qJNV41Rjmh
p435
aV@realDonaldTrump https://t.co/b2sRtbEzlE
p436
aVRT @johnpavlovitz: "Whenever I encounter a supporter of this President on social media or scan the crowds at his propaganda rallies or see\u2026
p437
aVRT @funder: Welcome to the #TrumpResign weekend. Let\u2019s make it trend. \U0001f1fa\U0001f1f8 #TheResistance
p438
aVRT @StopTrump2020: I say #HellNo https://t.co/fVq7vZLcaH
p439
aVRT @DanRather: More big immunity deals coming to light. And that means more \u201crats\u201d for President Trump to rail against. But you know what t\u2026
p440
aV@LgbtResistance So sorry \u2639\ufe0f
p441
aV\U0001f602\U0001f602\U0001f602 https://t.co/Lx1xlR6bX1
p442
aVRT @Alyssa_Milano: The midterm elections are in 75 days.
p443
aV@DogginTrump https://t.co/vlIw380yhf
p444
aVRT @ResistanceNOW77: "Allen Weisselberg" Donald Trump is finished\u000aand will suffer severe penalties for the treason he committed\u000aThe biggest\u2026
p445
aV@realDonaldTrump https://t.co/JWuZF4mfmQ
p446
aV@realDonaldTrump https://t.co/PwfqfDv9rF
p447
aVRT @thehill: Chicago Tribune: Trump\u2019s presidency is "a disappointment and a disgrace" https://t.co/7hES2aZlaN https://t.co/uWLvJd6zu7
p448
aV@johnpavlovitz I too left organized religion a long time ago. There was really nothing \u201cChristian\u201d about it. God or\u2026 https://t.co/eBiEpBkypV
p449
aVRT @DanRather: If Donald Trump ain't guilty, why is he acting like he is?
p450
aV@realDonaldTrump https://t.co/a5SqEoNtuq
p451
aVRT @DogsQuotes: Once you have had a wonderful dog, a life without one, is a life diminished.
p452
aV@DearAuntCrabby https://t.co/Rd4QxIYHUu
p453
aVRT @dylanmsmitty: Rudy Giuliani says the American people will revolt if Trump is IMPEACHED?\u000a\u000aNot only will there be celebrations, parties a\u2026
p454
aVThis really needs to stop. WTH is wrong with people?! https://t.co/ZVxQOzgG57
p455
aVRT @johnpavlovitz: https://t.co/6WpVujaSxm https://t.co/lCcejp27yo
p456
aVRT @TeaPainUSA: GOP 2016: We can't confirm a Supreme Court Justice pick during a President's final year in office.\u000a\u000aGOP 2018:  Just because\u2026
p457
aVDamn straight... https://t.co/Ih6MILsUPH
p458
aVRT @ProudResister: Trump and the @GOP are building a dark, dystopian America where the press is the enemy, where truth is not truth, where\u2026
p459
aVThe 36 most outrageous lines in Donald Trump's Fox News interview @CNNPolitics https://t.co/7JZxD3SPA0
p460
aV@realDonaldTrump https://t.co/CnjRQAVKU6
p461
aV@TopRopeTravis Hope all will be well!
p462
aV@realDonaldTrump https://t.co/2hMhhUDWOg
p463
aVUnhinged &amp; delusional ... https://t.co/tBC5KUbCbP
p464
aVRT @joncoopertweets: If you think this week was devastating for Trump \u2014 as I predicted \u2014 you ain\u2019t seen nothing yet. A story should break s\u2026
p465
aVRT @funder: BREAKING: Mollie Tibbets\u2019 family just condemned @realDonaldTrump\u2019s use of her death to make racist attacks: "What happened to M\u2026
p466
aVRT @DanRather: The question as we enter the next chapter in the fate of this nation lies not in the actions of the President as much as in\u2026
p467
aV@realDonaldTrump https://t.co/osrjrW0Lms
p468
aVRT @PalmerReport: Donald Trump's night so far:\u000a\u000a- Confesses to felony during interview with Fox News\u000a- National Enquirer boss David Pecker\u2026
p469
aVRT @davidaxelrod: Trying to recall if the Obama campaign ever engaged in an elaborate conspiracy to hide the payment of hush money days bef\u2026
p470
aV@realDonaldTrump https://t.co/GC9UALYImW
p471
aV@realDonaldTrump https://t.co/zhFj6JVyuI
p472
aVRT @OfficialJonZal: Well, @LindseyGrahamSC, you can't say you didn't warn you. https://t.co/RvW3KlXYh7
p473
aV@realDonaldTrump Lie lie lie deflect deflect deflect &amp; repeat
p474
aV@realDonaldTrump Seriously do not make this a political issue. True evil knows no citizenship. What about all of th\u2026 https://t.co/WKHNeLF5qJ
p475
aV@realDonaldTrump https://t.co/fPJWf9ezMe
p476
aVRT @Acosta: Here is the cease and desist letter to Trump from Steven Tyler\u2019s lawyers demanding that the Trump campaign refrain from playing\u2026
p477
aV@realDonaldTrump https://t.co/v2f2P2B48M
p478
aVRT @Bornabrit1: THE SPINELESS GOP...\u000aAre trying to RUSH Kavanaugh's hearings through.\u000a\u000aEven though\u000a\u000aTRUMP Has been NAMED A \u000aco conspirator\u2026
p479
aVRT @nowthisnews: BREAKING: Sen. Blumenthal says Trump 'should be indicted,' not simply impeached, if Michael Cohen's claims are true. \u000a\u000a'Th\u2026
p480
aV@realDonaldTrump https://t.co/3arGrwEaZZ
p481
aVRT @TeaPainUSA: Tea Pain is feelin' mighty good after Trump's #BlackTuesday.  We've topped the hill and can see the Promised Land of Democr\u2026
p482
aVRT @Mikel_Jollett: Sometimes I still can't get over the fact that one of our greatest Americans - a black man from humble origins who put h\u2026
p483
aV\U0001f602\U0001f602\U0001f602\U0001f602 https://t.co/iuXz1NqGi9
p484
aVRT @TeamPelosi: Michael Cohen. Michael Flynn. Paul Manafort. Chris Collins. Duncan Hunter. Vern Buchanan. Scott Pruitt and the Trump Admini\u2026
p485
aVRT @_SJPeace_: HERO\u000a\u000aHis name is Beto O\u2019Rourke. Watch him brilliantly explain why NFL players kneeling during the National anthem is not di\u2026
p486
aV@realDonaldTrump https://t.co/EjJvihdips
p487
aV@realDonaldTrump https://t.co/j8VDVkKh68
p488
aVRT @BenSFletcher: . @VP @POTUS @TomiLahren @IngrahamAngle @TuckerCarlson @PRyan @PressSec @SenateMajLdr @GovMikeHuckabee @kilmeade @marcoru\u2026
p489
aV@TomthunkitsMind \U0001f602\U0001f602\U0001f602\U0001f602
p490
aVRT @OfficialJonZal: Trump is fucked.\u000a\u000aThis is the best I\u2019ve felt since November 8, 2016. https://t.co/p9W43FSLh2
p491
aVRT @Goss30Goss: I don't give a damn what Faux News or the @GOP pundits protecting Trump say. The evidence shows we have a criminal in the W\u2026
p492
aV@nightlypolitics Also a follower
p493
aVRT @nightlypolitics: Republicans criticized Obama for wearing a tan suit and saluting a soldier with coffee in his hand.\u000a\u000aNow we have Trump\u2026
p494
aVRT @funder: Look at the absolutely pathetic turnout to Trump\u2019s cult rally in WV. I\u2019m sure @realDonaldTrump will say he had a bigger crowd a\u2026
p495
aVRT @TravisAllen02: Trump\u2019s former Campaign Manager Paul Manafort was just convicted on 8 counts of fraud.\u000a\u000aTrump\u2019s former personal attorney\u2026
p496
aVRT @RepJoeKennedy: 6 guilty pleas. 1 Trump campaign chair convicted. 2 GOP Congressmen indicted. 1 President implicated in court. 1 indiffe\u2026
p497
aV@BrianKarem https://t.co/UMEtjm99Pd
p498
aV@Stop_Trump20 @RPottery https://t.co/0NYZcKV4oy
p499
aVRT @AynRandPaulRyan: Manafort has been found #GUILTY.\u000aMichael Cohen is in court, right now, pleading #GUILTY.\u000a\u000aWho's next, @realDonaldTrump\u2026
p500
aV@realDonaldTrump https://t.co/SMrp7XOj2m
p501
aVRT @TalbertSwan: What are you voting in November? Please share.\u000a\u000a#Midterms2018
p502
aVRT @realAliTweets: Cohen pleaded guilty to violating campaign finance laws in relation to Stormy Daniels \u000a\u000aAT THE DIRECTION OF TRUMP. \u000a\u000aIn\u2026
p503
aVRT @HoarseWisperer: The President of the United States was named as a co-conspirator in a criminal conspiracy carrying multiple felony char\u2026
p504
aVRT @KaivanShroff: The president\u2019s lawyer, Michael Cohen, is a criminal. \u000a\u000aThe president\u2019s campaign chairman, Paul Manafort, is a criminal.\u2026
p505
aVRT @TopRopeTravis: Roses are red,\u000aviolets are blue.\u000a\u000aEveryone's guilty,\u000aTrump is screwed.
p506
aVRT @itsJeffTiedrich: one thing we never did during the Obama years was refresh our browsers every 30 seconds to keep abreast of who is plea\u2026
p507
aVRT @OfficialJonZal: It\u2019s completely fucking insane that Donald Trump is the President of United States.
p508
aVRT @middleageriot: Paul Manafort has been found guilty and Michael Cohen has plead guilty.\u000a\u000aDonald Trump is going to shit enough bricks to\u2026
p509
aVRT @ProudResister: Trump\u2019s lawyer Michel Cohen: GUILTY\u000a\u000aTrump\u2019s advisor Mike Flynn: GUILTY\u000a\u000aTrump\u2019s advisor Rick Gates: GUILTY\u000a\u000aTrump\u2019s adv\u2026
p510
aVRT @BlueJayResist: The president\u2019s lawyer, Michael Cohen, is a criminal. \u000a\u000aThe president\u2019s campaign chairman, Paul Manafort, is a criminal.\u2026
p511
aVRT @PalmerReport: Michael Cohen has officially cut a plea deal against Donald Trump, according to ABC News. Pop the champagne!
p512
aVRT @AynRandPaulRyan: Hot damn, it's a done deal.\u000aFLIP! https://t.co/2EVgODa9mB
p513
aV@realDonaldTrump https://t.co/hXRbVdAZE4
p514
aV@realDonaldTrump https://t.co/crslluqzkw
p515
aVRT @leeleeb50: if this doesn't break your heart, you don't have one https://t.co/0iLa8rrfmC
p516
aVRT @krassenstein: President Barack Obama will be on US currency one day. \u000a\u000aMeanwhile....\u000a\u000aTrump will be on a standard 79" x 39" prison bed\u2026
p517
aVRT @EdKrassen: Trump will be infamous in History, but it will be the people who stood by his side and those who refused to hold him account\u2026
p518
aV@ju_jubeans \U0001f602\U0001f602\U0001f602\U0001f602\U0001f602
p519
aV@tonyposnanski Hell no!
p520
aVRT @girlsreallyrule: Here is First Lady Melania Trump Be Besting again, while ignoring the complete hypocrisy of everything she does and sa\u2026
p521
aVRT @politvidchannel: Dear GOP\u000a\u000aTEN YEARS AGO THE COUNTRY WAS IN A financial crisis\u000a\u000aAMERICA ELECTED Barack Obama\u000a\u000aTEN YEAR LATER THE COUNTR\u2026
p522
aVRT @politvidchannel: BREAKING: General Motors said on Friday that if President Trump pushed ahead with another wave of tariffs it Could For\u2026
p523
aVRT @johnpavlovitz: "Despite the fact that his policies regarding healthcare, education, taxes, and the environment leave them more vulnerab\u2026
p524
aV@realDonaldTrump https://t.co/utmkzzgIN9
p525
aVRT @TomthunkitsMind: I\u2019m tagging .@realDonaldTrump so that every time you retweet or leave a comment, this image will appear on his Twitter\u2026
p526
aVRT @Bornabrit1: IT'S VERY CLEAR :\u000aTRUMP'S A RACIST !\u000aHis ACTIONS against the BLACK COMMUNITY \u000aHave always been EVIDENCE of this.\u000a\u000aOMAROSA'S\u2026
p527
aV@theClaudiaInez True story ...
p528
aVRT @Bornabrit1: GOP CONGRESS :\u000aWAKE THE F#CK UP\u000a\u000aDO your F#CKING JOB\u000a\u000aWE PAY U\u000aREMEMBER?\u000a\u000aYou swore an oath to the\u000aCONSTITUTION \u000aNot to thi\u2026
p529
aV@Stop_Trump20 \U0001f602\U0001f602\U0001f602\U0001f602\U0001f602\U0001f602\U0001f602\U0001f602\U0001f602
p530
aVRT @TheDemocrats: Democrats know that #FamiliesBelongTogether and we will hold the Trump administration accountable. Every family must be r\u2026
p531
aVRT @DanRather: "Truth isn't Truth" - It is as if Rudy Giuliani revels in writing the book titles for the historians of the future who will\u2026
p532
aV@stonecold2050 \U0001f92e\U0001f92e\U0001f92e\U0001f92e\U0001f92e\U0001f92e
p533
aVRT @TeaPainUSA: Tea ain't pullin' no punches today.  If we don't vote to put a check on Trump the Tyrant, this will be our last fair and fr\u2026
p534
aVRT @theClaudiaInez: What do dinosaurs and decent, honest Republicans \u000ahave in common?\u000a\u000aThey are both extinct.
p535
aVRT @Inspire_Us: Our lives begin to end the day we become silent about things that matter. - Martin Luther King
p536
aVRT @emrazz: Despite being reminded daily, I still can\u2019t understand why wanting people to be treated equally makes me a cancer.
p537
aV@StopTrump2020 \U0001f92e\U0001f922\U0001f92e
p538
aVOh how I miss this wonderful man...\u000aOBAMA SPEAKS OUT https://t.co/9meg5PsKyK via @YouTube
p539
aVRT @PoliticalEmilia: Rudy Giuliani: Truth isn\u2019t truth\u000a\u000aKellyanne Conway: We use alternative facts\u000a\u000aTrump: What you hear and what you see is\u2026
p540
aVRT @PoliticalEmilia: I seriously want to know:\u000aHow is a man who attacks our FBI agents, our processes of checks and balances, and who disre\u2026
p541
aV@Stop_Trump20 Treasonous Tangerines \U0001f34a
p542
aVRT @JaneMorgaine: I PLEDGE TO BE MORE INFORMED AND INVOLVED.\u000a\U0001f30a\U0001f1fa\U0001f1f8\U0001f499 https://t.co/nauNuXH6iA
p543
aVWTAF https://t.co/m6WLxKnHFk
p544
aVRT @TeamPelosi: Register to vote and vote like your life depended on it...because it does. So much is at stake in this election. https://t.\u2026
p545
aV@realDonaldTrump https://t.co/Waelmu6vmB
p546
aVYes ... this! https://t.co/ON3LBx7p0c
p547
aVRT @_SJPeace_: I usually don't pay attention to tweets like this \u000a\u000aBut I want to answer his question: "What delusional f*ck would want a Mu\u2026
p548
aVRT @_SJPeace_: His sign says \u000a\u000a"Hi, I'm Muslim and people call me a terrorist. Do you trust me? If yes, hug me."\u000a\u000aRETWEET IF YOU WOULD HUG\u2026
p549
aV@realDonaldTrump https://t.co/43ZHds4p13
p550
aVRT @TheStagmania: This white guy just pulled up in front of my local Mexican restaurant in his big truck, blaring music and saw a group of\u2026
p551
aVRT @Bornabrit1: If U LOVE this COUNTRY regardless of previous party affiliation you must \u000aVote DEMOCRAT \u000a\u000aAfter HELSINKI it's obvious THAT\u2026
p552
aV@PollingAmerica @danicalynn1988 President Obama was the greatest president of my lifetime.
p553
aVRT @TheAnalogKid74: Do you realize that less than 300 Republican assholes in Washington D.C. are completely fucking up the entire program f\u2026
p554
aV@sahluwal As a white woman, I\u2019m sorry. We are all together in this life. We are one race - the human one. This trul\u2026 https://t.co/LSnObeXPIi
p555
aV@mslauraz @sahluwal Yes!!! This!
p556
aV@BerglundHess @sahluwal @Resist___45 Yes. This right here!
p557
aV@Turnip2020 Every single day ...
p558
aVRT @middleageriot: I have never been in the military, but I serve my country every day by not being a gullible moron.
p559
aVRT @EdKrassen: Obama may not have been perfect, but he could speak in full sentences, actually cared about the world's children, didn't che\u2026
p560
aVRT @Turnip2020: What grade would you give @realDonaldTrump\u2019s presidency? Please retweet to get a wide sampling.
p561
aVRT @funder: Obama banned the selling of precision-guided missiles to the Saudis.\u000a\u000aTrump overturned that ban.\u000a\u000aThen sold those kind of missi\u2026
p562
aVRT @_SJPeace_: Flint still doesnt have CLEAN WATER! They have to wait HOURS in line to get CLEAN WATER for their families!\u000a\u000aTHIS IS NOT OK!\u2026
p563
aV@joncoopertweets Same reason. I was tired of getting beat up on FB by some for having a political viewpoint &amp; a str\u2026 https://t.co/PdbRQ5Lg77
p564
aVRT @adamcbest: Wages are down\u000aHate crimes are up\u000aHealthcare sabotaged\u000aEnvironment neglected\u000aKids separated from parents\u000aFree press attacked\u2026
p565
aV@joncoopertweets @realDonaldTrump https://t.co/ONFisScuHJ
p566
aV@realDonaldTrump @FoxNews https://t.co/DwPaoIeZpL
p567
aVRT @EdKrassen: Once upon a time there was a man named Barack Obama.  He went on to win the Presidency legitimately and actually made Americ\u2026
p568
aV\U0001f602 https://t.co/nAWcjF8yUs
p569
aVSMH ... \U0001f926\u200d\u2640\ufe0f https://t.co/gApL3NUMpf
p570
aVRT @StopTrump2020: Where are your priorities? https://t.co/P4Qgh49TC9
p571
aVRT @RexHuppke: It seems the time for this is now, before it's too late. Please share if you agree. \u000a\u000ahttps://t.co/icasZRWdsg
p572
aV@TalbertSwan @ChrisCuomo This makes me so sad. That is a child. That is his hair. What does his hair have to do wit\u2026 https://t.co/Lhg3YVFNc7
p573
aVRT @johnpavlovitz: \u201cAt this point, the only reason left to support this President, is that he reflects your hateful heart; he shares your c\u2026
p574
aV@realDonaldTrump @seanhannity Perfect description of you &amp; your party @GOP
p575
aVRT @KamalaHarris: The Violence Against Women Act provides survivors the aid and services they need, and helps to hold offenders accountable\u2026
p576
aV@realDonaldTrump https://t.co/u6PvViuhqI
p577
aVRT @TheAnalogKid74: We all know by now that @realDonaldTrump is nothing more than a thin-skinned, petulant little pissant; an unruly, spoil\u2026
p578
aV@realDonaldTrump https://t.co/gZTVbS9gsd
p579
aVRT @DearAuntCrabby: After once again hearing the words of @BarackObama in his tribute to Aretha Franklin I must again say...\u000a\u000aI miss having\u2026
p580
aVSo very important to vote! #VoteBlue Your life may just depend on it ... https://t.co/OVEkXVzReP
p581
aV@realDonaldTrump https://t.co/W7Lk49ON1G
p582
aVRT @NBCPolitics: JUST IN: US Senate passes resolution with unanimous consent by voice vote that \u201caffirms that the press is not the enemy of\u2026
p583
aV@realDonaldTrump https://t.co/5UsqWYVAee
p584
aVRT @ProudResister: Admiral William McRaven, who oversaw the raid to kill Osama bin Laden, has a few choice words for @realDonaldTrump:\u000a\u000a\u201dYo\u2026
p585
aVRT @dylanmsmitty: Retired Navy admiral William McRaven, who oversaw the raid that killed bin Laden:\u000a\u000a\u201cI'd consider it an honor if you [Trum\u2026
p586
aVRT @DanRather: When we look back in disgust at those who've undermined the fabric of our democracy and common humanity, we don't only reser\u2026
p587
aVRT @Alyssa_Milano: Can you do me a favor? Can you retweet this if you\u2019re sick of Republicans attacking Nancy Pelosi? They only attack her,\u2026
p588
aV@QuancyClayborne YES!!!
p589
aV@tonyposnanski Same here!!! I found my people out here. Never thought I would join Twitter, but it has been amazing! So many like minds.
p590
aVRT @politvidchannel: THIS IS HOW a President Should Talk About the Free Press\u000a\u000aPresident Obama as President \u000a\u000a a free press \u201cis part of how\u2026
p591
aVThank you President Obama \u2764\ufe0f RIP Aretha \U0001f494 https://t.co/J6iiJH9cng
p592
aV@BarackObama RIP Aretha &amp; thank you for being who you are President Obama \u2764\ufe0f
p593
aV@realDonaldTrump Seriously, wtf is wrong with you??!! https://t.co/f763Fp3fr0
p594
aV@realDonaldTrump https://t.co/EV8y0WuxS4
p595
aVRT @Bornabrit1: The BIGGEST THREAT to AMERICA'S  NATIONAL SECURITY IS  IT'S\u000a\u000a OWN PRESIDENT\u000a\u000aTrump has a list of 9 people who speak out aga\u2026
p596
aVRT @johnpavlovitz: Transgender students aren't a danger to me or my children.\u000a\u000aSupposed adults, so polluted by a toxic religion that they'r\u2026
p597
aVRT @DanRather: President Trump stripping former CIA chief John Brennan of his security clearance is a modern form of McCarthyism pure an si\u2026
p598
aV@carlreiner An unhinged idiot
p599
aV@realDonaldTrump https://t.co/6devTPEas2
p600
aVRT @TheGoodGodAbove: The White House said they revoked former CIA chief John Brennan\u2019s security access because he uses Twitter to \u201csow divi\u2026
p601
aVRT @TheGoodGodAbove: Welcome to a new week of "the motherfucker did what now?"
p602
aVRT @brycetache: A new GOP ad attacks liberals\u000aLet\u2019s review:\u000aI\u2019m for universal health care\u000aJobs of the future\u000aAffordable education\u000aGun refor\u2026
p603
aVContinuing to MAGA ... \U0001f644 https://t.co/hVhoMmEgyN
p604
aVRT @tweetmommybop: Dear \u274c\u2019s,\u000aStop comparing Donald to Jesus\u000a\u000aHe never paid hush money to any prostitutes\u000a\u000aHe never mocked the disabled\u000a\u000aHe\u2026
p605
aVRT @PeteSouza: A real dog waiting for a real President. https://t.co/oWPVjtdViw
p606
aVRT @sam_bova: School starts tomorrow in Parkland. Please send lots of love to the returning students. It was 6 months ago today that 17 of\u2026
p607
aVRT @Molly3186: It says a lot about ones character when they feel a need to use their influence to publicly bash an individual.\u000a\u000aI don't par\u2026
p608
aV@MikeJPassmore Hello beautiful!
p609
aVRT @BetteMidler: #VOTERS!!!  NOT ONLY \u201cNEVER TRUMP\u201d, BUT NEVER \u201cANYONE WHO BACKS HIM, APOLOGIZES FOR HIM, BEHAVES LIKE HIM, OR IS EVEN INCL\u2026
p610
aVRT @krassenstein: Trump on Twitter Moments ago:  "Good work by General Kelly for quickly firing that dog!"\u000a\u000aIf you are a WOMAN or an AFRICA\u2026
p611
aVRT @MarkJKremer: Nazis are not "very fine people"\u000a\u000aWomen are not "dogs"\u000a\u000aMexicans are not "rapists"\u000a\u000aRussia isn't our "friend"\u000a\u000aNATO isn't\u2026
p612
aVRT @DanRather: ...In other news, the Twitter feed of the President of the United States this morning was unhinged, undemocratic, a breach o\u2026
p613
aV@TopRopeTravis @eorlins @ifindkarma @tarastrong @Alyssa_Milano @B52Malmet @yashar @DebraMessing @kathygriffin @RVAwonk Yes. Thank you!
p614
aVRT @funder: Trump\u2019s insane. Retweet if you agree. Then listen to my interview with a psychologist, where he exposes the fact that @realDona\u2026
p615
aVCan we please, please, please go back in time @BarackObama https://t.co/n8MzTkQqjl
p616
aVRT @peterdaou: I started my day seeing an American president take to social media to call a former White House aide, a black woman, a "lowl\u2026
p617
aVRT @sahluwal: This video shows 40 Yemeni boys laughing last Thursday as they are heading on a field trip. This is moments before a US backe\u2026
p618
aV@realDonaldTrump https://t.co/0v3HF6Zuti
p619
aVThis sick jerk is our president... unbelievable. How does anyone support this horrible, pathetic, moronic madman??!\u2026 https://t.co/zMvxQhgxer
p620
aV@realDonaldTrump What on earth is wrong with you??!!! You are a sick, sick man...
p621
aV@leeleeb50 Idiot
p622
aVRT @TheRickyDavila: I miss President Obama, First Lady Michelle Obama and the Bidens. \U0001f1fa\U0001f1f8
p623
aVRT @EdKrassen: Since Trump refuses to do it, let\u2019s all thank Senator John McCain for his service to this country. \u000a\u000aPlease RETWEET to thank\u2026
p624
aVRT @johnpavlovitz: Dear Bigots,\u000a\u000aNope.\u000a\u000aWhite nationalists dwarfed by crowds of counterprotesters in Washington @CNN https://t.co/t4J7zW4CSo
p625
aVRT @krassenstein: 'RETWEET' if you are going to Vote on November 6th\u000a\u000a'LIKE' if you are going to select ALL Democrats.\u000a\u000aPLEASE convince you\u2026
p626
aVRT @BorowitzzReport: I\u2019m just so sick and tired of this administration\u2026
p627
aVRT @krassenstein: Frightening words from 'Art of the Deal' co-author Tony Schwartz:\u000a\u000a\u201cWe are in a true emergency,\u201d said Schwartz. \u201cHe lives\u2026
p628
aV@realDonaldTrump https://t.co/KQfBdgWv51
p629
aVRT @Bornabrit1: LET ME GET THIS STRAIGHT:\u000a\u000a IT'S NOT OK for the NFL PLAYERS  to #TakeAKnee In QUIET PROTEST.\u000a\u000aBut IT IS OKAY for the WHITE\u2026
p630
aVRT @andylassner: YOU DID IT!!\u000a\u000aCongrats @POTUS! https://t.co/ss5HcJPXza
p631
aV@realDonaldTrump Seriously, how old are you? 12?
p632
aV@Stop_Trump20 \U0001f602\U0001f602\U0001f602\U0001f602\U0001f602\U0001f602\U0001f602
p633
aVRT @TheRickyDavila: When you can\u2019t even answer a legitimate question about the racism from the the racist you openly support. Says it all.\u2026
p634
aVRT @EdKrassen: Dear Americans, \u000a\u000aDonald Trump doesn't give a crap about you, or your parents, or your children, or your spouse, or your fri\u2026
p635
aV@joncoopertweets His ignorant cult is just as racist ... they will eat it up.
p636
aVRT @realAliTweets: The Republican Party: \u000a\u000aCORRUPT TO THE BONE!\u000a\u000a@GOP\u000a#CorruptToTheBone\u000a#GOPCorruptToTheBone
p637
aVRT @dylanmsmitty: White America, represented by Donald Trump, is threatened by a black President, black rich athletes and most importantly,\u2026
p638
aVRT @irishrygirl: A country that once demanded a seated president to answer questions about a blow job under oath, should absolutely demand\u2026
p639
aV@realDonaldTrump But it\u2019s okay for \u201cvery fine\u201d nazis to protest??!! Educate yourself for once on why the NFL player\u2026 https://t.co/Dva0iZ1P0t
p640
aVRT @politvidchannel: BREAKING: U.S. District Judge Emmet Sullivan on Thursday blocked The deportation of eight asylum seekers and ordered a\u2026
p641
aVRT @EdKrassen: To the @NFL\u000a\u000aTrump just threatened your players' freedom of speech, saying, "Stand proudly for your National Anthem or be Su\u2026
p642
aVRT @DogsQuotes: If you don't own a #dog, at least one, there is not necessarily anything wrong with you, but there may be something wrong w\u2026
p643
aVRT @johnpavlovitz: Dear #SpaceForce,\u000a\u000aPlease force @realDonaldTrump into space.\u000a\u000aRegards,\u000a\u000aEarth
p644
aVRT @EdKrassen: To @realDonaldTrump \u000a\u000aPlease explain to me how you can claim that "Hillary Clinton &amp; the Democrats colluded with the Russian\u2026
p645
aV@leeleeb50 \U0001f602\U0001f602\U0001f602
p646
aVRT @krassenstein: I'm going to say it once again.  There should be no place on Twitter for accounts which preach hate, racism, bigotry, and\u2026
p647
aVRT @johnpavlovitz: "To hell with your border wall.\u000aTo hell with your travel bans.\u000aTo hell with your Dreamer harassment.\u000aTo hell with your A\u2026
p648
aVRT @DearAuntCrabby: Auntie would much rather be a Democrat supporting immigrants who are claiming asylum that be a Nazi-loving, white supre\u2026
p649
aVRT @nowthisnews: Rashida Tlaib is one step closer to becoming the first Muslim woman in Congress https://t.co/VTAJ1907g2
p650
aVRT @mmpadellan: I would MUCH rather have my hard-earned tax dollars go to:\u000a\u000a- Healthcare\u000a- Drinkable water for Flint\u000a- Restoring power to #\u2026
p651
aVRT @nowthisnews: \u2018I am proud of my family, and I am proud to be my mom\u2019s son.\u2019 \u2014Angie Craig\u2019s son has some words for homophobic congressma\u2026
p652
aV@realDonaldTrump https://t.co/XxeMmYI2Oy
p653
aV@TravisAllen02 \U0001f63b\U0001f63b\U0001f63b\U0001f63b
p654
aV@tonyposnanski \U0001f602\U0001f602\U0001f602\U0001f602\U0001f602\U0001f602\U0001f602\U0001f602\U0001f602\U0001f602
p655
aV@JaneMorgaine @BarackObama Me too!
p656
aV@realDonaldTrump https://t.co/YmRn6Ji8kQ
p657
aV\U0001f602 https://t.co/zqd4BtsJYR
p658
aVRT @joncoopertweets: Laura Ingraham is a racist bitch. Retweet if you agree. #FireIngraham \u000a@IngrahamAngle \u000ahttps://t.co/RODefLt5pt
p659
aVRT @TheRickyDavila: A reminder that immigrant children remain imprisoned, abused and separated from their families, Puerto Rico and US Virg\u2026
p660
aV@realDonaldTrump https://t.co/pV981jCZUE
p661
aVRT @flyaway_k: Let\u2019s just say it.\u000a\u000aThe Space Force is the dumbest fucking idea ever.\u000a\u000aUnless we can launch Trump and his whole administrati\u2026
p662
aVRT @ProudResister: Do NOT be distracted by Space Force.\u000aDo NOT be distracted by Space Force.\u000aDo NOT be distracted by Space Force.\u000aDo NOT be\u2026
p663
aV@leeleeb50  https://t.co/MUIo5TKJCg
p664
aVRT @JaneMorgaine: It is Wednesday, August 8, 2018. One citizen,  I humbly call for the resignation of Donald J. Trump as President of the U\u2026
p665
aVRT @johnpavlovitz: "I wonder what it is that they think as they champion a nasty, predatory, misogynist like this man. I try to imagine the\u2026
p666
aV\U0001f602 https://t.co/I4WZEbBPtC
p667
aVRT @funder: Let\u2019s show the press how big we are! RETWEET this if you\u2019re a proud member of #TheResistance! \U0001f1fa\U0001f1f8 #VoteDem
p668
aVRT @ProudResister: BREAKING: Republican Congressman Chris Collins arrested by the FBI for insider trading. Recently, Collins called for the\u2026
p669
aV@realDonaldTrump LOL Favorite President \U0001f602\U0001f602\U0001f602\U0001f602\U0001f602\U0001f602\U0001f602\U0001f602\U0001f602 https://t.co/XGwqc7bUPg
p670
aV@thehill Seriously how do these idiots live with themselves?!
p671
aVRT @dylanmsmitty: Republicans: love Russia, love to hate, hate to love, white people rule, gay people are evil, immigrants aren\u2019t people, t\u2026
p672
aVRT @ProudResister: Thank you @JoeBiden for starting the #AsYouAre campaign to emphasize the importance of accepting LGBTQ youth.\u000a\u000a20 years\u2026
p673
aV@Stop_Trump20 \U0001f602\U0001f602\U0001f602\U0001f602\U0001f602\U0001f602\U0001f602\U0001f602
p674
aVRT @JonathanToews: Playing for the Blackhawks means the world to young players because we get to follow the greats like Stan Mikita. What h\u2026
p675
aV\U0001f622 https://t.co/qflxZurQxG
p676
aVRT @HillaryClinton: If your friends and family aren't registered, they can't make their voices heard in this fall's critical midterm electi\u2026
p677
aVRT @Molly3186: In Obama's last year in 2016 the national debt was $19.57 trillion.\u000a\u000aNow, less than 2 years later it's over $21 trillion.\u000a\u000aT\u2026
p678
aV\U0001f602 https://t.co/yfcPqmj9Xm
p679
aVOutvote hate ... we have to. https://t.co/xac8xylaKz
p680
aV@johnpavlovitz Thank you for this. It\u2019s sad, but I think that you are correct. The only thing left to do is outvote them.
p681
aVRT @Mikel_Jollett: Democrats,\u000a\u000aIt\u2019s time we draw a fat line in the sand over Kavanaugh who:\u000a\u000a\u25aa\ufe0fSuggested Presidents CAN\u2019T be subpoenaed.\u2026
p682
aVSeriously... WTF https://t.co/MkmcEMaXvz
p683
aV@HillReporter Trump lied? Now there\u2019s a shocker \U0001f644
p684
aVGlad the person that destroyed it helped it get to this point :) https://t.co/qMH47lbnvB
p685
aVTrue story \u2764\ufe0f https://t.co/Lzn6fiYEeU
p686
aVRT @krassenstein: 43% of Republicans believe Trump should have the power to close down media outlets according to a new survey.  \u000a\u000a43% of R\u2026
p687
aVRT @johnpavlovitz: That a soulless monster like #StephenMiller is working in this Administration/ influencing policy, should be all the rea\u2026
p688
aVRT @EdKrassen: The biggest mystery in U.S. history is how a country can go from electing a brilliant, caring, sincere African American as P\u2026
p689
aVRT @TravisAllen02: Many many people are saying that Trump is the WORST PRESIDENT IN THE HISTORY OF THE UNIVERSE!\u000a\u000aRT and like if you agree!
p690
aVRT @johnpavlovitz: "We're going to be defined by the compassion we show, the help we give, the tables we expand, the walls we destroy, the\u2026
p691
aVRT @johnpavlovitz: I wish they would wear those red x's in public too. It would make life so much easier.
p692
aVRT @Stop_Trump20: Blue wave alert! Tennessee Democrats swept county elections, including a historic victory https://t.co/cza87POR5Q
p693
aVRT @funder: BREAKING: Protesters chant \u201cPutin\u2019s puppet!\u201d outside of the White House. https://t.co/82AkcJfHiH
p694
aVRT @ProudResister: The most dangerous and evil cult in the history of the United States of America: https://t.co/zQBVccj1eG
p695
aVRT @EdKrassen: Please @KingJames, whatever you do don\u2019t "Shut Up and Dribble".  Keep dribbling but also continue doing all the good you do\u2026
p696
aV\U0001f602 https://t.co/rYVeE9OWLK
p697
aVRT @DogsQuotes: Heaven's the place where all the dogs you've ever loved come to greet you.
p698
aVRT @TravisAllen02: A man who runs a White House that has been a constant dumpster fire since Day 1 is now lecturing California on how to de\u2026
p699
aVRT @thehill: Scarborough credits Obama for strong economy: "This is not an economy Donald Trump gave us" https://t.co/5cCDdR8Ycp https://t.\u2026
p700
aVRT @TheGoodGodAbove: I\u2019d rather be an American than be a Republican.
p701
aVHaha true story! That\u2019s why I\u2019m on Twitter now lol \U0001f602 https://t.co/WlAcUuVvkp
p702
aVRT @johnpavlovitz: "If you've lost someone you love, you know that reflexive move you make to call them or hear their voices or to check in\u2026
p703
aVRT @johnpavlovitz: "More than two-thirds of the time the President of the United States opens his mouth, in a press conference or in an ear\u2026
p704
aV@GaiaL6 @SassyKadiK Thank you! \u2764\ufe0f
p705
aVRT @johnpavlovitz: "A similar thing happens to me every morning.\u000a\u000aMy eyes open and I suddenly become aware that I'm awake, when a sickening\u2026
p706
aV@politvidchannel The best \u2764\ufe0f
p707
aVCongratulations President Obama! @BarackObama A real President ... we need you back! \u2764\ufe0f https://t.co/NLHZPPoFCG
p708
aV@realDonaldTrump @foxandfriends Lie lie lie deflect deflect deflect and repeat ...
p709
aVRT @brhodes: I worked on the Obama campaign and we would never, ever, have held a meeting with a foreign power to "get information on an op\u2026
p710
aV@theangryweaver @SassyKadiK Thank you! \u2764\ufe0f
p711
aV@SassyKadiK These are my babies. I just lost my 15 year old in January. It is so hard. I\u2019m sorry about your boy \U0001f494 https://t.co/STMUDrNocA
p712
aVRT @johnpavlovitz: We need to stop talking about "changing Trump supporter's minds."\u000a\u000aIf their consciences/compassion/reason have not been\u2026
p713
aV@realDonaldTrump  https://t.co/wkSYgmYaQm
p714
aVRT @EdKrassen: FACT:  If everyone who doesn't like Trump even a little bit votes for Democrats in the midterm elections, Democrats will rec\u2026
p715
aV@StopTrump2020 Too hard to pick just one ... Leader, gentleman, good human being, class act, amazing man, missed every single day
p716
aVRT @krassenstein: It's time that All Americans who understand the risks that Journalists around the world face in today's atmosphere, show\u2026
p717
aVRT @TravisAllen02: Trump finally admitted on Twitter that his son colluded with a Russian spy during the campaign.\u000a\u000aRT and like if you agre\u2026
p718
aVRT @kathygriffin: Every time I say \u201cFuck Trump,\u201d trolls tell me I\u2019m not being civil...so I put it in cursive...so elegant and civilized....\u2026
p719
aVRT @StopTrump2020: Finally, the #MAGA crowd is showing their true colors\u000a\u000a#TrumpRussiaConspiracy #TrumpRussianPuppet https://t.co/yyhkTY1VAc
p720
aVRT @StopTrump2020: Barack Obama's birthday is now celebrated as a commemorative holiday in the state that he represented in the Senate for\u2026
p721
aVRT @krassenstein: America's Free Press DOES NOT start 'wars'\u000a\u000aIgnorant presidents, who are puppets of hostile foreign regimes, and who put\u2026
p722
aVRT @ProudResister: Donald Trump is misinformed:\u000a\u000a\u2014 Grabbing women by the pussy without consent is a crime.\u000a\u000a\u2014 Abusing children and locking\u2026
p723
aVRT @adamcbest: The GOP supports fetuses, but not kids.\u000a\u000aThe GOP supports troops, but not veterans.\u000a\u000aThe GOP supports families, but not LGBT\u2026
p724
aV@realDonaldTrump  https://t.co/nIDHIbu0O2
p725
aVRT @bwoll1219: This is the face of hate! It has no place in our society. These sub-humans have crawled out of their holes thanks to @realDo\u2026
p726
aVRT @DanRather: Whenever I see President Trump rail against "Fake News" or call us the "enemy of the people" I think "you can't handle the t\u2026
p727
aV@realDonaldTrump  https://t.co/17CKgkXu2u
p728
aVRT @MarkJKremer: Trying to hit 40,000 followers by Tuesdays primary! \u000a\u000aOnly 700 short!\u000a\u000aIf you follow me then please retweet this!\u000a\u000aIf you\u2026
p729
aVRT @StopTrump2020: Every day I miss having an intelligent man and a intelligent first lady in the #WhiteHouse https://t.co/h7wQK1Sv2e
p730
aVRT @funder: I miss having a president who didn\u2019t lock refugee children in cages, tweet out propaganda, look up to dictators, bully allies,\u2026
p731
aVRT @TravisAllen02: Who would be a better President?\u000a\u000aRT and like to spread!
p732
aVRT @funder: .@realDonaldTrump-@BarackObama was a better president than you\u2019ll ever be, in every single way. Everyone who retweets this agre\u2026
p733
aVRT @adamcbest: Almost a year ago, Don Lemon gave his memorable "total eclipse of the facts" monologue which skewered Trump's shameful post-\u2026
p734
aVRT @TheEllenShow: Happy birthday, @BarackObama. You busy? We could use some help.
p735
aVRT @mmpadellan: Hey @realDonaldTrump!\u000a\u000aDid you know that this #SaturdayMorning is #ObamaDay?\u000a\u000aLong after he's left office, there are MILLIO\u2026
p736
aVRT @johnpavlovitz: https://t.co/44JVVFfX45\u000a\u000a#SaturdayMorning\u000a#SatChat https://t.co/oITszdlLuh
p737
aVRT @MrTommyCampbell: There will always be an Obama Day.\u000a\u000aThere will never be a Trump Day. \u000a\u000a#ObamaDay
p738
aVHappy Birthday President Obama! Thank you for being a wonderful person &amp; the greatest President in my lifetime \u2764\ufe0f\u2026 https://t.co/6PCI7gVjH4
p739
aVRT @DanRather: I'd much rather live in a world reflecting the values, philanthropy, and yes intelligence of LeBron James and Don Lemon's in\u2026
p740
aV@Mikel_Jollett It\u2019s disgusting. POS POTUS
p741
aV@donlemon Perfect response!
p742
aVPerfect response! https://t.co/hY4HoOgBY0
p743
aV@tweetmommybop There is nothing at all right about our POS POTUS.
p744
aVRT @johnpavlovitz: Humans, being human and leading with dignity.\u000a\u000aI miss this. https://t.co/cr4RfSEDCn
p745
aVRT @dylanmsmitty: Eminem raps on TV about his hatred of Trump, tells his fans to choose him or Trump and still no word from Trump...LeBron\u2026
p746
aVRT @EdKrassen: Happy Birthday President @BarackObama\u000a\u000aWe need you!\u000a\u000aPlease come back!\u000a#BarackObama  \U0001f382
p747
aVRT @krassenstein: Lebron James is putting children in school for free while President Trump is putting children in internment camps and the\u2026
p748
aV@JoeBiden @DogTagBakery @BarackObama 2 great men ... Happy Birthday President Obama! Thank you for being the greate\u2026 https://t.co/voan0rTCh6
p749
aVRT @BillSimmons: LeBron is a smart dude (and one of the most thoughtful athletes we have) - this is a bullshit tweet and feels more than a\u2026
p750
aV@johnpavlovitz He\u2019s awful!!!
p751
aV@realDonaldTrump You are so not right ...
p752
aVRT @StopTrump2020: Hearing @PressSec lie every time she opens her mouth just makes me want to vomit \U0001f92e \U0001f92e \U0001f92e \U0001f92e https://t.co/OXLTWIg8TT
p753
aVRT @TheGoodGodAbove: WHY ARE TRUMP SUPPORTERS SO FUCKING STUPID HOLY SHIT
p754
aVRT @adamcbest: A federal judge has ruled that Donald Trump must restore DACA. Great development for the 800K DREAMers. Gotta love when judg\u2026
p755
aVRT @TheGoodGodAbove: Today we learned that the NRA is going bankrupt.\u000a\u000aToday was a good day.
p756
aVRT @krassenstein: RETWEET to @DLoesch and @NRA if you are excited as I am about this news:\u000a\u000ahttps://t.co/WZvKsyE8FP
p757
aVRT @KChinapps: It\u2019s a wonderful day to register to vote. A wonderful day to check where your voting booths are. A wonderful day to spread t\u2026
p758
aVRT @davidhogg111: \u201cThe NRA admitted in a recent court filing that it\u2019s hurting financially thanks to activism by the teenage survivors of t\u2026
p759
aVRT @johnpavlovitz: "That whole MAGA nonsense has about reached its expiration date. \u000a\u000aAll your flag-waving histrionics and your hand-wringi\u2026
p760
aVRT @SenatorDurbin: When we call the press \u201cfake news" or tell people not to pay attention to them, it discredits an important part of Ameri\u2026
p761
aVRT @TheRickyDavila: To be clear, a group of trophy hunting murderers who extinguish animals for sport aren\u2019t a Wildlife protection group.\u000ah\u2026
p762
aV\u2764\ufe0f https://t.co/y23qpG49VH
p763
aV@TheRickyDavila \u2764\ufe0f
p764
aVRT @mmpadellan: John McCain served this country with honor and bravery. He is now dying of cancer.\u000a\u000aIt's bad enough to mock a veteran, let\u2026
p765
aVRT @DogsQuotes: Sometimes you don't need words to feel better; you just need the nearness of #yourdog.
p766
aVRT @realAliTweets: I would trade all the MAGAs with immigrants any damn day.
p767
aV@realDonaldTrump  https://t.co/vmdOpk1ItK
p768
aVRT @SenJeffMerkley: And the winner goes to\u2026. @realDonaldTrump! 4,229 false or misleading claims in 558 days\u2026 In this case, I don\u2019t think \u201cc\u2026
p769
aVRT @SenJeffMerkley: Our Founders believed that a free press was so sacred, they protected that right in the First Amendment. Attacking the\u2026
p770
aV\U0001f602\U0001f602\U0001f602\U0001f602\U0001f602\U0001f602\U0001f602\U0001f602 https://t.co/bWCNz8xTYD
p771
aVRT @TheRickyDavila: Ending today with this. Good night. \U0001f49a\u000ahttps://t.co/tGeIXFHnf6
p772
aVTrue that... https://t.co/E1lmXh16UL
p773
aV\u2764\ufe0f https://t.co/kyoThduWYk
p774
aV@Stop_Trump20 \u2764\ufe0f
p775
aVRT @dylanmsmitty: Donald Trump is a crook, a liar, a traitor, a man who seeks to make himself the rule of law in America.\u000aRT if you agree.
p776
aV@Stop_Trump20 Unhinged orange imbecile
p777
aVRT @DanRather: We can't shrug off Trump's attacks on the press. Ever. They're undemocratic and invite, even incite, violence. This bears re\u2026
p778
aVPerfect \U0001f602\U0001f43e\U0001f436 https://t.co/IdSQDn8Dg7
p779
aVRT @mmpadellan: He. Is. Back.\u000a\u000aFormer President Barack Obama, aka A REAL PRESIDENT, is throwing his weight behind DEM candidates for the mi\u2026
p780
aVRT @StopTrump2020: This is exactly my response to the #MAGA crowd.  \u000a\u000aI LOVE my country!!  I will fight for my country!!  \u000a\u000aWe will make th\u2026
p781
aVRT @johnpavlovitz: "I try to imagine what it feels like to be so afflicted with contempt for the planet: to be so viscerally sickened by th\u2026
p782
aVRT @BorowitzzReport: Instead of a gun could we 3D print a new president?! #yeeesh
p783
aVRT @TravisAllen02: BREAKING: President Trump urged Attorney General Jeff Sessions to end Bob Mueller\u2019s Russia probe \u201cright now\u201d\u000a\u000aRT and lik\u2026
p784
aVRT @NewsandGuts: July will go on record as the month with the least amount of White House briefings in recent history. When you don't want\u2026
p785
aVRT @EdKrassen: Murder is an IMPEACHABLE offense!!\u000a\u000aLet's get the hashtag #TrumpKilledAKid Trending!!\u000a\u000ahttps://t.co/8hULFQZMrw
p786
aVRT @funder: Colluding with Russia in the way Trump has talked about for two years, absolutely is a crime. The legal charge would be conspir\u2026
p787
aVRT @DogsQuotes: Sometimes you don't need words to feel better; you just need the nearness of #yourdog.
p788
aVRT @StephenAtHome: I want to see the Religious Liberty Task Force fight the Space Force.
p789
aVRT @johnpavlovitz: Dear Trump Supporters,\u000a\u000aExactly what percentage of your children would be acceptable for you to have taken from you and\u2026
p790
aVRT @DrMarkRowe: A good friend will never let your failures get to your heart and never let your success get to your head. Value your friend\u2026
p791
aVRT @DogsQuotes: Dogs are the magicians of the universe.
p792
aVRT @StopTrump2020: RT if you miss the intelligence and class of @BarackObama https://t.co/fj0D3E1fQ1
p793
aVRT @StopTrump2020: I agree 100%\u000a\u000aRT if you agree!!!\u000a\u000a#FamilesBelongTogether https://t.co/V3YacXEde9
p794
aVRT @TheGoodGodAbove: IF YOU\u2019RE MORE OUTRAGED OVER A HOLLYWOOD STAR BEING SMASHED THAN THOUSANDS OF CHILDREN BEING SEPARATED FROM THEIR PARE\u2026
p795
aVRT @irishrygirl: Democrats don\u2019t want Trump impeached because they are loyal to their party, they want Trump impeached because they are loy\u2026
p796
aVRT @johnpavlovitz: Hey @realDonaldTrump, \u000aUnite all the migrant families, now.\u000a\u000aHey @GOP, \u000aStop saying you're pro-life, if you don't give a\u2026
p797
aVRT @GrnMntnBoy: Here\u2019s a list of things I don\u2019t care about with people:\u000a1-Your sexual orientation\u000a2-Your religion\u000a3-Your race/skin color\u000a4-\u2026
p798
aV\U0001f602 https://t.co/1s6ettUhOT
p799
aVRT @Nataliew1020: The \u201dpro-life\u201d @GOP party would fight for my baby in utero on the left but won\u2019t fight for my beautiful child on the righ\u2026
p800
aVRT @TravisAllen02: Many many people are saying that Trump is the WORST PRESIDENT IN THE HISTORY OF THE UNIVERSE!\u000a\u000aRT and like if you agree!
p801
aV@timkaine @RichmondSPCA So sorry for your loss \U0001f622
p802
aVRT @middleageriot: Fool me once, shame on you.\u000a\u000aFool me twice, shame on me.\u000a\u000aFool me repeatedly, I must be a Trump supporter.
p803
aVRT @dylanmsmitty: Ronald Reagan\u2019s son said Trump supporters would choose Putin as a US President over any Democrat, that they love Trump be\u2026
p804
aVRT @johnpavlovitz: When people troll me defending Donald Trump, I just keep saying to myself, "They're defending Donald Trump"\u2014and perspect\u2026
p805
aVRT @brycetache: He knew. He lied and lied and LIED because that\u2019s what he does, who he is, who he always has been - a liar, a fraud, a crim\u2026
p806
aVRT @funder: .@realDonaldTrump-You conspired against the United States with your son, your staff and Russia. Your election should be null an\u2026
p807
aVRT @DogsQuotes: Dogs are precious gifts offering unconditional love.
p808
aVRT @OfficialJonZal: Did the Obama presidency really happen or did I just dream that? I can\u2019t reconcile that the same country whose citizens\u2026
p809
aVRT @davidhogg111: Attention College Students! \u000a\u000aIf you know you won\u2019t be home on Election Day (November 6th) you can sign up for an absente\u2026
p810
aV@johnpavlovitz @realDonaldTrump \u2764\ufe0f
p811
aVRT @johnpavlovitz: Dear, @realDonaldTrump,\u000a\u000aThis is what a leader, father, husband, and human being of integrity looks like.\u000a\u000aHis legacy is\u2026
p812
aVRT @DogsQuotes: If you don't own a #dog, at least one, there is not necessarily anything wrong with you, but there may be something wrong w\u2026
p813
aVRT @peterdaou: QUESTION - What kind of people:\u000a\u000aGut environmental regulations that protect food, air, and water.\u000a\u000aKidnap babies and cage th\u2026
p814
aVRT @BradMossEsq: Anyone who wants a President who "rules with an iron fist" can candidly pack their bags and get the hell out of my country\u2026
p815
aVRT @johnpavlovitz: \u201cAll decent, loving, compassionate people should hate this.\u000aEvery person claiming to care about what Jesus cared about s\u2026
p816
aV@johnpavlovitz I hate the word hate, but I hate this man too. I am also okay with that. What is there to like about\u2026 https://t.co/zttK65ew7x
p817
aVRT @EdKrassen: BREAKING: Oregon County Commissioner Lori Stegmann has just left the GOP, saying that she "cannot condone the misogyny, the\u2026
p818
aV\U0001f62e\U0001f62e\U0001f62e\U0001f62e https://t.co/jYbBHAO10D
p819
aVRT @atDavidHoffman: There is now no log of who visits the White House.\u000a\u000aPhone calls with foreign leaders will no longer result in readouts\u2026
p820
aVRT @brycetache: If the government stole your kids and kept you from them for months without your knowing if they were even alive, what woul\u2026
p821
aVRT @treasonstickers: At least 4 racist Republicans would have spontaneously combusted if Obama was cheating on Michelle with a Playboy Play\u2026
p822
aVRT @StephenAtHome: Trump says Russia is going to attack the midterms to support Democrats. Also the Joker loves Batman, Sauron hates rings,\u2026
p823
aVRT @grouchypuppy: The cat (oops, DOG!) is out of the bag \U0001f609 Women would rather spend Friday night with their dog than their partner study sh\u2026
p824
aVRT @johnpavlovitz: \u201cYou never once suggested that God placed Barack Obama\u2019s where he was, \u000anever publicly offered prayers for him and his f\u2026
p825
aVRT @InspowerBooks: You shouldn't give up. Fight for yourself and who you are. You've got to go through the worst times in life to get the b\u2026
p826
aVRT @funder: Attorney General Jeff Sessions repeated the phrase \u201clock her up\u201d today. Retweet if you agree that it\u2019s absolutely obscene and a\u2026
p827
aVRT @johnpavlovitz: "To wake up every day and push back against predatory politicians and toxic systems and human rights atrocities and acts\u2026
p828
aV@johnpavlovitz Yes ... so exhausting &amp; disheartening ...
p829
aVRT @DanRather: Gutting the Endangered Species Act is about greed, cronyism, self-interest, and short-sightedness. It's symbolic of much tha\u2026
p830
aVRT @thehill: GOP senator blasts Trump tariffs: He isn't making America great again, he is making America "1929 again" https://t.co/gbq6w78x\u2026
p831
aV@realDonaldTrump  https://t.co/DID3vcRSyf
p832
aV@realDonaldTrump  https://t.co/tO7JeID5da
p833
aVMore delusional ramblings of a madman ... SMH \U0001f926\u200d\u2640\ufe0f https://t.co/zCwMnvbG3B
p834
aVRT @krassenstein: I don't care if you think I'm a 'libtard snowflake' with 'Trump derangement syndrome'.  \u000a\u000aI WILL continue to point out th\u2026
p835
aVRT @StopTrump2020: I miss these better times.  \u000a\u000aRT if you miss the class, intelligence and humanity of the @BarackObama administration htt\u2026
p836
aVRT @Beaverhausenish: 23 Years 8 months and 28 days my amazing husband served this country in the Marine Corp. Today he received a postcard\u2026
p837
aVRT @DogsQuotes: It's just the most amazing thing to love a #dog, isn't it? It makes our relationships with people seem as boring as a bowl\u2026
p838
aVRT @NewsandGuts: Dan Rather: \u201cIt will be up to the majority of Americans who see this farce for what it is to turn this outrage into votes.\u2026
p839
aVRT @krassenstein: Youth voter registration went up 41% in Florida after the Parkland shooting.\u000a\u000aNote to the GOP and NRA.  Keep it up and th\u2026
p840
aVRT @brianschatz: There is nothing extreme about wanting everyone to have health care and education, preventing the planet from warming up,\u2026
p841
aV@irishrygirl @BarackObama Yes, thank you &amp; we miss you &amp; your wonderful family \u2764\ufe0f
p842
aVRT @brycetache: He called Nazis very fine people &amp; the GOP said nothing. \u000a\u000aHe stole children from their parents &amp; the GOP said nothing. \u000a\u000aH\u2026
p843
aV@johnpavlovitz Oh how I miss this man &amp; his family. Yes, thank you President Obama \u2764\ufe0f
p844
aVRT @johnpavlovitz: "I've watched your birthplace called into question, your personal faith ridiculed, your patriotism mocked, your very hum\u2026
p845
aVThe ramblings of a madman... https://t.co/UZD7xHrtQD
p846
aVRT @aparnapkin: i can\u2019t believe sharks get a week but sociopaths get a whole presidency
p847
aVRT @treasonstickers: Life was better when US presidents didn\u2019t take to social media to threaten leaders of foreign nations WITH THE FUCKING\u2026
p848
aVRT @krassenstein: This Trump Chicken Balloon in a Prison Outfit is about to set sail and float off of Alcatraz Prison.  I can not like this\u2026
p849
aVRT @DogsQuotes: Sometimes you don't need words to feel better; you just need the nearness of yourdog.
p850
aVRT @PeteSouza: For the record, this is our \u201cfavorite President.\u201d https://t.co/tDOIY6nVHd
p851
aV\u2764\ufe0f\U0001f49b\U0001f49a\U0001f499\U0001f49c https://t.co/ufG82Q2uLc
p852
aVRT @MedicVet68: I served in the ARMY and took the OATH, if I had done 1/10 of what DT has done with a KGB SPY I would put in PRISON 40-50 y\u2026
p853
aVRT @MrFilmkritik: Obama: *great husband, never cheated on Michelle, amazing father of two*\u000a\u000aEvangelicals: WE HATE THIS MAN\u000a\u000aTrump: *serial\u2026
p854
aVRT @chelseahandler: Please read this and consider what kind of person does something like this. https://t.co/XKfgkKDmha
p855
aVWTAF!!!!! https://t.co/yGYJameW61
p856
aV@thehill WTAF
p857
aVRT @InspowerBooks: Don't be afraid of failure. Learn from it and keep going. Persistence is what creates excellence.
p858
aVRT @SaysHummingbird: Ex-Republican columnist who attacked Obama for 8 years writes apology expressing his regret now that Trump is in offic\u2026
p859
aV@realDonaldTrump  https://t.co/EhJTbI4CGY
p860
aVRT @EdKrassen: Obama may not have been perfect, but he could speak in full sentences, actually cared about the world's children, didn't che\u2026
p861
aVRT @EdKrassen: If Obama were President right now, and was behaving exactly how Trump is behaving when it comes to Russia, this Congress wou\u2026
p862
aVHe\u2019s a burnt orange dipshit \U0001f602\U0001f602 https://t.co/G520fXzyyK
p863
aVRT @mmpadellan: Snatching babies at the border,\u000aDestroying US farmers with tariffs,\u000aPlayed like a fiddle by #NorthKorea,\u000aRecorded by Michae\u2026
p864
aVRT @thehill: Activists push for "Trump Baby" blimp to stop in DC during Trump's military parade https://t.co/n4pv9k28aQ https://t.co/KKAEWs\u2026
p865
aVOr Hillary\u2019s emails ... \U0001f602 https://t.co/EcisyUt2xe
p866
aVRT @funder: Trump should rescind his White House invite to Putin. Retweet if you agree. Then listen to a new episode of the #DworkinReport\u2026
p867
aVRT @GrnMntnBoy: This guy\U0001f447\U0001f447\U0001f447\U0001f447\U0001f447\U0001f447\U0001f447\U0001f447\U0001f499 https://t.co/q7rI04h3Pa
p868
aVRT @krassenstein: Meet Maurice Rucker, 60. \u000a\u000a@HomeDepot just fired him for not 'disengaging' after a customer told him: \u000a\u000a\u2018F*ck you. You\u2019re\u2026
p869
aVRT @funder: Trump is clearly a traitor who trusts Putin and hates America. Retweet if you agree. Him inviting Putin to the White House, is\u2026
p870
aVRT @johnpavlovitz: I voted for the candidate Vladimir Putin was terrified by and wanted to avoid at all costs.\u000a\u000aIf you voted for one of the\u2026
p871
aVRT @funder: Cohen\u2019s tape is proof Trump was directly involved in a campaign finance felony. He must resign immediately. No one\u2019s above the\u2026
p872
aVRT @chelseahandler: Now, trump wants to make changes to the Endangered Species Act\u2014why is every choice they make so villainous\u2014from allowin\u2026
p873
aVRT @TalbertSwan: Putin is a dictator.\u000a\u000aPutin is a murderer.\u000a\u000aPutin attacked America\u2019s democracy.\u000a\u000aTrump defended Putin.\u000a\u000aIf you support Tru\u2026
p874
aV@DanRather This is truly unbelievable...
p875
aVRT @TheDemocrats: #ThursdayThoughts via @BarackObama: "Keep believing. Keep marching. Keep building. Keep raising your voice." #IWillVote h\u2026
p876
aVRT @thehill: #BREAKING: Trump admin unveils plan to roll back Endangered Species Act protections https://t.co/LaJoM2xr3J https://t.co/6gNsw\u2026
p877
aV@GeorgeTakei  https://t.co/52HWgHB5l6
p878
aVRT @InspowerMinds: Success is a mindset. If you want to be successful, start thinking of yourself as a success.
p879
aVRT @funder: It\u2019s #TrumpResign o\u2019clock. It needs to trend immediately. Let\u2019s do it. \U0001f1fa\U0001f1f8
p880
aVRT @empowergracewi: @chuerta1 @RepAdamSchiff @RepSwalwell @GOP Vote! Make sure the Election is clean and not tainted and all will be back t\u2026
p881
aV@GeorgeTakei @VicenteFoxQue @ananavarro \U0001f602\U0001f602\U0001f602\U0001f602\U0001f44d
p882
aVRT @funder: .@realDonaldTrump-The fact you are willing to hand over Americans to our biggest adversary, is more proof you\u2019re the biggest th\u2026
p883
aVHow awful! \U0001f621 https://t.co/jg19hGDydF
p884
aVRT @Travon: Remember how for eight years Republicans and their supporters thought the country was being run by a foreign agent and it wasn'\u2026
p885
aVYes! This! https://t.co/jyKqlaBget
p886
aV\U0001f602\U0001f602 https://t.co/Z2ZOXR5NDK
p887
aVOh so very true ... https://t.co/id4Y8atwbG
p888
aVRT @TheDemocrats: RT if you agree: It\u2019s time for congressional Republicans to stand up to Trump and say enough is enough. The only way to p\u2026
p889
aVRT @johnpavlovitz: "We need to be reminded that our humanity shows up most clearly, as we see the humanity in those we so briefly share thi\u2026
p890
aVRT @mmpadellan: President Obama: A superior human in EVERY way.\u000a\u000aClass\u000aIntellect\u000aCharacter\u000aLeadership\u000aDiligence\u000aDignity\u000aHonor\u000a\u000aRETWEET if u\u2026
p891
aV@mmpadellan Best President in my lifetime \u2764\ufe0f
p892
aVDogs are like that, I guess. They know how to fix you without ever saying a word \u2764\ufe0f https://t.co/jYY9xKYRhH
p893
aVRT @GeorgeTakei: The world is watching. via @actdottv https://t.co/ud2ImeH8Lk
p894
aVRT @SaysHummingbird: THIS. IS. GOLD. \U0001f602\U0001f602\u000a\u000a#LiarInChief\u000a\u000ahttps://t.co/7pWWkGVEqM
p895
aVI am so embarrassed for this country &amp; those that continue to support this buffoon no matter what he does \U0001f926\u200d\u2640\ufe0fUnbel\u2026 https://t.co/a7sJ5ZhXQU
p896
aVRT @InspowerBooks: Life is too short to worry about what others say or think about you. So have fun and give them something to talk about.
p897
aV\U0001f602\U0001f602\U0001f602 https://t.co/FwmH9Tezd6
p898
aVRT @InspowerBooks: Sometimes, we have to let go of something that once meant the world to us, not because we want to, but because we have t\u2026
p899
aVRT @Factz_Guide: Be humble. You may be wrong.\u000aBe hard working. You may be luckier.\u000aBe kind. You may be remembered. \u000aBe generous. Others may\u2026
p900
aVRT @Inspire_Us: Never give up on the things that make you smile.
p901
a.