(lp0
VRT @KamalaHarris: In California, the law guarantees that you can take up to two hours off from work on Election Day without a loss of pay.\u2026
p1
aVRT @HillaryClinton: Our democracy is in crisis. In just one week, we as citizens have the chance to pull it back from the brink. \u000a\u000aLet's wa\u2026
p2
aVInstitutionalized racism. @belindaHarriaga #cpsyChangeAgents https://t.co/g85rlX5KTM
p3
aV@NataOberg @belindaHarriaga Wow, love this Nata!
p4
aVRT @KamalaHarris: Heartbroken by the senseless gun violence at Tree of Life Synagogue in Pittsburgh. Everyone should be safe in their place\u2026
p5
aV\U0001f497\U0001f497 https://t.co/MJhHilWvpH
p6
aVRT @ladygaga: While today you might feel unheard or unseen, know that this is not the reality of humanity. This is another display of leade\u2026
p7
aVRT @BernieSanders: Donald Trump and Republicans know that they have to lie about voter fraud\u2014which is virtually nonexistent\u2014to suppress and\u2026
p8
aV@belindaHarriaga Yes, absolutely!
p9
aV@belindaHarriaga #CPSYChangeAgents
p10
aVHuman rights are being violated over and over again. \u000a\u000aWhen I read news like this I go back to the question, \u201cwhat\u2026 https://t.co/mIgvvmInJm
p11
aVMore voter suppression. Unbelievable. @belindaHarriaga #CPSYChangeAgents https://t.co/DE6jenNuaQ
p12
aVEvery vote matters! \u000a@belindaHarriaga #CPSYChangeAgents \u000a\u000ahttps://t.co/iCUJbBTKvm
p13
aVRT @SenSanders: If your plan to get elected is to suppress as many minority voters, young voters, and voters with disabilities as possible,\u2026
p14
aV#CPSYChangeAgents
p15
aVGreat idea! Go Lyft! \u2066@belindaHarriaga\u2069 https://t.co/9reXm5XvIi
p16
aV@sasha_basha Her eyes are stunning \U0001f499
p17
aV#CPSYChangeAgents @belindaHarriaga
p18
aV#CPSYChangeAgents @belindaHarriaga
p19
aV#DayOfTheGirl #FreedomForGirls #CPSYChangeAgents @belindaHarriaga https://t.co/fqooyXHNWH
p20
aV@MichelleObama @girlsalliance @belindaHarriaga
p21
aVRT @MichelleObama: When girls get the chance to fulfill their potential by getting an education, they can transform families, communities,\u2026
p22
aVRT @KamalaHarris: When you lift up girls, you lift up families, you lift up communities, and you lift up economies. Let\u2019s build a world whe\u2026
p23
aVYes Bernie! @belindaHarriaga #CPSYchangeagents https://t.co/VFb1PCYdMY
p24
aV@belindaHarriaga #CPSYChangeAgents
p25
aVYes it is \U0001f49b https://t.co/eWdcBz7HFC
p26
aVRT @SenJeffMerkley: Don\u2019t give up.\u000a\u000aDon\u2019t give up. \u000a\u000aDon\u2019t give up.\u000a\u000aDon\u2019t give up.\u000a\u000aDon\u2019t give up.\u000a\u000aDon\u2019t give up.\u000a\u000aDon\u2019t give up.\u000a\u000aDon\u2019t\u2026
p27
aV@PagetSheldon \U0001f64c\U0001f3fc
p28
aVSolid information on how to use our anger about the #KavanaughConfirmation and current political climate in an inte\u2026 https://t.co/F2zmqSekAi
p29
aVUnacceptable. https://t.co/yAGUnRhnI7
p30
aV@NataOberg @belindaHarriaga Yes yes yes!
p31
aVAlways keep dreaming \U0001f5a4 https://t.co/J9AMdVRoPv
p32
aVRT @KamalaHarris: We need just 10,958 more people to reach our goal of one million against Brett Kavanaugh\u2019s nomination to the Supreme Cour\u2026
p33
aVI. Am. Speechless. His ignorance, insensitivity and misogyny continually shock me. \u000a\u000aThank you Dr. Ford for sharing\u2026 https://t.co/CqMySIVALk
p34
aV@belindaHarriaga Absolutely \u2757\ufe0f
p35
aVUplifting news \U0001f497 #inclusion #acceptance #love #CPSYchangeagents \u2066@belindaHarriaga\u2069  https://t.co/nC7QRfRoK3
p36
aVHeartbreaking, devastating, absolutely unjust and horrific. This is not right. These children and families deserve\u2026 https://t.co/9BvpbopWCO
p37
aV\u203c\ufe0f #CPSYchangeagents @belindaHarriaga https://t.co/TcaRxUNuXv
p38
aV\u2764\ufe0f #CPSYchangeagents https://t.co/BscXOGp3ff
p39
a.