(lp0
V50 Days/50 States countdown continues with Wisconsin! \u000aHere\u2019s your lineup of Democrats running to #TakeASeat in Con\u2026 https://t.co/4kQ5ZyRcVR
p1
aVRT @WeTakeASeat: Alabama to Wyoming, Alaska to Maine - Democratic candidates are running across the country to take back Congress! Hope is\u2026
p2
aVRise and shine! Today the spotlight is on our Democratic Rising Sons at Take A Seat America! Big shout out to Greg\u2026 https://t.co/WTMKEWbCC4
p3
aVRise and shine! The spotlight is on our Democratic Rising Sons at Take A Seat America! Let\u2019s all welcome\u2026 https://t.co/RWUFfyishV
p4
aVRise and shine! The spotlight is on our Democratic Rising Sons at Take A Seat America! Next up is @DanKohlWI! Dan i\u2026 https://t.co/evm9V83PEY
p5
aVRise and shine! The spotlight is on our Democratic Rising Sons at Take A Seat America! Have you met @tomforwi? Tom\u2026 https://t.co/L0mGeOOgEv
p6
aVRise and shine! The spotlight is on our Democratic Rising Sons at Take A Seat America! Big shout out to @IronStache\u2026 https://t.co/iX887ZqObH
p7
aVRise and shine! The spotlight is on our Democratic Rising Sons at Take A Seat America! @Ojeda4congress is in the ho\u2026 https://t.co/RweZaZiqpE
p8
aVRise and shine! The spotlight is on our Democratic Rising Sons at Take A Seat America! Have you met @flacc4congress\u2026 https://t.co/5dpSvC1Ib0
p9
aVRise and shine! Today the spotlight is on our Democratic Rising Sons at Take A Seat America! Shout out to\u2026 https://t.co/yiDpWo5gry
p10
aVRise and shine! Today the spotlight is on our Democratic Rising Sons at Take A Seat America! Next up is\u2026 https://t.co/K3nnNLI1YC
p11
aVRise and shine! The spotlight is on our Democratic Rising Sons at Take A Seat America! Let\u2019s welcome\u2026 https://t.co/flpC0AyRKF
p12
aVWelcome back to the final Rising Sons day here at Take A Seat America for Tuesday\u2019s midterm election! Here\u2019s the fi\u2026 https://t.co/XBipWXqSHK
p13
aV50 Days/50 States countdown brings us to West Virginia!\u000a\u000aHere\u2019s your lineup of Democratic challengers from WV runni\u2026 https://t.co/nPJds03fEt
p14
aVRT @SpanbergerVA07: Overflowing canvass kickoff in Henrico with @PamNorthamVA and @VVforDelegate! #VA07 #GOTV #TeamSpanberger https://t.co/\u2026
p15
aVRT @AngieCraigMN: It's the final weekend before Election Day. Please join #TeamAngie and come out to knock doors across #MN02! https://t.co\u2026
p16
aVRT @JerameyForMS: South Mississippi, are you ready for November 6th?! #Onward #Restoring #Midterms #Countdown2Washington #GOTV https://t.co\u2026
p17
aVSome GOTV inspiration for you!  Check out this lineup.  \u000aPick a state, pick a candidate, and let's get out the vote\u2026 https://t.co/9vUOXOtq1L
p18
aV\U0001f447\U0001f447\U0001f447\U0001f447\U0001f447 https://t.co/Yyt1imUVwu
p19
aV@DemWrite We can't decide. How about all of the candidates found here: https://t.co/VTiW2t7HJ4
p20
aV50 Days/50 States countdown continues - next up Washington! \u000aHere\u2019s your line of Democratic challengers running to\u2026 https://t.co/qjdQteLwZi
p21
aVhttps://t.co/VTiW2t7HJ4
p22
aVAlabama to Wyoming, Alaska to Maine - Democratic candidates are running across the country to take back Congress! H\u2026 https://t.co/Bw1SYJPM6q
p23
aV50 Days/50 States countdown - Virginia! \u000aHere's your Democratic lineup running to #FlipTheHouse blue!\u000a#VA01\u2026 https://t.co/fFfyfYEXb9
p24
aVIt\u2019s Ladies Night at Take A Seat America! A big shout out to @vetfordemocracy! Margaret is running in the #WI07 to\u2026 https://t.co/IuK6J5mdxU
p25
aVIt\u2019s Ladies Night at Take A Seat America! @TalleySergent in the house! Talley is running in the #WV02 to unseat Rep\u2026 https://t.co/N8q2OxMkKB
p26
aVIt\u2019s Ladies Night at Take A Seat America! Shout out to @teamkendrawv! Kendra is running in the #WV01 to unseat Repu\u2026 https://t.co/PFoAlWh0Er
p27
aVIt\u2019s Ladies Night at Take A Seat America! Let's all welcome @DrKimSchrier to the stage! Dr. Schrier is running in t\u2026 https://t.co/ojmQLgythH
p28
aVIt\u2019s Ladies Night at Take A Seat America! Have you met @lisa4congress? Lisa is running in the #WA05 to unseat Repub\u2026 https://t.co/5XPZUKIc73
p29
aVIt\u2019s Ladies Night at Take A Seat America! A big shout out to @ChristineForWA! Christine is running in the #WA04 to\u2026 https://t.co/vZ8SqVVns0
p30
aVIt\u2019s Ladies Night at Take A Seat America! Next up is @ElectLong! Carolyn is running in the #WA03 to replace Republi\u2026 https://t.co/kbwAhmhlh8
p31
aVIt\u2019s Ladies Night at Take A Seat America! @JenniferWexton is in the house! Jennifer is running in the #VA10 to unse\u2026 https://t.co/WAuYUOzTnz
p32
aVIt\u2019s Ladies Night at Take A Seat America! Shout out to @SpanbergerVA07! Abigail is running in the #VA07 to unseat R\u2026 https://t.co/Au9wUXwIZo
p33
aVIt\u2019s Ladies Night at Take A Seat America! Let's all welcome @JenniferForVA to the stage! Jennifer is running in the\u2026 https://t.co/rLFNmrozW0
p34
aVIt\u2019s Ladies Night at Take A Seat America! Have you met @TeamCockburn? Leslie is running for Congress in the #VA05 t\u2026 https://t.co/UWnZCy79hj
p35
aVIt\u2019s Ladies Night at Take A Seat America! Let's all welcome @ElaineLuriaVA to the stage! Elaine is running in the\u2026 https://t.co/PKLfVd1mgA
p36
aVIt\u2019s Ladies Night at Take A Seat America! Next up is @Vangie4Congress! Vangie is running in the #VA01 to unseat Rep\u2026 https://t.co/kCVmcKuYSm
p37
aVIt\u2019s Ladies Night at Take A Seat America! Let us introduce you to @ShireenGhorbani! Shireen is running in the #UT02\u2026 https://t.co/XJ98mUjvhI
p38
aVWelcome back to the final Ladies Night at Take A Seat America for the midterms!! Here\u2019s the last group of amazing D\u2026 https://t.co/g7tXVthWMq
p39
aVIt\u2019s Ladies Night at Take A Seat America! A big shout out to @vetfordemocracy! Margaret is running in the #WI07 to\u2026 https://t.co/TXXBFq5owL
p40
aVIt\u2019s Ladies Night at Take A Seat America! @TalleySergent in the house! Talley is running in the #WV02 to unseat Rep\u2026 https://t.co/k8cMx3AD43
p41
aVIt\u2019s Ladies Night at Take A Seat America! Shout out to @teamkendrawv! Kendra is running in the #WV01 to unseat Repu\u2026 https://t.co/vRizDg50kA
p42
aVIt\u2019s Ladies Night at Take A Seat America! Let's all welcome @DrKimSchrier to the stage! Dr. Schrier is running in t\u2026 https://t.co/uTCX6lo8aJ
p43
aVIt\u2019s Ladies Night at Take A Seat America! Have you met @lisa4congress? Lisa is running in the #WA05 to unseat Repub\u2026 https://t.co/xxKvIOOlnR
p44
aVIt\u2019s Ladies Night at Take A Seat America! A big shout out to @ChristineForWA! Christine is running in the #WA04 to\u2026 https://t.co/6RXl909hNS
p45
aVIt\u2019s Ladies Night at Take A Seat America! Next up is @ElectLong! Carolyn is running in the #WA03 to replace Republi\u2026 https://t.co/iBWDoHUhSG
p46
aVIt\u2019s Ladies Night at Take A Seat America! @JenniferWexton is in the house! Jennifer is running in the #VA10 to unse\u2026 https://t.co/CqzvHoxnei
p47
aVIt\u2019s Ladies Night at Take A Seat America! Shout out to @SpanbergerVA07! Abigail is running in the #VA07 to unseat R\u2026 https://t.co/6XvR6hcE6L
p48
aVIt\u2019s Ladies Night at Take A Seat America! Let's all welcome @JenniferForVA to the stage! Jennifer is running in the\u2026 https://t.co/3s8Mr2IfUa
p49
aVIt\u2019s Ladies Night at Take A Seat America! Have you met @TeamCockburn? Leslie is running for Congress in the #VA05 t\u2026 https://t.co/pbvijnv2ZL
p50
aVIt\u2019s Ladies Night at Take A Seat America! Let's all welcome @ElaineLuriaVA to the stage! Elaine is running in the\u2026 https://t.co/wNpN0Vrlyl
p51
aVIt\u2019s Ladies Night at Take A Seat America! Next up is @Vangie4Congress! Vangie is running in the #VA01 to unseat Rep\u2026 https://t.co/eoCywvI7Zu
p52
aVIt\u2019s Ladies Night at Take A Seat America! Let us introduce you to @ShireenGhorbani! Shireen is running in the #UT02\u2026 https://t.co/BTloMSB0tp
p53
aV50 Days/50 States countdown continues - Shout out to Vermont!\u000a\u000aBe sure to get out to vote November 6th and support\u2026 https://t.co/mkfjBZSiJF
p54
aV50 Days/50 States continues - Utah you\u2019re up!\u000aHere\u2019s your lineup of Democratic challengers!\u000a\u000aUS Senate\u2026 https://t.co/StiVAEKNSb
p55
aV50 Days/50 States - Texas! Way to go Texas! That's a great lineup! #FlipItBlue\u000a#TX24 @JanForCongress\u000a#TX25\u2026 https://t.co/DDNNH7OGay
p56
aV50 Days/50 States - Texas! The lineup of Democratic candidates running to #TakeASeat in Congress from Texas continu\u2026 https://t.co/f5IDZsLSM7
p57
aV50 Days/50 States - Texas! More great Democratic candidates running to #TakeASeat in Congress from Texas! \u000a#TX06\u2026 https://t.co/Xd2ELVcZvM
p58
aV50 Days/50 States - Texas! \u000aHere's the incredible lineup of Democratic candidates running to #TakeASeat in Congress\u2026 https://t.co/AKmP59ofuw
p59
aV50 Days/50 States countdown continues with Texas!\u000a\u000aCheck out this thread for the amazing lineup of great Democratic\u2026 https://t.co/P0m7OVV7a4
p60
aV50 Days/50 States welcomes Tennessee!\u000aHere's your lineup! #FlipItBlue!\u000aUS Senate @PhilBredesen\u000a#TN01\u2026 https://t.co/xtjIQHqZyS
p61
aVRise and shine! The spotlight is on our Democratic Rising Sons at Take A Seat America! Have you met @ColinAllredTX?\u2026 https://t.co/suCmIkVj34
p62
aVRise and shine! Today the spotlight is on our Democratic Rising Sons at Take A Seat America! Big shout out to\u2026 https://t.co/htCKqKaerv
p63
aVRise and shine! Today the spotlight is on our Democratic Rising Sons at Take A Seat America! Next up is\u2026 https://t.co/GdjRlPiOkE
p64
aVRise and shine! The spotlight is on our Democratic Rising Sons at Take A Seat America! Let\u2019s all welcome\u2026 https://t.co/rGPNL77NtS
p65
aVRise and shine! The spotlight is on our Democratic Rising Sons at Take A Seat America! Shout out to\u2026 https://t.co/snipATJZeV
p66
aVRise and shine! The spotlight is on our Democratic Rising Sons at Take A Seat America! @RickKennedyTX17 is in the h\u2026 https://t.co/b1d0WkP2V2
p67
aVRise and shine! The spotlight is on our Democratic Rising Sons at Take A Seat America! Have you met Greg Sagan? Gre\u2026 https://t.co/52pnHo6bx7
p68
aVRise and shine! The spotlight is on our Democratic Rising Sons at Take A Seat America! Next up is @SiegelForTexas!\u2026 https://t.co/uvZnisZ6I5
p69
aVRise and shine! The spotlight is on our Democratic Rising Sons at Take A Seat America! Let us introduce you to\u2026 https://t.co/Eui0UcSGTI
p70
aVRise and shine! The spotlight is on our Democratic Rising Sons at Take A Seat America! @DanWood2018 is in the house\u2026 https://t.co/q053uEr8aq
p71
aVRise and shine! The spotlight is on our Democratic Rising Sons at Take A Seat America! Have you met @toddlitton? To\u2026 https://t.co/AfDLiHaehK
p72
aVRise and shine! Today the spotlight is on our Democratic Rising Sons at Take A Seat America! Shout out to @Kanew! J\u2026 https://t.co/upamFMIUAs
p73
aVRise and shine! Today the spotlight is on our Democratic Rising Sons at Take A Seat America! Next up is\u2026 https://t.co/S0w2maudGe
p74
aVRise and shine! The spotlight is on our Democratic Rising Sons at Take A Seat America! Let\u2019s welcome @TimBjorkmanSD\u2026 https://t.co/RvBaTzqRnu
p75
aVRise and shine! It\u2019s Son Day! We're highlighting our Democratic Rising Sons here at Take A Seat America! Sunday mor\u2026 https://t.co/HLaoAbc2KB
p76
aV50 Days/50 States countdown continues - Next up, South Dakota!\u000aFollow, RT, Support, and get out to Vote for\u2026 https://t.co/hBqbsVHFDe
p77
aV"Darkness cannot drive out darkness; only light can do that. Hate cannot drive out hate; only love can do that."  M\u2026 https://t.co/sqQbCRYbKj
p78
aV50 Days/50 States countdown - South Carolina! Here\u2019s your line of Democratic candidates running to #FliptheHouse bl\u2026 https://t.co/9eBy99n2yI
p79
aV50 Days/50 States countdown continues - Shout out to Rhode Island!\u000a\u000aBe sure to get out to vote November 6th and sup\u2026 https://t.co/tr5JRDtBvS
p80
aVIt\u2019s Ladies Night at Take A Seat America! Next up is @daynasteele! Dayna is running in the #TX36 to replace Republi\u2026 https://t.co/aobU7LuCaB
p81
aVIt\u2019s Ladies Night at Take A Seat America! A big shout out to @mjhegar! MJ is running in the #TX31 to unseat Republi\u2026 https://t.co/bAUJldPRVD
p82
aVIt\u2019s Ladies Night at Take A Seat America! Have you met @SenatorSylvia? Sylvia is running in the #TX29!  Get to know\u2026 https://t.co/zJ7fWKUCjV
p83
aVIt\u2019s Ladies Night at Take A Seat America! Let us introduce you to @LinseyFaganTX! Linsey is running in the #TX26 to\u2026 https://t.co/Talvhqtc7m
p84
aVIt\u2019s Ladies Night at Take A Seat America! @JulieForTX25 is in the house! Julie is running in the #TX25 to unseat Re\u2026 https://t.co/LMCEjQ9Ac1
p85
aVIt\u2019s Ladies Night at Take A Seat America! Shout out to @JanForCongress! Jan is running in the #TX24 to unseat Repub\u2026 https://t.co/g50DJFJoUO
p86
aVIt\u2019s Ladies Night at Take A Seat America! Let's welcome @ginaortizjones to the stage! Gina is running in the #TX23\u2026 https://t.co/xd6D9iQ3OB
p87
aVIt\u2019s Ladies Night at Take A Seat America! Have you met @vgescobar? Veronica is running in the #TX16!  Get to know h\u2026 https://t.co/R2gtZMLBc7
p88
aVIt\u2019s Ladies Night at Take A Seat America! A big shout out to @AdrBell! Adrienne is running in the #TX14 to unseat R\u2026 https://t.co/5XVKs738nF
p89
aVIt\u2019s Ladies Night at Take A Seat America! Next up is @VanessaAdiaTX12! Vanessa is running in the #TX12 to replace R\u2026 https://t.co/3eOeqLeAwS
p90
aVIt\u2019s Ladies Night at Take A Seat America! @JennieLouLeeder is in the house! Jennie Lou is running in the #TX11 to u\u2026 https://t.co/8KpAHNmwlS
p91
aVIt\u2019s Ladies Night at Take A Seat America! Shout out to @Lizzie4Congress! Lizzie is running in the #TX07 to unseat R\u2026 https://t.co/A5VkVa6vN9
p92
aVIt\u2019s Ladies Night at Take A Seat America! Have you met @janasanchez? Jana is running for Congress in the #TX06 to r\u2026 https://t.co/WlgMpaIxEe
p93
aVIt\u2019s Ladies Night at Take A Seat America! Let's all welcome @Krantz4Congress to the stage! Catherine is running in\u2026 https://t.co/DLpAFbhtWt
p94
aVIt\u2019s Ladies Night at Take A Seat America! Next up is @LorieB4Congress! Lorie is running in the #TX03 to replace Rep\u2026 https://t.co/EfZ4lgntrm
p95
aVIt\u2019s Ladies Night at Take A Seat America! Let us introduce you to @Vote4McKellar! Shirley is running in the #TX01 t\u2026 https://t.co/tmsNI20dIL
p96
aVWelcome back to Ladies Night at Take A Seat America! Thursday nights between now and Nov 6th we'll spotlight a grou\u2026 https://t.co/8vOptKn8vD
p97
aV50 Days/50 States - Pennsylvania! More great Democratic candidates running to #TakeASeat in Congress!\u000aRT, Follow,VO\u2026 https://t.co/Lh62ikmPgE
p98
aV50 Days/50 States - Pennsylvania! Here's the lineup of Democratic candidates running to #TakeASeat in Congress!\u000aRT,\u2026 https://t.co/3SswY3Knia
p99
aV50 Days/50 States countdown continues with Pennsylvania!\u000aCheck out this thread for the lineup of great Democratic c\u2026 https://t.co/6M7YyiYWNM
p100
aV50 Days/50 States continues - Next up, Oregon!\u000aFollow, RT, and Vote for @JamieforOregon! She's running in the #OR02\u2026 https://t.co/1cVxxYqJWS
p101
aV50 Days/50 States countdown - Oklahoma you\u2019re next!\u000aHere\u2019s your line of Democrats challengers running to\u2026 https://t.co/2Tjn7QxCVg
p102
aV50 Days/50 States - Ohio! More great Democratic candidates running to #FlipTheHouse blue this November!\u2026 https://t.co/VYjXLrFJMC
p103
aV50 Days/50 States - Ohio! Here's your lineup of Democratic candidates in OH running to #FlipTheHouse blue in Novemb\u2026 https://t.co/H9EvF39iJT
p104
aV50 Days/50 States countdown - 16 days out brings us to Ohio!\u000aCheck out this thread for the lineup of great Democrat\u2026 https://t.co/7jrKHKUnnJ
p105
aVRise and shine! The spotlight is on our Democratic Rising Sons at Take A Seat America! Get to know Robert Q William\u2026 https://t.co/LU5wv8FbHY
p106
aVRise and shine! The spotlight is on our Democratic Rising Sons at Take A Seat America! Have you met\u2026 https://t.co/Ua0Bip4ENk
p107
aVRise and shine! Today the spotlight is on our Democratic Rising Sons at Take A Seat America! Big shout out to\u2026 https://t.co/rZJQCaOUPy
p108
aVRise and shine! Today the spotlight is on our Democratic Rising Sons at Take A Seat America! Next up is\u2026 https://t.co/J87KLbfrdK
p109
aVRise and shine! The spotlight is on our Democratic Rising Sons at Take A Seat America! Let\u2019s all welcome\u2026 https://t.co/TcBK4UuvoT
p110
aVRise and shine! The spotlight is on our Democratic Rising Sons at Take A Seat America! Shout out to @ConorLambPA! C\u2026 https://t.co/anAxiDNqx1
p111
aVRise and shine! The spotlight is on our Democratic Rising Sons at Take A Seat America! @Ron_Dinicola is in the hous\u2026 https://t.co/RqYili22Mn
p112
aVRise and shine! The spotlight is on our Democratic Rising Sons at Take A Seat America! Have you met @BrentforPA13?\u2026 https://t.co/zIoPCkVxk3
p113
aVRise and shine! The spotlight is on our Democratic Rising Sons at Take A Seat America! Next up is @MarcForPA! Marc\u2026 https://t.co/Fai79veFf8
p114
aVRise and shine! The spotlight is on our Democratic Rising Sons at Take A Seat America! Let us introduce you to\u2026 https://t.co/rtVcfwxTb2
p115
aVRise and shine! The spotlight is on our Democratic Rising Sons at Take A Seat America! @DennyforPA is in the house!\u2026 https://t.co/vFOMBJHF33
p116
aVRise and shine! The spotlight is on our Democratic Rising Sons at Take A Seat America! Have you met @ScottWallacePA\u2026 https://t.co/IUNLXIFMkO
p117
aVRise and shine! Today the spotlight is on our Democratic Rising Sons at Take A Seat America! Shout out to Frankie R\u2026 https://t.co/23B2VDvCUK
p118
aVRise and shine! Today the spotlight is on our Democratic Rising Sons at Take A Seat America! Next up is @jn4ush! Ja\u2026 https://t.co/KfoJ6ZxT9t
p119
aVRise and shine! The spotlight is on our Democratic Rising Sons at Take A Seat America! Let\u2019s welcome Tim Gilpin!\u2026 https://t.co/MeTUzJczYE
p120
aVRise and shine! It\u2019s Son Day! We're highlighting our Democratic Rising Sons here at Take A Seat America! Sunday mor\u2026 https://t.co/3WOje6AklF
p121
aV50 Days/50 States continues - Next up, North Dakota!\u000aFollow, RT, Support, and get out to Vote for @mac4northdakota!\u2026 https://t.co/TrJtkmEmUr
p122
aV50 Days/50 States - North Carolina! More great Democratic candidates running to #FliptheHouse this November!\u000aRT, Fo\u2026 https://t.co/7SrYdpCiru
p123
aV50 Days/50 States - North Carolina! Here's your lineup of Democratic candidates in NC running to #FliptheHouse blue\u2026 https://t.co/eeVpOG1HvT
p124
aV50 Days/50 States countdown brings us to North Carolina!\u000aCheck out this thread for the lineup of great Democratic c\u2026 https://t.co/x0Hd0XC3fE
p125
aV50 Days/50 States - New York! More great Democratic candidates running to #TakeASeat in Congress this November!\u2026 https://t.co/QY3Ty4SGqO
p126
aV50 Days/50 States - New York! Here's your lineup of Democratic candidates in NY running to #TakeASeat in Congress t\u2026 https://t.co/h2oVUzXLgd
p127
aV50 Days/50 States countdown continues! Next up is New York!\u000aCheck out this thread for the lineup of great Democrati\u2026 https://t.co/oMxkfSU8J3
p128
aVIt\u2019s Ladies Night at Take A Seat America! Get to know Erika Stotts Pearson! Erika is running in the #TN08 to unseat\u2026 https://t.co/UYGlTLr8Um
p129
aVIt\u2019s Ladies Night at Take A Seat America! @Barlow4Congress is in the house! Dr. Barlow is running in the #TN06 to r\u2026 https://t.co/4zTIYcSysS
p130
aVIt\u2019s Ladies Night at Take A Seat America! Shout out to @Mariah4Congress! Mariah is running in the #TN04 to unseat R\u2026 https://t.co/G5p3xMBSIf
p131
aVIt\u2019s Ladies Night at Take A Seat America! Let's all welcome @DMMD4TNCongress to the stage! Dr. Mitchell is running\u2026 https://t.co/yf4S6SXmud
p132
aVIt\u2019s Ladies Night at Take A Seat America! Have you met @Hoyos4Congress? Renee is running in the #TN02 to replace Re\u2026 https://t.co/FW4mtL7Qcv
p133
aVIt\u2019s Ladies Night at Take A Seat America! A big shout out to @MaryGeren! Mary is running in the #SC03 to unseat Rep\u2026 https://t.co/rv6TtkmIS4
p134
aVIt\u2019s Ladies Night at Take A Seat America! Next up is @BoserforPA! Susan is running in the #PA15 to unseat Republica\u2026 https://t.co/glnVVF9bdn
p135
aVIt\u2019s Ladies Night at Take A Seat America! @Boerio4Congress is in the house! Bibiana is running in the #PA14!  Get t\u2026 https://t.co/5kMy2hR7F7
p136
aVIt\u2019s Ladies Night at Take A Seat America! Shout out to @jessforcongress! Jess is running in the #PA11 to unseat Rep\u2026 https://t.co/PN9YU3TRTc
p137
aVIt\u2019s Ladies Night at Take A Seat America! Have you met @wildforcongress? Susan is running for Congress in the #PA07\u2026 https://t.co/AbRJGqfnOM
p138
aVIt\u2019s Ladies Night at Take A Seat America! Let's all welcome @HoulahanForPa to the stage! Chrissy is running in the\u2026 https://t.co/4VTpTSMkJ1
p139
aVIt\u2019s Ladies Night at Take A Seat America! Next up is @marygayscanlon! Mary Gay is running in the #PA05! Follow, RT,\u2026 https://t.co/ITvzmgz8DW
p140
aVIt\u2019s Ladies Night at Take A Seat America! Let us introduce you to @mad4pa! Madeleine is running in the #PA04!  Get\u2026 https://t.co/Qu9FLTkIln
p141
aVWelcome back to Ladies Night at Take A Seat America! Every Thursday night between now and Nov 6th we'll spotlight a\u2026 https://t.co/dYyfFqLPId
p142
aV50 Days/50 States countdown brings us to New Mexico!\u000aCheck out these 2 great Democratic candidates looking to Take\u2026 https://t.co/qWqpLM313v
p143
aV50 Days/50 States countdown - 3 weeks out! New Jersey is next!\u000aHere\u2019s the line of Democratic challengers running to\u2026 https://t.co/nOIiYmMoWj
p144
aVTHIS!  \U0001f447\U0001f447 Your voice is your vote and America needs to hear it November 6th! https://t.co/87cXoOxLjx
p145
aV50 Days/50 States countdown continues with New Hampshire!\u000a\u000aFollow, RT, Support, and get out to Vote for\u2026 https://t.co/DsqDvhYpWM
p146
aV50 Days/50 States continues - Welcome Nevada!\u000aHere\u2019s your lineup of Democratic challengers in NV!\u000a\u000aUS Senate -\u2026 https://t.co/Q6A8W5Q4kG
p147
aVRise and shine! The spotlight is on our Democratic Rising Sons at Take A Seat America! Have you met @Team_Harbaugh?\u2026 https://t.co/YaEeaFccZg
p148
aVRise and shine! The spotlight is on our Democratic Rising Sons at Take A Seat America! Let\u2019s welcome @Rick_Neal! Ri\u2026 https://t.co/nWPEjX1e4y
p149
aVRise and shine! The spotlight is on our Democratic Rising Sons at Take A Seat America! Shout out to @dannyoconnor1!\u2026 https://t.co/kB1g2LbvRN
p150
aVRise and shine! The spotlight is on our Democratic Rising Sons at Take A Seat America! @OH5forGalbraith is in the h\u2026 https://t.co/ZLzXh2ycKL
p151
aVRise and shine! The spotlight is on our Democratic Rising Sons at Take A Seat America! Next up is @AftabPureval! Af\u2026 https://t.co/C6ipIs2WET
p152
aVRise and shine! The spotlight is on our Democratic Rising Sons at Take A Seat America! Let us introduce you to\u2026 https://t.co/q2mEQ7Ni9N
p153
aVRise and shine! The spotlight is on our Democratic Rising Sons at Take A Seat America! @Price4WNC is in the house!\u2026 https://t.co/QcuJZTaXZ1
p154
aVRise and shine! The spotlight is on our Democratic Rising Sons at Take A Seat America! Have you met @DWB4Congress?\u2026 https://t.co/DvQab3WXh4
p155
aVRise and shine! Today the spotlight is on our Democratic Rising Sons at Take A Seat America! Shout out to\u2026 https://t.co/zFsmPvEaPp
p156
aVRise and shine! Today the spotlight is on our Democratic Rising Sons at Take A Seat America! Next up is @Frank4NC!\u2026 https://t.co/UP3dAyMMrE
p157
aVRise and shine! The spotlight is on our Democratic Rising Sons at Take A Seat America! Let\u2019s welcome Ryan Watts!\u2026 https://t.co/mC1y4lYoLZ
p158
aVRise and shine! It\u2019s Son Day! We're highlighting our Democratic Rising Sons here at Take A Seat America! Sunday mor\u2026 https://t.co/MfDpSepkyd
p159
aV50 Days/50 States continues - Nebraska you\u2019re up!\u000aHere\u2019s your lineup of Democratic challengers from NE!\u000aUS Senate\u2026 https://t.co/pz6N3e84uB
p160
aV50 Days/50 States continues - Next up, Montana!\u000aFollow, RT, and Vote for @WilliamsForMT! She's running for #MTAL to\u2026 https://t.co/eHcOgcf2JA
p161
aV50 Days/50 States countdown - Missouri! Here\u2019s the line of Democratic candidates looking to #FliptheHouse!\u000aRT, Foll\u2026 https://t.co/fB4jrfd4b2
p162
aVIt\u2019s Ladies Night at Take A Seat America! Let's all welcome @JamieforOregon to the stage! Jamie is running in the\u2026 https://t.co/cMF4oshuIZ
p163
aVIt\u2019s Ladies Night at Take A Seat America! Have you met @HornForCongress? Kendra is running in the #OK05 to retire R\u2026 https://t.co/DBbcLW6o53
p164
aVIt\u2019s Ladies Night at Take A Seat America! A big shout out to @ElectBrannon! Mary is running in the #OK04 to unseat\u2026 https://t.co/MVKIgwP9Sz
p165
aVIt\u2019s Ladies Night at Take A Seat America! Next up is @SusanPalmerOH! Susan is running in the #OH16 to replace Repub\u2026 https://t.co/iVQqr9xdLn
p166
aVIt\u2019s Ladies Night at Take A Seat America! @BetsyRaderOH is in the house! Betsy is running in the #OH14 to unseat Re\u2026 https://t.co/tCd5zXH9yy
p167
aVIt\u2019s Ladies Night at Take A Seat America! Shout out to @GasperforOH10! Theresa is running in the #OH10 to unseat Re\u2026 https://t.co/0sainSBcY8
p168
aVIt\u2019s Ladies Night at Take A Seat America! Have you met @DrVEnoch? Dr. Enoch is running in the #OH08 to help retire\u2026 https://t.co/5IhI6XDeLO
p169
aVIt\u2019s Ladies Night at Take A Seat America! Let's all welcome @RobertsOhioD6 to the stage! Shawna is running in the\u2026 https://t.co/imi37vVNFu
p170
aVIt\u2019s Ladies Night at Take A Seat America! Next up is @Janet4OH! Janet is running in the #OH04 to unseat Republican\u2026 https://t.co/4p5bVm62In
p171
aVIt\u2019s Ladies Night at Take A Seat America! Let us introduce you to @Vote4Schiller! Jill is running in the #OH02 to u\u2026 https://t.co/55XdflgGwr
p172
aVWelcome back to Ladies Night at Take A Seat America! Every Thursday night between now and Nov 6th we'll spotlight a\u2026 https://t.co/0Ax2MvDPx1
p173
aV50 Days/50 States continues - Mississippi is in the house!!\u000aHere\u2019s the lineup of Democratic challengers from MS!\u000a\u000aU\u2026 https://t.co/TZeM5IbkJX
p174
aVHey Missouri! Today's your last day to register to vote for the midterms! \u000aConfirm your registration status. \u000aGet R\u2026 https://t.co/MwGFTBrlLM
p175
aV50 Days/50 States countdown - Minnesota! Here\u2019s your line of Democratic candidates running to #FliptheHouse blue!\u000aR\u2026 https://t.co/SRuRvmifjo
p176
aVGreat info here from @letamericavote! Today is the voter registration deadline for states across the country. More\u2026 https://t.co/ZyCPlraibi
p177
aV50 Days/50 States - Michigan! More great Democratic candidates running to #FliptheHouse blue. MI Voter reg deadline\u2026 https://t.co/frGxKzhYw0
p178
aV50 Days/50 States - Michigan! Here's your lineup of Democratic candidates in MI running to #FliptheHouse! MI Voter\u2026 https://t.co/fiegGFLlcy
p179
aV50 Days/50 States countdown continues! Next up Michigan!\u000aVisit the MI page on our website for voter reg info - Dead\u2026 https://t.co/Hgr4doea84
p180
aV50 Days/50 States - 30 days to go, we're up to Massachusetts!\u000aGet to know these 2 great Democratic women looking to\u2026 https://t.co/6sCPUcKmjN
p181
aVRise and shine! The spotlight is on our Democratic Rising Sons at Take A Seat America! @Nate_McMurray is in the hou\u2026 https://t.co/YRWRJOpiGk
p182
aVRise and shine! The spotlight is on our Democratic Rising Sons at Take A Seat America! Next up is @votemorelle! Joe\u2026 https://t.co/7fWqjfndU7
p183
aVRise and shine! The spotlight is on our Democratic Rising Sons at Take A Seat America! Have you met @ABrindisiNY? A\u2026 https://t.co/s8DvTgyXiZ
p184
aVRise and shine! The spotlight is on our Democratic Rising Sons at Take A Seat America! Let\u2019s all welcome\u2026 https://t.co/GspGMq1t6D
p185
aVRise and shine! The spotlight is on our Democratic Rising Sons at Take A Seat America! Shout out to @MaxRose4NY! Ma\u2026 https://t.co/GqokoJmoEy
p186
aVRise and shine! The spotlight is on our Democratic Rising Sons at Take A Seat America! Let us introduce you to\u2026 https://t.co/Zvq8DIPI2N
p187
aVRise and shine! The spotlight is on our Democratic Rising Sons at Take A Seat America! @Malinowski is in the house!\u2026 https://t.co/TCwEGIGDJ8
p188
aVRise and shine! The spotlight is on our Democratic Rising Sons at Take A Seat America! Next up is @JoshuaWelle! Jos\u2026 https://t.co/lgu43nEb6v
p189
aVRise and shine! The spotlight is on our Democratic Rising Sons at Take A Seat America! Let us introduce you to\u2026 https://t.co/Huz3Bgipnm
p190
aVRise and shine! The spotlight is on our Democratic Rising Sons at Take A Seat America! @VanDrewForNJ is in the hous\u2026 https://t.co/sHMLxE6r6S
p191
aVRise and shine! The spotlight is on our Democratic Rising Sons at Take A Seat America! Have you met @ChrisPappasNH?\u2026 https://t.co/gNFxV7HKpg
p192
aVRise and shine! Today the spotlight is on our Democratic Rising Sons at Take A Seat America! Shout out to\u2026 https://t.co/j8QqwUfMXt
p193
aVRise and shine! Today the spotlight is on our Democratic Rising Sons at Take A Seat America! Next up is\u2026 https://t.co/bjfPqiIb6k
p194
aVRise and shine! The spotlight is on our Democratic Rising Sons at Take A Seat America! Let\u2019s welcome Paul Theobald!\u2026 https://t.co/9KsT6v6l6y
p195
aVRise and shine! It\u2019s Son Day! We're highlighting our Democratic Rising Sons here at Take A Seat America! Sunday mor\u2026 https://t.co/7CdhRyoUhW
p196
aV50 Days/50 States - 31 days out, brings us to Maryland! Check out these great Dem candidates running to\u2026 https://t.co/JnHJh4m9eb
p197
aVMake no mistake.  #NovemberIsComing https://t.co/TDNocbFGbV
p198
aVhttps://t.co/grJc0zIeRz
p199
aVRT @WeTakeASeat: Action is the antidote to despair! Donate here to all Democratic challengers running to #FliptheSenate blue! And today, we\u2026
p200
aVRT @WeTakeASeat: Alabama to Wyoming, Alaska to Maine - Democratic candidates stepped up to challenge GOP seats. Discover ALL post-primary D\u2026
p201
aV50 Days/50 States continues - Next up, Maine!\u000aFollow, RT, Support &amp; get out to Vote for @golden4congress! He's runn\u2026 https://t.co/qveC2P1SQ7
p202
aVAction is the antidote to despair! Donate here to all Democratic challengers running to #FliptheSenate blue! And to\u2026 https://t.co/3dYp87QCtH
p203
aVSupport Democratic nominee @TraunerforWY for U.S. Senate from Wyoming. He is running to unseat Republican Senator J\u2026 https://t.co/SBz8JGb9yo
p204
aVSupport Democratic nominee @JennyWilsonUT for U.S. Senate from Utah. She is running to replace outgoing Republican\u2026 https://t.co/xk3gcu84Jr
p205
aVSupport Democratic nominee @BetoORourke for U.S. Senate from Texas. He is running to unseat Republican Senator Ted\u2026 https://t.co/qHZuUPbk9o
p206
aVSupport Democratic nominee @PhilBredesen for U.S. Senate from Tennessee. He is running to replace outgoing Republic\u2026 https://t.co/zHy2oi8Id1
p207
aVSupport Democratic nominee @RosenforNevada for U.S. Senate from Nevada. She is running to unseat Republican Senator\u2026 https://t.co/4jcLgaADqN
p208
aVSupport Democratic nominee @JaneRaybould for U.S. Senate from Nebraska! She's running to unseat Republican Senator\u2026 https://t.co/dXJj2pLgO6
p209
aVSupport Democratic nominee @espyforsenate for U.S. Senate from Mississippi special election! He's running to unseat\u2026 https://t.co/LwQNfHZWm3
p210
aVSupport Democratic nominee @dbaria for U.S. Senate from Mississippi! He is running to unseat Republican Senator Rog\u2026 https://t.co/E4Ycg4W6cS
p211
aVSupport Democratic nominee @kyrstensinema for U.S. Senate from Arizona. She is running to replace outgoing Republic\u2026 https://t.co/t0BeBywCzn
p212
aVThere are 9 Republican held Senate seats up for election on November 6th! Follow, RT, Donate &amp; Vote! Vote for the i\u2026 https://t.co/0BdNioml9d
p213
aVt\u2019s Ladies Night at Take A Seat America! Have you met @KathyManningNC? Kathy is running in the #NC13 to help retire\u2026 https://t.co/qD7zGHk4KI
p214
aVIt\u2019s Ladies Night at Take A Seat America! A big shout out to @drkyle4congress! Dr. Kyle is running in the #NC07 to\u2026 https://t.co/6HTtd5Opzg
p215
aVIt\u2019s Ladies Night at Take A Seat America! Next up is @DDAdamsCongress! DD is running in the #NC05 to unseat Republi\u2026 https://t.co/bWjgbS0hlP
p216
aVIt\u2019s Ladies Night at Take A Seat America! Linda Coleman is in the house! @LindaForNC is running in the #NC02 to uns\u2026 https://t.co/dolylQCiBG
p217
aVIt\u2019s Ladies Night at Take A Seat America! Shout out to @dana_balter! Dana is running in the #NY24 to unseat Republi\u2026 https://t.co/0MhXl0NBqA
p218
aVIt\u2019s Ladies Night at Take A Seat America! Have you met @MitranoForNY23? Tracy is running in the #NY23 to help retir\u2026 https://t.co/p1iteWBrYo
p219
aVIt\u2019s Ladies Night at Take A Seat America! Let's all welcome @TedraCobb to the stage! Tedra is running in the #NY21\u2026 https://t.co/7v8Yf4Lc87
p220
aVIt\u2019s Ladies Night at Take A Seat America! Next up is @Ocasio2018! Alexandria is running in the #NY14! Get to know h\u2026 https://t.co/K5aamnjZx0
p221
aVIt\u2019s Ladies Night at Take A Seat America! Let us introduce you to @liuba4congress! Liuba is running in the #NY02 to\u2026 https://t.co/o8i7RENQOA
p222
aVWelcome back to Ladies Night at Take A Seat America! Every Thursday night between now and Nov 6th we'll spotlight a\u2026 https://t.co/YoM4EltDqY
p223
aV50 Days/50 States countdown - 33 days out, we're at Louisiana!\u000aHere\u2019s just the starting lineup of Dem candidates ru\u2026 https://t.co/8TxrTpKTGt
p224
aV50 Days/50 States continues - Kentucky is in the house!!\u000aHere\u2019s your lineup of candidates looking to #FliptheHouse!\u2026 https://t.co/T3skBd5gxa
p225
aV50 Days/50 States continues - Next up, Kansas!\u000aFollow, RT, Support &amp; Vote for these great candidates looking to\u2026 https://t.co/tSGM0QRS8x
p226
aV50 Days/50 States countdown - 36 days out, brings us to Iowa!\u000aHere\u2019s the lineup of Democrats looking to\u2026 https://t.co/KsUOl6FotQ
p227
aV50 Days/50 States - Indiana! Here\u2019s the lineup of Democratic candidates running to #FliptheHouse! \u000aRT, Follow, VOTE\u2026 https://t.co/4qBpYvcQzm
p228
aV50 Days/50 States countdown to election day continues! Next up Indiana!\u000aVisit the IN state page on our website for\u2026 https://t.co/1npnuWICyE
p229
aVRise and shine! The spotlight is on our Democratic Rising Sons at Take A Seat America! Shout out to @Schoolcraft4Mo\u2026 https://t.co/HozyoElxOm
p230
aVRise and shine! The spotlight is on our Democratic Rising Sons at Take A Seat America! Let\u2019s all welcome Henry Mart\u2026 https://t.co/CztTziO7Ye
p231
aVRise and shine! The spotlight is on our Democratic Rising Sons at Take A Seat America! Let us introduce you to\u2026 https://t.co/cCoo8y6hW7
p232
aVRise and shine! The spotlight is on our Democratic Rising Sons at Take A Seat America! @JerameyForMS is in the hous\u2026 https://t.co/FxqRMfEwsj
p233
aVRise and shine! The spotlight is on our Democratic Rising Sons at Take A Seat America! Have you met @RepEvans45? Mi\u2026 https://t.co/n3ItEMeFSI
p234
aVRise and shine! The spotlight is on our Democratic Rising Sons at Take A Seat America! Shout out to @Wadkins2018! R\u2026 https://t.co/0j5Raix9CK
p235
aVRise and shine! The spotlight is on our Democratic Rising Sons at Take A Seat America! @joeradinovich is in the hou\u2026 https://t.co/XuzSRcCvXZ
p236
aVRise and shine! The spotlight is on our Democratic Rising Sons at Take A Seat America! Next up is @IanToddforMN! Ia\u2026 https://t.co/9g9C3SINT1
p237
aVRise and shine! The spotlight is on our Democratic Rising Sons at Take A Seat America! Shout out to @deanbphillips!\u2026 https://t.co/J5SU14azMb
p238
aVRise and shine! The spotlight is on our Democratic Rising Sons at Take A Seat America! Let us introduce you to\u2026 https://t.co/WDvxY17hFA
p239
aVRise and shine! The spotlight is on our Democratic Rising Sons at Take A Seat America! @Andy_Levin is in the house!\u2026 https://t.co/iMzeQpr8z3
p240
aVRise and shine! The spotlight is on our Democratic Rising Sons at Take A Seat America! Shout out to @MattLongjohn!\u2026 https://t.co/eNgz29v0dS
p241
aVRise and shine! The spotlight is on our Democratic Rising Sons at Take A Seat America! Have you met\u2026 https://t.co/G5rf1phzmn
p242
aVRise and shine! Today the spotlight is on our Democratic Rising Sons at Take A Seat America! Next up is\u2026 https://t.co/Q3iRyAtQdH
p243
aVRise and shine! The spotlight is on our Democratic Rising Sons at Take A Seat America! Let\u2019s welcome Matt Morgan!\u2026 https://t.co/F8whwvJYp9
p244
aVRise and shine! It\u2019s Son Day! We're highlighting our Democratic Rising Sons here at Take A Seat America! Sunday mor\u2026 https://t.co/dwX1X6MUfc
p245
aV50 Days/50 States - Illinois! Here\u2019s the lineup of Democratic candidates running to #FliptheHouse!\u000aRT, Follow, VOTE\u2026 https://t.co/A0XIwdEtl6
p246
aV50 Days/50 States countdown to election day continues! Illinois you\u2019re up!\u000aVisit the IL state page on our website f\u2026 https://t.co/cOMtSq3wo0
p247
aV50 Days/50 States countdown continues! Welcome Idaho!\u000aRT, Follow, Support, &amp; Vote for these Democratic candidates N\u2026 https://t.co/3hkksirTpd
p248
aVRT @WeTakeASeat: @TraunerforWY is the Democratic nominee for U.S. Senate from Wyoming. He is running to unseat Republican Senator John Barr\u2026
p249
aVRT @WeTakeASeat: @JennyWilsonUT is the Democratic nominee for U.S. Senate from Utah. She is running to replace outgoing Republican Senator\u2026
p250
aVRT @WeTakeASeat: @BetoORourke is the Democratic nominee for U.S. Senate from Texas. He is running to unseat Republican Senator Ted Cruz! \u000aF\u2026
p251
aVRT @WeTakeASeat: @PhilBredesen is the Democratic nominee for U.S. Senate from Tennessee. He is running to replace outgoing Republican Senat\u2026
p252
aVRT @WeTakeASeat: @RosenforNevada is the Democratic nominee for U.S. Senate from Nevada. She is running to unseat Republican Senator Dean He\u2026
p253
aVRT @WeTakeASeat: @JaneRaybould is the Democratic nominee for U.S. Senate from Nebraska! She's running to unseat Republican Senator Deb Fisc\u2026
p254
aVRT @WeTakeASeat: @espyforsenate is the Democratic nominee for U.S. Senate from Mississippi special election! He's running to unseat Republi\u2026
p255
aVRT @WeTakeASeat: @dbaria is the Democratic nominee for U.S. Senate from Mississippi! He is running to unseat Republican Senator Roger Wicke\u2026
p256
aVRT @WeTakeASeat: @kyrstensinema is the Democratic nominee for U.S. Senate from Arizona. She is running to replace outgoing Republican Senat\u2026
p257
aV50 Days/50 States countdown continues - 40 days to go brings us to Hawaii! Visit the HI page on our website for vot\u2026 https://t.co/zvbsXwUUG1
p258
aVIt\u2019s Ladies Night at Take A Seat America! Let's all welcome @XochforCongress to the stage! Xochitl is running in th\u2026 https://t.co/mJNC1zV2L5
p259
aVIt\u2019s Ladies Night at Take A Seat America! Next up is @Deb4CongressNM! Deb is running in the #NM01! Get to know Deb!\u2026 https://t.co/3RKyaRJBjZ
p260
aVIt\u2019s Ladies Night at Take A Seat America! Let's all welcome @MikieSherrill! Mikie is running in the #NJ11 to replac\u2026 https://t.co/YKraTqufXD
p261
aVIt\u2019s Ladies Night at Take A Seat America! A big shout out to @SusieLeeNV! Susie is running in the #NV03! Get to kno\u2026 https://t.co/LbBbRulsMt
p262
aVIt\u2019s Ladies Night at Take A Seat America! Kara Eastman is in the house! @karaforcongress is running in the #NE02 to\u2026 https://t.co/NiZGYne8eN
p263
aVIt\u2019s Ladies Night at Take A Seat America! Shout out to @Clure4Congress! Jessica is running in the #NE01 to unseat R\u2026 https://t.co/ypANzd7QpA
p264
aVIt\u2019s Ladies Night at Take A Seat America! Have you met @WilliamsForMT?Kathleen is running in the #MTAL to unseat Re\u2026 https://t.co/Ls2GjMrapm
p265
aVIt\u2019s Ladies Night at Take A Seat America! Let's all welcome @ellis4missouri to the stage! Kathy is running in the\u2026 https://t.co/lDnNoSTmVD
p266
aVIt\u2019s Ladies Night at Take A Seat America! Next up is @ReneeHoagenson! Renee is running in the #MO04 to unseat Repub\u2026 https://t.co/9EYAYDM5Io
p267
aVIt\u2019s Ladies Night at Take A Seat America! Let us introduce you to @KatyforCongress! Katy is running in the #MO03 to\u2026 https://t.co/jSLRvMDbrX
p268
aVWelcome back to Ladies Night at Take A Seat America! Every Thursday night between now and Nov 6th we'll spotlight a\u2026 https://t.co/axKPnOXaow
p269
aV@TraunerforWY is the Democratic nominee for U.S. Senate from Wyoming. He is running to unseat Republican Senator Jo\u2026 https://t.co/e8XViOV7An
p270
aV@JennyWilsonUT is the Democratic nominee for U.S. Senate from Utah. She is running to replace outgoing Republican S\u2026 https://t.co/arxf0cEQDz
p271
aV@BetoORourke is the Democratic nominee for U.S. Senate from Texas. He is running to unseat Republican Senator Ted C\u2026 https://t.co/Rxn6qcQR0A
p272
aV@PhilBredesen is the Democratic nominee for U.S. Senate from Tennessee. He is running to replace outgoing Republica\u2026 https://t.co/Iv98eYHinG
p273
aV@RosenforNevada is the Democratic nominee for U.S. Senate from Nevada. She is running to unseat Republican Senator\u2026 https://t.co/FZp1TmDE0p
p274
aV@JaneRaybould is the Democratic nominee for U.S. Senate from Nebraska! She's running to unseat Republican Senator D\u2026 https://t.co/47cRatB24K
p275
aV@espyforsenate is the Democratic nominee for U.S. Senate from Mississippi special election! He's running to unseat\u2026 https://t.co/ZAe7GYw5RA
p276
aV@dbaria is the Democratic nominee for U.S. Senate from Mississippi! He is running to unseat Republican Senator Roge\u2026 https://t.co/va4YFj8Wdw
p277
aV@kyrstensinema is the Democratic nominee for U.S. Senate from Arizona. She is running to replace outgoing Republica\u2026 https://t.co/etTtt2tlO6
p278
aVThere are 9 Republican held Senate seats up for election on November 6th! Follow, RT, Donate &amp; Vote! Vote for the i\u2026 https://t.co/RbYEOMDYWQ
p279
aVWe need to elect as many Democrats as possible in November! We need real American values in the halls of Government\u2026 https://t.co/p5ZI7ybmBM
p280
aV50 Days/50 States - Georgia! Here\u2019s your line of Democratic candidates running to #FliptheHouse blue.\u2026 https://t.co/L24WisRR8t
p281
aV50 Days/50 States - Florida! More great Democratic candidates running to #FliptheHouse blue. \u000aRT, Follow,VOTE Nov 6\u2026 https://t.co/A5Ga9e7dgt
p282
aV50 Days/50 States - Florida! Here's the lineup of Democratic candidates in FL running to #FliptheHouse!\u000a\u000aRT, Follow\u2026 https://t.co/lb6qnBvCJb
p283
aV50 Days/50 States countdown to election day continues! \u000a42 days to go - Florida you\u2019re up! Visit the FL page on our\u2026 https://t.co/if4NwL8P03
p284
aVHey Wisconsin!  This one's for you!  Thanks @tammybaldwin &amp; @CoryBooker! \u000a\u000aAnd be sure to get out there and vote fo\u2026 https://t.co/eKExGxIHzC
p285
aVYour vote is your voice! America needs to hear it on November 6th!  \u000aMake sure you are registered! Click on The Map\u2026 https://t.co/c7lFP2RtXz
p286
aV50 Days/50 States countdown - Shout out to the state of Delaware!  Visit the Delaware page on our website for voter\u2026 https://t.co/aYXsIYDr34
p287
aVWe are very saddened to hear the news that April Freeman, Democratic candidate for #FL17, passed away suddenly last\u2026 https://t.co/1iAw2pmV2x
p288
aV50 Days/50 States countdown continues - 44 days to go bringing us to Connecticut! Visit the CT page on our website\u2026 https://t.co/dPB3eDp03q
p289
aVRise and shine! The spotlight is on our Democratic Rising Sons at Take A Seat America! Have you met @davidjtrone? D\u2026 https://t.co/1xsyCHRwV6
p290
aVRise and shine! The spotlight is on our Democratic Rising Sons at Take A Seat America! @Colvin4Congress is in the h\u2026 https://t.co/2Lpy0ph01s
p291
aVRise and shine! The spotlight is on our Democratic Rising Sons at Take A Seat America! Shout out to\u2026 https://t.co/fjqbmYpbz1
p292
aVRise and shine! The spotlight is on our Democratic Rising Sons at Take A Seat America! Next up is @VoteJessee! Jess\u2026 https://t.co/jUUpYI2zTF
p293
aVRise and shine! The spotlight is on our Democratic Rising Sons at Take A Seat America! Shout out to @ryantrundleCD4\u2026 https://t.co/wSePkslrgF
p294
aVRise and shine! The spotlight is on our Democratic Rising Sons at Take A Seat America! Let us introduce you to\u2026 https://t.co/QKxqz96pcH
p295
aVRise and shine! The spotlight is on our Democratic Rising Sons at Take A Seat America! @hank4ky is in the house! Ha\u2026 https://t.co/lDHT8uEK87
p296
aVRise and shine! The spotlight is on our Democratic Rising Sons at Take A Seat America! Shout out to @votepaulwalker\u2026 https://t.co/YjUDZAtitV
p297
aVRise and shine! The spotlight is on our Democratic Rising Sons at Take A Seat America! Have you met @pauldavisks? P\u2026 https://t.co/FVyG9kSGms
p298
aVRise and shine! Today the spotlight is on our Democratic Rising Sons at Take A Seat America! Next up is\u2026 https://t.co/aL6jBelxy3
p299
aVRise and shine! The spotlight is on our Democratic Rising Sons at Take A Seat America! Welcome @Scholten4Iowa! J.D.\u2026 https://t.co/HGC6JLXwkS
p300
aVRise and shine! It\u2019s Son Day! We're highlighting our Democratic Rising Sons here at Take A Seat America! Sunday mor\u2026 https://t.co/wQjvExV7s3
p301
aV50 Days/50 States countdown continues! Welcome Colorado!  \u000ahttps://t.co/HfKUTLEzQp\u000a\u000aRT, Follow, Support, Vote for t\u2026 https://t.co/XTSwnvIkyk
p302
aV50 Days/50 States - California! More great Democratic candidates running to #FliptheHouse blue. RT, Follow, and VOT\u2026 https://t.co/7bTLGKPLqy
p303
aV50 Days/50 States - California! Here's your lineup of Democratic candidates in CA running to #FliptheHouse blue!\u000a\u000aR\u2026 https://t.co/MVkkcZbyUZ
p304
aV50 Days/50 States countdown to election day continues! California is in the spotlight! Visit the California state p\u2026 https://t.co/1l1gVsDoAu
p305
aVAngry today? Remember action is the antidote to despair! We must flip as many GOP seats as possible in November! AL\u2026 https://t.co/Ai2JyzZ0BZ
p306
aV50 Days/50 States continues! Calling the great state of Arkansas!  \u000ahttps://t.co/sa3qIbrpBa\u000aRT, Follow, Support, an\u2026 https://t.co/5ZOeHW8Jwr
p307
aVIt\u2019s Ladies Night at Take A Seat America! Let us introduce you to @IlhanMN! Ilhan is running for Congress in the\u2026 https://t.co/oErf7SKKyT
p308
aVIt\u2019s Ladies Night at Take A Seat America! A big shout out to @AngieCraigMN! Angie is running in the #MN02 to unseat\u2026 https://t.co/8ZDC2ruCCp
p309
aVIt\u2019s Ladies Night at Take A Seat America! @RashidaTlaib is in the house! Rashida is running for Congress in the\u2026 https://t.co/v65T6GWHh4
p310
aVIt\u2019s Ladies Night at Take A Seat America! Shout out to @HaleyLive! Haley is running in the #MI11 to replace Republi\u2026 https://t.co/va520Wr2YA
p311
aVIt\u2019s Ladies Night at Take A Seat America! Have you met @electbizon2018? Kimberly is running for the #MI10 to help r\u2026 https://t.co/VVLUFEhO2t
p312
aVIt\u2019s Ladies Night at Take A Seat America! Next up is @ElissaSlotkin! Elissa is running in the #MI08 to unseat Repub\u2026 https://t.co/eXBPYzRnrC
p313
aVIt\u2019s Ladies Night at Take A Seat America! Let's all welcome @gdriskell! Gretchen is running in the #MI07 to unseat\u2026 https://t.co/d9yJba55e0
p314
aVIt\u2019s Ladies Night at Take A Seat America! A big shout out to @cathyalbro! Cathy is running in the #MI03 to unseat R\u2026 https://t.co/CEaV0sQ0ES
p315
aVIt\u2019s Ladies Night at Take A Seat America! Lori Trahan is in the house! @LoriUSCongress is running in the #MA03! Fol\u2026 https://t.co/CP0eh2z4Hk
p316
aVIt\u2019s Ladies Night at Take A Seat America! Shout out to @AmyMcGrathKY! Amy is running in the #KY06 to unseat Republi\u2026 https://t.co/yKlQiXTO9E
p317
aVIt\u2019s Ladies Night at Take A Seat America! Have you met @sharicedavids? Sharice is running in the #KS03 to help reti\u2026 https://t.co/67lmbOpMIt
p318
aVIt\u2019s Ladies Night at Take A Seat America! Next up is @Axne4Congress!  Cindy is running in the #IA03 to unseat Repub\u2026 https://t.co/0gcdZcmju8
p319
aVIt\u2019s Ladies Night at Take A Seat America! Let's all welcome @Abby4Iowa to the stage! Abby is running in the #IA01 t\u2026 https://t.co/yIj6PNn5fD
p320
aVWhat day is it? It\u2019s Ladies Night at Take A Seat America! Every Thursday night between now and Nov 6th we'll spotli\u2026 https://t.co/4FK7na59wu
p321
aVWatch this!  \U0001f447\U0001f447\U0001f447\U0001f447\u000a\u000aThen be sure to RT, Follow, Support &amp; VOTE for @deanbphillips to help him Take A Seat in the\u2026 https://t.co/TUV0TYFTs7
p322
aV50 Days/50 States - Next up: Arizona! https://t.co/GHZJxv9uZi \u000aHere's your line up of Dem challengers in AZ!\u000aRT, Su\u2026 https://t.co/IiGwb1pi43
p323
aVThis.   \U0001f447\U0001f447\U0001f447\u000a\u000aWe need @LucyWins2018's voice in Congress!  \u000a\u000aGet involved with her campaign, and help her Take A Seat\u2026 https://t.co/2f4F0cnbeU
p324
aVTo all who are observing Yom Kippur, we wish you an easy and meaningful fast. G'mar Chatimah Tovah.
p325
aV50 Days/50 States - the countdown to election day continues! Alaska you're up! Visit the Alaska page on our website\u2026 https://t.co/VMYoS48rR3
p326
aVHere's your line up of Democratic challengers running for Congress in Alabama! Follow, RT, Vote! Help them Take A S\u2026 https://t.co/JqFaxWwDz1
p327
aV50 Days till election day! Kicking off 50 Days/50 States with the state of Alabama! \u000a\u000aFollow, RT, support, &amp; VOTE f\u2026 https://t.co/L8j710Fjij
p328
aVRise and shine! The spotlight is on our Democratic Rising Sons at Take A Seat America! Shout out to @Tanoos2018! Wi\u2026 https://t.co/yoL31cevTy
p329
aVRise and shine! The spotlight is on our Democratic Rising Sons at Take A Seat America! Let us introduce you to\u2026 https://t.co/UYBdYsLXF9
p330
aVRise and shine! The spotlight is on our Democratic Rising Sons at Take A Seat America! @18thIL is in the house! Jun\u2026 https://t.co/m4e0z0G4BI
p331
aVRise and shine! The spotlight is on our Democratic Rising Sons at Take A Seat America! Have you met @Gaither4IL? Ke\u2026 https://t.co/yjCATylzMI
p332
aVRise and shine! The spotlight is on our Democratic Rising Sons at Take A Seat America! Let us introduce you to\u2026 https://t.co/mutclPDLzr
p333
aVRise and shine! The spotlight is on our Democratic Rising Sons at Take A Seat America! Next up is @VoteCasten! Sean\u2026 https://t.co/Oj4KNZwWCh
p334
aVRise and shine! The spotlight is on our Democratic Rising Sons at Take A Seat America! A big shout out to\u2026 https://t.co/s5uTh8zXTz
p335
aVRise and shine! The spotlight is on our Democratic Rising Sons at Take A Seat America! Let us introduce you to\u2026 https://t.co/B5BvaSTJzv
p336
aVRise and shine! The spotlight is on our Democratic Rising Sons at Take A Seat America! @EdCaseHawaii is in the hous\u2026 https://t.co/fo1x7XsqWv
p337
aVRise and shine! The spotlight is on our Democratic Rising Sons at Take A Seat America! Shout out to @francysjohnson\u2026 https://t.co/MzaDMYctU2
p338
aVRise and shine! The spotlight is on our Democratic Rising Sons at Take A Seat America! Have you met @flynnbroadyjr?\u2026 https://t.co/yuLZZYNypn
p339
aVRise and shine! Today the spotlight is on our Democratic Rising Sons at Take A Seat America! Next up is\u2026 https://t.co/JxepE5i2j5
p340
aVRise and shine! The spotlight is on our Democratic Rising Sons at Take A Seat America! Introducing Chuck Enderlin!\u2026 https://t.co/1zhDRqw3mp
p341
aVRise and shine! It\u2019s Son Day! We're highlighting our Democratic Rising Sons here at Take A Seat America! Sunday mor\u2026 https://t.co/WWYzh9Pacy
p342
aVIt\u2019s Ladies Night at Take A Seat America! Let us introduce you to @LizForIndiana! Liz is running in the #IN09 to un\u2026 https://t.co/dpjRz3BIPb
p343
aVIt\u2019s Ladies Night at Take A Seat America! A big shout out to @JeannineLeeLake! Jeannine is running in the #IN06 to\u2026 https://t.co/bYlJkUMOVE
p344
aVIt\u2019s Ladies Night at Take A Seat America! Dee Thornton is in the house! @VoteThornton is running in the #IN05 to un\u2026 https://t.co/6NfAGQlY9z
p345
aVIt\u2019s Ladies Night at Take A Seat America! Shout out to @BeckForIndiana! Tobi is running in the #IN04 to replace Rep\u2026 https://t.co/elSEohjxSk
p346
aVIt\u2019s Ladies Night at Take A Seat America! Have you met @CourtneyTritch? Courtney is running for the #IN03 to help r\u2026 https://t.co/8gbGtdoA5e
p347
aVIt\u2019s Ladies Night at Take A Seat America! Next up is Sara Dady! @Sara4Congress is running in the #IL16 to unseat Re\u2026 https://t.co/wW37t58y8z
p348
aVIt\u2019s Ladies Night at Take A Seat America! Let's all welcome @LUnderwood630! Lauren is running in the #IL14 to unsea\u2026 https://t.co/ox6lwUYO05
p349
aVIt\u2019s Ladies Night at Take A Seat America! A big shout out to @BetsyforIL ! Betsy is running in the #IL13 to unseat\u2026 https://t.co/oTLrcVcFQh
p350
aVIt\u2019s Ladies Night at Take A Seat America! Cristina McNeil is in the house! @ForMcneil is running in the #ID01 to re\u2026 https://t.co/QbWAs1ooXb
p351
aVIt\u2019s Ladies Night at Take A Seat America! Shout out to @TJG4GA! Tabitha is running in the #GA10 to unseat Republica\u2026 https://t.co/SfNffz0ZG1
p352
aVIt\u2019s Ladies Night at Take A Seat America! Have you met Carolyn Bourdeaux? @Carolyn4GA7 is running for the #GA07 to\u2026 https://t.co/IEgtHdatFC
p353
aVIt\u2019s Ladies Night at Take A Seat America! Next up is Lucy McBath! @LucyWins2018 is running in the #GA06 to unseat R\u2026 https://t.co/OfTjCB2eBA
p354
aVIt\u2019s Ladies Night at Take A Seat America! Let us introduce you to @LisaRingGA01! Lisa is running in the #GA01 to un\u2026 https://t.co/kS3PHA0moS
p355
aVWelcome back to Ladies Night at Take A Seat America! Every Thursday night between now and Nov 6th we'll spotlight a\u2026 https://t.co/PRc8rM0vEh
p356
aVCongratulations to @ChrisPappasNH, newly elected Democratic nominee in the #NH01, and to all of the other candidate\u2026 https://t.co/2adb4vrMp8
p357
aVWe pause to remember those who were lost on #September11th, and the incredible acts of bravery &amp; heroism by our fir\u2026 https://t.co/rRkJWDWJnY
p358
aVSo if what I wrote, speaks to you, and you believe what we believe: Then help us! Donate, RT, Follow. Help us, so w\u2026 https://t.co/asjeR6U7cf
p359
aVI believe we can be building coalitions, building our bench, and building momentum for the future, and building it\u2026 https://t.co/mswrR4l1DD
p360
aVAnd I know there are people out there, who believe what we believe. And I need to find our people. People who are a\u2026 https://t.co/20JK0jwgFh
p361
aVAnd people will vote for the candidate who they believe will make their lives better.     \u000aSo, I'm going to stop tr\u2026 https://t.co/4TMFHLBycJ
p362
aVI bet that the voters in the #IA04 don\u2019t care much about Cook Political Report\u2019s analysis of their district. They c\u2026 https://t.co/Cgv09X8c5c
p363
aVWe need to stop picking winners and losers before the race has even begun.  If you want a different outcome, change\u2026 https://t.co/InBp2Lk4Sx
p364
aVBut I know I\u2019m not alone! I know there are people who agree with me. I just need to find them!\u000a\u000aWe need to change t\u2026 https://t.co/rbROwjf85b
p365
aVIt\u2019s not exactly a walk in the park running for Congress. And if someone is brave enough to step up and run, then d\u2026 https://t.co/qr9EC6PSqW
p366
aVWell you know who doesn\u2019t think they\u2019re un-winnable?  @Scholten4Iowa, @Mariah4Congress , @Janet4OH. They didn\u2019t jus\u2026 https://t.co/iNoBV2a1P8
p367
aVHe listened to them. And he gave them a choice. \u000a\u000aYou think Roy Moore was a flawed candidate? Have you met Steve Ki\u2026 https://t.co/2ubHTRX5W8
p368
aVTo which she replied \u201cwell that was just because of Roy Moore.\u201d Seriously?  That\u2019s a load of crap! Was Roy Moore a\u2026 https://t.co/aHP5MZ2Aee
p369
aVToday, I spoke to a fundraising consultant, to try get help for TASA. It\u2019s what triggered this rant! I reminded her\u2026 https://t.co/FI2SLIt9Og
p370
aV\u201cWell, those aren\u2019t winnable districts.\u201d Really? You have a crystal ball, and can pick the winning ones? Well why d\u2026 https://t.co/TolxeeUmhp
p371
aVBut when actually given the opportunity to support something different it became - \u201cI don\u2019t know. We can\u2019t give mon\u2026 https://t.co/9cxT03doQr
p372
aVIf it was, Meg Whitman would have been elected Governor of California. \u000aI thought for sure, if I could to talk "pol\u2026 https://t.co/G4vgptIINy
p373
aVThere are other ways to support candidates beyond just giving them $. They need funds, but also visibility! The mor\u2026 https://t.co/NQkiFxAtVi
p374
aVI can\u2019t guarantee you they will all win, they all won\u2019t. But I will guarantee: you miss 100% of the shots you don\u2019t\u2026 https://t.co/TvaLPfVf0F
p375
aVAnd I understand the logic of putting resources where you feel you have the best odds. But when you look beyond the\u2026 https://t.co/HEXdO6osP0
p376
aVBut that doesn\u2019t mean that "targeting" is the only strategy we should be using. I mean, yes a blind squirrel finds\u2026 https://t.co/qZQ1j2iBAV
p377
aVI have nothing against, CPR, but I just don\u2019t think they should be determining where people should &amp; shouldn\u2019t run.\u2026 https://t.co/yxWrQfTq0Y
p378
aVI have been wasting my time trying get support from people who are stuck in the old paradigm of pulling out spreads\u2026 https://t.co/YueLLTGOf9
p379
aVAnd we commit to giving visibility to ALL Dem challengers running for Congress, across the country. Go to our websi\u2026 https://t.co/IHuX8ymQ7l
p380
aVIt was the winning strategy under @GovHowardDean. And if you want to expand your impact, then expand the damned pla\u2026 https://t.co/CgsG0a3LsB
p381
aVI felt, and had been hearing over and over, Dems need to do something differently. I believe we need to change the\u2026 https://t.co/LePkxjQEDq
p382
aVThis is Alica Gallagher, founder, writing. I have to get this off my chest!  For the past year, I committed myself\u2026 https://t.co/kH0R3yP8Td
p383
aVWishing all those celebrating #RoshHashanah a sweet, happy, and healthy new year. L'Shanah Tovah!
p384
aVRise and shine! The spotlight is on our Democratic Rising Sons at Take A Seat America! @holden2018 is in the house!\u2026 https://t.co/lkEo3XpmFA
p385
aVRise and shine! The spotlight is on our Democratic Rising Sons at Take A Seat America! Shout out to @Shapiro4FL16!\u2026 https://t.co/UWwfeibL97
p386
aVRise and shine! The spotlight is on our Democratic Rising Sons at Take A Seat America! Next up is @ChrisHunterFL! C\u2026 https://t.co/dyD5nmWHXe
p387
aVRise and shine! The spotlight is on our Democratic Rising Sons at Take A Seat America! Shout out to\u2026 https://t.co/JOZJMfuV30
p388
aVRise and shine! The spotlight is on our Democratic Rising Sons at Take A Seat America! Let us introduce you to\u2026 https://t.co/KgKpkEjvU2
p389
aVRise and shine! The spotlight is on our Democratic Rising Sons at Take A Seat America! @bobrackleff is in the house\u2026 https://t.co/aVUDVhl1La
p390
aVRise and shine! The spotlight is on our Democratic Rising Sons at Take A Seat America! Shout out to @JasonCrowCO6!\u2026 https://t.co/L5jt3jSI63
p391
aVRise and shine the spotlight is on our Democratic Rising Sons at Take A Seat America! Have you met @JoeNeguse? Joe\u2026 https://t.co/H7ZFUK4iSH
p392
aVRise and shine! Today the spotlight is on our Democratic Rising Sons at Take A Seat America! Next up is\u2026 https://t.co/tdg6vPtc6p
p393
aVRise and shine! The spotlight is on our Democratic Rising Sons at Take A Seat America! Introducing @brill4congress!\u2026 https://t.co/RU3f5lfU35
p394
aVRise and shine! It\u2019s Son Day! We're highlighting our Democratic Rising Sons here at Take A Seat America! Sunday mor\u2026 https://t.co/IW7KOXmijQ
p395
aVThis. \U0001f447 \u000a\u000aThank you @BarackObama!  \u000a\u000aRT if you are committed to voting on November 6th!  #VoteDem  #IWillVote https://t.co/qLwg1FipH4
p396
aVRT @WeTakeASeat: What day is it? It\u2019s Ladies Night at Take A Seat America! We have a new group of amazing Democratic women running for Cong\u2026
p397
aVRT @WeTakeASeat: It\u2019s Ladies Night at Take A Seat America! A big shout out to @JahanaHayesCT! Jahana is running in the #CT05!  Follow, RT &amp;\u2026
p398
aVRT @WeTakeASeat: It\u2019s Ladies Night at Take A Seat America! Stephany Rose Spaulding is in the house! @StephanyforCO is running in the #CO05\u2026
p399
aVRT @WeTakeASeat: It\u2019s Ladies Night at Take A Seat America! Have you met Diane Mitsch Bush? @RepDMB is running for the #CO03 to help retire\u2026
p400
aVRT @WeTakeASeat: It\u2019s Ladies Night at Take A Seat America! Shout out to @McCormickforCO! Karen is running in the #CO04 to unseat Republican\u2026
p401
aVRT @WeTakeASeat: It\u2019s Ladies Night at Take A Seat America! Next up is Hiral Tipirneni! @hiral4congress is running in the #AZ08 to unseat Re\u2026
p402
aVRT @WeTakeASeat: It\u2019s Ladies Night at Take A Seat America! Let us introduce you to @joangreeneaz! Joan is running in the #AZ05 to unseat Re\u2026
p403
aVRT @WeTakeASeat: It\u2019s Ladies Night at Take A Seat America! @Ann_Kirkpatrick is in the spotlight! Ann is running in the #AZ02 to turn this r\u2026
p404
aVRT @WeTakeASeat: It\u2019s Ladies Night at Take A Seat America! Jessica Morse is in the spotlight! @Morse4America is running in the #CA04 to uns\u2026
p405
aVRT @WeTakeASeat: It\u2019s Ladies Night at Take A Seat America! Let us introduce you to Audrey Denney! @audrey4congress is running in the #CA01\u2026
p406
aVRT @WeTakeASeat: It\u2019s Ladies Night at Take A Seat America!  Shout out to @HaydenShamel! Hayden is running in the #AR04 to unseat Republican\u2026
p407
aVRT @WeTakeASeat: It\u2019s Ladies Night at Take A Seat America! Have you met @AlyseGalvin? Alyse is running for Alaska's At-Large seat to help r\u2026
p408
aVRT @WeTakeASeat: It\u2019s Ladies Night at Take A Seat America! Next up is Mallory Hagan! @HaganforHouse is running in the #AL03 to unseat Repub\u2026
p409
aVRT @WeTakeASeat: It\u2019s Ladies Night at Take A Seat America! Let us introduce you to Tabitha Isner! @TabithaK is running in the #AL02 to unse\u2026
p410
aVIt\u2019s Ladies Night at Take A Seat America! A big shout out to Democratic nominee @AnitaMalik! Anita is running in th\u2026 https://t.co/GIJOk8LU29
p411
aVIt\u2019s Ladies Night at Take A Seat America! Shout out to @DonnaShalala! Donna is running in the #FL27 to replace Repu\u2026 https://t.co/HjGOqvAR4D
p412
aVIt\u2019s Ladies Night at Take A Seat America! Have you met Debbie Mucarsel-Powell? @DebbieforFL is running for the\u2026 https://t.co/Vs5myDx1OO
p413
aVIt\u2019s Ladies Night at Take A Seat America! Next up is Mary Barzee Flores! @MBFforCongress is running in the #FL25 to\u2026 https://t.co/2yA0zE6wAf
p414
aVIt\u2019s Ladies Night at Take A Seat America! Let us introduce you to @laurenbaer! Lauren is running in the #FL18 to un\u2026 https://t.co/2uzglkBX2Q
p415
aVIt\u2019s Ladies Night at Take A Seat America! A big shout out to April Freeman! @April4Congress is running in the #FL17\u2026 https://t.co/LyDCvvBRKh
p416
aVIt\u2019s Ladies Night at Take A Seat America! Kristen Carlson is in the house! @KristenForFL is running in the #FL15 to\u2026 https://t.co/OMqZB2T8yc
p417
aVIt\u2019s Ladies Night at Take A Seat America! Shout out to @DanaforCongress! Dana is running in the #FL11 to unseat Rep\u2026 https://t.co/fToyVmqf1N
p418
aVIt\u2019s Ladies Night at Take A Seat America! Have you met @nancysoderberg? Nancy is running for the #FL06 to replace R\u2026 https://t.co/OVsF6axdFE
p419
aVIt\u2019s Ladies Night at Take A Seat America! Next up is @YvonneHinsonFL! Yvonne is running in the #FL03 to unseat Repu\u2026 https://t.co/ckqS8RV5Rz
p420
aVIt\u2019s Ladies Night at Take A Seat America! Let us introduce you to @DrZ4Congress ! Jennifer is running in the #FL01\u2026 https://t.co/3n0pp7eaJ8
p421
aVWhat day is it? It\u2019s Ladies Night at Take A Seat America! We have a new group of amazing Democratic women running f\u2026 https://t.co/sUSCvTjAks
p422
aVToday's op-ed in the NYT should be a wake up call to all Americans. But GOP leadership has done nothing to put a ch\u2026 https://t.co/YQnZoZ0G50
p423
aVToday, we're reminded elections have consequences. The upcoming midterms may be the most important election of our\u2026 https://t.co/7SdKTmKgkN
p424
aVThis #LaborDay remember so many things we take for granted, came from the labor movement. Here are just a few: \u000a- 4\u2026 https://t.co/f3uuMbNKvp
p425
aVRise and Shine!  Today we're highlighting our Democratic Rising Sons here Take A Seat America! Every Sunday morning\u2026 https://t.co/F2ehadM27N
p426
aVRise and shine! The spotlight is on our Democratic Rising Sons at Take A Seat America! Shout out to\u2026 https://t.co/b28LSAipgx
p427
aVRise and shine! The spotlight is on our Democratic Rising Sons at Take A Seat America! Shout out to @ACampaNajjar!\u2026 https://t.co/9geq8WB9ok
p428
aVRise and shine! The spotlight is on our Democratic Rising Sons at Take A Seat America! Next up is @MikeLevinCA! Mik\u2026 https://t.co/jjmqfDhkpc
p429
aVRise and shine! The spotlight is on our Democratic Rising Sons at Take A Seat America! Have you met @HarleyRouda? H\u2026 https://t.co/QzvViZLGon
p430
aVRise and shine! The spotlight is on our Democratic Rising Sons at Take A Seat America! Shout out to @GilCisnerosCA!\u2026 https://t.co/Sxtl0HL4Iz
p431
aVRise and shine! The spotlight is on our Democratic Rising Sons at Take A Seat America! Andrew Janz is in the house!\u2026 https://t.co/fhgykIA3jy
p432
aVRise and shine! The spotlight is on our Democratic Rising Sons at Take A Seat America! Have you met @TJCoxCongress?\u2026 https://t.co/1lhI6LzQfE
p433
aVRise and shine! The spotlight is on our Democratic Rising Sons at Take A Seat America! Next up is @joshua_harder! J\u2026 https://t.co/XbctrZgp3U
p434
aVRise and shine! The spotlight is on our Democratic Rising Sons at Take A Seat America! Shout out to @joshuamahony!\u2026 https://t.co/oF9umz72sr
p435
aVRise and shine! The spotlight is on our Democratic Rising Sons at Take A Seat America! Let us introduce you to\u2026 https://t.co/vZTiSpn99e
p436
aVRise and shine! The spotlight is on our Democratic Rising Sons at Take A Seat America! Chintan Desai is in the hous\u2026 https://t.co/iKjsTy77LC
p437
aVRise and shine! The spotlight is on our Democratic Rising Sons at Take A Seat America! Have you met @peter_joffrion\u2026 https://t.co/xFVxxIG6Wi
p438
aVRise and shine! The spotlight is on our Democratic Rising Sons at Take A Seat America! Next up is @LeeAuman2018! Le\u2026 https://t.co/N1QKmP3y1E
p439
aVRise and shine! The spotlight is on our Democratic Rising Sons at Take A Seat America! Introducing @kennedy4alabama\u2026 https://t.co/CVMK0mGb08
p440
aVRise and shine! Today we're highlighting our Democratic Rising Sons here Take A Seat America! Every Sunday morning\u2026 https://t.co/7OYS0Qrqll
p441
aVSee you next Thursday night for next week's line-up of women leaders, all from the great state of Florida!  Get a s\u2026 https://t.co/So2QUo04Kg
p442
aVRT @WeTakeASeat: It\u2019s Ladies Night at Take A Seat America! Katie Hill is in the house! @KatieHill4CA is running in the #CA25 to unseat Repu\u2026
p443
aVRT @WeTakeASeat: It\u2019s Ladies Night at Take A Seat America! Next up is Katie Porter! @katieporteroc is running in the #CA45 to unseat Republ\u2026
p444
aVRT @WeTakeASeat: It\u2019s Ladies Night at Take A Seat America!  A big shout out to Julia Peacock! @peacock4ca42 is running in the #CA42 to unse\u2026
p445
aVRT @WeTakeASeat: It\u2019s Ladies Night at Take A Seat America! Have you met Tatiana Matta? @Matta4Congress is running in the #CA23 to help reti\u2026
p446
aVIt\u2019s Ladies Night at Take A Seat America! A big shout out to @JahanaHayesCT! Jahana is running in the #CT05!  Follo\u2026 https://t.co/jqTYfNnMt1
p447
aVIt\u2019s Ladies Night at Take A Seat America! Stephany Rose Spaulding is in the house! @StephanyforCO is running in the\u2026 https://t.co/BGaOQgTH0r
p448
aVIt\u2019s Ladies Night at Take A Seat America! Have you met Diane Mitsch Bush? @RepDMB is running for the #CO03 to help\u2026 https://t.co/4FtZWTq8UD
p449
aVIt\u2019s Ladies Night at Take A Seat America! Shout out to @McCormickforCO! Karen is running in the #CO04 to unseat Rep\u2026 https://t.co/tBEWIi7faA
p450
aVIt\u2019s Ladies Night at Take A Seat America! Next up is Hiral Tipirneni! @hiral4congress is running in the #AZ08 to un\u2026 https://t.co/dCMtMgQzSO
p451
aVIt\u2019s Ladies Night at Take A Seat America! Let us introduce you to @joangreeneaz! Joan is running in the #AZ05 to un\u2026 https://t.co/l5odFp5Fsp
p452
aVIt\u2019s Ladies Night at Take A Seat America! @Ann_Kirkpatrick is in the spotlight! Ann is running in the #AZ02 to turn\u2026 https://t.co/3Am0sRht96
p453
aVWelcome back to Ladies Night at Take A Seat America! Every Thursday night between now and Nov 6th we'll spotlight a\u2026 https://t.co/9WhNSjrOQw
p454
aVCongratulations to newly elected Democratic nominee @DonnaShalala in the #FL27! Donna is running to replace outgoin\u2026 https://t.co/Tn9QkbN12V
p455
aVCongratulations Democratic nominee @DebbieforFL!  She's looking to unseat Republican Rep Carlos Curbelo in November\u2026 https://t.co/YZfWfqzXIv
p456
aVHave you heard about Democratic nominee Mary Barzee Flores? @MBFforCongress is running in #FL25, and looking to uns\u2026 https://t.co/iYYD5OiwBo
p457
aVCongratulations to @holden2018, newly elected Democratic nominee in the #FL19.  David is looking to unseat Republic\u2026 https://t.co/FILzmS3ipX
p458
aVCongratulations to Democratic nominee @laurenbaer!  Lauren is running in the #FL18, and is looking to Take A Seat f\u2026 https://t.co/fXzLz9hkGr
p459
aVCongratulations to newly elected Democratic nominee April Freeman!   @April4Congress is looking to turn the #FL17 b\u2026 https://t.co/t2VgIpCSLa
p460
aVCongratulations @Shapiro4FL16!  David is the Democratic nominee in the #FL16, running to unseat Republican Rep Vern\u2026 https://t.co/UYpBgOZo8q
p461
aVCongratulations @KristenForFL, Democratic nominee in the #FL15.  Get to know Kristen, get involved with her campaig\u2026 https://t.co/JvV7ILSNzk
p462
aVCongratulations to Democratic nominee @ChrisHunterFL!  Chris is running to unseat Republican Rep Gus Bilirakis in t\u2026 https://t.co/WhBfOHoGCg
p463
aVHave you met the great Democratic candidate in the #FL11, Dana Cottrell?  @DanaforCongress is looking to Take A Sea\u2026 https://t.co/Kk1cir2Pph
p464
aVGet to know Democratic nominee Sanjay Patel, running in the #FL08.  Follow @votesanjaypatel, get involved with his\u2026 https://t.co/Va6cCMSJZH
p465
aVCongratulations to newly elected Democratic nominee @nancysoderberg! Nancy is running to replace outgoing Rep Ron D\u2026 https://t.co/31upeM2MrX
p466
aVHave you met @vote4ges, the Democratic nominee running in the #FL04?  He's running to unseat Republican Rep John Ru\u2026 https://t.co/BtaA8G8n7O
p467
aVCongratulations @YvonneHinsonFL!  Yvonne is the Democratic nominee in the #FL03.  She's looking to unseat Rep Ted Y\u2026 https://t.co/m2IrEje1QK
p468
aVCongratulations to newly elected Democratic nominee @bobrackleff!  Bob's running in the #FL02 to unseat Republican\u2026 https://t.co/3C8Qh0mucd
p469
aVCongratulations to Dr. Jennifer Zimmerman, Democratic nominee in the #FL01.  @DrZ4Congress is running to unseat Rep\u2026 https://t.co/D0qBKZjj1N
p470
aVCongratulations to all of the candidates who competed in today's #FloridaPrimaries! What an impressive line-up of D\u2026 https://t.co/g9Czou9WP9
p471
aVIt's Primary Day in Florida and Arizona!  Woo hoo!  And it's run-off day in Oklahoma!  Get to the polls people!  Do\u2026 https://t.co/hRCFJRYkur
p472
aVRest in peace @SenJohnMcCain, a true American patriot. May his lifetime of service and genuine love of country be a\u2026 https://t.co/7xgYSauY8u
p473
aVRT @BarackObama: Our statement on the passing of Senator John McCain: https://t.co/3GBjNYxoj5
p474
aVContinue to watch this space for more Dem candidates info between now and November 6th! And we didn't forget about\u2026 https://t.co/tVpMt4bd0Y
p475
aVWant some more inspiration! Check out this article from @marcywriter over at @DemWritePress to read more about the\u2026 https://t.co/h4z0ACPjXl
p476
aVIt\u2019s Ladies Night at Take A Seat America! Next up is Katie Porter! @katieporteroc is running in the #CA45 to unseat\u2026 https://t.co/jeiiX03igP
p477
aVIt\u2019s Ladies Night at Take A Seat America!  A big shout out to Julia Peacock! @peacock4ca42 is running in the #CA42\u2026 https://t.co/afGtAn8YNR
p478
aVIt\u2019s Ladies Night at Take A Seat America! Katie Hill is in the house! @KatieHill4CA is running in the #CA25 to unse\u2026 https://t.co/cj1EYidZvd
p479
aVIt\u2019s Ladies Night at Take A Seat America! Have you met Tatiana Matta? @Matta4Congress is running in the #CA23 to he\u2026 https://t.co/7F1ReKmV0n
p480
aVIt\u2019s Ladies Night at Take A Seat America! Jessica Morse is in the spotlight! @Morse4America is running in the #CA04\u2026 https://t.co/EC1vMMaaSq
p481
aVIt\u2019s Ladies Night at Take A Seat America! Let us introduce you to Audrey Denney! @audrey4congress is running in the\u2026 https://t.co/Am9ZBvYzxG
p482
aVIt\u2019s Ladies Night at Take A Seat America!  Shout out to @HaydenShamel! Hayden is running in the #AR04 to unseat Rep\u2026 https://t.co/nkWaQCzakf
p483
aVIt\u2019s Ladies Night at Take A Seat America! Have you met @AlyseGalvin? Alyse is running for Alaska's At-Large seat to\u2026 https://t.co/Bb6xqAAe2s
p484
aVIt\u2019s Ladies Night at Take A Seat America! Next up is Mallory Hagan! @HaganforHouse is running in the #AL03 to unsea\u2026 https://t.co/ArRYvWd7vQ
p485
aVIt\u2019s Ladies Night at Take A Seat America! Let us introduce you to Tabitha Isner! @TabithaK is running in the #AL02\u2026 https://t.co/tqDMOeT9ac
p486
aVThursday is Ladies Night at Take A Seat America! So many amazing Democratic women are running for Congress across t\u2026 https://t.co/ZkGSDwcNbB
p487
aV@jonfavs We agree! There are Democratic candidates running against almost every one of them. Go to our website to d\u2026 https://t.co/9QaA04ohtD
p488
aVGet to know @TraunerforWY, Democratic nominee for US Senate in the great state of Wyoming.  Gary is running to unse\u2026 https://t.co/kqOwYnxMq8
p489
aVCongratulations to Greg Hunter, Democratic nominee for Wyoming At-Large House race. Greg is looking to unseat Repub\u2026 https://t.co/hvkZRi3drr
p490
aVAnother unethical GOP member of Congress indicted today!  The good people of the #CA50 deserve better!  Support\u2026 https://t.co/DO8zcDr0DE
p491
aV#TruthIsTruth https://t.co/Ekk5As3lfB
p492
aVThis.  \U0001f447\u000a\u000a#TakeASeatNY02 https://t.co/Gss3ieWHjL
p493
aVCongratulations to Democratic nominee Margaret Engebretson in the #WI07 !  Margaret will be facing off Republican R\u2026 https://t.co/SlMzdPPeFB
p494
aVCongratulations to Democratic nominee @joeradinovich!  Joe is running in the #MN08 and needs everyone's help to kee\u2026 https://t.co/ElkqWXEVtR
p495
aVCongratulations to newly elected Democratic nominee @danielfeehan in the #MN01!!  Get involved with Dan's campaign\u2026 https://t.co/uHKtIF42mF
p496
aVCongratulations @beauforcongress for running as the Democratic nominee in the #WI08.  Beau's looking to unseat Repu\u2026 https://t.co/zseDhVVE3h
p497
aVHave you heard about @DanKohlWI?  Dan's the great Democratic nominee in the #WI06, running to unseat Republican Rep\u2026 https://t.co/v7PceckH3o
p498
aVFollow @tomforwi and get to know Democratic nominee Tom Palzewicz. Tom's running to unseat Republican Rep Jim Sense\u2026 https://t.co/4SLixxC0Go
p499
aVCongratulations to @IronStache, Democratic nominee in #WI01.  Randy is running to replace outgoing Speaker Paul Rya\u2026 https://t.co/oS76HJkU7X
p500
aVHave you met @IanToddforMN? Ian is the Democratic nominee running in the #MN06 and is running to unseat Republican\u2026 https://t.co/hdDQrPBw7q
p501
aVCongratulations Democratic nominee @IlhanMN!  She is running in the #MN05 this November.  Get to know her!\u2026 https://t.co/7o9cVzwmEO
p502
aVCongratulations to @deanbphillips, newly elected Democratic nominee in the #MN03.  Dean is running to unseat Republ\u2026 https://t.co/PEuqHChwhs
p503
aVHave you discovered @AngieCraigMN? Angie's our Democratic nominee in the #MN02, running to unseat Republican Rep Ja\u2026 https://t.co/p8woLMMq30
p504
aVCongratulations to Democratic nominee @JahanaHayesCT in the #CT05.  Get to know Jahana, and help send this great te\u2026 https://t.co/2WTAAy9kbG
p505
aVAnother great day for democracy.  Connecticut, Minnesota, Wisconsin, Vermont it's your day to vote!  Get to the pol\u2026 https://t.co/41u1cVvYc4
p506
aVClearly Reps Devin Nunes and Cathy McMorris-Rodgers have forgotten their oath of office. The good people of #CA22 &amp;\u2026 https://t.co/fhl47PSgFu
p507
aVCongratulations to @sharicedavids, newly elected Democratic nominee in the #KS03! Sharice is running to unseat Repu\u2026 https://t.co/0SpaCwv1nI
p508
aVCongratulations to Democratic nominee Kimberly Bizon in the #MI10, running to unseat Republican Rep Paul Mitchell.\u2026 https://t.co/aBL6kYJJho
p509
aVCongratulations to @ElectLong newly elected Democratic nominee in the #WA03! Carolyn is running to unseat Republica\u2026 https://t.co/f12IGv6DMl
p510
aVCongratulations to @ReneeHoagenson , Democratic nominee in the #MO04.  Renee is running to unseat Republican Rep Vi\u2026 https://t.co/sTkasyc5jW
p511
aVCongratulations to newly elected Democratic nominee @Schoolcraft4Mo ! Jamie is running in the #MO07 to unseat Repub\u2026 https://t.co/qdtF4FiUn3
p512
aVCongratulations to Henry Martin our Democratic nominee in the #MO06!  Henry running to unseat Republican Rep Sam Gr\u2026 https://t.co/pxTVbEJQaG
p513
aVGet to know Kathy Ellis, our Democratic nominee in the #MO08 running to unseat Republican Rep Jason Smith.  Follow\u2026 https://t.co/8M2UKcNO2v
p514
aVGet to know Democratic nominee @KatyforCongress in the #MO03.  Kayy is running to unseat Republican Rep Blaine Luet\u2026 https://t.co/TM7v7mZf9S
p515
aVCongratulations to newly elected Democratic nominee Cort VanOstran in the #MO02!  @Cortvo is running to unseat Repu\u2026 https://t.co/lhkJKXAYMk
p516
aVHave you met @lisa4congress?  Lisa Brown is our Democratic nominee in the #WA05 running to unseat Republican Rep Ca\u2026 https://t.co/BNrX4P4iOW
p517
aVHave you discovered @ChristineForWA?  She\u2019s our Democratic nominee in the #WA04 running to unseat Republican Rep Da\u2026 https://t.co/LKOq6NkOZt
p518
aVGet to know @VoteRobDavidson the Democratic nominee in the #MI02 running to unseat Republican Rep Bill Huizenga.\u2026 https://t.co/EiQsDZqQYg
p519
aVCongratulations to Democratic nominee @ElissaSlotkin!  She\u2019s running in the #MI08 to unseat Republican Rep Mike Bis\u2026 https://t.co/o0Iz5aSMNz
p520
aVHave you met @PaulDavisKS? Paul is the Democratic nominee in the #KS02 and he's running to replace outgoing Republi\u2026 https://t.co/mlBoldC3nI
p521
aVGet to know  @LapoliceAlan, the Democratic nominee in the #KS01!  Alan is running to unseat Republican Rep Roger Ma\u2026 https://t.co/HUDW8OMdF3
p522
aVCongratulations to @JamesThompsonKS the Democratic nominee in the #KS04!  James is running to unseat Republican Rep\u2026 https://t.co/LqkPw27xae
p523
aVCongratulations to @gdriskell our newly elected Democratic nominee in the #MI07!  Gretchen is running to unseat Rep\u2026 https://t.co/1LPvlQelY6
p524
aVHey Kansas, Michigan, Missouri &amp; Washington voters.  It's primary day!  Get to the polls and make your voices heard\u2026 https://t.co/beQKmFDY6J
p525
aVToday's the day #OH12!  Get to the polls and cast your vote for @dannyoconnor1!  It's time to #FlipThe12th!  You can do it!!!
p526
aVFDR's wise words still hold true today. Of course it won't stop the President and GOP leaders from continuing to tr\u2026 https://t.co/3aZDU2Y4da
p527
aV@brianschatz Want to see all of them? Go to our website and click around The Map. ALL post-primary Democratic chall\u2026 https://t.co/OYbBeyx1Vi
p528
aV"Don't boo, vote!" - @BarackObama  \u000a\u000aHappy birthday!  We miss you.  \u000a\u000a#ObamaDay
p529
aVCongratulations to @Kanew our new Democratic nominee in the #TN07! Justin is running to replace outgoing Republican\u2026 https://t.co/BnQvWn6dvR
p530
aVCongratulations to @Barlow4Congress our Democratic nominee in the #TN06! She is running to replace outgoing Republi\u2026 https://t.co/7ge16EL1h8
p531
aVCongratulations to @Mariah4Congress  our Democratic nominee in the #TN04!  Mariah is running to unseat Republican R\u2026 https://t.co/xXxDlsTpEZ
p532
aVGet to know Dr. Danielle Mitchell @DMMD4TNCongress our Democratic nominee in the #TN03.  She is running to unseat R\u2026 https://t.co/9Qztdxdni3
p533
aVCongratulations to Renee Hoyos @Hoyos4Congress our Democratic nominee in the #TN02!  Renee is running to replace ou\u2026 https://t.co/k0pqFef1j5
p534
aVGet to know Dr. Marty Olsen @martyo4congress, our Democratic nominee in the #TN01!  He's running to unseat Republic\u2026 https://t.co/XxTrfaoQUd
p535
aVCongratulations @PhilBredesen! Our Democratic nominee for U.S. Senate from Tennessee.  Phil is running to replace o\u2026 https://t.co/MM9Mv04s7K
p536
aVHey Tennessee, you're up!  It's your day!  Get to the polls and make your voices heard.  \u000a#IWillVote #VotingMatters https://t.co/bhNAEWc9Q1
p537
aVHey Tennessee voters: Tomorrow is a big day for you.  It's Primary Election Day! Don't you just love voting?  It's\u2026 https://t.co/ebJtP35kww
p538
aVJust one week to go before the special election on Aug 7th in the #OH12 and to elect @dannyoconnor1 to Congress! Ge\u2026 https://t.co/y5tid0XkX4
p539
aVhttps://t.co/5QA5FymOWN
p540
aVRT @BetoORourke: Just launched our first ad. Entitled "Showing Up," it's filmed using an iPhone and was created entirely with live stream f\u2026
p541
aV#NC11- Phillip Price @Price4WNC -Running to replace unethical Rep Mark Meadows, who is trying to impeach Rod Rosens\u2026 https://t.co/BbB3DpxfuE
p542
aV#OH04 - Janet Garret - @Janet4OH - Running to replace unethical Rep Jim Jordan, who is trying to impeach Rod Rosens\u2026 https://t.co/08rWjKlgtf
p543
aVToday, Jim Jordan &amp; Mark Meadows moved to impeach Rod Rosenstein along with 9 other GOP members of Congress. They a\u2026 https://t.co/okpjdrcj0E
p544
aVRT @GlendaleGal1: I see your \u201cOh Hell No\u201d and raise you a \u201cthrow the bums out\u201d!! https://t.co/rslHAcDvHp
p545
aVToday, GOP lawmakers introduced articles of impeachment against Rod Rosenstein!   Unacceptable!\u000a\u000a#VoteThemOut\u2026 https://t.co/LlE3ayHfQn
p546
aV@DemWrite @GovHowardDean @urbannavajo @ShireenGhorbani @Lee4USCongress @TwoBroadsTalk We agree!
p547
aV#NY21 - Tedra Cobb @TedraCobb  - Running to replace Rep Elise Stefanik, who voted to block the motion in House Inte\u2026 https://t.co/nvCup2nSVH
p548
aV#AR01 - Chintan Desai - @DecideonDesai - Running to replace Rep Rick Crawford, who voted to block the motion in Hou\u2026 https://t.co/nrnb2Njxiw
p549
aV#UT02 - Shireen Ghorbani @ShireenGhorbani -Running to replace Rep Chris Stewart, who voted to block the motion in H\u2026 https://t.co/H6M8Sv6jSb
p550
aV#OH02 - Jill Schiller @Vote4Schiller - Running to replace Rep Brad Wenstrup, who voted to block the motion in House\u2026 https://t.co/Z4F7Ovfzr6
p551
aV#OH10 - Theresa Gasper @GasperforOH10  - Running to replace Rep Mike Turner, who voted to block the motion in House\u2026 https://t.co/rlID7EssJP
p552
aV#NJ02 - Jeff Van Drew @VanDrewForNJ  - Running to replace Rep Frank LoBiondo, who voted to block the motion in Hous\u2026 https://t.co/jWm9tz2c6B
p553
aV#NY02 - Liuba Grechen Shirley @liuba4congress -Running to replace Rep Peter King, who voted to block the motion in\u2026 https://t.co/bRrQn43dtz
p554
aV#TX11 - Jennie Lou Leeder @JennieLouLeeder -Running to replace Rep Mike Conoway, who voted to block the motion in H\u2026 https://t.co/5i3GLiFnWi
p555
aV#CA22 - Andrew Janz @JanzforCongress \u2013 Running to replace Rep Devin Nunez, who voted to block the motion in House I\u2026 https://t.co/yS39ldGcU3
p556
aVDemocratic challengers are running for the seats of House Intel Committee members who voted to block the motion. Wh\u2026 https://t.co/Tqj2XywV4P
p557
aVToday, Republicans on the House Intel Committee blocked a motion to subpoena the U.S. interpreter from the Trump-Pu\u2026 https://t.co/c75W2BsH9t
p558
aVWell, it would funny, if it wasn't so terrifying. https://t.co/WhXvqlloZv
p559
aVAlabama to Wyoming, Alaska to Maine - Democratic candidates stepped up to challenge GOP seats. Discover ALL post-pr\u2026 https://t.co/gxTqOsYnqQ
p560
aVWe must elect as many Democrats as possible up and down the ballot, and restore checks &amp; balances! \u000aThis is not abo\u2026 https://t.co/msKr7RXmLf
p561
aVThere is only one path to putting a check on this out of control President, and that's electing as many Democratic\u2026 https://t.co/x3zB9pddPa
p562
aVReps Meadows and Jordan have forgotten their oath of office! The good people of #OH04 &amp; #NC11 deserve better! Deser\u2026 https://t.co/GO14QRjUNx
p563
aVWe are focusing on elevating ALL post-primary Democratic Challengers running for Congress all across the country! S\u2026 https://t.co/SRXNwfWPI6
p564
aVWe are focused on elevating ALL post-primary Democratic Challengers running for Republican-held or Open seats in Congress in all 50 states!
p565
aVWant some inspiration! Check out the new https://t.co/iGNKEzD9Cy website!! Discover the faces of ALL Democratic pri\u2026 https://t.co/VG71FBAQdI
p566
aVHey Ohio! Today's the last day to register for the special election on 8/7 in the #OH12 to vote for @dannyoconnor1!\u2026 https://t.co/a2Y6Xf95Uz
p567
aVHappy birthday America.  Wishing you all a safe and happy 4th of July! https://t.co/VzKPEvRFda
p568
aVCongratulations to @calebfrostman for his win in the special election in SD1 for the Wisconsin Senate!  Another red\u2026 https://t.co/zkh5POQIgG
p569
aVBREAKING:  Results are in from Missouri SD17 special election.  Congrats to the newly elected state senator from Mi\u2026 https://t.co/nhi6W61tSj
p570
aVAlabama, California, Iowa, Mississippi, Montana, New Jersey, New Mexico and South Dakota ... it's #PrimaryElection\u2026 https://t.co/BnI4qvJipc
p571
aVToday is #NationalGunViolenceAwarenessDay and we #WearOrange to give a voice to the 96 Americans who die and the hu\u2026 https://t.co/OKb3Kyp2BW
p572
aVToday we honor and remember those brave men and women who made the ultimate sacrifice in service to our country.  W\u2026 https://t.co/RgaQ1kq6wE
p573
aVIt's Election Day in Arkansas, Georgia, Kentucky, and Texas!  Be sure to get out there today and vote!
p574
aVPrimaries today in Indiana, North Carolina, Ohio &amp; West Virginia! Great candidates running up and down the ballot.\u2026 https://t.co/uDfi6oiBsH
p575
aV@ChrisMurphyCT That is a great idea Senator, thanks.  Then it's on to November! https://t.co/flW8wtxTL4
p576
aVThe #BlueWave is happening!  And Democrats continue to step up and run for office all across the country. Every sea\u2026 https://t.co/4gmpTPZtQf
p577
aVThis is why we have said from the beginning that Democrats must challenge EVERY GOP seat! Because we believe every\u2026 https://t.co/6t01pk9yi0
p578
aVWay to go Colorado.  \u000a#EverySeatEveryState https://t.co/qLq7OaDT51
p579
aVTodays the day #AZ08 voters. Get to the polls and vote for @hiral4congress and win this thing!  Every vote count, make your voices heard.
p580
aV\U0001f447\U0001f447\U0001f447 https://t.co/0nSrD1P84i
p581
aVCheck out our new video! Please donate today as we build out our website so we can help elect Democratic challenger\u2026 https://t.co/udJjWj1nfJ
p582
aVExciting news from the #AZ08!! Just another example why we believe Dems need to challenge every GOP seat ... becaus\u2026 https://t.co/i504OrQLB4
p583
aVWe are saddened to hear about the passing of former first lady Barbara Bush.  May she rest in peace.  Our sincere c\u2026 https://t.co/Fgp8duDZzZ
p584
aVThe GOP dropped $600K into the #AZ08 because they know what we know - Every seat is winnable when great people like\u2026 https://t.co/4uFh6rXohg
p585
aVWay to go Tennessee!  The word is out and @tndp knows what we know:  Every seat is winnable.\u2026 https://t.co/0WZauJ45wp
p586
aV\u201cDarkness cannot drive out darkness; only light can do that. Hate cannot drive out hate, only love can do that.\u201d -\u2026 https://t.co/WqJ3CKVE5N
p587
aVWishing a very happy Easter to everyone who is celebrating today. Peace.
p588
aVWishing a happy Passover to all who are celebrating this weekend. Chag Sameach!
p589
aVWe joined millions across the nation to #marchforourlives. In November, we'll march to the polls.\u000a#Enough\u2026 https://t.co/qQeTrtMh7Q
p590
aVATTN NW Phoenix #AZ08 voters! Today's the last day to register for the upcoming Special Election!! Be sure you're r\u2026 https://t.co/RtXT5d1qzT
p591
aVWe were honored to join the #marchforourlives in Burbank, CA. https://t.co/ZbRHM8dxrF
p592
aVDear Parkland Students: Thank you. \u000a\u000a#MarchForOurLives #NeverAgain #Enough https://t.co/3wjqPO13Hw
p593
aVToday we joined millions across the nation and marched, to honor the memory of those who couldn't.\u2026 https://t.co/DduDTZH00D
p594
aVIn solidarity, with the kids. Today we march.\u000a#MarchForOurLives #NeverAgain #Enough https://t.co/SWTZni3VnR
p595
aVRT @ibhaber: Find the people doing voter registration at your March and register to vote.  Remember if you are going to be 18 by NOV 6 YOU\u2026
p596
aVRT @ibhaber: Makes sure you get a copy of voter registration application or take a picture on your phone.  Hold till you get your card. #Ma\u2026
p597
aVRT @march_ct: Yes it is. #OneDay #MarchForOurLives #MarchForOurLivesCT https://t.co/a77bLEqLjj
p598
aV"Teach them well and let them lead the way ..."\u000a#Enough #MarchForOurLives #NeverAgain https://t.co/zhzmOVN77s
p599
aVSaturday 3/24, we'll join @AMarch4OurLives, in November, we'll vote.\u000a#MarchForOurLives #NeverAgain #Enough https://t.co/YxllWAbfIG
p600
aVThis.  \U0001f447\U0001f447\U0001f3fd\U0001f447\U0001f3ff\u000a\u000a#MarchForOurLives #NeverAgain #Enough https://t.co/9DJ7PW0Z8e
p601
aVNW Phoenix:#AZ08 Special Election voter reg deadline Mon 3/26 to vote @hiral4congress. Be sure you're registered!\u2026 https://t.co/MbGNQqt36T
p602
aVCongratulations to Democrat @ConorLambPA, the new US Representative for the people of #PA18.  Another reminder that\u2026 https://t.co/gTGoFxbNar
p603
aVStudents across the nation are making their voices heard and taking the lead in demanding common sense gun laws. Th\u2026 https://t.co/atutz5mfVw
p604
aVRT @ConorLambPA: Every vote counts. Polls are open until 8 PM. Make a plan, get to the polls &amp; VOTE CONOR LAMB TODAY! #PA18 #GOTV https://t\u2026
p605
aVThis! \u000a\u000aThis. Is. Huge!  \U0001f447\U0001f447\U0001f447\u000a\u000a#TakeASeat  #EverySeatEveryState  #BlueWave2018 https://t.co/miqrEOnukz
p606
aVRT @ConorLambPA: We'll be out knocking doors on Saturday &amp; Sunday all over #PA18 for our first #GOTV Weekend of Action. \u000a\u000aJoin us: https://\u2026
p607
aV@AdamSchiffCA We couldn't agree more! Dems must challenge every GOP seat and start believing that every seat is a w\u2026 https://t.co/r6KuXn7ecS
p608
aVCongratulations to @hiral4congress for her win in the Democratic primary for the #AZ08.  Two strong Dem candidates\u2026 https://t.co/qqpiPaNDJt
p609
aVBREAKING: Second red seat turned blue of the night! Congratulations to Democrat @PhilYoungCT for winning his seat i\u2026 https://t.co/qC04Udnyda
p610
aVBREAKING: Another red seat turned blue!  Congratulations to Democrat @PhilSpagnuoloNH for winning his seat in the N\u2026 https://t.co/HtRSCJMxS7
p611
aVCongratulations to @RepLindaBelcher for winning her seat in the Kentucky House District 49, in today's special elec\u2026 https://t.co/gCn2XnanGp
p612
aVCongratulations to @GoodforFlorida for winning her seat in the Florida House District 72, in today's special electi\u2026 https://t.co/jk2SV5zWjO
p613
aVDEADLINE: Pennsylvania voters in #PA18, today is the last day to register to vote in the special election on March\u2026 https://t.co/2fFFuZcyWQ
p614
aVLove this! https://t.co/0VvPZ23eLF
p615
aVYou can bet @ConorLambPA knows that EVERY seat is a winnable seat, when he's out there knocking on doors and talkin\u2026 https://t.co/hl4mU44KlV
p616
aVThis!   \u000a\u000aDemocrats should be competing for every seat, in EVERY state.   \u000a\u000aCongratulations Ohio!   \u000a\u000a#TakeASeat\u2026 https://t.co/ChQrbFSJVL
p617
aV@neeratanden We say EVERY GOP seat should be a targeted seat. Dem candidates are stepping up across the country and\u2026 https://t.co/9Noz7zy09c
p618
aVCongratulations to Democrat Mike Revis for winning his seat in the Missouri House of Representatives, District 97 i\u2026 https://t.co/oB55I2PpP6
p619
aVRT @letamericavote: It's the last day to register to vote in the Texas primary elections. Get registered TODAY \U0001f447\U0001f447\U0001f447 https://t.co/HYZS1326OF
p620
aV@neeratanden Bravo! We agree. We're new &amp; website under construction. We will give critical visibility to Dems chal\u2026 https://t.co/a213dHtckN
p621
aV"Politicians can be cheered for the promises they make. Our country will be judged by the promises we keep. THAT is\u2026 https://t.co/yfQrPdzdJK
p622
aV@RepJoeKennedy And it was an honor to watch it.  Thank you @RepJoeKennedy.
p623
aVThank you @RepJoeKennedy, we are keeping the faith and will always remain hopeful. https://t.co/uyDjjOQppA
p624
aVRT @RepJoeKennedy: \u201cHere is the answer Democrats offer tonight: we choose both. We fight for both. Because the greatest, strongest, richest\u2026
p625
aVMay we always remember these words and keep them close to heart after this evening:\u000a\u000a"The only thing we have to fea\u2026 https://t.co/71JkZabiKz
p626
aVLet's help @ConorLambPA Take A Seat in Congress in the Pennsylvania 18th congressional district on March 13th.  Sup\u2026 https://t.co/sbxObhZUwH
p627
aVProtecting citizens' rights to vote, the most fundamental tenet of democracy, should be the sacred duty of any elec\u2026 https://t.co/0R3pBikB1Q
p628
aVWe agree. State elections have huge consequences. Dems need to fight for every seat, in every state, in every elect\u2026 https://t.co/zDwFC49701
p629
aVThis is good news for Pennsylvania voters and for Democracy.   State elections are incredibly important to protect\u2026 https://t.co/eHytQGxvf3
p630
aVWay to go Los Angeles.  \u000a\u000a#LAWOMENSMARCH #WomensMarch2018 https://t.co/0bSBysY0EH
p631
aVCongratulations to Democrat Patty Schachtner for winning her seat in the Wisconsin state senate, representing distr\u2026 https://t.co/nQUXC8E7TZ
p632
aV"Darkness cannot drive out darkness; only light can do that. Hate cannot drive out hate; only love can do that." -\u2026 https://t.co/vopKSD6PNW
p633
aV\u201cWe have always held to the hope, the belief, the conviction that there is a better life, a better world, beyond th\u2026 https://t.co/1e2gkwP50Z
p634
aVToday the GOP congress showed us the truth of who they represent, and it is not American voters. We must challenge\u2026 https://t.co/i9JjbXGkvi
p635
aVWe at Take A Seat agree @HillaryClinton!   \u000a\u000aEvery seat.  Every state.  Let's make our case!\u2026 https://t.co/GIL0GO6WWs
p636
aV\u201cI have always believed that the people of Alabama have more in common than divides us. We have shown the country t\u2026 https://t.co/Z5LOAfOJ2r
p637
aVRT @GDouglasJones: \u201cAt the end of the day this entire race has been about dignity and respect. This campaign has about the rule of law. \u000aTh\u2026
p638
aVCALL TO ACTION!   #StopCCR https://t.co/Yvr9xEyBj3
p639
aVThis is incredibly important!  Make your voices heard!  Call your representatives today to stop this dangerous legi\u2026 https://t.co/8blD52kjSv
p640
aV"But we can only do it together, not divided, and with a measure of civility that has been absent from our politica\u2026 https://t.co/2g05YznuD9
p641
aVRT @KamalaHarris: I know I\u2019ve been asking you to make a lot of calls lately, but I wouldn\u2019t be asking if it wasn\u2019t important. Tell the FCC\u2026
p642
aV@Richard_Schiff \u201cThe only sure bulwark of continuing liberty is a government strong enough to protect the interests\u2026 https://t.co/zEb0z3C9Qi
p643
aVRT @GDouglasJones: \u201cOur campaign is going straight to the people of Alabama, that\u2019s who our voters are.\u201d\u000a-Doug Jones speaking at US Steel M\u2026
p644
aV@mikefarb1 "Let us never forget that government is ourselves and not an alien power over us. The ultimate rulers of\u2026 https://t.co/tRMWZDSNFQ
p645
aVThis.\U0001f447 https://t.co/dflDdRz0Xc
p646
aV@GovHowardDean @TheTakeaway https://t.co/eHPL8TJMpb
p647
aV@Alyssa_Milano @WhitfordBradley He is up for reelection in 2018.  Utah families deserve better.  \u000a\u000a#TakeASeat\u2026 https://t.co/K3N5By7okc
p648
aVDecember 1, 2017 - Republicans voted against American families\u000aNovember 6, 2018 - Americans will vote them out\u2026 https://t.co/tJmZXLb8CM
p649
aVDec 1, 2017 - Republicans voted against Americans\u000aNov 6, 2018 - Americans will vote them out\u000a\u000a#VoteThemOut\u2026 https://t.co/yByRMPyGRE
p650
aV@alicagal08 @Richard_Schiff Thanks for the shout out!  We are just getting off the ground so we greatly appreciate\u2026 https://t.co/13fBrVUAzk
p651
aV@HillaryClinton A very wise person once said:  \u201cFear is always with us but we just don't have time for it. Not now.\u2026 https://t.co/xGtr2A30qB
p652
aV@HillaryClinton "The only limit to our realization of tomorrow will be our doubts of today." - FDR\u000a\u000aDo not despair.\u2026 https://t.co/dD7YCWpMv8
p653
aV@RepJoeKennedy ""The only limit to our realization of tomorrow will be our doubts of today." - FDR\u000a\u000aDo not despair,\u2026 https://t.co/pTomxAl61i
p654
aV"The only limit to our realization of tomorrow will be our doubts of today." - FDR\u000a\u000aUnited, Dems must challenge eve\u2026 https://t.co/CoHVsJQhjn
p655
aV@Richard_Schiff @BeauWillimon @Lawrence @TheLastWord @maddow @SethAbramson @Alyssa_Milano @amjoyshow\u2026 https://t.co/lH4u5nYOTI
p656
aVThat's our plan! \u000a\u000aPromote challengers of EVERY GOP seat.  Speak from the heart about our Democratic values, Americ\u2026 https://t.co/0pGrXfK5mO
p657
aV@The_UnSilent_ \u201cWe must especially beware of that small group of selfish men who would clip the wings of the Americ\u2026 https://t.co/YkuQmU6EJn
p658
aV@Richard_Schiff We agree!  \u000a\u000a#TakeASeat  #BlueWave2018  #ChallengeEveryGOPSeat
p659
aV@GeorgeLakoff So true!  Understanding your work is critical, and our inspiration.
p660
aV"The only limit to our realization of tomorrow will be our doubts of today."  - Franklin D. Roosevelt\u000a\u000aDo not despa\u2026 https://t.co/00HTQfnRnd
p661
aV@AlamoTim @PattyMurray "We have always known that heedless self interest was bad morals, we now know that it is bad\u2026 https://t.co/rG2otLPsLU
p662
aV@PattyMurray "The test of our progress is not whether we add more to the abundance of those who have much; it is wh\u2026 https://t.co/C19Fzz4sj3
p663
aV@SenatorDurbin "The test of our progress is not whether we add more to the abundance of those who have much; it is\u2026 https://t.co/tmLyC0tg6M
p664
aV"The test of our progress is not whether we add more to the abundance of those who have much; it is whether we prov\u2026 https://t.co/UfPDoy7Gxk
p665
aV@RepSwalwell "The test of our progress is not whether we add more to the abundance of those who have much; it is wh\u2026 https://t.co/0N9DKG3UKV
p666
aV@SenatorHassan "The test of our progress is not whether we add more to the abundance of those who have much; it is\u2026 https://t.co/HvD3BI7SIT
p667
aV@Richard_Schiff @SenSherrodBrown "The test of our progress is not whether we add more to the abundance of those who\u2026 https://t.co/iOlSMAublE
p668
aV"Few will have the greatness to bend history, but each of us can work to change a small portion of the events, and\u2026 https://t.co/pyLKeMndNU
p669
aV@SenSchumer "The only limit to our realization of tomorrow will be our doubts of today. Let us move forward with st\u2026 https://t.co/DFdpRbqBGv
p670
aV@Amy_Siskind "People acting together as a group can accomplish things which no individual acting alone could ever h\u2026 https://t.co/sDFBPjqg2Q
p671
aVRT @WeTakeASeat: https://t.co/V8ChSDOTGX
p672
aV\u201cWe rejected fear. We rejected language that was designed to divide us. And we came together ... We embraced inclus\u2026 https://t.co/XT866PsX08
p673
aVCongratulations to Democrat Allison Ikely-Freeman for winning her seat in the Oklahoma state senate, District 37, i\u2026 https://t.co/o20ciXpzPZ
p674
aV"We need to start thinking about each other\u000aTalking to each other\u000aLearning the problems that people have \u000aSitting d\u2026 https://t.co/OpnJqBnbK0
p675
aVHello @GovHowardDean! Wanted to let you know that our new organization was inspired in no small part by you! And yo\u2026 https://t.co/BRPSkd6WKb
p676
aVhttps://t.co/V8ChSDOTGX
p677
a.