(lp0
VRT @GeorgeTakei: If you are turned away at the polls because your name is not on the register, don\u2019t walk away. Say this: I REQUEST A PROVI\u2026
p1
aVWe need progressive Congresspeople to represent us. Let's get feet on the ground to elect @SeanCasten in IL-06! https://t.co/0p97CZkdfo
p2
aVRT @RepSchneider: The students at Big Hollow Elementary School in Ingleside had some great questions. Thanks for inviting me to visit! @Big\u2026
p3
aVHappy #VoterRegistrationDay! Make sure you're registered to vote! https://t.co/SrUcOS8x8v
p4
aVRT @SenDuckworth: I'll be joining @allinwithchris around 8:40 pm ET/7:40 pm CT to discuss the legacy of Senator John McCain, a true America\u2026
p5
aVThe Representative that #IL10 deserves. https://t.co/yPQyNtsvU1
p6
aVRT @IndivisibleIL10: Heed this. Focus on 10 people in your network and make sure they are registered and then vote. #find10 https://t.co/CV\u2026
p7
aVAre you registered to vote? Do you know where? use this link to find out!:\u000a\u000ahttps://t.co/GpbJbNPI9B\u000a\u000aMake a plan to\u2026 https://t.co/9Mcjb1gXBh
p8
aVCalling a woman a dog and promoting sexism every day. This President must be held accountable. Vote blue this Novem\u2026 https://t.co/mSDxaLLJXh
p9
aV@SwingLeft_IL10 is in! https://t.co/x8DIUaycgV
p10
aVCurious about how political campaigns work? Want to gain a better understanding of the political process in general\u2026 https://t.co/oIrWLzjdKK
p11
aVAccountability. Integrity. Responsibility. Just some of the reasons we need to reelect @RepSchneider to the House t\u2026 https://t.co/B7fwLtPmvo
p12
aVIL-10 volunteers are ready to tackle the Midterms head on! @swingleft #BlueWave #MidtermElection https://t.co/sbt80lDRQE
p13
aVAn interesting tool to help target areas for voter outreach campaigns. Spatial analytics can provide a wealth of in\u2026 https://t.co/w3I8q7egqT
p14
aVJust to be clear, Trump (as part of his America first agenda) started a trade war that is crushing American farmers\u2026 https://t.co/bLcCEtnlVu
p15
aVThe environmental quality of the United States must be strengthened. This coming midterm, voters need to consider t\u2026 https://t.co/MJwLustcoD
p16
aV@RepSchneider introduced and helped pass legislation that protects small businesses from the negative impacts of Tr\u2026 https://t.co/lrNSIvZDWp
p17
aVIL-10 is fully on board. Together, we can flip the house #TheLastWeekend #SwingLeft #IL10 @RepSchneider https://t.co/EuNKXPYf9M
p18
aVRT @RepSchneider: This week legislation I introduced in 113th Congress to help start-up businesses access capital passed the House. Biparti\u2026
p19
aVRT @IndivisibleChi: DAILY ACTIONS for Wednesday July 18, 2018\u000ahttps://t.co/CUyVAP6d0R
p20
aVPresident Trump has abandoned his role as leader of the free world. We must elect moral and progressive candidates\u2026 https://t.co/KMZQh4ZwcC
p21
aVFor everyone in IL-10: we can't let the midterm slip away. Follow the links in the @swingleft tweet below to commit\u2026 https://t.co/DzVev1xbLc
p22
aVRT @SenatorDurbin: MORNING READ: Heart wrenching and inspiring story of a young refugee from Myanmar, living in Chicago and working hard to\u2026
p23
aVIL-10 is on board! https://t.co/0GBkH2BBCh
p24
aVRT @IndivisibleIL10: Not one Republican member of the Illinois Congressional delegation has endorsed Rep. Dan Lipinski (D-IL) over an actua\u2026
p25
aVAttacks on our voting rights: another reason to take back the House this fall. Reelect @Schneider4IL10 for the Illi\u2026 https://t.co/3gvNvT6AZC
p26
aVRT @SenDuckworth: I am proud to work alongside my friend @RepDanKildee to make drinking water safe for families in Illinois, #Flint &amp; the n\u2026
p27
aVRT @SenDuckworth: This morning, @RepSchneider, @janschakowsky &amp; my staff helped Illinoisans learn more about federal grants &amp; resources ava\u2026
p28
aVRT @RepSchneider: Statement on U.S. Withdraw from Iran Nuclear Deal - https://t.co/9uSzLNaZAR
p29
aVRT @RepSchneider: Our constituent service representatives will be throughout the district this week during Neighborhood Office Hours. If yo\u2026
p30
aVRT @swingleft: The 2020 census will have huge consequences for the House and beyond. Tell the GOP not to rig it:   https://t.co/gPSO3gf4Es\u2026
p31
aVRT @RepSchneider: At the joint @HouseNewDems - GOP Tuesday Group lunch to find ways to work across the aisle to make progress on protecting\u2026
p32
aVRT @swingleft: Our goal is to take back the House. We must flip 23 seats to do it. Join us: https://t.co/0ZTFSb70GY
p33
aVRT @RepSchneider: Testifying at House Appropriations Committee urging my colleagues to continue funding for AFG and SAFER grants for local\u2026
p34
aVInterested in registering new voters in IL-10? Sign up for a voter registration training in Gurnee on May 12th! Fol\u2026 https://t.co/HWepIL0gVg
p35
aVElect @RepSchneider in November to continue implementing common sense bipartisan legislation in Congress #SwingLeft\u2026 https://t.co/O1QFG3dCp4
p36
aVRT @RepSchneider: Thank you @girlscouts Troop 9111 for dropping off more than 40 boxes of cookies, as well as letters, for service members\u2026
p37
aVRT @swingleft: The Trump administration needs real oversight. We must take back the House to hold them accountable. https://t.co/eEMAY4EKvd
p38
aVRT @SwingLeft_IL10: Expanding housing opportunities is relevant to all IL-10 citizens. Vote for @RepSchneider to fight back against discrim\u2026
p39
aVRT @swingleft: We can win the popular vote by 7 and still lose the House. Take nothing for granted. The #bluewave doesn't win back the Hous\u2026
p40
aV@RepSchneider supports progressive environmental policy. Vote your conscience this November #SwingLeft #environment\u2026 https://t.co/jzZCRjbz1f
p41
aVPaul Ryan's district (WI-1) is just North of IL-10. Ryan's retirement announcement provides an opportunity to swing\u2026 https://t.co/sJjoJtBgTR
p42
aVExpanding housing opportunities is relevant to all IL-10 citizens. Vote for @RepSchneider to fight back against dis\u2026 https://t.co/DpMOKCmKo4
p43
aVDeerfield votes to ban assault weapons effective June 13th https://t.co/LX4hwfWmSs
p44
aVOn Saturday, April 14th, Congressman @RepSchneider will be hosting the E3 summit at the Chicago Botanic Gardens. Th\u2026 https://t.co/4dEieHcK0V
p45
aVRT @RepSchneider: This April, our Lincolnshire Office (111 Barclay Blvd, Suite 200) is a drop-off site for items to be sent in care package\u2026
p46
aVFirst tweet for @SwingLeft_IL10 #TakeBackTheHouse #SwingLeft
p47
a.