(lp0
VThanks Jenna! Proud to have become part of the #fightbackCT family!! https://t.co/FrTSQD5r60
p1
aVFellow organizers @Soph0531 and @SureayaB training some new volunteers at the Hartford office! Never too young for\u2026 https://t.co/2CeuI8b4QT
p2
aVExciting to see inspiring leaders @ChrisMurphyCT @MayorBronin and @NedLamont this morning in Hartford! This\u2026 https://t.co/kIb3Pm6gkd
p3
aVRT @Soph0531: Do I spot @NedLamont dropping by our Hartford Office. Great energy for the first day of GOTV, do you have a shift yet? If not\u2026
p4
aVJonathan Annicks https://t.co/SvG6H9eH8b
p5
aVWhen are we going to stop this? We all just want to be safe at school. #MarchForOurLives https://t.co/ramLSym2vP
p6
aVRT @NickMarroletti: Really proud moment to have @HillaryClinton talk to our amazing #FightBackCT organizers tonight. Everything I love abou\u2026
p7
aV#GOTV with @JoeBiden @ChrisMurphyCT @JahanaHayesCT @NedLamont and more. Let\u2019s return some decency to Washington! https://t.co/twZuvHn4gd
p8
a.