(lp0
V"Look, a steady arcade gig is nothing to sneeze at, I'm very lucky. It's just, I gotta say, it becomes kinda hard t\u2026 https://t.co/NvIkda10oB
p1
aV"If he was a regular contractor, carpenter guy, I guarantee you, you will not be able to fix the damage that I do a\u2026 https://t.co/e5HlOgotzS
p2
aV"Got a bit of a temper on me. My passion bubbles very near the surface, I guess, not gonna lie. Anyhoo, what else?\u2026 https://t.co/NQ81cKz0la
p3
aVI'm so into these Wreck-It-Ralph quotes right now. Am I Ralph? Am I Fix It Felix? Dude so deep
p4
aVWreck-It-Ralph might be my spirit animal. His "I'm a bad guy" speech? Oh man. Near and dear to my soul.
p5
aVRT @Jake41813998: Work harder if you're not satisfied with where you're at. Enough said. Don't complain about problems you've brought upon\u2026
p6
aVOh my goodness, Bubba Sparxxx has a country song. Yikes.
p7
aVI have previously mentioned that I wNt a robot that makes toast. Once again, here I am with a craving for toast and\u2026 https://t.co/AhAsvlaXcB
p8
aV@TweetSpectrio I'm going to need more of Christina Aguilera's Dirrty to play on my in store radio. Thx.
p9
aV\u201cThusly, I will go and get my rake!\u201d
p10
aV"We accept the love we think we deserve."
p11
aV"Man has strayed so far from the light."
p12
aV\u201cI\u2019m a happy woman...\u201d \u201cHere have a squash\u201d
p13
aVLol DO NOT get in a fight with my cousin at DP DOUGH. She will wreck you
p14
aV\u201cOoohhh the smell of college\u201d
p15
aVJust one big shoutout to everyone who made major strides in women's rights, women's suffrage, and women's progress\u2026 https://t.co/tmHZJfzg6R
p16
aVMovies with unhappy endings are somehow more fulfilling than ones that end all joyful and great.
p17
aV"BUST OUT THE OUIJA BOARD" But really summoning ghosts is a bad idea guys.
p18
aV"You're different now." Hmm... yes. And I don't think better. :(
p19
aVUGH NOBODY UNDERSTANDS ME EXCEPT FOR DEAD PHILOSOPHERS
p20
aVRT @lizzo: HAVE U EVER SEEN A BITCH PLAY FLUTE THEN HIT THE SHOOT? https://t.co/aVy3E6kIVF
p21
aVQ: "What song is an absolute banger from start to finish?" A: "Rasputin - Boney M"
p22
aV6lack is fire
p23
aVRT @aduItprobs: "wyd after work" \u000asleeping for work tomorrow
p24
aVIt's absolutely fucking amazing what being happy and hopeful will do for you omg
p25
aV"But it was all right, everything was all right, the struggle was finished. He had won the victory over himself. He loved Big Brother\u201d
p26
aV"Et tu brute" I swear, the drama of literature was lost on me in high school. It's so much better now.
p27
aVIt\u2019s better just not to participate.
p28
aVYer mom is fine literature
p29
aVAlso the bubbles in bubble tea are ew
p30
aVDo human beings have free will, or are we just the victims of circumstance in which we do what we do because we are\u2026 https://t.co/sgHgmABaPs
p31
aVSo I went running but I didn't quite get the results I desired. Agh
p32
aV"There are no facts, only interpretations"
p33
aV"cast roses into the abyss and speak: "Here [are] my thanks to the beast*, for the fact that it did not know how to devour me!"
p34
aVI should like go make waffles or something.
p35
aV"David wanted it to be the only soft and comforting thing that we saw in the entire piece. He wanted it to be somet\u2026 https://t.co/ugDYQuDOFS
p36
aVOh the humanity. A box full of teddy bears! Ugh. Black mirror
p37
aVDoublethink means the power of holding two contradictory beliefs in one's mind simultaneously, and accepting both o\u2026 https://t.co/TZR5Vccugx
p38
aVNo duh https://t.co/14r84AmaTW
p39
aV\u201cWell yeah the police do eat doughnuts sometimes. But so do other people. Not just police.\u201d
p40
aV"Ride with the mob\u000aAlhamdulallah\u000aCheck in with me, and do ya job"
p41
aVGot the family spotify log in information. It's only a matter of time before I flood the "Recently Played" with my\u2026 https://t.co/InB1cyMzm5
p42
aV"A hot-tempered man must pay the penalty; if you rescue him, you will have to do it again." Proverbs 19:19 NIV
p43
aVI like black mirror because there are no winners. Good intentions always go wrong, bad guys win, and it\u2019s slightly vile. Perfect.
p44
aVWith all of the bad things going on in the world, it's actually pretty heartening to see all of the heroes out ther\u2026 https://t.co/brC8mWN4JA
p45
aVIs anyone else out there smugly satisfied that PC's are outperforming laptops in sales once again? Long live the mighty computer
p46
aVI ordered my very own political sign for my front yard! Can\u2019t wait until it arrives, and I put it up, and my entire family is like \u201cwtf\u201d
p47
aV"Right, there are two types of people in this world, the type like you and I who see a foul as against the rules an\u2026 https://t.co/L9Z2cyRIVX
p48
aV"well, well, well, if it isn't the consequences of my own actions"
p49
aVWow I went to Navy Pier and spent $110 on souveniers like I don't already live here or something. Oh well. I now ow\u2026 https://t.co/VWrIDBgacN
p50
aVWe are on day 4 of October - usually a month I like very much; but holy cow can I not wait until November this year.
p51
aVRT @hels: BRINEY SPEAR https://t.co/9vxBRercXl
p52
aVWhen you've just accepted that you're trash, but there's a whole world of wholesome trash memes out there to make you feel better. &lt;3
p53
aVSo you ever just have a realistic goal that you keep putting off because it\u2019ll disrupt your other smaller goals? Stupid stupid stupid
p54
aVWhere do you sign up for this? Can you ask him? I would like to sign up plz https://t.co/dyL00DgMjd
p55
aVCurrent mood: Dolly Parton music and DMX
p56
aVOh my god. Mean Girls day (October 3rd) falls on a Wednesday this year. You know what that means! \u201cOn Wednesday\u2019s w\u2026 https://t.co/OGRNPAXVv0
p57
aVThere's a debate about the quality of service at a KFC happening on 3 different local community facebook groups. Po\u2026 https://t.co/GyChZhBaiw
p58
aVWow today is just not my day
p59
aVYou click on an ad for Sesame Street Live ONE TIME...
p60
aVLooking at +$1,000,000 homes on Zillow makes me angry. You enough money to make your entire backyard into a Koi pon\u2026 https://t.co/TRPQx3Vzl8
p61
aVI want a robot that just brings me toast.
p62
aVSuz: \u201cI went grocery shopping today. I got bread, avocados, and chips and queso.\u201d Me: \u201cThat\u2019s it?\u201d Suz: \u201cyeah\u201d
p63
aV\u201cWho cares if the stars are dead. Because we can still see them, that means they\u2019re real to us, right?\u201d
p64
aVWoke up to some wild #runescape drama. A Jagex Mod hacking accounts and stealing gold?! Like $80k real world money'\u2026 https://t.co/08vDWaHs0c
p65
aVIf Animal Crossing Switch could just release today so that I could play it RIGHT NOW that'd be great. #cantwait
p66
aVAfter a lengthy discussion about the price of my bill, the ATT chat rep finally said "I see your point." And now ha\u2026 https://t.co/AiGdhd1UAS
p67
aV\u201cWe accept the love we think we deserve.\u201d
p68
aVI just want to work with my friends again. :(
p69
aVIt\u2019s strange, the people we connect with in this world. Don\u2019t always get to pick em, but they\u2019re always part of you.
p70
aVThe only thing standing between me and me making a facebook memes page is me.
p71
aVI mean, who doesn't want to play Battle for Bikini Bottom on their desktop? And omg now youtube is playing Shania T\u2026 https://t.co/QYMZuNL1BN
p72
aVI like getting home from vacation, because I'm all recharged and excited about doing things. Wayyyyy better than a\u2026 https://t.co/u1hIPey070
p73
aVPretty psyched about getting my gamecube games to play on my PC. With an xbox controller. Technology is so cool! (A\u2026 https://t.co/8QoXSP0kqt
p74
aVNothing like coming back, turning in your phone, and getting like a gazillion text messages that make you angry. &gt;:(
p75
aVLiterally, thank god I took photos because dalton does not
p76
aVThe finest of photos taken by dalton this whole vacation https://t.co/byYTu7AXra
p77
aVThe only thing better than hearing wasn\u2019t me on the steel drums would be hearing the wobble on steel drums. The wob\u2026 https://t.co/WhgtJ8Yyc0
p78
aVEven carnival cruise line uses NPS! Even they have no shame when it comes to asking guests to be \u201clikely to recommend!\u201d
p79
aVHits of the 2000\u2019s on steel drum is a whole genre of music I didn\u2019t know I was into!
p80
aVOmg a rendition of 2000\u2019s classic \u201cWasn\u2019t me\u201d by shaggy is being played on the steel drums. This is a treat.
p81
aVWho needs alcohol when you can have sun poisoning?! \U0001f601
p82
aVWe\u2019re tough. We toured Mexico on a rainy day WITHOUT PONCHOS.
p83
aVThere needs to be more Brittany spears at the sing along piano bar
p84
aVMy lizard brain just wants to lay in the sun all day long. The peak of perfection is when I have turned completely\u2026 https://t.co/nti4UchTwG
p85
aVYESSSS witnessed first adult temper tantrum of the trip: Lady can\u2019t have a cigarette because the ship is fueling. It\u2019s dramatic
p86
aVMini golf is like bowling. By then third hole it\u2019s like \u201cwhy am I subjecting myself to this\u201d
p87
aVWe might be the shorter line but priority is getting priority boarding. :0 foiled!
p88
aVThis other passenger is wearing a shirt that declares he is \u201cpolitically incorrect\u201d. Is it politically incorrect th\u2026 https://t.co/4m4sx7YG8U
p89
aVSmall heart attack; everyone keeps talking about passports, we only have both certificates.... *teeth chatter*
p90
aVWhen the peasant-level-passenger line is shorter than the priority-level-passenger one... #paystobepeasant
p91
aVThere is literally nothing I like better than an accidental trash facilities tour. Waste disposal is so amazing. \U0001f60d\U0001f60d\U0001f60d
p92
aVThe fact that we as a species devote time and energy into creating things like MASCOT COSTUMES purely for the delig\u2026 https://t.co/znoqAP127G
p93
aVAhh yes! Finally done building my engine! https://t.co/8bmeLJAEXs
p94
aVGrandma at the grocery store: \u201cDo you want to pick something out for yourself?\u201d Me: https://t.co/QN2TmDjQP1
p95
aVWe\u2019ve all gone down the Wikipedia wormhole, but have you ever gotten stuck in a loop on https://t.co/jOk9JNGD2Y? So\u2026 https://t.co/OanvUjaOra
p96
aV\u201cMy toast settled and now I just want to lay around and be fat and lazy.\u201d Dalton: \u201cIt was a toast -.-\u201c
p97
aVWhen the WiFi driver goes MIA... &gt;:(
p98
aVSOMEONE ATE MY LEFTOVERS UGH
p99
aVSuch a nice visit to the dentist. Like visiting family. Known them for 20+ years. They know my whole life and famil\u2026 https://t.co/UYn2skxv8q
p100
aVRT @mcmansionhell: imagine hating smokey the bear https://t.co/9UQgb5ghHi
p101
aV&gt;:(
p102
aVIf you have to rob your 401k blind to achieve it... you probably can't afford it. :((
p103
aVCare = feelings. Feelings = pain. So why care. :(
p104
aVI give thanks everyday that I got to be alive at the same time as Brittany Spears.
p105
aV\u201cNo ma\u2019am I can\u2019t return your clearly opened and used item from December\u201d \u201cwell I\u2019m going to have to think twice ab\u2026 https://t.co/WmqvBpFAzC
p106
aVMy dream house is under contingency again :((( But I found a backup house that I could decorate in my head just in case
p107
aVToday, I was brutally attacked by my own washing machine. My nose :(
p108
aVThings usually feel a little less like that end of the world after a good nights sleep. #hereshoping
p109
aV\u201cI look like a toenail... a crusty one.\u201d
p110
aV\u201cGuys I don\u2019t want to make this a big deal, but there\u2019s men\u2019s underwear UNDER THE BED!!!\u201d *screams*
p111
aV\u201cI look like a toe\u201d
p112
aV\u201cI buttcheeked your knee - just like you boobed my elbow\u201d
p113
aV\u201c... so now I have to burn my genitals off.\u201d
p114
aVShop keeper: \u201cHello ladies! Hola\u201d Cousin: \u201cHi-la\u201d
p115
aVBeing on this cruise is a more American experience than living in America.
p116
aV\u201c... it\u2019s the meat that they eat now!\u201d
p117
aVHow can a whole island have no service?!
p118
aVEither the boat is rocking or that one gross beer was way more effective than I thought.
p119
aVThe pizza line is like survivor. Outwit. Outlast. Outplay.
p120
aVShould my cactus outfit make its debut tomorrow?
p121
aVIf I did the wobble with this much gusto every morning, I would have THUNDER THIGHS
p122
aVThis beer is gross, but it was $7 so I\u2019m ENJOYING IT
p123
aVThe bathroom is always either on the other side of the massive line-dancing mob, OR down 5 flights and across the s\u2026 https://t.co/aFZcvCUuyH
p124
aVIf your going to karaoke, either sing Anaconda, use a bad falsetto, or don\u2019t.
p125
aV\u201c...it escalated to suicide.\u201d \u201c...by WHALE\u201d
p126
aV\u201cOnly one boodidad per cabin.\u201d
p127
aV\u201cI don\u2019t want to make this a big deal, but there\u2019s underwear, and it\u2019s not mine and not yours and not yours so...\u201d
p128
aVDinner is like the best part of every cruise.
p129
aVNeeding your friends to keep your Snapchat streaks going while your out at sea #FirstWorldProblems
p130
aV\u201cSOMETHING JUST FLEW INTO MY EYEBALL!!!!!! :0! ... maybe it was just my hair\u201d
p131
aV\u201cI can drink while you gamble. Let\u2019s combine our vices\u201d
p132
aVShower curtain. 0/10 experience
p133
aV\u201cOh my god the washer is so tiny i can only do two towels at a time!\u201d
p134
aVA man eventually picked up the dog and stuffed him in a backpack. Worst McDonald\u2019s ever.
p135
aVFleas?! https://t.co/LoKq2jWk4S
p136
aVAn employee just waved at the dog. Is he a regular? Nobody is perturbed...
p137
aVWhen there\u2019s a seemingly abandoned mangy dog just roaming unattended @McDonalds . High class dinner. Maybe ponderos\u2026 https://t.co/VT1pHZG3WZ
p138
aVIf your family is having a meltdown at the pool, my family will float closer to make sure they catch all the juicy details.
p139
aVThe cap says twist off. The effort required says \u201cthank god the kitchen is stocked with a bottle opener\u201d
p140
aVThe part of my soul that stayed at Disney knows that I\u2019m close. It\u2019s crying. I\u2019m crying. We\u2019re crying.
p141
aV\u201cWe\u2019ve been here one hour and I\u2019ve already experienced two traumatic events!\u201d
p142
aVWhen your at Taco Bell and it\u2019s taking forever and then all of a sudden some new worker that wasn\u2019t there before sh\u2026 https://t.co/w1jdEYYwAV
p143
aV\u201cI already got bit by something and we\u2019ve been here five minuteeesss\u201d
p144
aVHOBAICA!!!
p145
aV\u201cI did not come on a trip to eat at Ponderosa\u201d
p146
aVIf you and your family are having a meltdown in the rental car line, you can bet me and my equally childless cousin\u2026 https://t.co/HeQhzTN8wS
p147
aVThe lady sitting next to my cousin at the airport is telling another lady that she has a husband and TWO BOYFRIENDS\u2026 https://t.co/qhjxobg0N4
p148
aVWoo! Through TSA! No bamboozle this time!
p149
aVI\u2019m pretty content right now just laying on the floor of my room. Imagine how content I\u2019m gonna be in 3 days laying\u2026 https://t.co/6m1wVNcqhA
p150
aV@Nehemiahheckler https://t.co/R1KoqT9mL8
p151
aVMy 10 books did manage to fit in the backpack. Realizing that there was no way I'll be able to read them all, some\u2026 https://t.co/YKpohLwkne
p152
aVOmg I\u2019ve been gathering books for a few weeks to make sure I have books for the cruise. I have stockpiled TEN BOOKS\u2026 https://t.co/Mx3LjmSQd2
p153
aVWhy a steering wheel? Why not a steering square?
p154
aVI want to see Ke$sha, but I want to see her perform her Animal album and if Macklemore could stay on the tour bus that\u2019d be great.
p155
aVMy house that I love but can\u2019t afford is BACK ON THE MARKET! HEART UNBROKEN! \u2764\ufe0f\u2764\ufe0f\u2764\ufe0f
p156
aVRewatching Breaking Bad, after watching Better Call Saul, is a really fun experience. :D
p157
aVWoo boy oh man. I got angry today, and now like, my emotional system is totally short circuited and my brain keeps\u2026 https://t.co/GOc1bzuoV0
p158
aV2009 was a golden year for music. &lt;3
p159
aVAfter Better Call Saul, 13 Reasons Why is a little underwhelming. *Sigh*
p160
aV... can\u2019t even attempt to make an artisan grilled cheese in your own kitchen without people having opinions. Sad.
p161
aVEven he simplest cooking forays end in disaster https://t.co/dqzuMRdDMV
p162
aVRoku Stick &gt; Amazon Fire TV
p163
aV@oakhurst_mom AND THERES GONNA BE A TACO TRUCK
p164
aVIS IT TOO MUCH TO ASK FOR JUST A NORMAL TANKTOP WITH CACTUSES ON IT?! Apparently for modern fashion, it is!
p165
aVart is intentional
p166
aVI don\u2019t think I\u2019ll ever stop low key wanting a gold trans am
p167
aVWhen your friend texts you in a panic \u201cIM HAVING A CODE EMILY LEVEL TOULET DISASTER\u201d... so glad I\u2019m well known for\u2026 https://t.co/QJNSxkeSvr
p168
aVPolitics is stupid, except it isn\u2019t, because it\u2019s pretty much a wrestling match of minds and souls and charisma. But also stupid.
p169
aVGot to be in the same room with a legend today. This is so great \U0001f601 #hubertjoly
p170
aVThe house I wasn't going to buy with the money I don't have got sold. My heart is broken. &lt;/3
p171
aVI &lt;3 books
p172
aVI\u2019m #1! https://t.co/WII9mrQtPV
p173
aVI have such a great job. Thankful everyday :D
p174
aVI can\u2019t wait to decorate the house that I don\u2019t have with Nintendo toys that I don\u2019t need. \u2764\ufe0f\u2764\ufe0f\u2764\ufe0f
p175
aVAlso, watching a lot of Home Town has made me go from "Ewww, old houses" to "Oooh, old houses!"
p176
aVLooking at houses on Zillow makes me want my own house to love and upgrade and decorate so bad that I could cry.
p177
aVI don\u2019t think anyone in the history of ever has ever been as excited to go to Minnesota as I am right now.
p178
aVI wish \u201cbank robber\u201d was a career.
p179
aVRT @Nehemiahheckler: You can do all things.\u000a#WOoftheday
p180
aVThe Stanley Parable... depressing. The only way to win is to comply with the narrator. But weirdly deep and philoso\u2026 https://t.co/Kq18y5sc82
p181
aVUpgraded to a Google Mesh network. 5000 percent improvement omg. Can\u2019t recommend enough
p182
aVI had a dream that someone returned an open lawnmower out of policy and let me tell you, I woke up angry. &gt;:( Stupid work dreams
p183
aVThis is definitely one of my favorite Nemo accomplishments! \U0001f601 https://t.co/ip2srtNtm5
p184
aVhttps://t.co/dIrcfp1dU2
p185
aVTrue injustice is that they still play Pawn Stars, but Hardcore Pawn is off the air :((((
p186
aV@dh_ssarkauskas Have you heard anything new about the Geneva Fresh Thyme/Burlington lawsuit? Apparently was suppose\u2026 https://t.co/dYWJenFmxj
p187
aVI'm all grumpy and grouchy and my mom still makes sure I have something fabulous to eat. &lt;3
p188
aVSunday without ad set is so... meaningless....
p189
aVSo dalton drags me into a sports memorabilia store. \u201cThere won\u2019t be anything cool in there\u201d I said. \u201cI don\u2019t care a\u2026 https://t.co/S5ju784olt
p190
aVThere's a whole bucket of chocolate covered cashews in the kitchen. I had 3. That was good. A treat. I don't need m\u2026 https://t.co/QL8bQWIU0H
p191
aVNew favorite word; Floozie
p192
aVI love @hgtv
p193
aVA little trashy, but I can 100% appreciate the sentiment. Hahaha #ford #bumperstickerprobs https://t.co/JfaXRCzAQL
p194
aV*sigh* I'm so weak https://t.co/pcbre8XcyY
p195
aVDoes anyone actually like Justin Timberlake\u2019s new album, or are we all just pretending so we don\u2019t hurt his feelings?
p196
aVRT @PreetBharara: Omg https://t.co/LYsvW24SnX
p197
aVI love the political drama so much omg. Sam Nunberg made my night.
p198
aVI'm drinking a Mexican beer, listening to Russian folk music, and playing a game made by the British on a German se\u2026 https://t.co/pWoyR6zdZ5
p199
aVI just love my grandma so much. So lucky to be able to spend time with her &lt;3
p200
aVTime for my annual 3 month jogging/pushup/I-can-pass-the-power-test-a-thon. But jogging makes me want to cry. :(
p201
aVSweeeet. https://t.co/j5IOUHA7ze
p202
aVNot gonna lie, I feel like hot shit with my prospector helmet and my dragon pickaxe. \u2764\ufe0f\u2764\ufe0f\U0001f44c
p203
aV"What's not to love about 1970's East German disco music?!"
p204
aVAlso this UPS claims process jeez
p205
aVSometimes when I really miss the early 2000s, I fax documents at work. That dial up tone sounds so bad, but also so good.
p206
aVIf Brittany Spears is happy, I'm happy.
p207
aVBig goals are just lots of tiny goals accomplished one after another, after another. \U0001f4aa\U0001f601#RuneScape
p208
aV@niczito Your just so much cooler than the competition. Plus I saw you had a party in the McDonald\u2019s party room; wh\u2026 https://t.co/T1TQ7WEzrE
p209
aVWhen everything is wrong... a big greasy bloomin\u2019 onion from @Outback can make it right.
p210
aVI\u2019m getting like REALLY into women\u2019s curling. It\u2019s been like 2 days in a row now of watching in awestruck wonder
p211
aVThere are wolves, and then there are sheep pretending to be wolves. Don\u2019t pretend to be what your not. It\u2019s too obvious.
p212
aVTreating this giant public building like my living room makes me miss college.
p213
aV"Yeahh, it sounds like it's full of people and things to do, but I like to do nothing with no one soooo...."
p214
aVhttps://t.co/vtEF22RjPX
p215
aVJust realized I know ALL (not some, ALL) of the lyrics of the Sarah Palin rap from SNL circa 2008.
p216
aVAlso, what happens if you try curling without the broomers?
p217
aVWomen\u2019s curling... why isn\u2019t this a coed sport? Does one gender curl harder than another?!
p218
aVEvery problem is an opportunity in disguise
p219
aVRT @inventben4L: what if this bitch had a gun https://t.co/yYisndTXdt
p220
aVArby's is open until 11! Dreams do come true!
p221
aVJust because it is the easiest solution does not mean it is the best solution.
p222
aVI want to go to bed; but I also want to his 60 attack tonight. Struggles. #OSRS
p223
aVRT @LabSplice: The @GOP doesn't believe that political discourse is being unfairly hijacked by thousands of anonymous social media bots, bu\u2026
p224
aVRT @OhNoSheTwitnt: I don\u2019t understand why we need to have Presidents\u2019 Day with Trump in office, since garbage day is once a week.
p225
aVPretty excited for the mid-term elections this year! March 20th, get out and vote!
p226
aVI got it guys it\u2019s ok. My INDOOR SNOWBALL FIGHT kit is on the way.
p227
aVIt's so easy to switch to an opposite sleep schedule. So difficult to switch back... #dying
p228
aVBackup breakfast craving? Pringles! But I don\u2019t have any of those either    :(((((
p229
aVI suppose it\u2019s too early for fast food joints to be serving lunch. :( too bad. All I want for breakfast is @Arbys buffalo chicken sandiwich
p230
aVhttps://t.co/Hnfx8uTcjx
p231
aVOVERNIGHTS YAY
p232
aVIf bed frame could sing it\u2019d sing \u201cwobble baby wobble baby wobble baby wobble.\u201d Anti wobble committee works furious\u2026 https://t.co/uMgSOjAnNR
p233
aVPissed off bird does NOT like auntie Emily. Apparently he doesn\u2019t remember his adventure as fondly as I do. https://t.co/1uYqWlc2na
p234
aVBoyfriend is hanging crazy aunts pictures. \u201cYeah but how do you get he nail up there?!\u201d \u201cClimb higher!\u201d https://t.co/O4UNdfS0a1
p235
aVWhat a great week
p236
aVI might be the one person who enjoys driving through the snow. Maybe I should pick up a part time job as a plow dri\u2026 https://t.co/AcBDZl88Oi
p237
aVOnly one more day and then this week is over. :((((((
p238
aVTo most people, this looks like a disaster. For me, it\u2019s probably one of my favorite counts in the store. Bested on\u2026 https://t.co/Z0JFR5AhnB
p239
aVI'm so excited to be all fired up about something again. :D Goodness I love my job.
p240
aV\u201ctake your memes elsewhere\u201d lol dying https://t.co/Elx0FZ22hR
p241
aV"Oh, The Places You'll Hoe"
p242
aVI work for a really nice company. So fortunate. \u2764\ufe0f\u2764\ufe0f
p243
aVMy life motto right now is \u201cFight me irl\u201d except that this is real life and outside of sending scathing emails I\u2019m kind of wimpy.
p244
aVIt\u2019s amazing what some quality caffeine can do for your whole entire outlook on life. :D https://t.co/DzSQIWi8E0
p245
aVIf you hang out among trolls... are you a troll?
p246
aVBeing an asshole in the clan chat is beyond fun. I wouldn't call myself an internet troll per se... but people are\u2026 https://t.co/aoBxp8Pg8f
p247
aVMenards is so fun you guys.
p248
aVMy itunes library is back in action hallelujah. Like literally, thank jesus. I was an emotional wreck without it.
p249
aVIt\u2019s lunc time. Do I have cookies for breakfast, or waffles, or nothing? Decisions
p250
aVMy RAID 1 is not working and I\u2019m just done. Nuking the PC. Let\u2019s go
p251
aVUpdate. Thanks to auntie Emily and brother Brandon, bird escaped and got to experience nature and trees. Good day for bird?
p252
aVWatching the Brittany Spears Piece of Me tour on Youtube. This is a world changing event. How is it not coming to Chicago? Sadness...
p253
aVThis is bird. He\u2019s our extremely pissed off houseguest. Yesterday we had to turn his cage sideways and stuff it int\u2026 https://t.co/Yujb83gVCy
p254
aVIf you pay like $70 for a hard drive, the least they could do is throw a SATA cable in the box. &gt;:(
p255
aVA thing of beauty https://t.co/UieGLlsZ2j
p256
aVDoes my computer NEED to light up and be all kinds of flashy and rainbowy? No. Lets be real, it's a reddit and rune\u2026 https://t.co/NCOhjMWJgz
p257
aVMy aunt is now the owner of a house that has its VERY. OWN. URINAL! Omg
p258
aVMy cousins dog is making such sad lonely noises.  :0
p259
aVI am SO OVER cleaning this refrigerator
p260
aVCleaning out a refrigerator needs to be a team effort so you can tag out when you encounter something too gross, too stuck, or too difficult
p261
aVRT @BlackSheep_ISU: It\u2019s okay to be white.\u000aIt\u2019s okay to be black.\u000aIt\u2019s okay to be asian.\u000aIt\u2019s okay to be hispanic.\u000aIt\u2019s okay to be female.\u2026
p262
aV@GetSTVX @Nehemiahheckler Were calling him Nemo now?
p263
aVYa know what\u2019s harder to find than Bigfoot? Women\u2019s work pants with 4 pockets, made of sturdy material, in my size.... omg
p264
aVThe two most frustrating activities: Calling the help desk + shopping at Walgreens. Ughghghgh
p265
aV2 days. 19 quests. Like 20 onions and at least 15 redberries. But the f2p quests are done. Except for... DRAGON SLAYER
p266
aVRT @Nehemiahheckler: \u201cLike WO\u201d out now! Second single off the album!  https://t.co/p9ac8RgCel
p267
aVLay on the couch and watch more of a critically acclaimed tv series... or get them RS lvls. Tough decisions. Only so many hours in a day.
p268
aVWow goodness i feel like I either need to sleep for 100yrs or die. Sunday\u2019s stink.
p269
aVThat feeling when you hack the hacker, so now you ARE the hacker. OF GOOD
p270
aVUpdate. Became friends with the scammer. He's a dude from Israel who's never gone on a date before but prefers blue\u2026 https://t.co/K8gbcQFbQz
p271
aVIf a self-admitted scammer gives you money he got from scamming... is it justifiable to keep it or is it Runescape blood money...
p272
aVSo, my aunt got my parents these chocolate truffles for xmas. My sister described them as like "eating a chunk of c\u2026 https://t.co/31zDUNAcVL
p273
aVOh boy Arby\u2019s for the second time this week! I\u2019m so lucky! \U0001f601
p274
aVMy moms coupon usage is criminal. They expired in November. NOVEMBER. And somehow she still got away with it. :0
p275
aV7/7 nights with bad dreams this week. :0 Where did the usual rainbows sprinkle and lollipop dreams go?
p276
aVBlack Mirror is wild.
p277
aVNew New Years resolution: Eat at all the Diners Drive Ins and Dives restaurants in IL.
p278
aV@battista_brian What\u2019s LT2020?
p279
aVEw ios11 ugh
p280
aVLet's be real - I only go on Facebook these days for the memes.
p281
aVBrittanys NYE performance makes me want to dye my hair bleach blond and be more fabulous
p282
aVI forgot - Runescape is home to the BEST MOST QUALITY strangers on the internet. :D
p283
aVPSA People! Applebees is open until 1am! How are we letting this great American treasure die?! :0
p284
aVRunescape is still very much my guilty pleasure. :D
p285
aVRT @WhitePplQuote: Calling today \u201cChristmas Eve Eve\u201d
p286
aVmoney isnt wasted if you enjoy wasting it
p287
aV2018 Planner intricately researched and ordered! So ready to get into the new year already!
p288
aVAnother, bigger Art! \U0001f601\u2764\ufe0f https://t.co/8G0e0cL50y
p289
aVYa know what's better than one Art? https://t.co/On21QAbQgD
p290
aVGit rowdy
p291
aV@rdpetti @iowa_trump @CNN Dying
p292
aVDo you ever just look at a place and think "that's an excellent place for a drug deal"?
p293
aV*snaps twig in half*
p294
aVRT @TheSTVX: Only weak minded individuals throw hate at others. People who are truly happy with their lives don\u2019t have a reason to.
p295
aVYou've got it set to M, for mini, when it should be set to W, for Wumbo!
p296
aV@PeterRoskam I know you were for Trump when he won. You never said a bad word about him in the interim. But when wi\u2026 https://t.co/xASs5cOraH
p297
aVHow is this guy still president? Cowards in congress... SOMEBODY DO SOMETHING COME ON.
p298
aVRT @OhNoSheTwitnt: Can\u2019t wait to hear Sarah Huckabee Sanders klansplain why the president retweeted a bunch of anti-Muslim videos from a ra\u2026
p299
aVSomewhere, half a globe away, someone acknowledged my order for a plush potato and put it in a box and shipped it.\u2026 https://t.co/cAAU4JTxzS
p300
aVAnd all these adorable tickle me elmos on sale all over the place are dangerous too. Goodness I just love cute litt\u2026 https://t.co/84r6A8extF
p301
aVI'm still not over my love affair with @Trolls. IDEK man
p302
aV"Dad got a car after the divorce to make mom jealous, but it didn't work because... it's just a car." - The Babysitter
p303
aVoh my god becky
p304
aVAhhhh. Nice wholesome CARDS AGAINST HUMANITY with the family. \u2764\ufe0f
p305
aVProtesting on Reddit is cool and all, but if there was some building I could burn down in an angry mob to show how\u2026 https://t.co/LgJ7iDdwaS
p306
aVThat feel when a piece of string falls onto your freshly vaccumed floor. D:&lt;
p307
aVBoss: "Can you come in early" Me: "..... but I have to solve this Nancy Drew mystery." (These games may be from 200\u2026 https://t.co/aY5jyMcsiX
p308
aVI love me some Nancy Drew mystery games... even if they're from like 2009.
p309
aVIf I followed sports as intently as I follow politics, I'd have a bang up fantasy team.
p310
aVI wish I could get back into Runescape.
p311
aVMy typical groupme experience: *sees something idiotic* *explodes* *types out fightin' words* *deletes* *not worth\u2026 https://t.co/BuP1yc2PeM
p312
aVI switched my linkedin profile pic to the pic of the BBY lego verison of me like a month ago, and since then, I've\u2026 https://t.co/dV2ABaqRY6
p313
aVCOD WW2 makes me want to go out and buy another console. Or I guess I could just play on PC and get demolished by t\u2026 https://t.co/26qyeuQDj1
p314
aVRT @karenyhan: me trying to have a good time https://t.co/tQFxrG2Oxm
p315
aVwhy did we stop building castles. i feel like humanity might live to regret that
p316
aVBe the leslie knope of whatever you do.
p317
aVhttps://t.co/x2QpHQN6mp
p318
aV@omzimm14 At least you know where you stand.
p319
aVRT @barefootboomer: I forgot how Midwest-y the Midwest is my goodness
p320
aVWhat a weird day.
p321
aVWhen you accidentally hit "reply all" to the market email. https://t.co/u59eFOyq2K
p322
aVToday some man told me I was being "Fucking rediculous" and I kicked him out of my store. Not even bothered. Getting tougher. :D
p323
aVWhen you have to choose between dancing like it's he end of the world and enjoying the open bar cuz u can't do both
p324
aVI'm in a HUMMER LIMO!!
p325
aVRe appreciating my BFF for making me watch Kill Bill.
p326
aVFriends and family make life fantastic. &lt;3
p327
aVIn the morning, it's like the computers and systems are as grouchy and tired as we are.
p328
aVYa know what's actually really cool? Trains. Trains are really flipping cool. All that power.
p329
aVThis morning 92.3 mix is a mess.
p330
aVI guess you never really want a dumpster fire to be near you, unless you are the kind of person who really likes putting out dumpster fires.
p331
aV"where da hood where da hood where da hood at" - DMX
p332
aVhttps://t.co/BOncsxA67c Oh noooo. I am the boss. But I'm also around the median age for using Yas Queen. Hmmmm
p333
aVSunday night: watching a video of YMCA Elmo on the internet. #coolest
p334
aVI LOVE hotdogs. Like, Chicago style hot dogs are my addiction. I think about them when I wake up. And at lunch. And after dinner. So fetch.
p335
aVCacti. Pineapples. MOON RUGS.
p336
aVFinally! Got me some chips n salsa.
p337
aVIs it too early for chips n salsa? Yes. Probably too early for chips n salsa. \U0001f641
p338
aVNew personal record. Customer: "YOU RUINED CHRISTMAS!" Only September 7th.
p339
aVI swear, 25% of my internal dialogue is mean girl quotes, and another 25% is just spongebob memes. Will I ever find a soul mate?
p340
aVCustomer: "They said the manager was tall and blond." Me: "Are you saying that I'm not?" Customer: "... sorry."
p341
aVI wish the west suburbs had a JJs Diner. I wish there was a perpetually convenient place to get fabulous waffles.
p342
aV"I don't care if you hate what we do. I love it enough for both of us!" - Leslie Knope
p343
aVThe theme of this week is "Stay home. Spend no money. Cause no trouble." And maybe clean my room, too.
p344
aV*Struggles to keep political opinion off Facebook* No good ever comes from beating down your aunt's mother in law on social media. No good.
p345
aVToday is a fine day for some protesting. Where can I go be part of an angry mob? &gt;:) #injustice
p346
aVThat new T. Swift is \U0001f525\U0001f525
p347
aVI never want to be too old to engage in hooliganism.
p348
aVCan it be pumpkin spice season yet?
p349
aVAdulthood. Where your friends all of a sudden are like "1am?! What are you doing up this late?" Dude we used to stay up til 4, 2 yrs ago.
p350
aVIsn't Walmart always hell to walk into?  https://t.co/bkoKv2QdWI
p351
aVI want to go to bed so bad. But the internet is calling and I must go.
p352
aVClearance sections. The ultimate test of my inner peace. #notworthit
p353
aV*Chipotle's Open*\u000aMe: I don't need chipotle right now.\u000a*Chipotle's Closed*\u000aMe: I NEED CHIPOTLE\u000a#shouldjustbe24/7
p354
aVIf you ever need help being spiteful or petty or mean, let me know. I'm a master. \U0001f601
p355
aVPoor applebees. I actually liked their half priced apps and cheap beer.
p356
aVChill day https://t.co/OLCTWoC6OW
p357
aVThe world needs more glitter.
p358
aVOnly my mother would get a big fluffy new mattress, and then leave it to ask me about my night as I make coffee at 530am.
p359
aVI spent 3 days watching Netflix and eating snacks. How on earth did I get sick?!
p360
aVGoodness I really love central Illinois
p361
aVAnd what even is this? Is this going to pull something?! What even https://t.co/6CQSpUiwwy
p362
aVI don't know what I expected from a sport called tractor pulling... but not that. \U0001f631
p363
aVListening to the Wobble on the way to work has put me in an unexpectedly good mood.
p364
aVToday a customer told me that corruption was a good thing because he personally benefits from it. What a very #Illinois thing to say.
p365
aVIf your going to represent your church in big letters on your car, at least make them proud with your driving skills. -.-
p366
aVI can't wait until there's a drone flying over my head at all time taking pics for Snapchat and thinking of funny fb statuses.
p367
aV#bbymemories That time the compactor wasn't attached to the dumpster and spewed trash all over the back of the building in the rain. Yay
p368
aVTbt to the time I was floor leading from the warehouse, and Chris Sung 100% threw me under the bus. #bbymemories
p369
aVRT @DanRelates: Everyone is too worried about what other people are doing with their life am I the only person who isn't one of those peopl\u2026
p370
aV"...because nothing matters." - WaPo. How did it take so long for everyone to figure this out? If you believe this, life is chill.
p371
aVWENTWORTH SEASON 5 IS OUT YASSSS. All these new seasons of all my favorite shows - I need a Netflix-a-thon!
p372
aVRT @netflix: A season a day keeps the sunburn away.
p373
aVFacebook is not a good thing
p374
aVCan't decide which one to getttt https://t.co/Fy4v2k0ytJ
p375
aVIf I were the president I think I would take Marine One to the bottom of the Grand Canyon weekly. Just cuz.
p376
aVRT @novavistaphotos: On a scale of 1 to 10, how desperate do you think I am for Animal Crossing on the Switch? \U0001f343 #E32017 #NintendoE3 #ninte\u2026
p377
aVWhyyy is Ever Oasis on 3DS and not the Switch? Sadness.
p378
aVThere are shaved ice places here. Hmmm who knew
p379
aVGoodness I love my tv
p380
aVWhy do people do this? https://t.co/91p3fd7qMP
p381
aVI feel loved \U0001f308\u2764\ufe0f #birthdaywishes #family #thankful https://t.co/tKpHTWprkq
p382
aVThese senate intel hearings are \U0001f525\U0001f525\U0001f525
p383
aVRT @PeterRoskam: 73 years ago today - 24,000 brave men stormed the beaches at Normandy. We are forever grateful for their sacrifice. #DDay2\u2026
p384
aVI was jealous of Hawiis chickens, But now that Im watching geese vs seagull French fry showdown in the parking lot, I like what we have. #IL
p385
aVRT @SenSanders: What President Trump did today by withdrawing from the Paris Climate Accord is an international disgrace. https://t.co/ZjBM\u2026
p386
aVIf you didn't buy a souvenir, were you really there?
p387
aVRT @HayesBrown: me:\u000a\u000ayou:\u000a\u000ame: WHENNNNN\u000a\u000ayou: no\u000a\u000ame: THEEEEEEEEE\u000a\u000ayou: pls stop it's over\u000a\u000ame: MOON hits your eye\u000a\u000alike a big pizza pie\u000a\u000at\u2026
p388
aVI haven't laughed until I cried in a long time. Thanks @HillaryClinton  https://t.co/lFwwX53KKs
p389
aVTil even the Amish vacation to Hawaii. They just wear dresses instead of bathing suits. The struggle.
p390
aVI bought a necklace, pin, and hat. Still on the list: bracelets, tiki figurines, volcano something. And shaved ice. Always shaved ice.
p391
aVThere are so many gift shops and so little time. My family doesn't understand this ratio.
p392
aVAlso was quite warm, and bubbled and stuff as expected. 10/10 would recommend. https://t.co/dBEUp96llS
p393
aVI saw real life lava with my real life eyeballs today. It was hawt.
p394
aVI LOVE gift shops.
p395
aVUnexpected guilty pleasure: Art Galleries. All the art galleries. Can't get enough of them art galleries.
p396
aVThe view of these mountains makes up for it though. https://t.co/oTqEVQeEI7
p397
aVThe architectural design of these buildings makes me want to hurl. https://t.co/REI2BzPpzG
p398
aVFINALLY! I have captured a picture of my fine Hawaiian cuisine! https://t.co/NMsnoJzFit
p399
aVI keep meaning to take beautiful pictures of this beautiful food, but I get too excited, forget, and gobble it down. :0 Sorry twitterverse.
p400
aVStarted off great with the snacking - Hawaiian ice from the Heleiwa General Store! SO GOOD
p401
aVMom: "What kind of souvenirs do you want from Hawaii?" Me: "Just the memories of all of the delicious foods I ate."
p402
aVHow do you like them pinesnapples.
p403
aVBe prepared for pinesnapples.
p404
aVMade it to Honolulu! Now where do I meet and greet Dog the Bounty Hunter?
p405
aV@TSA Pre-check is a 10/10 experience. Thanks!
p406
aVCould you imagine living in a place where you don't have instant access to medieval times? Yay Chicagoland
p407
aV@rdpetti It can run VLC player! What more does a person need really?
p408
aVDug out my Surface RT. Probably one of the best ever things I got for free. #thanksmicrosoft!
p409
aVRT @omzimm14: Ok this is weird but I can't wait to be a mom. I mean, obviously I can wait but I can't wait, you know??
p410
aVI want my wedding to be Brittany Spears themed.
p411
aVNever before this year would I think I would look forward to a Senate intelligence hearing.
p412
aVRT @NinWire: Harvest Moon: Light of Hope is coming to the Nintendo Switch. First details: https://t.co/VUbZA52ez3 https://t.co/KJytgHDUEd
p413
aVGraduations are actually a little more sad than happy. I was a crying wreck at mine. I'm happy for Suz, but also so so sad for her too :(
p414
aVCan. Not. Wait. for #WentworthS5 to pop up on @netflix. AND it got commissioned for a sixth season? So great.
p415
aVWould it be super lame to buy Nancy Drew games? Graphics meh. Solving the mystery? MAGICAL. #steam
p416
aVRT @mikeyardcomedy: If you could fire the guy that was investigating your possible involvement in treason, wouldn't you? That's just Gangst\u2026
p417
aV@PeterRoskam What's up with Trump firing Comey?! If he has something to hide, it's on congress to do the right thing for americans now.
p418
aVTIL Mmmm Whatcha Say has an original outside of the Jason Derulo song. :0
p419
aVBathing suit shopping is on the list too. Ughghghgh
p420
aVIt's that time of year where I take all the things I've procrastinated (oil change, haircut, dentist visit) and do them all at once. \U0001f629
p421
aVI have made my annual sacrifice to the Sarbanes Oxley Act. Thx Enron.
p422
aVUnless someone like you cares a whole awful lot, nothing is going to get better. It's not. ~ The Lorax
p423
aVToday is a treat yo self kind of day https://t.co/NefCLKJicG
p424
aVhttps://t.co/Ow6uqHuedY
p425
aVToday I enjoyed a hotdog from 7/11. I have not yet died. In fact, it was quite delicious
p426
aVall of the logistics that make being able to order cheap crap, made in china and shipped to my door two days later are miracles
p427
aV"I can't stand Fed-Ex Jesus" hahahaha
p428
aVDay ruiner: All ordering of fixtures and signage is moving to a system I have no access to. AGHGHGHGH #ripEsource
p429
aVThe later it gets the more t-shirts I order off of the internet. My bank account wants me to go to bed.
p430
aV*Sigh* That wasn't very cash money of you.
p431
aV"We've read a lot of books and we know that organizations work better when there is a gender balance."
p432
aVMe: "The CPD exam is on Sunday!" Grandma: "You'll pass. Don't go." #nodreamsallowed
p433
aVOooh boy mostly I like third party vendors. But not today
p434
aVFox News is designed to make old people afraid of the world.
p435
aVI will never be fox. Always CNN
p436
aVHannitys show is clearly designed to appeal to a specific audience. And for some reason my dad is entranced.
p437
aVWatching Hannity with my dad. It's painful. Idk how people think this way
p438
aVYESSSS GOT THE MASTER SWORD
p439
aVRT @Trolls: Don\u2019t worry. Be Poppy. https://t.co/I66auzKBFl
p440
aV"Give me animal crossing or give me death" - I'm not the only person that feels this wayyyyy C'mon Nintendo!
p441
aVMost of the actors in Damages are pretty good... except for the main one omg such awful acting ugh
p442
aVWoodfield on the weekend, while suffering from a lack of caffeine, is a practice in patience.
p443
aVUghghghghghgh schaumburg gross &gt;:(
p444
aVRT @TIME: 5 signs you\u2019re eating too little for how much you work out https://t.co/hcG9vGvaLl
p445
aVRT @jjmacnab: I keep running across anti-gov extremists who are pissing mad that Trump doesn't respond to their tweets.
p446
aVCheaters always win.
p447
aVDat feel when it's payday and you forgot all about it so it's like a surprise to your bank account
p448
aVBut the over-saturation of this Samsung TV is making our eyes water. :0
p449
aVSo now we're watching @Trolls on loop at work, on a $3000 TV, which just proves that when you're the manager, you DO get what you want.
p450
aVCoco crispies are life
p451
aVI wish I was braver :(
p452
aVPeople with Bernie bumper stickers https://t.co/iOVoIq8gOA
p453
aV"You don't look like a manager." Is it because I'm young? Or female? Or because your just living life with asshole-vision?
p454
aVRT @MarkHertling: .@PaulBegala : Issuing an "on my order" directive requires leadership of the highest caliber. When it happens, people mus\u2026
p455
aV@BrandonScribner Oohhh nooo. Sounds like the best kind of PI. I'm trying to go to all of the worst ones. I like watching drama. :D
p456
aVEvery week I don't do ad set, my life span increases by 2 weeks. Goodness Sunday's are almost ok.
p457
aVUghghghgh why do we as a society like "Down" by Marian Hill. It's teeeerrrrriiiiblllleeee
p458
aVMe bed is extra soft and extra nice on Sundays
p459
aVConsidering I run iOS this is quite amusing https://t.co/Wgx0oeMkIq
p460
aVHappiness https://t.co/Vx1grk2wQj
p461
aVSweeeeeet. Need a Chao garden. &lt;3 https://t.co/GFr9Vdu3yc
p462
aV\U0001f3b6Who's waking up to drive you home when you're drunk and all alone?\U0001f3b5It ain't me.\U0001f3b6
p463
aV@BrandonScribner @mazidagg Looks super sweet! Let's see if t can hold a candle to #BOTW
p464
aVToday I got 48 imaginary internet points for this quote "Wtf is this video even? It's great" Thanks internet. Love you too :)
p465
aV@BrandonScribner I was just thinking this! I miss your face - we had so much fun together! If u were here we could get buff together. :D &lt;/3
p466
aVSpeaking of shitty internet video compilations... https://t.co/I6rgmvwYvu
p467
aV@AlexisRizzi Soul after my own heart
p468
aV@NorthOakhurst Wayyy cooler than @oakhurst_mom
p469
aVRT @oakhurst_mom: Regular mom: please drive safe \u000a\u000aOakhurst mom : Drive 25\U0001f698\U0001f698 stop at the signs\U0001f6d1\U0001f6a6right, left, right again\U0001f440\U0001f440 APD\U0001f609\U0001f693 has been c\u2026
p470
aVI'm so inspired to blast rap music while I speed around certain suburban neighborhoods. God bless twitter.
p471
aV@AlexisRizzi There are just gonna have to be dead kids then. I can't
p472
aV@AlexisRizzi I'm dying. The speed limits. The garage sales. The mention of Oakhust North being the enemy. It's so suburban. :P
p473
aV@AlexisRizzi Have you seen the @oakhurst_mom twitter?! TOO FUNNY.
p474
aVYesssss Mario Kart domination @rdpetti https://t.co/9zUbOkprkn
p475
aVOh my god what happened here?! \U0001f62e https://t.co/6AKv3Yh8js
p476
aVAnd I also love my amiibo collection. Parents be like "how much did you spend on that?!" Don't care. \u2764 https://t.co/dNPBerSfh6
p477
aVI might be a total weenie hut jr., but my Princess Poppy legit brightens my day. \U0001f601 https://t.co/dDKw1inJ9n
p478
aVhttps://t.co/BEL6Y7USdd The drop at 1:27 tho &lt;3 @TheSTVX @CymaticsFM
p479
aVSchool. Busses. https://t.co/Sjn7lhdx4N
p480
aVAnd don't even get me started on lights that turn red so that one car can make a right hand turn ughghgh
p481
aVAnd these morning radio shows AGHGHGH
p482
aVEspecially if wet roads scare you. There's not even snow on the road here. It's just wet. Extreme caution NOT necessary.
p483
aVI'm so annoyed by other cars on the road. Like who are you people?! Gtf home ugh
p484
aVWhen you leave a review that says "It was just ok." with three stars, why are you wasting your life?
p485
aVRT @NintendoAmerica: Happy #NationalNappingDay from Poochy! https://t.co/T77tp2oERo
p486
aVMain reasons for going to work today: 1) Its mandatory. 2) I left my Girl Scout cookies there and I NEED them.
p487
aVGuardian arrows are sooo flipping expensive but 100% worth. #botw
p488
aVGuardian arrows are sooo
p489
aVMe madre is quite the cook \U0001f600 https://t.co/Js98yJ8VGs
p490
aVHere I am, on the same Facebook page, laughing at the same memes as yesterday. My life is 100% thrill. No drag
p491
aVRT @bourgeoisalien: In Trump's defense, he's just like any other 70 year old- enraged by unexpected leaks.
p492
aVThis whole Death Mountain thing might be one of the most frustrating video game moments of my life.
p493
aVAnd let's not even talk about running.
p494
aVAnd my sit-up situation is just sad.
p495
aVBut also I think I pulled a muscle in my left arm. :(
p496
aVMy push-up routing has hit a new high. I can do 20 real push-ups in a row, for multiple reps. YEAHYAA! Progress!
p497
aVOh my god. The called it "World's Greatest Healthcare Plan". Too funny https://t.co/4AAvDjuSxd
p498
aV@PeterRoskam @WaysandMeansGOP If the new bill could not throw me off of my parents insurance, that would be greeeaattt.
p499
aVI just like it so much better this way. :) https://t.co/GdGpQbzK1x
p500
aVAlso, not being petty has been paying off pretty well. The work drama is REAL.
p501
aVOne of my relatives shared some garbage on FB about Hillary and her emails. I was like "What about Pence and his emails? Post deleted. BOOM
p502
aV*Tries not to be petty*\u000a*Succeeds*\u000aWow! I didn't think I could do it!
p503
aVLazy town/lil Wayne mashup. \u2764\ufe0f
p504
aVWhen you need something to brighten your day, OG YouTube videos are there. Porkchop sandwiches. Yee. Shoes. \u2764
p505
aVHappy Pulaski day!
p506
aVRT @MarkHertling: KAC: "who had phone watch?"\u000aSpicer: "I just put it down to go get a cup of coffee...he seemed fine when I left!" https://\u2026
p507
aVRT @Prof_Retro: @meg_arms just started playing Animal Crossing. This is her 1st notice on the town's message board. This will end in a most\u2026
p508
aVAlright Nintendo! It's time to announce Animal Crossing for the switch! &lt;3 Then I can die happy.
p509
aVNintendo switch was a fabulous purchase. I always love the Nintendo things that I buy
p510
aV@realDonaldTrump Stop the witch hunt against Democrats. Focus on making the country stronger. This might include investigating russia thing.
p511
aVRT @TeenVogue: The two best friends that anyone could have! https://t.co/bcfK5AmwpE
p512
aVMy mom made a comment about me taking a nap when I get home from work everyday. The problem isn't the nap. The problem is not being rich. :(
p513
aVI think I'm going to need a cup of coffee though if I'm gonna make it to midnight
p514
aVOoh I really want this hat https://t.co/ZBFHU7eJYD
p515
aVOnly a few more hours before I get my hands on my Nintendo Switch! I can't wait!
p516
aV@BrandonScribner Challenege accepted!
p517
aVRT @DeptofDefense: Women have supported #military ops, seen direct combat &amp; some made the ultimate sacrifice. More: https://t.co/vP3x1kbgoR\u2026
p518
aVI have to decide between a dentists appointment and a PI walk...
p519
aV@BrandonScribner Adding planks to my routine has made all the difference in the world! Thanks!
p520
aVRT @totinos: Power. Wisdom. Courage\u2026and Pizza Rolls. #NintendoSwitch #ZeldaBreathoftheWild https://t.co/vfRxOIE3Cc
p521
aVRT @DanRelates: i love junk food how could you not
p522
aVMy jeep looks like a toy from here https://t.co/WmGaqouywu
p523
aVI need to go to Walmart but I also feel like I'll pass out if I get off of the couch
p524
aVPlus I'm working on the ilstu book club book, which is pretty ok - The Power of Habit
p525
aVMy "Nevertheless she persisted!" Shirt came and I've been rocking it all day. BOOM
p526
aVI read this thread on reddit about Trump being a nice person and my heart is softer... then they decide to ban the media and I get mad again
p527
aVRunning is just so boring. I can feel my cardiovascular system getting better, but mentally, my push to run to 2 miles is weak. :(
p528
aVThis magic Mike movie just has a lot going on
p529
aVRT @AltNatParkSer: Blocked from White House media briefing\u000a\u000aCNN\u000aNY Times\u000aLA Times\u000aPOLITICO\u000aBuzzFeed\u000a\u000aAllowed to attend\u000aBreitbart
p530
aVIt might as well be nickel back. Dreadful.
p531
aVYouTube is just autoplaying some kind of Ed Sharern playlist and I'm too apathetic to change it. What is my life ugh
p532
aVI don't need a $150 tumbler that keeps my coffee hot. I drink it all before it gets cold!
p533
aVJust did 20 situps with minimal effort. Things are coming together! (Except the running omg I hate running)
p534
aVMy current state https://t.co/s5mPV2YmUS
p535
aVAlright; 20 more push-ups. I can do this. I don't want to. But I can
p536
aVAnd I can do some really solid push-ups now. Not lots of them, but they're solid. \U0001f44c\U0001f601
p537
aVMy stretching routine is starting to pay off! And be less painful! Woo!
p538
aVMicrosoft has blocked me out of my long standing "junk mail" account. And I can't recover it. I'll miss you junk mail account. #RIP \U0001f625
p539
aVShitty. If your unhappy, stop looking at others as the cause, and start looking inside. I guarantee there are changes you can make.
p540
aVUnhappiness. The truth of the matter though, is that your unhappiness is RARELY caused by someone going out of their way to be intentionally
p541
aVThe world has lots of unhappy people in it. And these miserable people look around, and point the finger at others as the reason for their
p542
aVIdek where the term "extra" came from but I love it
p543
aVI am fundamentally opposed to giving an app my credit card number, but Jimmy Johns is special.
p544
aVIt is 5 in the effing morning and wow I am not prepared to get up and go to work right now ugh
p545
aV@AldermanMarks Looks like they're building on the outlot of Fabyan and Randall! Very good for business at Fabyan Crossing shopping center!
p546
aVReally enjoying the discussion on @MSNBC @Lawrence
p547
aVAnd just like that, I've blown through all six seasons of Shamless
p548
aVWhy is it the things we hate most that inspire us to be better people?
p549
aV4 reps of 60 second planks! #fitnessplan
p550
aV@realDonaldTrump Nominate me to be the National Security Adviser! 1) I would give it 100% effort. 2) I couldn't be worse than Flynn.
p551
aV"Distracting from your problems by suggesting that you're unhinged is probably not the best strategy." - @RuthMarcus Hilarious haha
p552
aVIn other news, I ran 0.97 miles at 6mph today; good god I hate running. But I've kept up with it. Arghghghgh
p553
aV"An unusual presidential news conference, by just about any standard..." Haha CNN is on point today.
p554
aV@jaketapper's sense of humor is exactly my sense of humor. "...his electoral college victory - which none of you appreciate enough"
p555
aVYou go @SenatorDurbin! You tell 'em Durbin! #cnn #taxreturns
p556
aVWhat I wanted from Noodles: noodles with butter. But I can't bring myself to pay $7 for it.
p557
aVI love my dentist don't get me wrong. I've known him my whole life. But the dentists office is soooo bleggghhhh
p558
aVThe dentists office doesn't have LTE. #1stcircleofhell
p559
aVOmg I have to be at the dentist in 15 minutes and I really really don't want to ugh
p560
aV@PeterRoskam Hey man, I'm sure you have a solid reason - why did you vote against obtaining Trumps tax returns?
p561
aV"Is he a good person? Yes. Does he also have a tribal tattoo? Yes"
p562
aV@PeterRoskam Roskam please give this matter the attention that it deserves, on behalf of your constituents who can only sit by and watch.
p563
aV@BrandonScribner Thanks! Hey how do you determine how long to hold planks for? Do you do multiple reps of planks? Helllllpppp
p564
aV@MarkHertling Great discussion on CNN tonight! Your insight is always informative and educated.
p565
aVThe trump administration is exploding. omg https://t.co/my7Lumrgdy
p566
aVOH WAIT! I DID 100 BECAUSE I'VE BEEN DOING THEM IN REPS OF 20! Yesssss. Although I've only done 50 situps (reps of 10). But my abs are weak
p567
aVUp to 50! It's definitely getting harder. :(
p568
aVUp to 40 pushups and 40 situps! (Some of the pushups were knee pushups though which I know it weaksauce)
p569
aVTrying to tackle the 100 push up challenge. It's going.... oooookkkkkk
p570
aVThe Flynn thing was bad but now it's worse
p571
aVRT @DanHowdle: @realdonaldtrump You\u2019re the one discussing national security on Twitter, Donald, so you tell me.
p572
aVRT @jtylerconway: @realDonaldTrump Looks like u got us into quite the international Flynn-cident, Agent Orange.
p573
aVSometimes when I feel a little bit like I'm wasting my life, I start working out. And it helps fend off the feeling for a bit.
p574
aVRan a mile and a half today! Abs are still too sore for a situp count, and it's messing with my pushups. Jerks
p575
aVI believe in a force that thinks it's greater than myself. - Frank Gallagher
p576
aVOnly if my exercising goes better :P https://t.co/8Q40aQhWHg
p577
aVRT @BernieSanders: Whether it is in conservative parts of the country or in progressive areas, the American people are fighting back. https\u2026
p578
aVIt's important to know the difference between a skank bitch and a deranged psychopath #shameless
p579
aV26 situps today! (Push-ups didn't go well; all my muscles screamed no after yesterdays 20)
p580
aVRT @HayesBrown: CASH ME AT THE SUPREME COURT, HOW BOW DAH
p581
aVToday is a beautiful day. My paycheck generated and my troll has shipped!
p582
aVBut it's the whole running 1.5 miles that'll kill me.
p583
aVTaking the practice CPD exam. Cake.\U0001f370
p584
aV"This is how you get called a failing magazine at 4am by the President of the United States."\u000a\u000a "4am - The bitching hour."
p585
aVBut really, I got on twitter to talk about how excited I am for #PowerRangers You know I'll be at the theater on March 24th-ish!
p586
aVReviewing my itunes library - 2008 was a hawt year for music. Disturbia, Lollipop, No Air, Touch My Body. All the hitz
p587
aVOOOOH YESSS JIMMY IS BACK! #truelove #shameless
p588
aVSuch a successful day of ordering things on the internet. &lt;3
p589
aVI voted for Duckworth who voted against Devos. I did my civic duty. Rest of the country... not so much.
p590
aVYay for liberal T-shirts!
p591
aV"Just a nasty woman looking for a bad hombre" &lt;3
p592
aVWhen someone interviews as poorly as Betsy Devos, I don't hire them for even a part time job in my store. #fuckyoupence
p593
aVAnd I had to explain to a man why he couldn't bring his gun into Best Buy #Murica
p594
aVIn other news, I received a call from a radio station in California today - but I missed the call so I have no idea what they wanted
p595
aVI just want Fiona and Steve to get back together. That was true love. #shameless
p596
aV"You should work for the city. You have qualities they're looking for!" Haha #shameless
p597
aVSheila is safe thank god
p598
aVSomehow Carl, the cat torturer, is keeping the family together. #shameless
p599
aVOmg Sheila's house! She doesn't deserve it. #shameless
p600
aVSee? They're evil! https://t.co/7Vo0ShEGpp
p601
aVWe fell in love. We lost.
p602
aVI will never be over the song Lollipop by Lil Wayne
p603
aVRT @SenSanders: Does Trump not know that it is the function of the judiciary to determine the constitutionality of executive and legislativ\u2026
p604
aVA little bad, a little boujee
p605
aVRT @nbcsnl: "That's enough fun for tonight." #SNL https://t.co/6pJeCJaV6U
p606
aVRT @SenSanders: Trump ran for president saying he would take on Wall Street. Now he's dismantling laws that protect Americans from Wall Str\u2026
p607
aVVizio could be the last brand of television on earth and I still wouldn't buy one. #garbage
p608
aVSo after a long day of chili sampling, I've decided any kind of "chocolate" chili is the best. #southhaven
p609
aV"Hey santa clause suck a fat babies Dick" #barfight #southhaven
p610
aVMoral of the story: don't eat yellow snow
p611
aVMy toes feel like they're going to break right off
p612
aVhttps://t.co/5M57c4jrLr
p613
aVThe prospect of having even MORE appliance issues excites me :D
p614
aVWatching a throw down at jewel over the color of a cake. Mom doesn't want to stay and watch :(
p615
aV\U0001f3b6I've never needed you like I do right now. I've never hated you like I do right now. Because all you do is make me.... cry. \U0001f3b5\U0001f3b6
p616
aVI &lt;3 local government.
p617
aVTrying something new from Arby's. #livingontheedge
p618
aVIt's amazing what a difference a little sunshine makes!
p619
aVRT @business: The GOP doesn\u2019t deserve it, but Democrats should play ball on the Gorsuch nomination. https://t.co/TBmsbf3Vpe via @BV https:/\u2026
p620
aVRT @BadHombreNPS: #topical #resist #smokey @pigcooker21 @forestservice https://t.co/Pa17P0xdnq
p621
aVRT @BadHombreNPS: Burrowing Owls, like any other animals that are capable of digging, can easily bypass stupidly-conceived walls. https://t\u2026
p622
aV"What people don't seem to realize for some fucken weird reason is that people have absolutely no choice regarding where they are born. "
p623
aVAnd I applied for CPD and the world is full of opportunity
p624
aVIt happened! Alyssa is 24!
p625
aV#partyfoul https://t.co/RjjBi40cbz
p626
aVIt got louder &lt;3
p627
aVLike drifters but called the alibi #stcharles
p628
aV#alwaysthebadguy
p629
aVRT @BernieSanders: Republicans say they want to get government off people's backs, except, of course, if you are a woman who wants to contr\u2026
p630
aVI like shameless because it's got a great group of people who always have something going on; Never boring in the Gallagher house.
p631
aVHave I said before that my tv is gorgeous? Because it's kinda gorgeous. Money well spent
p632
aVRT @BadHombreNPS: Unlike certain, um, individuals, @ArchesNPS's sandstone formations are *naturally* orange due to the presence of hematite\u2026
p633
aVMy ability to do nothing for hours on end astounds me
p634
aVAnd also a bad hombres one. I just hate our president so much
p635
aVKind of want a nasty woman tshirt
p636
aVRT @BadHombreNPS: Remember, folks: #facts don't go away, no matter how many web pages and tweets they delete.
p637
aV"I'm just gonna buy some broccoli and throw it in his face!"
p638
aVRT @VicenteFoxQue: go ahead, #trump. This will prove that the system made you win, not the people. Losing by 3+ million votes is not a mist\u2026
p639
aVRT @VicenteFoxQue: Sean Spicer, I've said this to @realDonaldTrump and now I'll tell you: Mexico is not going to pay for that fucking wall.\u2026
p640
aVThis time they actually turned out to be straight goo :( with no powdered sugar :( WHY CANT I COOK https://t.co/7K51hRSoAm
p641
aVThe Gallaghers were planning to eat a bald eagle for thanksgiving. This show is too much
p642
aVMade waffles. They turned out fluffy and great. My fave https://t.co/iVvIibs2km
p643
aVWhen everyone who loves and cares about you tells you the same thing, listen to them.
p644
aV@rdpetti lol where would you even put such a thing?!
p645
aVWords to live by https://t.co/zC78zRFlzp
p646
aVKinda want to go out into the world and go shopping... kind just want to sit on the couch and watch TV.
p647
aV@rdpetti https://t.co/bzvJ3FkAw5
p648
aVBack to Shameless! All this Chicago-ness makes me think about starting an adventure in the city
p649
aVWhat an adventure! https://t.co/gEe4cpScrN
p650
aVhttps://t.co/WlQatHqA4p
p651
aVHaha https://t.co/45UZ0grNMn
p652
aVIn the city! #chicago https://t.co/WZqMcjqn0T
p653
aVRT @TIME: Donald Trump's inauguration draws 18% fewer viewers than Barack Obama's in 2009 https://t.co/GVmpBVUtaL
p654
aV$40 for a Hug N Plush Poppy? Oh ebay you are so cruel
p655
aVRT @8_Semesters: if you're having a bad day, just remember you're not going to highschool today
p656
aVWhen I own a home, I will own a toaster with 4 slots.
p657
aVFriends you can talk with for like 6 hours non-stop are the best kind of friends. &lt;3
p658
aVI feel like the country needs an adult, but the adultiest adult is a large orange toddler.
p659
aVMy Anthem https://t.co/5s1QWakCzv
p660
aVIf I had to vote between Trump, a Nabi tablet, and a Vizio TV for president, I think Trump would be my last choice.
p661
aV"You will never be ignored again" where can I post my letter about how wrong it is for this guy to be president?
p662
aV"Free the earth from disease" - ya but u don't believe in vaccination yo
p663
aV"The hour of action"... as he runs away to take the weekend off -.-
p664
aVRT @HayesBrown: "...and the threat of radical islamic terrorism, which we will eradicate from the face of the earth completely"\u000a\u000a...Oh?
p665
aVThe lady in the audience with the ATT shirt... what? What does that have to do with America?
p666
aVOh no, he's started with the "winning"
p667
aVRT @theintercept: If you can't stomach watching Donald Trump's inauguration speech, watch @jeremyscahill's live coverage of protests: https\u2026
p668
aVI'm in pain too, Obama
p669
aVObama looks like he's in pain
p670
aVHe's actually kind of bashing our country.
p671
aVThis speech has no substance.
p672
aVThe republicans are the ones who let them do it; the past 8 years were "rebuilding", under Obama and friends
p673
aVPoliticians didn't prosper, wall st, big banking, and big business did. Stop blaming Washington
p674
aVThe president is a twat
p675
aVNow for the speech he's been "writing"
p676
aVOmg Donald getting sworn in makes me wanna puke
p677
aVHoly cow the Mormon Tabernacle choir was fantastic!
p678
aVThis inauguration is wierdly religious. Are they all a little weirdly religious?
p679
aVThey are vacuuming rocks off of the roof. It sounds about as pleasant as that sounds.
p680
aVThe nabi tab has an NSA app. What?! #nabiround2 https://t.co/Oz7jCeOuGX
p681
aVStill wayyyy too excited about my trolls https://t.co/qxWsjtjeFS
p682
aVI could probably be a better education secretary, and I don't even claim to know anything about education. #sad #pathetic #DeVos #trump
p683
aVJoined the ILSTU Alumni bookclub!
p684
aVIt doesn't work though. It's just here. An antique. Forever.
p685
aVA real pay phone. In real life. Omg. https://t.co/q8zpB1Qu3P
p686
aVAlong with Vizio Tvs, I also hate sodastreams
p687
aVA bar in Wayne would be the shiznit
p688
aVI wish we had a neighborhood bar like The Alibi Room
p689
aVMy TV is so pretty
p690
aVThe deepest desire of my heart and sold out everywhere :( https://t.co/IBPKxZXT2U
p691
aVDid you know, Vizio panels don't have tuners and therefore aren't considered televisions? Maybe they should just stop making them &gt;:)
p692
aVI think I spent 90 minutes trying to get a Nabi tab to connect to the internet this morning. BS. My children will never own one ever
p693
aVOh Nabi tab - why must you be so cruel https://t.co/SEWEzlX3z9
p694
aVI weep when I see people buying this thing https://t.co/udMOolYoDS
p695
aVCheap tablets (and vizio tvs) will be the death of me
p696
aVMicrofiber couches are clearly superior
p697
aVBald Eagles are literally nesting for the first time ever in our town, yet I've never been so dissatisfied with America.
p698
aVI have eaten A LOT of doughnuts today!
p699
aV"Where would we be without the Internet to tell us how to feel? I mean, gosh, I might actually be... happy. *shudder*"
p700
aVAhhhh Hess. Shameless. \U0001f44c
p701
aVMy dad just used google to search for yahoo yo search for YouTube. #killme
p702
aVI just asked my boss for two weeks off in two months. Let's see how this goes...
p703
aVJust pre-ordered my switch!
p704
aV#Switch with the colorful controllers is suuuuppperrr pretty
p705
aVThey didn't talk about animal crossing :(
p706
aVRT @NintendoAmerica: You are cordially invited to\u2026 PANIC!  #SuperMarioOdyssey #NintendoSwitch https://t.co/OqkCFBC3AF
p707
aVDefinitely gonna need March 3rd off #nintendoswitch
p708
aVBooty booty booty booty rocking everywhere
p709
aVThrowback to when I was unhirable by Disney for not turning in a $10 plain white tshirt
p710
aVMy neck. My back. My netflix and my snacks
p711
aVTapestries are hippy-ish and I like them
p712
aVMom's philosophy on decorating: "Must look like model home." My philosophy on decorating: "Fill it with stuff you like." #conflict
p713
aVFree gloves from garbage man. Pro: Heavy duty gloves. Pro: Ain't no trash getting through these gloves. Con: Stained with trash. Ewww
p714
aVToday, the compactor disconnected from the dumpster and spilled trash EVERYWHERE. Con: Trash everywhere. Pro: Free gloves from garbage man.
p715
aVVizio may be the worst brand of tvs ever made.
p716
aVI'm going to need a second monitor. One for watching trolls on repeat, and the other for playing rocket league.
p717
aVI just want princess poppy everything.
p718
aVToday was the kind of day where everything I touched turned to turds. I half just want to hide out, and half want to try and redeem myself.
p719
aVI ordered a troll from two separate walmarts, and both were out of stock. :( I'm so sad.
p720
aVNo good deed goes unpunished. :(  Sometimes I forget
p721
aVDo you ever wish you had mozzarella sticks so bad that you could just die - but it's too late to go out to forage in the world for some?
p722
aVA random customer told me that my hair was really awesome yesterday and it no joke made my whole week
p723
aVI found my DS charger! No I just need to find the games
p724
aVOmg 10 army dudes from the army section of Reddit agreed with my comment that Cadet Kelly is lit.
p725
aV*Resists urge to be petty*
p726
aVRT @PabloTorre: Whatever is happening with this Mariah Carey concert on ABC is a more perfect ending to 2016 than anything I could have ima\u2026
p727
aVI love Cadet Kelly so much that I will chime in to defend it on a military thread amongst military dudes trying to bash it.
p728
aV\U0001f3b6All I wanna do\U0001f3b6 is install my jeep bumper.
p729
aVI don't play games in the drive through. I have tactical precision. Everyone else can't decide how many ketchup packets they want.
p730
aVWhy can't we say marijuana on the radio?? Who are we protecting?
p731
aVI don't want to go to work this weeeeeekkkkkk. I just want to sit at home in my PJs and eat the rest of my fudge.
p732
aVRT @1019MIXChicago: People are posting the reaction of their pets when they\u2019re called \u201cgood boy\u201d. - https://t.co/WMRSJ9TpSA #animalpersonal\u2026
p733
aVWatching mall fight videos with the fam. #wholesomefamilyevening
p734
aVRT @AlexisRizzi: This was crazy man... https://t.co/VxPZeV0Jbm
p735
aVSo excited about my trolls \u2764\ufe0f https://t.co/TS93qJ0Fhk
p736
aVBut he got the Kim Possible pants to the right place!
p737
aVI think Santa Claus accidentally dropped our golden retriever off at the wrong house. Oops
p738
aV"... the Christmas where Emily caught on fire."
p739
aV"I would have accepted "HARDER"" - family xmas
p740
aVRT @pattomasulo: Forget children, Christmas is for making dogs miserable. https://t.co/AP0OxQFMGc
p741
aVI need more coffee or more sleep or maybe both.
p742
aVOmg my family is so dramatic for no reason.
p743
aVI've lost my 3ds charger and I'm sad
p744
aVHe looks good! :D He'll look even better when he's real and looks at me with eyes full of love. \u2764\ufe0f
p745
aVThis is my "golden retriever under the tree" simulation https://t.co/nko3fnanDf
p746
aVSantaClaus is probably loading my golden retriever into his sleigh right about now \u2764\ufe0f
p747
aVRT @omzimm14: Family roller skating? I think yes. https://t.co/vXnGqrPLNP
p748
aVUpdate: Apparently Dad did not eat all of my Oreos. Maybe I ate all of my Oreos. *sigh*
p749
aVRT @goodhousemag: This Family Cut Their Tree in Half So They Could Prank Their Neighbors https://t.co/qI9ueNCLUS https://t.co/Jek3Omf1Rm
p750
aVCrowded stores are agitating in a special kind of way.
p751
aVI just like walking around Walmart because of how uniquely American it is. So much cheap joyful crap :D
p752
aV"We can do a rematch of twerking!"
p753
aV"Home is where you're surrounded by other critters that care about ya" - Sandy Cheeks
p754
aVThere are no words for the animosity I have for our ATT provided router. &gt;:(
p755
aVI made fun of Dad, but the Winter White Hymnal has actually become a thing. (And I like it - ahhhh)
p756
aVI want to build a bear, but apparently that's for kids. \U0001f625
p757
aVMostly I got over my Post-Disney Depression; and then days like today I just want to watch Wishes on YouTube + cry
p758
aVOmg the Lego Disney castle... $350 tho. \U0001f625
p759
aV\U0001f3b6 A dream is a wish your heart makes... \U0001f3b6
p760
aVmy humps. my humps my humps my humps.
p761
aVWhen you go to eat the Oreos you picked out special from the grocery store, only to find the Oreo troll (Dad) has eaten them all already.
p762
aVhttps://t.co/s3zq9EemnG
p763
aVAlso Lake shore drive at rush hour? Agh what a nightmare
p764
aVThank goodness my bffs boyfriend was willing to go to target at 3am for this. #fun https://t.co/hw98lpYwjo
p765
aVNot really every Feliz Navidad gift card, but probably like 700 of them. My store will have the Feliz-est of Navidads.
p766
aVSo, the warehouse freight sorting machine conveyer-belt broke and sent every Feliz Navidad gift card in the company to my store.
p767
aVNo passive aggressive emails from coworkers. Just me myself and my big giant flame shooting truck.
p768
aVA lot of days, I think I would be a very happy truck driver. Wide open highways. Truck stop snacks. Black Eyes Peas on blast.
p769
aVhttps://t.co/win1WQonaI
p770
aVMy Humps is no longer on my ipod. :( Must. Re. Download.
p771
aVYa know the Katy Perry video where she becomes a marine? \u2764\ufe0f
p772
aVTIL ESPN broadcasts professional drone racing. What a time to be alive
p773
aVBut they're so tasty
p774
aVSomething went wrong with the brownies when I baked them and they're basically 1 step away from being just goo with powdered sugar.
p775
aVAlso I'm cold it's cold my house is cold and I want brownies but they're downstairs in the kitchen in the cold
p776
aVShe is bummed that she did not get one. Nobody even wants one. She just likes the hunt. #omgmom
p777
aVMy mother stood in line at target to try and get a hatchimal this morning. Her kids are adults. My cousins are adults. #omgmom
p778
aVRT @CommonBlackGirI: Looking forward to the day that my husband and I are sitting at the kitchen table roasting tf outta our kids together
p779
aVRT @Its_Has_Mean: I want to be part of the audience for a Martha and Snoop Potluck Dinner Party episode lol
p780
aVhttps://t.co/WnPmxDvZj6
p781
aVWatching Rudolph. Like the old old claymation one. But really, the should just make a whole show about the Yukon guy
p782
aVPeople who make delivery drivers deliver in weather like this are awful
p783
aVToday I called the "Emergency All Hazard Plan" number to tell corporate we were having an emergency and they put me on hold. #thanksbby
p784
aVCoffe &gt; hot chocolate though. Would probably just enjoy hot coffee.
p785
aVHave hot chocolate. Build a snowman.
p786
aVDrive my jeep around in snowdrifts instead of working
p787
aVIf it snows tomorrow, I just wanna have a snowday from work.
p788
aVIsn't this all of us about something though? https://t.co/h67LlM4iJr
p789
aVI needed this thank you https://t.co/MpX1fDspI5
p790
aVThe side street literally 30ft ahead" you deserve every dollar of that ticket.
p791
aVIf you get pulled over by the police and your like "Ahh yes let's conduct this traffic stop on this busy ass 4 lane highway instead of
p792
aVIf the snowplow truck with a trailer attached is passing you, you may need to reassess whether you should have a drivers license.
p793
aVIt would be a perfect companion while I watch The Crown
p794
aVAnd my soul could use some pizza
p795
aVPizza is good for the soul
p796
aVHmmm; if I was living in normal, I would be ordering a pizza right now
p797
aVYet I STILL have time to be on the internet. It's an addiction I tell ya
p798
aVI bought a book to read, I have a whole season of Crown to watch, and I still never got through Sniff it or Whiff it - I'm a busy person
p799
aVIt's like 9 o clock and I'm ready for bed. Like a straight up grandma
p800
aVSo imma read more books! That's the goal!
p801
aVI spend all my spare time sleeping, watching Netflix, or reading internet memes. None of those things are making me smarter.
p802
aVRT @RepDuckworth: I'm excited to get to work representing the State of Illinois, which turns 198 today. Happy Birthday, #Illinois! https://\u2026
p803
aVWhen your friend actually knows THE  Becky from QA. She's basically a Midwest region celebrity - known for her persistent emails.
p804
aV"If anybody knows how to make something whiter, it's Martha Stewart"
p805
aVI do sometimes. But usually beer is involved.
p806
aVI wish I felt that invincible.
p807
aVBut also imagine feeling so invincible that being a literal human monster doesn't even phase you a bit.
p808
aVMartin Shkreli - haha what a twat. Dude who smirked as he was on trial for super-inflating the cost of life saving drugs.
p809
aVWhen your business is running like 20 hours a day, 7 days a week, there's not really such a thing as a "day off"
p810
aV3 days off now!
p811
aVI know yelling at the help desk isn't going to get my issue fixed any faster, but it does make me feel better
p812
aVOnce hatchimals hatch, they're basically a lamer kind of furby. Solution: just buy a furby. Those things are wicked \U0001f601
p813
aVOf course, as soon as I ordered my bumper I found one I like better. The struggle
p814
aVI'm sorry to all the friends family and hobbies I've neglected over the past two weeks. But this Black Friday nonsense is almost over
p815
aVBrittany spears is older and so are we but her music takes me back to being like 7 thinking she was the coolest ever
p816
aVWhen the school bus is passing you, you might going to slow bro
p817
aVBrittany Spears "slumberparty" is a great song
p818
aVJust bought my jeep bumper! Didn't expect to get a cyber monday deal, but I did!
p819
aVWhat a Rough day to get out of bed
p820
aVRT @AlecMacGillis: Just to be clear: a man who'll be president as result of &lt;100K vote leads in 3 states says a &gt;2 million nationwide margi\u2026
p821
aV"Whatever women do they must do twice as well as men to be thought half as good." -Charlotte Whitton
p822
aV@1019MIXChicago What was up with the weird chorus music this morning. Opposite of "amp up for work" music...
p823
aVI don't know what kind of podunk black friday my mom was at. It was SO BUSY. Not to mention everyone at home ordering online.
p824
aVMom: "Ugh black friday was so dead this year." Me: *expects chill day at work* Me: "It's so busy and EVERYTHING IS ON FIRE"
p825
aVWhat was the worst thing to happen this Black Friday? WE RAN OUT OF SHIPPING LABELS. #whyiwastheretil2am
p826
aVI just want to stay up and play guitar hero but it's 4am and that's rediculous really.
p827
aVWhat is gilmore girls and why should I be excited? #netflix
p828
aVAlways always always we run out of shipping labels. You think I would learn
p829
aVIt wouldn't be Black Friday without a random, 1 in stock, not on Plano, nobodies-ever-seen-it-before item popping through for a .com pick
p830
aVRT @DanRelates: black friday is the most overrated holiday parents be attacking each other for a damn toy
p831
aVWe're all like https://t.co/nKzVSvQdv9
p832
aVOther coworker walks in "why are we talking about politics"
p833
aVListening to him complain about it in the break room is halarious
p834
aVMy coworker has been getting tortured by some right wing crazy who has decided to spend thanksgiving lecturing him about Obama
p835
aV"Why does it say Hollister, but I'm a drumstick."
p836
aV"Oh my god we forgot the grace." "We do this every year just keep eating."
p837
aVRT @MikeGrunwald: At this point a seemingly sane, competent, non-racist UN ambassador with no foreign policy experience feels like a giant\u2026
p838
aVWoo! Go women in leadership who've accomplished great things! https://t.co/MhC2pJuU2D
p839
aV"The toilet."\u000a"Kansas"\u000aWhat's the difference?
p840
aV*needs to call friends and gossip* *is too busy enjoying the lizzie mcguire movie soundtrack*
p841
aV*needs to go to the store* *is too busy enjoying the lizzie mcguire movie soundtrack*
p842
aVLies - the island is the most perfect kitchen gathering place known to man and you know it. Where else would be put\u2026 https://t.co/R9crYvIWCl
p843
aVRT @AMAnet: RT @LollyDaskal: Every minute you are angry you lose 60 seconds of happiness. #Leadership #quote
p844
aVMy promise to obtain the Lizzie Mcguire sountrack? HAPPENING RIGHT NOW. If I like you I'll even make you a copy. But only if you ask nicely
p845
aVOmg the police liked my tweet
p846
aVCannot get enough #nintendoswitch news.
p847
aVMy hometown everybody https://t.co/RPP5llwGh2
p848
aVSky high is and will always be the best super hero movie
p849
aVSHE ATE CARBS
p850
aVI'd eat carbs if an Italian boy bought them for me!"
p851
aVI cannot believe that not One roman guy has asked me out yet!"
p852
aV"This cultural experience is so wasted in you."
p853
aVThe evil little brother is so evil
p854
aVEthan Craft is a linguistic genius. Gordo just can't appreciate it
p855
aVSo much conflict. Fear of public speaking, dodging the crazy principal - this should have won an award
p856
aV"This is Rome. Nobody knows how to drive." Ooh like Chicago
p857
aV"Did you just say "cool cheese""
p858
aVOmg that lady just GAVE Lizzie a huge cheese wheel. Probably worth $200. She is not appreciating it
p859
aVI will shortly be obtaining the soundtrack to this movie
p860
aVThe principal leading the trip is the bravest. What high school administrator would risk taking 30 just-out-of-junior-high kids to ROME?!
p861
aV0 flaws, like I said
p862
aV"But you are an outfit rememberer which is even more pathetic."
p863
aVOh my god. "Lizzie McGuire you are an outfit repeater!"
p864
aVThe Lizzie McGuire movie is on Netflix. It's perfect. It has 0 flaws.
p865
aVFamily fun bowling. Family fun laser tag. Family fun roller skating. Family fun
p866
aVThe moment you realize your on the @pakalupapito facebook page, you know you've run out of stuff to read on the internet.
p867
aVRT @SenatorDurbin: #TBT I led the fight against a failed \u201cMuslim registry\u201d after 9/11 and I\u2019m ready to do it again if needed https://t.co/K\u2026
p868
aVRT @BernieSanders: We have got to rally millions of people to stand together, to say, "We are not going to deport millions of Latinos from\u2026
p869
aVMy parents are struggling with technology and it's hard to watch
p870
aVMy cousin NEEDS these https://t.co/4hgC4QAOZs
p871
aVI hope that they make a serious #AnimalCrossing for the switch.
p872
aVI'm SO EXCITED for the Nintendo Switch to come out. More excited than for christmas, or anything. When can I preorder? #nintendo #switch
p873
aVOooh. I forgot though that he doesn't believe in climate change. We're dead.
p874
aVWhen trump said that he wasn't going to kick me off of my parents healthcare, I started thinking that this really might be ok. Not great. Ok
p875
aVSomeone called Obama our "Chicago Jesus". I like it :)
p876
aV"The pizza says New York but the casual gunshot says Chicago"
p877
aVStill so so sad for Clinton though. She worked her whole life for this. This should have been hers. I will never get that close ever.
p878
aVWhen all of this election baloney blows over, I think he'll be serious, and be an ok president. Hire the right people, make good choices.
p879
aVRT @SenSanders: NEWS: Sanders Statement on Trump https://t.co/HEWALfcXW4
p880
aVRT @HillaryClinton: "To all the little girls watching...never doubt that you are valuable and powerful &amp; deserving of every chance &amp; opport\u2026
p881
aVMike Pence is just an absolutely vile slime of a politician though. Trump will probably be ok. Pence though... track record of vile policy
p882
aVWell, this is the first time America has ever had an orange president. #historyismade
p883
aVIf you work hard enough, you can replace depression with exhaustion.
p884
aVWord of the Day: Twigpig (noun): forest ranger. Brought to you by @rdpetti
p885
aV#HillaryClintonButton Mom: "Where are you going to wear that?!" Me: "To thanksgiving!" #hahahanope #crazyrelatives
p886
aVMy hillary clinton button came! It's much larger than expected...
p887
aVOh my god I slept until 330 today. What's wrong with me?!
p888
aVRT @mytalk1071: #SnoopDogg &amp; #Martha have a new reality cooking show! This is such a weird thing, but we love it! https://t.co/DGmDFdUCoL -\u2026
p889
aVRT @dallavallemela1: Martha and Snoop Dogs cooking show is going to save us all after this election
p890
aVRT @hellogiggles: Here\u2019s a first look video at @MarthaStewart and @SnoopDogg on \u201cMartha and Snoop\u2019s Potluck Dinner Party\u201d https://t.co/o84F\u2026
p891
aVRT @YahooSports: Cursed no more! The Chicago Cubs have ended 108 years of agony by defeating the Indians 8-7 in Game 7 of the #WorldSeries\u2026
p892
aV@HayesBrown your sports commentary is on fleek
p893
aVRT @HayesBrown: [sports intensifies]
p894
aV@miggymont26 PERFECT HIT MAN YOU GO MAN
p895
aVRT @HayesBrown: ANGEL: Sir have you made up your mind as to which team you want to win\u000a\u000aGOD: \u000a\u000aANGEL: You have no idea\u000a\u000aGOD: I have no idea\u2026
p896
aVThis game will always and forever go down in history. Dads asleep on the couch. I refuse to miss it.
p897
aVI want to wear my cubs hat. "But last time you wore it they lost" Right. Better not. #superstitionisahelluvadrug
p898
aVTo quote a friend, "Where. Is. Arietta?!"
p899
aVBasically how this week is going. https://t.co/XzkEPJ6aXF
p900
aV44 pallets in 3 days is just evil.
p901
aV"7000 pieces is a lot.... especially when they ram it up your butthole all at once." #wintheholidays2016
p902
aVNew guy: "Another truck that big?! It's not going to fit!" Me: "Oh it's going to fit. Trust me." #wintheholidays2016
p903
aVWhy is Mike Pence disliked in Indiana? It turns out, he's been a disaster. https://t.co/kJPdBLcjzC
p904
aVIf the help desk had frequent flier rewards, I'd have won a free server by now
p905
aV@rdpetti's househunt: "Oh my god; not just one giant centipede but many? That house shouldn't be for sale, it should be burned down"
p906
aV"Ugh I look so tired in pictures." "You just look so tired in life."
p907
aVHe'd be such a perfect addition to our house but my parents are party poopers https://t.co/wEXGmGagQ0
p908
aVCubs hat probs; version with World Series patch is too big, size that fits doesn't have World Series patch. Agh
p909
aVI have my #mcdonalds order down to a precise science, and the car in front of me can't decide what kind of drinks they want. #ugh
p910
aVRT @8_Semesters: "You're gonna hate yourself in the morning if you stay up late"\u000a\u000ajokes on you im gonna hate myself in the morning no matte\u2026
p911
aVI fixed my google chrome issues! #feelingaccomplished
p912
aVRT @rdpetti: I just wanna know where the pretzel place is at! https://t.co/O9uKSPllT0
p913
aVDon't be silly mom, I don't have friends. #nevergoout #iamactuallyprettylame
p914
aVRT @chelseahandler: Are you a bad hombre or a nasty woman? #Debate
p915
aVRT @glamourmag: Hillary Clinton\u2019s #debatenight response about abortion was exactly the one women needed to hear: https://t.co/cJ3nBg6Oha #5\u2026
p916
aVWhat do youtube and the Home Depot facebook page have in common? The worst comment sections on the internet. #omgpeople
p917
aVRT @HillaryClinton: From birth control to cancer screenings, Planned Parenthood has provided care for millions. That's worth celebrating\u2014an\u2026
p918
aVI can't wait until I have a house and can get dogs. Irish Wolfhound por favor
p919
aVRT @8_Semesters: how disappointing is it when u mentally put an outfit together thinking you'll look smoking hot then you put it on &amp; look\u2026
p920
aVRT @8_Semesters: me: im savage i have no feelings u can't hurt me\u000a\u000a*someones raises their voice at me*\u000a\u000aalso me: https://t.co/4h7sgHV8s9
p921
aVDays like today make me wish I went through with my grand plan to drop out of high school and become a truck driver.
p922
aVI'm so bad at cooking that even my boiled eggs came out raw, even after one exploded. :(
p923
aVBut Fred's sugar momma did just totally use the word "bae".
p924
aVI'm not quite sure what's with all the hype #BreakfastAtTiffanys
p925
aVSo I bought the new Paper Mario and realistically I will never finish it but I had to support my favorite game series ever. And it's fun.
p926
aVLiterally, every possible color of bug guts is represented on my windshield. #thanksmissouri
p927
aVThere are bugs eating the smattering of dead bugs off of my car. Cannibals. #ew
p928
aV"Paint is too good. You need an offbrand piece of software that also gives your computer malware. You must suffer for art." -pooflinger
p929
aV#encouraging https://t.co/bve35sNum0
p930
aVSaw @FortLeavenworth today - very like a college campus, right down to bros discussing the booze they were gonna buy at the gas station.
p931
aV"I picked up the poop and I was going to flush it, but you were in the bathroom so I threw it out the window." https://t.co/ZmhIa01FIM
p932
aVA place I love to shop but never spend money https://t.co/GKzh1HKuGE
p933
aVSuper bitter; not my thing, but the can is so pretty. https://t.co/694GWnQBOp
p934
aVhttps://t.co/zFTk3m0TuL
p935
aVBecause I seriously want to go to @Dollywood and appreciate everything about it when I get there.
p936
aVMy mid-october resolution is to become a bigger @DollyParton fan.
p937
aVThat sigh of relief when your computer boots to the desktop just fine after a #windowsupdate
p938
aV"Uh oh. My ratchet is gone!" - Mom. "Wut" - Me and Dad
p939
aVSilver lining: I'll never be hungry again.
p940
aVIt's laid to rest now in the back. Some juices are still on the floor in the garage. I can't. I just can't.
p941
aVOh my god I found it. Dead chipmunk. Half decomposed. Gagging
p942
aVThat moment when you don't work until 2 so your on "somethings died in the garage can you find it?" duty. \U0001f629
p943
aVI could go broke buying fun trinkets from Icing and Hallmark.
p944
aVhttps://t.co/gJ6cBDQhUQ
p945
aVhttps://t.co/4RviuE9yKF
p946
aVRT @SheeeRatchet: Where do I make reservations? https://t.co/d3OKYBGQwT
p947
aVDad: But what do you get out of Pokemon Go?\u000aMe: You get fun, Dad. FUN.
p948
aVHmmmm. Will let you know if we get dive bombed... https://t.co/tvnyAoMGK3
p949
aVJust spent like the past 4 hours chasing Pokemon. Agh I'm tired haha
p950
aVSteak and shake at midnight \U0001f601 my favorite
p951
aV"Cheeseburgers are nice!" - Ash Ketchum
p952
aVRT @AlexisRizzi: MY SISTER AND HER BOYFRIEND BOUGHT, NAMED AND ARE TREATING THE PINEAPPLE LIKE THEIR CHILD https://t.co/W2xLZLgdtb
p953
aV"they're oatmeal raise cookies but I forgot the oatmeal.... And the raisins." Oh dad https://t.co/ULEDtDb00y
p954
aVSomehow we always end up at a Ross. Ugh ugh ugh
p955
aVAlso OMG I can stream content from my computer to my new awesome TV wirelessly. Life. Made. Gonna need a better router now
p956
aV#browniewednesday @ #jewelosco Thank god I decided to go for a late night cookie run.
p957
aVIf you have to fight with your wife in the car, at least make sure that the fight is happening at the speed limit. Ugh
p958
aVRT @N8Nation: Release of #PokemonGO got me like.... https://t.co/8TPi65sSSb
p959
aVRT @AdrianPalomo_: Tomorrow is going to be like\u000a #PokemonGO https://t.co/p7iiS8N7nT
p960
aVIt's a "Lack" tv stand. Lacking any kind of design elements that would make it visually appealing. But, cheap! #ikea https://t.co/aGAzrHpcin
p961
aVFigured out how to make my game stop crashing. Yay steam support discussion boards! #medivaltotalwar
p962
aV"It's LinkedIn! It's a social network designed to make you feel bad!
p963
aVThe ISU South Campus raze cam really should be a twitch channel with a live commentator. Make it happen @WZND
p964
aVMet a cute guy while getting my mail. Totally flubbed the interaction. *sigh*
p965
aVThe problem with getting up early, is that now it's only noon and I've run out of things I can do without spending money. #sigh #bored
p966
aVI NEED a picture with #fredbird for my pictures-of-me-with-mascots collection. So important omg. #buschstadium #STLCards
p967
aV"I see a lot of weird things on the Internet, soooo 'ancient band people' isn't very specific" - Alex
p968
aVRT @WomensHumor: A yawn is a silent scream for coffee.
p969
aVIphone playing some kinda Akon/Lil Durk mixture. It's like it knows I'm sad and it's tryna cheer me up.
p970
aVAlex gave me a Hawaiian shirt. I've been wearing it all day. It's not him, but it helps.
p971
aVhot pockets are kind of like pizza... right?
p972
aVTake care of your people. Do the little things right. Character counts.  http://t.co/bHMfY7I6nj
p973
aV"Pave is generous and attractive so Pave will give you this Pave table" Honestly, this game is too much. :) #AnimalCrossing
p974
aVRT @8_Semesters: Makin my way downtown, walkin' fast, haulin' ass, CAUSE IT'S COLD OUT.
p975
aVThat moment when the super cute yeti hat you want from @Snorgtees is sold out D:
p976
aVKept a promise to myself today and applied for some super cools internships. Feelin good. :D
p977
aVWent to bake brownies. Oven is broken. All gusto lost.
p978
aVI found $40 in my pocket. Such a great day. #money
p979
aVAnnnnnd we have Christmas lights!
p980
aVBut him and his busses don't rule the road. I do! :D
p981
aVGot yelled at by a middle school principal today. #college
p982
aVWaffles!
p983
aVIt's 8:30 and I'm going to bed. I'm like on old lady omg.
p984
aVYess; bonuses this month.
p985
aVRain makes mustering up the oomph to go to class infinitely harder. Ugh.
p986
aVThe best kind of correct is technically correct.
p987
aVShould I nap or should I have coffee? Maybe I'll nap and then have coffee.
p988
aVAll I want to do is lay on the couch and watch mobwives. But... There's homework to do. *sigh*
p989
aVI'm so tired I could die. But this paper needs to be done. :/ I just wanna #passout
p990
aV"ANCIENT BAND PEOPLE" We have the best fun websurfing.
p991
a.