(lp0
VRT @CNN: The Chinese government has legalized the use of endangered tiger and rhino products for medical purposes, a move wildlife activist\u2026
p1
aVRT @cemcostello: I made a meme about punctuation https://t.co/2Dy2qGR3D2
p2
aV@MattEhalt I'm a simple man. Whatever the dessicated husk of the Wilpon brain trust most clearly wants, I want not-that
p3
aV@JackPosobiec Have any of you morons paid attention to what happened in Nicaragua lately? When the government there\u2026 https://t.co/2tZGP7o2l1
p4
aVTrophy hunting is always immoral https://t.co/ppVrDdWaVl
p5
aVRT @paulloduca16: How Angel Hernandez is still umpiring let alone the playoffs is unreal to me. He is far the worst umpire in the league. E\u2026
p6
aV@USMC__0341 @Americanpolit12 @JackPosobiec This view, taken to its logical conclusion, would justify the Holocaust, you psycho
p7
aVRT @ashleyfeinberg: i just keep thinking about kavanaugh sneering \u201cwhat goes around comes around"
p8
aV@minear_j @CChristineFair Peanuts are legumes, dumbass
p9
aVTrophy hunting is never acceptable https://t.co/nsdcH7hOSp
p10
aVRT @cmlwilson: I am commuting next to a man in a three piece suit (including gold pocket watch chain), walrus moustache and spectacles, and\u2026
p11
aVRT @ULTRAGLOSS: fuck your zodiac sign were you a greek mythology kid or an egyptian mythology kid
p12
aVRT @DrRubidium: example of a debate where you gotta hear both sides:\u000a            dry rub vs. wet rub\u000a\u000aexample of a debate you ain't gotta h\u2026
p13
aVRT @TimBritton: Thirty-one percent of Jason Vargas' strikeouts this season have come against an opposing pitcher.
p14
a.