(lp0
VRT @BarackObama: Not sure who and what you can vote for? Head over to https://t.co/SHxg6ael0O to look up your state, learn who's running to\u2026
p1
aVDon't forget to get out and vote early!\u000a#GOTV
p2
aV@realDonaldTrump We need more Dems in office!
p3
aV@realDonaldTrump Grammar check!
p4
aVJenna's 1st Bulls game!!!\u000a\u000a#BullsSocialNight https://t.co/iW7ZrnhCY0
p5
aV@realDonaldTrump @DHSgov Use that money to do something about the school shootings in America!  Increase funding for the mentally ill.
p6
aVMerry Christmas https://t.co/yclwnWM05N
p7
aV@realDonaldTrump Will we be getting checks in the mail?
p8
aV@realDonaldTrump America has ALWAYS been great!
p9
aVLove you@PhillipUranus
p10
aV@realDonaldTrump What a douche!
p11
aVMe and Tim Spinnin Schoummer! https://t.co/rdk2DzEvYg
p12
aVJoe Roe https://t.co/2iVaxB1WlC
p13
aVThank you for all of your support during this difficult time. \u000ahttps://t.co/FFYSsVDWYm @gofundme @ACIM_original\u2026 https://t.co/hCWnzfdkuV
p14
aVI'm raising money for Joe Wolfe's Memorial Fund. Click to Donate:  https://t.co/R5emx8WGAa via @gofundme
p15
aVI'm supporting American Foundation for Suicide Prevention in Jimmy's honor. Please donate!\u000ahttps://t.co/52BB6uPegL via @DonorDrive
p16
aVI'm supporting American Foundation for Suicide Prevention! https://t.co/52BB6uxCSb via @DonorDrive
p17
aV@moneysnk John...call me 708-769-5087  It's an emergency!!!
p18
aVDon't let negative people rent space in your head &lt;3 https://t.co/wQbemvKwFe
p19
aVRT @ChaleneJohnson: When you don't have a plan, your life feels out of control.  https://t.co/z6X745hNwl https://t.co/HBuvk1pJBw
p20
aVDay 3 of Turbo Fire!  I think I found my new favorite workout program!  #turbofire #ChaleneJohnson  #secretgirlcrush
p21
aV@MyGothGamerGirl hmmmm
p22
a.