(lp0
V@BostonDotCom Nice
p1
aVRT @DEACHICAGODiv: DEA yesterday and today, POWER and FORCE......ALWAYS! #DEAHQ, #DEAChicago, #DEAStLouis, #Mexico, #InThisTogether https:/\u2026
p2
aVRT @DEACHICAGODiv: #DEAStanley out and about today with counterparts - making sure the public knows #DEA does everything possible to work w\u2026
p3
aVRT @DEACHICAGODiv: #FugitiveFriday: Wanted by @DEAChicago LET's RETWEET TO CATCH! Lorenzo SALGADO YOB: 1943 Residing in #Mexico Charged wit\u2026
p4
aVRT @DEACHICAGODiv: #ThinkTwiceThursday Facts: #Vaping #MarijuanaOil is more dangerous than smoking it. RISKS: Users tend to vape a higher c\u2026
p5
aVRT @DEACHICAGODiv: #DEAChicago partnering with our Law Enforcement counterparts - One #Chicago standing together against Gun Violence @Chic\u2026
p6
aVRT @realDonaldTrump: .@AsaHutchinson, the great Governor of Arkansas, is in a primary tomorrow. He has done an incredible job with a focus\u2026
p7
aVRT @SecPompeo: It\u2019s not a pipe dream to ask the #Iranian leadership to behave like a normal, responsible country.  Our asks are simple.
p8
aVRT @codeofvets: THIS IS A CELEBRATION OF LIFE! Our God is in the business of miracles! Ranger Frank IS getting the help he needs\U0001f64c\U0001f3fc\U0001f1fa\U0001f1f8 https:\u2026
p9
aVRT @DEACHICAGODiv: #DEAChicago #ThrowBackThursday Past and Present - Former DEA Administrator Peter Bensinger and current DEA Chicago Agent\u2026
p10
aV@DEACHICAGODiv Agent Stanley takes it to High Levels!
p11
aV@DEACHICAGODiv Nice work Agent Stanley.  Thank you for helping with the DEA take back
p12
aVRT @DEACHICAGODiv: #DEAChicago @NorthwesternMed partners for #DEATakeback Agent in Charge McKnight and #DEAStanley hard at work with the me\u2026
p13
aVI-Team: New drug sheriff in town https://t.co/qH0Rs8dKQZ via @abc7chicago
p14
aV@taytaymck Stop
p15
aV@taytaymck @LindsMkn @smurrrrr \U0001f61d
p16
aVRT @Comey: \u201cI want the American people to know this truth: The FBI is honest. The FBI is strong. And the FBI is, and always will be, indepe\u2026
p17
aVRT @realDonaldTrump: The approval process for the biggest Tax Cut &amp; Tax Reform package in the history of our country will soon begin. Move\u2026
p18
aV@FLGovScott Best Governor
p19
aV@realDonaldTrump Great leadership
p20
aVRT @realDonaldTrump: I will be traveling to Florida tomorrow to meet with our great Coast Guard, FEMA and many of the brave first responder\u2026
p21
a.