(lp0
V#vote the most important thing we can do as citizens, other than volunteering our time to the community, is to vote.
p1
aV@realDonaldTrump It\u2019s actually 401(k)\u2019s. Always include the parentheses.
p2
aV@BruceFo57208316 @alllibertynews @LPNational Agreed but how do we gain credibility on our own merits rather than ju\u2026 https://t.co/F1rGubgVlO
p3
aV@LPNational how can libertarians overcome the harshest criticism which is that they have the best of intentions, pl\u2026 https://t.co/aZoSRaSxUW
p4
aV#HowISurviveIn4Words Before speaking, think first. #footinmouthpoliticians
p5
aV@LPNational One must speak softly and carry a big stick with the words constitution engraved on the handle. #Constitution
p6
aV#Vote The great machine of our country only works if the gears are moving. Cogs may not always be the same size and\u2026 https://t.co/7kmAmHrhAi
p7
a.