(lp0
VRT @LUnderwood630: #TeamUnderwood, the energy is on our side. Our four offices across the district are PACKED with volunteers. We have one\u2026
p1
aVRT @chelseaperetti: Vote like a bunch of school children were shot and a bunch of other children were put into camps indefinitely bc they w\u2026
p2
aVRT @jodilasky: During the Kavanaugh hearings, as he melted down like a toddler at nap time, a lot of people asked how someone falsely accus\u2026
p3
aVRT @louisvirtel: Alec Baldwin suffers from a psychological condition known as Too Many Chances.
p4
aVRT @priaribi: One of the most striking things I learned from @amandalitman\u2019s book was that the highest paid state employee is often the hea\u2026
p5
aVRT @Scholten4Iowa: How do you build a campaign:\u000a...that is funded by regular people?\u000a...that fights for Iowans, not special interests?\u000a...t\u2026
p6
aVRT @RBReich: https://t.co/9Jp0Ipps99
p7
aVRT @brianbeutler: Hi, the president is engaging in a murder coverup to protect cash flows to his private businesses.
p8
aVRT @TVietor08: I'm sure Brett Kavanaugh is thrilled to hear Trump suggest that he's just as innocent as those homicidal maniacs in Saudi Ar\u2026
p9
aVRT @LUnderwood630: TOSS. UP. That's how far we've come in 14 months, #TeamUnderwood\u2014all thanks to you. In the final 23 days of this race, l\u2026
p10
aVRT @mercedeslynz: It's a really scary time for dudes right now. So I wrote a song about it. Go #vote friends!  #TheResistance #1Thing @ACLU\u2026
p11
aVRT @BetoORourke: Let's use this moment of disappointment as a spur to renew our commitment in our Democracy, and making sure that it repres\u2026
p12
aVRT @Sifill_LDF: Guilty. https://t.co/fN64gnbDc3
p13
aVRT @jbouie: Nice of United States senators to casually slander reporters for noting a fact about American history. https://t.co/MJh7vqzVQV
p14
aVRT @mtstoffel: \u201cPicture the person whose vote you want to cancel out, and then go vote.\u201d @morninggloria https://t.co/Y3Z7zNIjQk
p15
aVRT @maggieNYT: Regardless of whether Ford is right about what took place or Kavanaugh is, if any woman who felt wrongly accused fought for\u2026
p16
aVRT @TheDweck: If you say you believe Dr. Ford but you don\u2019t believe it was Kavanaugh, then you don\u2019t believe Dr. Ford
p17
aVRT @jonfavs: Hell yes. Indiana, you have a Senator who did the right thing when it counted. Send @JoeforIndiana back to Congress https://t.\u2026
p18
aVRT @mattyglesias: Democrats: Let\u2019s call additional witnesses and have the FBI investigate.\u000a\u000aRepublicans: Nah, no investigation.\u000a\u000aJeff Flake\u2026
p19
aVRT @TVietor08: Two minutes and twenty seconds that lays bare the cowardice of @JeffFlake https://t.co/NN9TBwnB33
p20
aVRT @joanwalsh: Gotta go to bed. But I leave you with Kavanaugh's answer when @amyklobuchar asked about his drinking: "You're asking about b\u2026
p21
aVRT @KenDilanianNBC: The fact that Judge Kavanaugh will not agree that the FBI should investigate what he says are false allegations against\u2026
p22
aVRT @guycecil: I will never personally or professionally support any Democrat who votes to confirm Kavanaugh.
p23
aVRT @anchorlines: its the weekend baby. you know what that means. its time to drink precisely one beer and write it on my calendar
p24
aVRT @MrEmilyHeller: Who are these alleged \u201cliberal feminists\u201d who are texting Kavanaugh their support? Are they actual liberal feminists or\u2026
p25
aVRT @AlyssaMastro44: Yes she can #ThankYouDrFord https://t.co/fzxAKcOL1Y
p26
aVRT @danpfeiffer: I am shocked that given a choice between a woman who says she was sexually assaulted and the man she says sexually assault\u2026
p27
aVRT @svershbow: Thankful we can all agree to hate George W. Bush again https://t.co/0li6EDWq3s
p28
aVRT @jonfavs: There is absolutely zero justification for holding a vote on Kavanaugh in light of the Post story. Zero.
p29
aVRT @JasonKander: I\u2019m as excited as anyone to see President @BarackObama return to the campaign trail soon, but remember: No one can do this\u2026
p30
aVRT @jonfavs: @TVietor08 @brhodes @ColinKahl @jonfiner @danpfeiffer @nedprice Starting a GoFundMe to buy @jonlovett\u2019s way onto the Trump NSC\u2026
p31
aVRT @GoldenKnights: You can say she\u2019s a... golden Knight \U0001f947\U0001f1fa\U0001f1f8 https://t.co/ZTP4mq1qlH
p32
aVRT @PeteBlackburn: I have no clue how USA-Canada manages to live up to the hype every time but inject it straight into my veins
p33
aVRT @PeteBlackburn: Checking is illegal but apparently this is cool https://t.co/EsUFgVbzSd
p34
aVRT @AoDespair: Today marks the first, fresh day of being told now isn't the time to discuss gun control after the newest worst mass killing\u2026
p35
aVRT @soIoucity: i wish i had this much confidence in anything ive ever did in life. https://t.co/ZgV64p8rk5
p36
aVRT @Lance_Bradley: Pepsi: That was the biggest PR blunder of the week, year maybe.\u000a\u000aUnited: Hold my beer.\u000a\u000aSean Spicer: LEEEEEEEEEERROOOOOO\u2026
p37
aVRT @ReliableSources: "Triple check before you share." https://t.co/KRF1mMpGIl
p38
aVRT @davidschneider: Poor America. Such a tough choice: a lying, misogynist, racist, dangerous, unpredictable narcissist, or a woman who use\u2026
p39
aVRT @NickMerrill: That look when you cap off a day on the trail by watching the @Cubs cement their trip to the #WorldSeries. #FlyTheW https:\u2026
p40
aVRT @Luvvie: BTW, 88% of Congress is up for election this year. November is beyond just voting for President. Not voting shouldn't be an opt\u2026
p41
aVRT @lindacohn: The NHL can't be serious about preventing head injuries when the Orpick intentionally high hit vs Maatta is not called a mat\u2026
p42
aV@usahockey #LetThemPlay
p43
a.