(lp0
VRT @SarahKSilverman: So @SenatorCollins either thinks that THREE women LIED to their husbands and therapists and children about sexual assa\u2026
p1
aVRT @SenKamalaHarris: Kavanaugh chooses his words very carefully, and this is a dog whistle for going after birth control. He was nominated\u2026
p2
aV#StopKanavaugh https://t.co/a6NA7fHU3b
p3
aVRT @BarstoolNewsN: INJECT TED CRUZ FAILING AT DUNKING RIGHT INTO MY VEINS https://t.co/DVC1pgRoPU
p4
aVRT @SenSanders: John McCain was an American hero, a man of decency and honor and a friend of mine. He will be missed not just in the U.S. S\u2026
p5
aVJoin us in calling on world leaders to step up and meet the need for women\u2019s health. https://t.co/LQUV9ZtWFB #globalcitizen
p6
aVRT @SenatorDurbin: MORNING READ: Anne Frank and her family were also denied entry as refugees to the US https://t.co/P1WQBRMtVD
p7
aV#Chicago https://t.co/j1VFvQj0aM
p8
aVSame girl. https://t.co/JHKfKca6hU
p9
aVRT @StephenAtHome: Trump\u2019s Presidential Library will be divided into two sections: \u201cNon-Fiction\u201d and \u201cAlternative Facts\u201d.
p10
aVEmergency Guide from @PPact on how to be a Planned Parenthood Defender: https://t.co/L8rjOZBDxy #IStandWithPP
p11
aV@SenatorDurbin What is your position on the executive order reinstating "The Mexico City Policy"?
p12
aVRT @Nick_Offerman: #WomensMarch book in the works! Details to follow. Let's get @KellyannePolls a nap, her shit is tired. #Fact https://t.c\u2026
p13
aVRT @Nick_Offerman: Hey could someone do a dope coffee table book of all the genius/righteous signs frm #WomensMarch &amp; proceeds go to @PPact\u2026
p14
aVRT @ByronYork: 'No one would have thought when the Constitution was written that paying your hotel bill was an emolument.' https://t.co/Xs9\u2026
p15
aVRT @HillaryClinton: We cannot back down from breaking the barriers that keep us from living up to our full potential. https://t.co/2Lt322cQ\u2026
p16
aVRT @LaurenSivan: While you're at it, FBI, can you also force #Apple to suspend auto-correct when typing the F word? No one ever means "duck\u2026
p17
aV@FBI Have you tried the thumbprint yet? Could save ya a lot of grief. Just a thought.  #AppleVsFBI
p18
aVI wish I was making all that $$$ from surveys.
p19
aVRT @BarackObama: This seat's taken. http://t.co/tvHZDcfw, http://t.co/jgGZTb02
p20
aV@kevinsahnd If I make a trip to San Diego will I be as cool as you?
p21
aV@cp3bman17 do not look at me in the eyes #pinacoladas
p22
aVomgomg http://t.co/qJZMFAo #latenightwithjimmyfallon
p23
aV@cp3bman17 Since you left @satsuma_citrus doesn't feed me anymore #imhungry #comehometome
p24
aV@satsuma_citrus i think the best costume is a house dress and this fedora #greygardens
p25
aV@staceymeowmeow kickball tonight what uppppp #timmyvinnybinnie
p26
aV@satsuma_citrus Are you going to forget all about me now that you are a Yelp celebrity?
p27
aV@cp3bman17 thin ice.
p28
aV@satsuma_citrus you better make sure I get my wine or else.
p29
aV@Testaalp where else would you meet boyfriends?
p30
aV@bennygarland3 I think you mean notorious dog-snatcher & one time beer pong winner #terranceisthebest
p31
aVGod you're pampered @cp3bman17
p32
aVkickin it at arlington race track @satsuma_citrus @cp3pman17
p33
a.