(lp0
VGreat day canvassing for Sean Casten and other IL Democrats! #Flipthe6th #BlueWave2018 @podsaveamerica\u2026 https://t.co/sHhGGgTamI
p1
aVThis is what democracy looks like! https://t.co/yzx1jJUWVd
p2
a.