(lp0
VCan\u2019t wait until we have @lisa4congress fighting for her constituents and standing up to the Trump admin\u2019s reckless\u2026 https://t.co/OwZHGUTK9O
p1
aVSo proud to be supporting climate champ @SeanCasten for Congress! https://t.co/PN2UYcBXc3
p2
aVBeautiful day for #GOTV. Let\u2019s flip #VA05 @LCVoters @LeslieCockburn https://t.co/533zaYpgIo
p3
aVREAD @CNN\u2019s nightmare listicle: 6 ways climate change will compromise your health. #ActOnClimate  https://t.co/7JyC3ZTgm8
p4
aVAlmost unbelievable. Almost. Thank you @SenatorCarper for standing up to this madness. https://t.co/cnPcQINZR6
p5
aVRT @CoralMDavenport: SCOOP: \u2066@EPA\u2069 has completed its legal plan to weaken regulations of mercury,a neurotoxin that causes brain damage in f\u2026
p6
aVProud to be in Chicago on behalf of @LCVoters standing up with @ilenviro and @ChispaLcv and saying NO to the\u2026 https://t.co/tbDtdJ9Wc5
p7
aVRT @ChispaLcv: "For far too long environmental justice communities have been on the frontlines of environmental injustices\u201d -Dulce Ortiz wi\u2026
p8
aVProud to be fighting against Kavanaugh with all we\u2019ve got. @LCVoters @T_Sittenfeld @madfoote @darienldavis\u2026 https://t.co/PJJF19Rm07
p9
aVPowerful rally outside the Supreme Court happening right now. So proud we are all in against Judge Kavanaugh.\u2026 https://t.co/JXJMxfltr7
p10
aVThank you @SenTinaSmith for speaking out so powerfully against Judge Kavanaugh! #StopKavanagh #BelieveSurvivors https://t.co/3XqRAE0L2d
p11
aVRT @TaMa_Le: https://t.co/SZRfJTIjai
p12
aVEnough is enough #BelieveSurviviors #StopKanavaugh #IBelieveDoctorChristineFord #IBelieveDeborahRamirez https://t.co/S3hUPkDQ2e
p13
aVRT @ALCassady: I'm glad the @EPA isn't weakening the safety standards that these giant ponds of toxic waste have to meet. \u000a\u000aOh, that's righ\u2026
p14
aVRT @womensmarch: We\u2019re in the Senate Hart Building with hundreds of women, femmes, and allies to say #IBelieveChristine. https://t.co/WtNH0\u2026
p15
aVRT @NCLPAC: .@adamlaxalt has consistently put polluter profits ahead of public health and #Nevada\u2019s #cleanenergy economy. That\u2019s why he\u2019s e\u2026
p16
aVRT @AGBecerra: Here\u2019s a sneak preview of my speech tomorrow at the Global Climate Action Summit, @GCAS2018. In California, we\u2019ve successful\u2026
p17
aVRT @PastCoal: This is the story of Washington State's TransAlta #Coal Plant, of the negotiations between environmentalists, the owner and l\u2026
p18
aV\u201cClimate change threatens our jobs, our workers and our economy...We must create good jobs and good lives for worki\u2026 https://t.co/5erDfYrXon
p19
aV\u201cTransition to the new climate economy is the growth story of the 21st century. It is an inclusive economy that put\u2026 https://t.co/neleqFXpgN
p20
aV\u201cClimate change is one symptom of a broken economy. This economy trashes the environment. It trashes ordinary peopl\u2026 https://t.co/pIzmYnSyaq
p21
aV\u201cClimate change is a political problem, not a technical problem. This is about equity and justice. We need people p\u2026 https://t.co/3FCGCXb7wG
p22
aVNJ Gov Phil Murphy on stage at #GCAS2018 touting his commitment to 100% clean energy by 2050 and his excitement aro\u2026 https://t.co/m9CjuoKRJM
p23
aVRT @LCVoters: FACT CHECK: Wrong. So wrong. Astoundingly wrong.\u000a \u000aThe UN Sec Gen is citing a finding from a published, peer reviewed report\u2026
p24
aVGwich\u2019in leader speaks powerful truth to the #GCAS assembly \u201cwe must realize none of us are separate from the Earth\u2026 https://t.co/vIs9WSQHNS
p25
aVInspiring and galvanizing remarks from Barbados PM \u201cto the citizens of the world, this is our battle\u201d \u2014 \u201cthe time f\u2026 https://t.co/9yQAf19CfX
p26
aVLearning from indigenous leaders about what it takes to do renewable energy right \u2014 equity, empowerment, participat\u2026 https://t.co/GMXkoPUloR
p27
aV#CleanEnergyForAll is about building pollution-free communities for all -- and candidates up and down the ballot ar\u2026 https://t.co/0w34pEVIwA
p28
aVRT @craigauster: Today, enviro champion &amp; @LCVoters AF candidate @TomCarperforDE is facing a primary in which he's been unfairly attacked.\u2026
p29
aV\u201cNo better example of this Administration\u2019s culture of corruption than the EPA.\u201d \u2014 @LCVoters Gene Karpinski railing\u2026 https://t.co/BQD5AbCKSU
p30
aVRT @LCVoters: WATCH LIVE: @SenMarkey kicks off the response to the #DirtyPowerScam. Follow along here: https://t.co/rf8LuUorab https://t.co\u2026
p31
aVFeeling so thankful for the incredible and brilliant team at the @tsalliance. Such good information and experts at the #worldTSCconference
p32
aVRT @LCVoters: BREAKING: Trump administration officials dismissed benefits of national monuments https://t.co/HKoUC7KPiP
p33
aVRT @NancyPelosi: The Trump Admin\u2019s toxic agenda is threatening the health &amp; wellbeing of children &amp; families all across the nation. #People\u2026
p34
aVRT @davidwillett: Supreme Court Nominee Kavanaugh Could Reinterpret Environmental Law https://t.co/UDosfwMjPG via @bloombergbna #saveSCOTUS
p35
aVRT @LCVoters: Bedrock environmental safeguards and civil rights are on the line \u2014 we can\u2019t afford to stay silent, we must speak out and #St\u2026
p36
aVIncredibly passionate and powerful protest outside the Supreme Court tonight following nomination of radical Judge\u2026 https://t.co/QWSXpam65S
p37
aVThe stakes for our environment, our health, and our democracy have never been higher, and the fight over this Supre\u2026 https://t.co/4fJN6Ded4V
p38
aVRT @davidwillett: Carol Browner Statement on Scott Pruitt\u2019s Resignation https://t.co/O2Pa4tEowd via @LCVoters #Bootpruitt
p39
aVGood riddance @EPAScottPruitt. Your ethical transgressions dominated headlines but your unrelenting efforts to turn\u2026 https://t.co/HBuDsOIzi0
p40
aVThx @npratc for covering the #SaveSCOTUS rally and including me and my young daughter\u2019s take on what\u2019s at stake wit\u2026 https://t.co/2hIbvKRXSx
p41
aVRT @npratc: A nationwide program helps parents of children with developmental disabilities \u2014 and people with disabilities themselves \u2014 advo\u2026
p42
aVThx @NelsonForSenate for all you do to stand up to polluters and to protect our beaches, our communities and our ki\u2026 https://t.co/cwlwftOzBI
p43
aV\u201cAs former government ethics officials, it\u2019s clear to us that @EPAScottPruitt can no longer effectively or meaningf\u2026 https://t.co/pS4ryZVH2u
p44
aVPowerful and inspiring #familiesbelongtogether rally + march. No one better to protest w/ than @craigauster! https://t.co/nNfK5lZ0T1
p45
aV@TaMa_Le Thank you @TaMa_Le!
p46
aVRT @LCVoters: Our courts are worth fighting for \u270a https://t.co/HHmzxrdLw2
p47
aVRT @repblumenauer: .@repmarkpocan &amp; I have legislation to #AbolishICE. It's time we start over &amp; restore a more humane and service-oriented\u2026
p48
aVThank @jontester for all you do to protect Montana\u2019s public lands \u2014 for today, for tomorrow, for the next generatio\u2026 https://t.co/yIKyqNgDbj
p49
aVRT @HerbNJDC: At Hart Senate atrium right now protesters chanting \u2018We care,\u2019 holding signs reading \u2018abolish ICE\u2019 https://t.co/uZroGrDqvz
p50
aVWhile @EPAScottPruitt\u2019s scandals grab most of the headlines it is his war on science, health protections, and now t\u2026 https://t.co/RCtvRyQY6v
p51
aVRT @LCVoters: Pruitt's EPA is attempting to rollback chemical facility safety standards that help keep workers and communities safe from ch\u2026
p52
aVProud to be outside the Supreme Court today with a broad and powerful coalition fighting for a high court that will\u2026 https://t.co/TeILGH0MBd
p53
aVLet\u2019s be clear. Today\u2019s decision in #JANUSvsAFSCME hurts us all. Unions are a key part of a healthy democracy and f\u2026 https://t.co/e3lwASS2UD
p54
aV.@SenatorCarper \u2013 thank you for calling for a hearing on @EPAScottPruitt\u2019s \u201cunprecedented behavior\u201d as soon as poss\u2026 https://t.co/AHIZb5KWAM
p55
aVRT @LCVoters: .@EPAScottPruitt says the EPA won't consider the danger of asbestos in homes and businesses -- putting lives at risk. This co\u2026
p56
aVRT @ELMActionFund: Headed out to Capitol Hill for #LCVLobbyDay2018. We're ready and excited to lend our voices in the fight for #MonumentsF\u2026
p57
aVGreat kick off to packed house for #LCVLobbyDay2018! Thank you @RepJayapal and @RepMcEachin for your incredible lea\u2026 https://t.co/bmeCaTWvOs
p58
aVAmerica\u2019s best parks program is scheduled to expire 9/30. Today LCV + 31 state partners we sent a letter to every M\u2026 https://t.co/GKHrzyWKd6
p59
aVAs families hit the road for #MemorialDay, @EPAScottPruitt plans to gut #CleanerCars standards that are delivering\u2026 https://t.co/DuCUvrNWy5
p60
aV\u2696\ufe0f Patrick Wyrick, a Trump judicial nominee w/ a hearing tomorrow, was @EPAScottPruitt's Solicitor General in Oklah\u2026 https://t.co/NWtoR9fXwQ
p61
aVRT @LCVoters: The #2020census is essential for determining legislative districts &amp; budgets. A citizenship question alienates communities in\u2026
p62
aV\u201cMothers are warriors. We are the truth tellers. We are the leaders we\u2019ve been waiting for.\u201d \u2014Kristin Rowe-Finkbein\u2026 https://t.co/uFJhjFpNta
p63
aVRT @CAPAction: .@EPAScottPruitt\u2019s habit of deflecting and outright lying to the Senate might hint at more investigations in his future. He\u2019\u2026
p64
aVFrom one mom to another, thank you @NancyPelosi for hosting this #MomsSummit. You\u2019re completely right, when women s\u2026 https://t.co/Wh87TVDr7P
p65
aV@smrtgrls Thank you for raising awareness about TSC!
p66
aVICYMI: Scott Pruitt kept dodging ethics questions this week before Congress. Here\u2019s an entertaining (and frustratin\u2026 https://t.co/Qq6bH7brql
p67
aVThank you @RepDebDingell fighting so forcefully for clean air protections at today\u2019s hearing with @EPAScottPruitt \u2014\u2026 https://t.co/2SLQ6fCID3
p68
aV.@RepDianaDeGette - thank you for taking @EPAScottPruitt to task on his $43,000 soundproof phone booth and remindin\u2026 https://t.co/VHqdYokWNl
p69
aV.@RepScottPeters gives example after example of conflicts of interest for @EPAScottPruitt and his political appoint\u2026 https://t.co/V727pqBqwB
p70
aV.@CongressmanRuiz making crystal clear what is at stake with @EPAScottPruitt: \u201cYou are acting to protect your corpo\u2026 https://t.co/TpI9GAU4yx
p71
aVPowerful opening statement from @FrankPallone: \u201cYou are unfit to hold public office and undeserving of the public\u2019s\u2026 https://t.co/ewcG2RNTz1
p72
aVThank you @RepPaulTonko for calling out @EPAScottPruitt\u2019s dangerous record, abuse of taxpayer dollars, and ethical\u2026 https://t.co/X5oPUedP11
p73
aVPacked house and massive amount of press for @EPAScottPruitt hearing in @HouseCommerce https://t.co/LITEmb4F2O
p74
aVMassive crowd here awaiting @EPAScottPruitt and his first testimony on Capitol Hill since he became mired in ethics\u2026 https://t.co/63NcUuNKsh
p75
aVRT @T_Sittenfeld: .@LCVoters Gene Karpinski leads the crowd in a chant:                              Hey Hey Ho Ho!                       P\u2026
p76
aVThank you @SenSchumer \u2014 We couldn\u2019t agree more! #BootPruitt https://t.co/F5aFCG7zNk
p77
aVRT @jwalkenrdc: My research concluded @EPAScottPruitt lost or backed down in the face of more lawsuits during his 1st year as EPA Administr\u2026
p78
aVRT @RevYearwood: The good folks @FoxBusiness told us @HipHopCaucus that we are a little unfocused in our approach and while #climatechange\u2026
p79
aVHot off the presses: @RepDonBeyer &amp; @davidcicilline lead letter from 64 US Congressmen and Congresswomen calling fo\u2026 https://t.co/jb23G4QRpi
p80
aVOne of Pruitt\u2019s top aides resigns from @EPA \u2014 claims no connection to scandals surrounding @EPAScottPruitt. \U0001f914\u2026 https://t.co/gFUoxieO4p
p81
aVRT @azcentral: #BREAKING SRP elections: 2 solar candidates unseat incumbents https://t.co/10B9wyawLV
p82
aVJust wow. @EPAScottPruitt absolutely flunks his interview w/ @edhenry on @FoxNews. Can\u2019t explain his sweetheart con\u2026 https://t.co/r7uzOr1Dlg
p83
aVRT @LCVoters: WATCH: @foxnews called out @EPAScottPruitt on his mounting scandals. #BootPruitt https://t.co/jDtsBxH3wh
p84
aVAnd now this...\u000a\u201c@EPAScottPruitt\u2019s D.C. Lobbyist Landlord Also Funded His Oklahoma Attorney General Campaign\u201d (via\u2026 https://t.co/2yz81YigDa
p85
aVRT @erin_burger: "Pruitt is in many ways the perfect embodiment of the Trump administration, combining blatant personal corruption with an\u2026
p86
aVThank you @SenatorBaldwin - I couldn\u2019t agree more! https://t.co/jEyZXxu1qP
p87
aVIt is almost here to keep up with the number of scandals breaking about\u000a@EPAScottPruitt. The latest? He overruled t\u2026 https://t.co/VE7pDSt6kf
p88
aV.@EPAScottPruitt is racking up ethical violations. According to @latimes, \u201cIn a normal administration, these would\u2026 https://t.co/680qt8ct8r
p89
aVThe global auto market is getting cleaner. That\u2019s why the @EPA\u2019s rollback of #fueleconomy standards will hurt the U\u2026 https://t.co/tdKmC7Nkci
p90
aVWe can\u2019t rely on statements from @EPAScottPruitt\u2019s political staff to give the whole truth about his DC housing sca\u2026 https://t.co/zReDRcUDtx
p91
aVThank you @RepJoeKennedy for calling out @EPAScottPruitt and his latest ethical transgressions \u2014 we agree it is tim\u2026 https://t.co/Mitmfd0dzV
p92
aVBig day today! @LCVoters and our nearly 30 state partners are launching the #CleanEnergyForAllCampaign fighting for\u2026 https://t.co/hBnnxCzwW5
p93
aV@Doherty_Steph Thanks @Doherty_Steph!
p94
aV\U0001f447This happened tonight #bootpruitt https://t.co/dLXQtRAFaC
p95
aVFrom expensive flights on our dime to targeted attacks on our health and the environment, there are a million reaso\u2026 https://t.co/kCyGlmy5ku
p96
aV@EPAScottPruitt has spent his time at @EPA censoring scientists. Now, he\u2019s trying to stop the agency from using the\u2026 https://t.co/uyDhSWVul4
p97
aVEnough is enough! #marchforourlives #neveragain https://t.co/Agim3Snr7F
p98
aVRT @tsalliance: WHY WE #MARCH4TSCRESEARCH -- As volunteers begin the Tuberous Sclerosis Alliance's annual March on Capitol Hill today, here\u2026
p99
aV@RepMikeQuigley @tsalliance Eternally grateful for your partnership in the fight to find treatments and a cure for\u2026 https://t.co/FZD35kxbgj
p100
aVThank you @RepDennyHeck for your continued strong support for research into treatments and a cure for #TSC! #March4TSCResearch
p101
aVThank you @SenCantwell for listening to why gov\u2019t research into treatments and a cure for #TSC is so important to o\u2026 https://t.co/WYxXIusPah
p102
aVEver wonder why @Interior is pushing a dangerous expansion of offshore drilling despite strong bipartisan and local\u2026 https://t.co/WcLVmCEGaD
p103
aVRT @JohnDingell: Ben Carson billed taxpayers for a wooden table that cost more than the first home I bought.\u000a\u000aDraining the swamp sure seems\u2026
p104
aV@zachdd @T_Sittenfeld @LCVoters Thanks @zachdd!
p105
aVRT @SenatorTester: In honor of today's Day of the Action, @CoryBooker &amp; I had our own #BattleForTheNet. Check out who won and how you can g\u2026
p106
aV2017 was rough, but environmental champions in Congress stepped up. Find out who stood up for the environment with\u2026 https://t.co/uSMTUbSMJI
p107
aVInspiring to start my week by standing up for working families #WeRise https://t.co/s9w0nq2giy
p108
aVRT @ClarkePhil: As a teacher, I knocked myself out headbutting ceiling pretending to be a particle, star-jumping off a desk.\u000a\u000aI've set my a\u2026
p109
aVICYMI @EPAScottPruitt cancelled an upcoming trip in light of the news that he\u2019s wasted THOUSANDS of your tax dollar\u2026 https://t.co/utq50BFpsV
p110
aVRT @BettyMcCollum04: With his #TrumpBudget and infrastructure scam, @realDonaldTrump is attacking our environment and our public lands by u\u2026
p111
aVRT @RepJoeKennedy: As EPA Administrator flies around the country in first class, the Trump Administration\u2019s budget ignores #climatechange a\u2026
p112
aVRT @RepJimmyGomez: VIDEO A budget reflects one\u2019s values. Trump shows he values polluters &amp; profit over people. W/the ink barely dry on #GOP\u2026
p113
aVClosing the dirty diesel trucks loophole will prevent thousands of deaths. @EPAScottPruitt refuses to do it. He\u2019s w\u2026 https://t.co/6BQo4yy4rF
p114
aVRT @CecileRichards: This administration, in one screen shot. https://t.co/MfzIzNZdMv
p115
aVRT @uscan: The #WinterOlympics may soon be a casualty of #GlobalWarming as cities become too warm to host. .@NBCOlympics cover this story #\u2026
p116
aVRT @MarkFHand: A coal lobbyist getting set to serve as the Environmental PROTECTION Agency's No. 2 official helps explain why Scott Pruitt\u2019\u2026
p117
aVRT @UNITEDWEDREAM: BREAKING: Immigrant youth are now being released from jail after being arrested demanding a #DreamActNow in the Senate B\u2026
p118
aVRT @ChispaLcv: In the last day before the government\u2019s funding once again expires we joined Dreamers and a broad coalition of supporters in\u2026
p119
aV@MattMcKNV Thank you @MattMcKNV \u2014 the feeling is mutual!
p120
aVIncredible powerful rally today by @UNITEDWEDREAM \u2014 thank you for letting me share @LCVoters\u2019s story of why we are\u2026 https://t.co/hjX81AxW6s
p121
aVRT @UNITEDWEDREAM: HAPPENING NOW! Immigrant youth and allies won't stand as Republicans and Trump try and play as pawns for their hateful p\u2026
p122
aVEven for the Trump Admin, their pick for top environmental advisor is breathtakingly unqualified \u2014 rejects basic sc\u2026 https://t.co/MIcU8oll6W
p123
aVRT @NydiaVelazquez: This is outrageous! If another part of the U.S. lacked electricity for 1/3 of the population, FEMA would keep distribut\u2026
p124
aVRT @LungAssociation: Health organizations are fighting the repeal of the #CleanPowerPlan, delays in #ozone cleanup, opening the #dirtydiese\u2026
p125
aVRT @LCVoters: \U0001f447\U0001f447\U0001f447This. #PollutingPruitt https://t.co/BhrCkwSg99
p126
aVThank you @JeffMerkley for breaking it down so simply for @EPAScottPruitt  \u201cyou should run the agency to improve ai\u2026 https://t.co/5LTUJj2M0x
p127
aV.@SenMarkey calls out last week\u2019s decision to rollback toxic air pollution protections. Gets #PollutingPruitt to ad\u2026 https://t.co/jENrM99eW8
p128
aV.@SenWhitehouse doing what he does best \u2014 pressing @EPAScottPruitt on his past criticism of @realDonaldTrump and hi\u2026 https://t.co/FSzZBA6mmM
p129
aVWell, this is getting awkward. The first time I have agreed with @EPAScottPruitt \u2014 @realDonaldTrump IS dangerous an\u2026 https://t.co/JwoUei0pop
p130
aV.@SenDuckworth calls out @EPAScottPruitt for paying lip-service to a \u201cwar on lead\u201d \u2014 our kids deserve better than #PollutingPruitt @EPWDems
p131
aVThx @SenBooker for pressing @EPAScottPruitt on #superfund sites threatening our kids\u2019 health, the increased risk of\u2026 https://t.co/dcAXz7lZpW
p132
aV.@EPAScottPruitt already failing to answer @SenatorCarper\u2019s simple yes/no questions about whether the agency analyz\u2026 https://t.co/YDEOeFaYeW
p133
aVRT @LCVoters: .@SenatorCarper to #PollutingPruitt: "Now that you're finally here, I want some real answers. The American people need REAL a\u2026
p134
aVTrump's environmental record deserves an F. His agenda is toxic \u2013 learn just how bad he\u2019s been:  #StateOfPollution\u2026 https://t.co/TOn3JA0WkD
p135
aVPoll: 68% of Western voters don\u2019t approve of the administration\u2019s rollback of laws that protect land, water, and wi\u2026 https://t.co/BnwylWaedH
p136
aVUnbelievable. This propaganda sign is now on display at #PollutingPruitt\u2019s @EPA! It really should be titled \u201cA year\u2026 https://t.co/bsp0Yxln57
p137
aVRT @repblumenauer: Since I won't be attending the #SOTU, I'll be sending an Oregon DREAMer in my place to remind Trump that these are real\u2026
p138
aVLet\u2019s be clear. The #TrumpShutdown that we appear headed toward would have huge impacts \u2014 it\u2019s long past time to he\u2026 https://t.co/l9az1Q07kA
p139
aVRT @thinkprogress: This is how coal dies \u2014 super cheap renewables plus battery storage https://t.co/3NEhJidc9b https://t.co/HrV9plvxjR
p140
aVRT @ChispaLcv: The time is now. Join thousands to demand Congress for a #DreamActNow. You can make a difference by making a phone call! htt\u2026
p141
aVThank you @EmmaOtheguy for sharing Jose Marti\u2019s story of the fight for Cuba\u2019s independence @eastcitybooks https://t.co/WBvqN9RD0u
p142
aV@TeenVogue Thank you for featuring this important story by one inspiring young woman!
p143
aVPowerful piece by my colleague, Darien @LCVoters \u2014 National Monuments Are Much More Than Just Parks https://t.co/uhZnDhgtSp
p144
aVRT @nytimes: 3 New Year\u2019s resolutions that can help fight climate change\u000ahttps://t.co/4pyhujmybo
p145
aVThrilled to witness our country\u2019s two newest Senators congratulating each other. Looking forward to working with Se\u2026 https://t.co/vuescMArS3
p146
aVRT @charlesallen: I\u2019ve heard from parents at Peabody that the heat is out at the school today. Talked with DGS this morning and they\u2019re sen\u2026
p147
aVRT @SenatorCantwell: The Senate is voting now on my amendment to strip Big Oil giveaways in this tax bill. The Arctic Wildlife Refuge is to\u2026
p148
aVRT @MartinHeinrich: If we destroy #ArcticRefuge, we\u2019ll lose this landscape &amp; wildlife forever. RT to #ProtectTheArctic for future generatio\u2026
p149
aVRT @T_Sittenfeld: Excited to speak out for @LCVoters to #ProtectTheArctic from the #RepublicanTaxScam at this awesome rally! #NotOnePenny #\u2026
p150
aVKEY VOTE ALERT &gt;&gt;&gt; Senate Energy Comm voting TODAY on drilling in the pristine Arctic Refuge!\u2026 https://t.co/OQCMBb55E1
p151
aV\u201cClean energy was on the ballot this November and it won big!\u201d -@T_Sittenfeld @LCVoters #ActOnClimate #StillIn https://t.co/aygZMh5Le0
p152
aV\u201cFlint proves there is a consequence for ignoring science and acting for short term profits.\u201d-@RepDanKildee\u2026 https://t.co/YjGNJS1PuZ
p153
aVWe should listen to scientists. And elected officials who are scientists...like @RepBillFoster. Climate change is r\u2026 https://t.co/39Jnl0BssW
p154
aVThank you @RepMcEachin 4 your leadership on climate. Couldn\u2019t agree more that #ClimateChange impacts communities of\u2026 https://t.co/XJtYNJWn3V
p155
aVGreat crowd outside US Capitol standing up for #ClimateAction. The American people are #StillIn. Climate progress m\u2026 https://t.co/BJYbyTCzsa
p156
aVRT @williamjordann: Whoa. Let's not lose sight of the youth vote here. \u000a\u000aDem margins in VA among 18-29 year olds:\u000a\u000aMcAuliffe +5\u000aClinton +18\u2026
p157
aVInspired by these fired up protectors of the #ArcticRefuge. Congress must say no to this disastrous #PolarPayout!\u2026 https://t.co/VRGkzCAdKV
p158
aVRT @jendlouhyhc: Coal lobbyists - both current &amp; former - left their mark on DOE's grid study &amp;the resulting directive to FERC. The latest\u2026
p159
aV.@SenJeffMerkley got Andrew Wheeler to admit at today\u2019s hrg that he had seen Murray Energy\u2019s secret plan to destroy\u2026 https://t.co/0MoTbjaghG
p160
aVThank you @SenWhitehouse for calling out the dark web of polluter money behind these #DirtyDeputies! https://t.co/cU45nqrxos
p161
aV\u201cBill Wehrum has spent his career undoing clean air protections.\u201d @SenatorCarper #DirtyDeputies https://t.co/cZmJwMv5dN
p162
aVThank you @SenDuckworth for speaking out against Bill Wehrum to lead the EPA\u2019s air office. #DirtyDeputies @EPWDems https://t.co/WMaTNZkBDx
p163
aVRT @EPWDems: \u201cFrom describing the Renewable Fuel Standard as unethical, to comparing people who believe in climate science to pagans, to sa\u2026
p164
aVRT @bustle: 11 Female Politicians Who Should Actually Give You Hope For The Future https://t.co/AadLLxJd7D https://t.co/f93X6nP8cD
p165
aVRT @LCVoters: Kathleen Hartnett White claimed fossil fuels helped end slavery. Her extreme views have no place in the White House  https://\u2026
p166
aVRT @alyssaaroberts: Gene Karpinski on 2017 &amp; beyond: Virginia, New Jersey and Washington Vote for Climate Action https://t.co/jSIpmIgY78
p167
aVThx @ProtectWinters for letting me be a part of your powerful Riders Summit. Keep up the awesome work keep making fighting #climate cool.
p168
aVRT @craigauster: .@LCVoters volunteers going all out to #GOTV for @RalphNortham @FairfaxJustin @MarkHerringVA #GameOnVA https://t.co/vFSpYt\u2026
p169
aVRT @alyssaaroberts: Hey VA, big election coming up! @LCVoters and @DSMcAuliffe out strong for @RalphNortham. #GameOnVA https://t.co/FkkSzsG\u2026
p170
aVExcited to be getting out the vote for @RalphNortham \u2014VA\u2019s next Governor! @LCVoters https://t.co/XKcRBtL8ES
p171
aVRT @RepLoBiondo: Also objections to proposed health &amp; social program cuts, drilling in Arctic National Wildlife Refuge etc. Voted against b\u2026
p172
aVRT @AFLCIO: Moving forward to take on climate change and create good union jobs. #aflcio17 https://t.co/BJ1I3DZ4a3
p173
aVRT @SenatorTester: This will price MT families out of our parks &amp; hurt local economies. Tell @Interior we #HikePeaksNotFees HERE -&gt; https:/\u2026
p174
aV.@LCVoters Prez addressing #ACLS17: We are fighting against Trump Admin\u2019s attacks and advancing #Climate solutions\u2026 https://t.co/rq3nxc7gYd
p175
aVTrump\u2019s latest #DirtyDeputy tried 2 stop protections against cancer-causing silica dust. Yes, really.  #WehrumMustGo https://t.co/zGc2kwXCtS
p176
aVVote on the Arctic is TODAY! Call your Senators. #NoArcticRider https://t.co/AA4KLTSBJb
p177
aV. @EPAScottPruitt questioned @EPA\u2019s authority to limit carbon pollution \u2013 he should read his mail. #PollutingPruitt https://t.co/v4VAaxcYg6
p178
aV.@LCVoters Prez Gene Karpinski helping lead the fight against drilling in the #ArcticRefuge #KeepItWild https://t.co/rFayttu3Xb
p179
aVPowerful rally against #ArcticRefuge drilling steps from the US Capitol. #NoArcticRider https://t.co/lC1QWyKU59
p180
aVAmericans oppose #ArcticRefuge drilling. Tell your Senator today to remove it from the budget: 202-224-3121 #ProtectTheArctic #NoArcticRider
p181
aVHAPPENING NOW: @SenBennetCO @SenMarkey @SenFranken @SenJeffMerkley call on Congress to #ProtectTheArctic. LIVE: https://t.co/7WsJ2SFhA8
p182
aV2. @EPAScottPruitt says he's meeting with "farmers and ranchers" but his schedule tells a FAR different story. https://t.co/qYObGDSI31
p183
aV1. @EPAScottPruitt\u2019s exorbitant travel spending is being noticed by the media \u2013 even @FOXNEWS. #PollutingPruitt https://t.co/rZIMfRKRv2
p184
aVRT @drajem: While @EPAScottPruitt close to ending Clean Power Plan, data shows U.S. power sector close to hitting target -- decade+ early.\u2026
p185
aVNo #ArcticRefuge drilling! 90+ athletes join the fight -- LETTER: https://t.co/gC7Xks2toI TAKE ACTION: https://t.co/0EBUOFknct
p186
aVRepealing the #CleanPowerPlan is the LATEST way @EPAScottPruitt is putting YOU at risk. #ProtectCPP https://t.co/tN3Q032RwZ
p187
aVThought #healthcare fight was over? Wrong! Graham-Cassidy bill is worst ACA repeal bill yet. Call your Senators ASAP https://t.co/sHUQ5mue8Q
p188
aVWell done @powershiftnet ---&gt; under 35 + concerned about climate change? U should run for public office ASAP: https://t.co/wxdAwk06j3
p189
aVRT @ClimateSignals: Flood insurance claims increasing in a changed climate: https://t.co/RPmfQ2DY4h #Harvey #Irma https://t.co/dtXaDsTSZP
p190
aVHouston\u2019s flooded Superfund sites could be spilling out toxic chemicals, but Pres. Trump says cut EPA budget by 30%. https://t.co/SieklgkrSr
p191
aVGrid study concludes renewable energy is reliable, but @SecretaryPerry still pushing coal. #ScienceNotSilence https://t.co/NNpoq6GwMW
p192
aVRT @LCVoters: .@SecretaryZinke we are standing today to urge you to #KeepItPublic and uphold protections for our lands and waters! https://\u2026
p193
aVRT @repblumenauer: There is power in millions of Americans raising their voices &amp; speaking out. We saw that last night with the rejection o\u2026
p194
aVRT @maziehirono: To my GOP colleagues, after I was diagnosed with cancer, you showed me your care. You showed me your compassion. So where\u2026
p195
aVRT @JohnDingell: 7/27/65\u000a\u000a52 years ago TODAY, I presided over House passage of Medicare--a promise we made to care for those in the twiligh\u2026
p196
aV.@ChrisMurphyCT calls this bill "healthcare arson" and encourages us to keep up the fight! https://t.co/KoU4bcRiwh
p197
aVRT @washingtonpost: Live video from Senate: Vote on "skinny repeal" expected around midnight. https://t.co/orMtqi7VjJ https://t.co/O8fqTDpi\u2026
p198
aVRT @mattbc: Mike Pence thinks I was 'personally irresponsible' to get sick as a little kid. Does their cruelty know any limits? #SaveMedica\u2026
p199
aVRT @SenatorTester: Watch LIVE as I take to the @SenateFloor to talk about this disastrous health care plan. #mtpol #WhatsAtRisk https://t.c\u2026
p200
aV.@SenatorDurbin calls GOP repeal "heartless and immoral". Thx for sharing YOUR story --&gt; as a young dad w/ a sick b\u2026 https://t.co/pmTNceCGEG
p201
aVThank you @SenStabenow for standing up for my family and our healthcare. Live from protest outside the US Capitol\u2026 https://t.co/QUx3EXEUBv
p202
aVThanks @SenatorCantwell for leading the charge on the Senate floor against David Bernhardt and calling out his conflicts of interest!
p203
aVThanks @SenBillNelson for standing up for Florida and speaking out against David Bernhardt!
p204
aVRT @SenatorTester: I'm asking @SecretaryZinke to keep the Upper Missouri River Breaks the way it is. #KeepItPublic #mtpol\u000ahttps://t.co/1glK\u2026
p205
aVRT @DanielleBaussan: Voice your support for global climate action! #IAmStillIn https://t.co/dg6Q8xADY6
p206
aVKEY CLIMATE VOTE UPDATE&gt;&gt;&gt;we won! https://t.co/YOLK5p6zMn
p207
aVRT @SenSchumer: Well, we've now seen the revised Republican #Trumpcare bill. Little has changed. https://t.co/naKvCKDjIA
p208
aV.@RepScottPerry\u2019s #NDAA amendment threatens our health and security. We need our reps to vote NO. #ClimateSecurity https://t.co/o4819YQWQd
p209
aVRT @SenMarkey: A trillion-ton section of the Antarctic Larsen C ice shelf broke off of the Antarctic peninsula. It's time to end the denial\u2026
p210
aVKEY CLIMATE VOTE TODAY &gt;&gt;&gt; Will US House side with military experts who warn #climatechange is major national security risk or polluters?
p211
aVRT @Save_EPA: The non-partisan American Security Project has detailed how climate change is a national security threat https://t.co/acVCHw3\u2026
p212
aVRT @LCVoters: The public has spoken! More than 2.7 million comments tell @SecretaryZinke to protect our #MonumentsForAll: https://t.co/HaFl\u2026
p213
aVRT @MattMcKNV: Thanks @CoryBooker for helping @LCVoters protect our #MonumentsForAll. A few hours left to submit comments: https://t.co/Spq\u2026
p214
aVRT @LCVoters: Federal judges matter to the environment. We need judges who will protect our water, air, and public health. #courtsmatter #S\u2026
p215
aVRT @ALCassady: What I said: EPA trades children's health for chump change - $173 mill in savings for multi-billion $ oil &amp; gas cos. https:/\u2026
p216
aVRT @LCVoters: Thanks @CoryBooker! We're excited to continue the\u000a#MonumentsForAll chat on #FacebookLIVE at 6:15pmET. WATCH: https://t.co/2CP\u2026
p217
aV@csittenfeld What about...\u000aHer Story\u000aOn Her Terms \u000aPlan B
p218
aVRT @SEEC: .@SEEC opposes @POTUS and @EPAScottPruitt push to eliminate clean water protections #DefendWater #CleanWaterRule https://t.co/QIb\u2026
p219
aVRT @LCVoters: .@T_Sittenfeld is calling out @EPAScottPruitt's #DirtyBudget, which guts protections for frontline communities to pad pollute\u2026
p220
aV.@GreenForAll speaking powerfully against Pruitt's #DirtyBudget "the EPA budget puts polluters before our communiti\u2026 https://t.co/xqBdbUJqEh
p221
aVRT @tsalliance: HEALTHCARE ALERT: Tell Your Senators to oppose legislation that cuts Medicaid &amp; pre-existing conditions protections. https:\u2026
p222
aVRT @SenKamalaHarris: What \u201ccutting Medicaid\u201d really means: less resources for kids with disabilities in schools &amp; less support for many sen\u2026
p223
aVRT @LCVoters: .@RealDonaldTrump is \u201chanding the federal government over to fossil fuel interests.\u201d #TrumpWatch (@voxdotcom) https://t.co/Ux\u2026
p224
aVRT @JohnDingell: The press corps needs to band together to defy this idiotic practice. https://t.co/4Jql0sqI0W
p225
aVRT @LCVoters: TY @SenatorTester for pressing @SecretaryZinke on #LWCF, which protects trails so that all Americans have access to a place t\u2026
p226
aV.@SenatorCantwell thank you for supporting #MonumentsForAll and #LWCF at today\u2019s hearing with @SecretaryZinke
p227
aV.@SenFranken thank you for being a champion for #BearsEars @SecretaryZinke\u2019s hearing today, we need #MonumentsForAll
p228
aVAs @SenCortezMasto highlighted today, our public lands &amp; monuments are economic drivers.Last yr our parks added $34.9 bil to the US economy
p229
aV.@SenCortezMasto honors @NVconservation with @LCVoters John Hunting Winning on the Environment https://t.co/xmG2fAam3P
p230
aVThank you @SenatorBaldwin for all you do for the Great Lakes and conservation. #LCVlobbyday2017 #CleanBudget https://t.co/DiY4VEV5Rx
p231
aVThank you @SenJeffMerkley for your incredible leadership. Great visit with @LCVoters and  @OLCV! #actonclimate\u2026 https://t.co/TwtImKCftO
p232
aV.@SenatorCantwell kicking off #LCVLobbyDay2017. This is what conservation leadership looks like! https://t.co/wVG6q8vvmC
p233
aV@tamher @LCVoters @T_Sittenfeld @Kristin_Brown09 Honored to work with you, @tamher!
p234
aVJoining thousands of mayors, businesses, Govs and citizens saying #IAmStillIn on #ParisAgreement! #ActOnCimate https://t.co/bwIZIN5U3h
p235
aVRT @GovInslee: Today we have 10 new members in the #USClimateAlliance - Welcome CT, DE, HI, MA, MN, OR, Puerto Rico, RI, VT and VA https://\u2026
p236
aV.@MayorBowser "Mayors don't have the option of ignoring facts or science. We make the decisions that effect our pla\u2026 https://t.co/wDSBiFuP5Z
p237
aV.@MayorBowser announcing D.C. is all in on the #ParisClimateAgreement. Makes this constituent proud! #actonclimate https://t.co/s1r60479Sv
p238
aVRT @smrtgrls: The U.S. leaving the #ParisAgreement is a HISTORIC mistake and we NEED to act on #climatechange! \u2192 https://t.co/PQELKGcgje @L\u2026
p239
aVThank you @RepRaskin for speaking out for climate action! https://t.co/wE6EMb1xcr
p240
aV.@32BJSEIU "we must put working people ahead of polluters." #ActOnClimate #ParisClimateDeal https://t.co/dmMUFvNlt5
p241
aVInspired by leaders from the military, faith, unions, and conservation groups standing up for the Paris Climate Agr\u2026 https://t.co/DkEIdaERGJ
p242
aVRT @billpeduto: As the Mayor of Pittsburgh, I can assure you that we will follow the guidelines of the Paris Agreement for our people, our\u2026
p243
aVDC RALLY: Meet at the White House TODAY to prove to @POTUS that Americans support the #ParisAgreement #ActOnClimate https://t.co/p3fmEek98C
p244
aVClimate action is good business, @POTUS. Leaving the #ParisAgreement ignores market trends. https://t.co/AiCTR3QApe
p245
aVRT @CoralMDavenport: As Trump backs away from tackling #climate change,California pushes ahead &amp; prepares for a fight with Washington. \u000ahtt\u2026
p246
aVThe 70% reduction in air pollution since @EPA was established didn\u2019t happen by accident. #DirtyBudget #HandsOffEPA @POTUS
p247
aVTell your Senators to oppose Trump's Regulatory Accountability Act -- the next big business giveaway. #GoAwayRAA https://t.co/aunZ3y7UkY
p248
aVNEW &gt;&gt;&gt; @LCVoters special report finds congressional members of color are leading on #climate, health policies: https://t.co/gpxJTBUMfj
p249
aV@EnvAmAnna @kate_sheppard @KHayhoe @maryannehitt @mollyrauch @eilperin @T_Sittenfeld @FeliceStadler @GinaEPA @lisahoyos Can I have both?
p250
aVRT @BraddJaffy: Trump: \u201cwhen I decided to just do it, I said to myself, I said you know, this Russia thing with Trump and Russia is a made\u2026
p251
aVThanks @marycheh for your climate leadership! Now let's #PriceItDC to cut carbon. @PutAPriceOnItDC
p252
aVSeriously!?! https://t.co/u3363NC9tZ
p253
aVRT @EricHolder: To the career men and women at DOJ/FBI: you know what the job entails and how to do it. Be strong and unafraid. Duty. Honor\u2026
p254
aVDay one back on the job. Protesting at the WH. Standing up for our democracy. #ComeyFiring @LCVoters #resist https://t.co/qcJlthA2rv
p255
aVThanks @smrtgrls for all you do to inspire my girls! https://t.co/zgv8xL5WGB
p256
aVRT @Peoples_Climate: We're ready! Are you? #climatemarch https://t.co/9crxJaWmHN
p257
aVRT @PutAPriceOnItDC: Hundreds marching past DC City Council calling for climate action. Time to #priceitdc! #climatemarch https://t.co/UySG\u2026
p258
aVRT @LCVoters: Climate action is important for all, big and small! #climatemarch #resist #PeoplesClimate https://t.co/vhK9eELod3
p259
aV.@SenBlumenthal "An independent judiciary is the bulwark against tyranny." #StopGorsuch
p260
aV.@ChrisVanHollen "Don't change the rules. Change the nominee." #StopGorsuch
p261
aVBaby's first protest. Opposing the dangerous and radical Judge Gorsuch #StopGorsuch https://t.co/anRMjy1cuZ
p262
aVRT @JohnDingell: The missing pages are apparently the ones that provide affordable health care to millions of Americans. https://t.co/ymCti\u2026
p263
aVRT @tsalliance: #March4TSCresearch TSC is a linchpin disease, research can lead to breakthroughs for autism, epilepsy and cancer. https://t\u2026
p264
aVThank you @RepBonamici for your continued support 4 research into treatments and a cure for #TSC @tsalliance https://t.co/yHTrklQXfR
p265
aVThank you @SenatorCollins --&gt; 'I Will Vote No\u2019 \u2014 Collins Says She\u2019ll Oppose Scott Pruitt to Lead the @EPA https://t.co/JJ5wvkTqDm
p266
aVRT @ALCassady: .@SpeakerRyan: the definition of investigation is a "systematic and thorough attempt to learn the facts about something comp\u2026
p267
aVFile this under "deeply troubling" -Maj. of travel ban supporters say fake \u2018Bowling Green massacre\u2019 justifies E.O. https://t.co/0SnKHhss08
p268
aVRT @voxdotcom: Solar now employs twice as many workers as coal: https://t.co/GHJYBiilrW https://t.co/NWJD3fvbf2
p269
aVJoin the more than 1 M who asked the Senate to reject #PollutingPruitt as head of @EPA --&gt; https://t.co/Wiv3XcVsQl
p270
aVRT @RepEBJ: The EPA is required to reduce global warming emissions under the Clean Air Act because they endanger public health #DefendEPA #\u2026
p271
aVRT @SenatorCantwell: Republicans want to destroy the #StreamProtectionRule. How about we do what\u2019s in the public interest, not special inte\u2026
p272
aVRT @ClimateReality: Happy #GroundhogDay! But instead of taking weather predictions from a groundhog, let's accept climate science from scie\u2026
p273
aVDemocracy depends on dissent. Are you kidding me @POTUS!?! https://t.co/9mNYJofqvR
p274
aVRT @NPR: This is the second time in as many days a Senate committee's GOP leadership has suspended rules to bypass a boycott https://t.co/U\u2026
p275
aVBowing 2 outrage and pressure from diverse coalition @jasoninthehouse pulls radical #publiclands sell off bill. YES! https://t.co/mYN7VHvihy
p276
aVRT @CAPAction: A rule to prevent overseas oil bribery is on the GOP chopping block https://t.co/WYpIYU1HIl
p277
aVUS leads global #transparency std w/ #CardinLugar rule #CRA repeal hurts US interests #RulesAtRisk https://t.co/FqMMKxOBMn
p278
aV#CardinLugar rule helps US fight corruption &amp; protect national &amp; energy security #VoteAgainstCorruption https://t.co/Q0Ux5gGJiq
p279
aVRT @mkraju: Dems expected to boycott Pruitt vote momentarily, while Rs likely to suspend the rules and send his nomination to lead EPA to f\u2026
p280
aVRT @MartinHeinrich: House R's bill to secretly sell-off millions of acres of treasured #publiclands is unconscionable. https://t.co/xURsetS\u2026
p281
aV.@USATODAY opposes Scott Pruitt -- unfit to lead the Agency charged with protecting our health and the environment https://t.co/uFFmzlWLyj
p282
aVRT @alexcguillen: The committee is half full / the committee is half empty. https://t.co/8FOILNYV1j
p283
aVRT @NoorAjaj: Why isn't this trending???! #TrumpsAmerica #TrumpBan https://t.co/E16itne7VR
p284
aVThank you @350 @EnvDefenseFund for this important civil resistance to #pollutingPruitt @EPA https://t.co/jeRjrIOVjH
p285
aVRT @LCVoters: BREAKING: Sen Dems boycotting today's Pruitt confirmation until they receive more answers on Pruitt's conflicts of interest #\u2026
p286
aVTrump\u2019s travel ban is wreaking havoc on families, especially those with valid visas. #NoBanNoWall  https://t.co/8ob71VLxqQ
p287
aVRT @LCVoters: RT if you agree Congress should reject a Supreme Court nominee who will not #FightBigMoney or #ActOnClimate #SCOTUS
p288
aV#PollutingPruitt might not recall soliciting fossil fuel money to fund @RepublicanAGs, but his top advisers sure do. https://t.co/VjWFZr9TMG
p289
aVRT @350: EPA nominee #PollutingPruitt won\u2019t say if he would recuse himself from his own lawsuits *against* the agency: https://t.co/qjFygIO\u2026
p290
aVWatch this... https://t.co/RKV3Ez0kQY
p291
aVRT @repblumenauer: Trump fires Acting Attorney General for doing her job. Heads should roll, but in the White House not the Department of J\u2026
p292
aVRT @ClimateReality: Retweet if you agree with @NeilTyson! #ClimateFacts https://t.co/hF1BEkrsEI
p293
aVRT @NAACP: Black children are 7.1 times more likely to die from asthma than their white peers. #ClimateFacts https://t.co/iEeaNrMi5k
p294
aVRT @EricHolthaus: The truth about climate change:\u000a1. It\u2019s real. \u000a2. It\u2019s us. \u000a3. Experts agree. \u000a4. It\u2019s bad. \u000a5. There\u2019s hope.\u000a#climatefac\u2026
p295
aVRT @LeoDiCaprio: #ClimateChange affects fisheries, jobs, livelihoods. Get informed. #climatefacts https://t.co/Svji3oUgdK
p296
aVRT @LCVoters: We couldn't join today's protests bc we're at a staff retreat, but we have a message for Trump: #NoBanNoWall https://t.co/peY\u2026
p297
aVRT @madeleine: There is no fine print on the Statue of Liberty. America must remain open to people of all faiths &amp; backgrounds. #RefugeesWe\u2026
p298
aVThank you @SenatorTester for standing up for our democracy and good government! https://t.co/dKQj7L6a1B
p299
aVRT @AdamHSays: Michigan regulators treated black residents unfairly during the permitting of a power plant in Flint, feds say  https://t.co\u2026
p300
aVRT @LCVoters: Just In: Trump Administration telling EPA to cut climate from their web pages https://t.co/rH8bZeQULf
p301
aVRT @ThePlumLineGS: All of today's news confirms concerted White House effort to create an alternate reality.\u000a\u000aHere's the true goal:\u000a\u000ahttps:\u2026
p302
aVTweeting #climatechange facts shouldn't count as a brave act of defiance but these are not normal times. Thx\u2026 https://t.co/0IUhEj1sR2
p303
aV.@RealDonaldTrump: If you're serious about jobs, invest in clean energy not pipelines that endanger our planet, our waterways #NoKXL #NODAPL
p304
aVRight on! @T_Sittenfeld calling out president-elect Trump's dangerous and radical policies on @cspanwj this AM!\u2026 https://t.co/wGNDYlyIwX
p305
aVRT @T_Sittenfeld: Climate denier Rick Perry had oops moment when he forgot he wanted to eliminate DOE. Trump has big oops moment picking hi\u2026
p306
aVRT @NCAASoccer: Watch this UNBELIEVABLE goal by Georgetown's Crystal Thomas that sent the Hoyas to San Jose! #NCAASoccer https://t.co/r1tCj\u2026
p307
aVSo proud to have taken our 3 yr old daughter to vote for the ultimate smart girl for President! #smartgirlsvote\u2026 https://t.co/WEVmh9H2hP
p308
aVRT @LCVoters: .@hillaryclinton: #climatechange is real, it's urgent &amp; america can be a leader
p309
aVRT @johnpodesta: Climate change is real, it\u2019s urgent, and America must lead the world in taking action. #ActOnClimate
p310
aVRT @voxdotcom: Donald Trump\u2019s threat to imprison Hillary Clinton is a threat to democracy https://t.co/pOfV4u2zK7
p311
aVRT @LCVoters: Here's why we stand with @HillaryClinton -- and why you should too! #DemDebate https://t.co/A1c2ERMFPH
p312
aVRT @HillaryClinton: "She doesn't always talk about what drives her. But I've had a chance to see her." \u2014@POTUS https://t.co/jNKTTF6csB
p313
aVI swear we didn't plan this! So lucky to be fighting the good fight (in style) with you @T_Sittenfeld https://t.co/EiA9fUIZZY
p314
aVRT @LCVoters: Hurricane Season is becoming more intense and climate change is to blame https://t.co/8LYyiWwCBS
p315
aVRT @AndyNFrench: Spending the day with @LCVoters on the South Lawn checking out #SXSL! https://t.co/VcBD44uvM8
p316
aVThrough the Ages virtual reality National Park exhibit at #SXSL is so awesome @madfoote @LCVoters https://t.co/Htfx6wN4AK
p317
aVRT @byjenemily: What is it like for female reporters to cover @realDonaldTrump? https://t.co/KtdbjqOfHx #Election2016 https://t.co/i7jc4XV7\u2026
p318
aVRT @HillaryClinton: Barack&amp;\u000aMichelle&amp;\u000aJoe&amp;\u000aBernie&amp;\u000aElizabeth&amp;\u000aYou?\u000a\u000ahttps://t.co/tTgeqxNqYm https://t.co/myxRlsyFOb
p319
aVRT @LCVoters: Thank you @SenMarkey, for taking the steps to get more youth involved in the climate change fight https://t.co/flJ6er2TgL
p320
aVA lot of our infrastructure has been about building walls between communities. These are walls that need to be torn\u2026 https://t.co/VSNpYsKWI1
p321
aVRT @ErnestMoniz: Climate change inspired the #CleanEnergy revolution, but price has made it inevitable. https://t.co/NtzXSPsofz https://t.c\u2026
p322
aVRT @CAPenergypolicy: To make 2050 climate goal, our total US fleet must be about 40-50% electric vehicles - @margotoge https://t.co/VTxJI4D\u2026
p323
aVRT @nprpolitics: Congress Reaches Agreement To Fund Government Until December https://t.co/s9Irk43oBv
p324
aV"This is personal for me. I have a 12 yr dec. lifespan due to my zip code. This is due to socio-economic and pollut\u2026 https://t.co/3auqOtv6Aj
p325
aV"We have to make sure a climate smart lens is used in all infrastructure projects." -@TomSteyer #UpgradingUS\u2026 https://t.co/StarqGxCTQ
p326
aVDOE head @ErnestMoniz talking about the exciting future of the clean energy revolution #UpgradingUS\u2026 https://t.co/UXAFpy5rIR
p327
aVRT @LCVoters: Don't let Donald Trump fool you. Here he is -- in his own words, denying climate change. #debatenight https://t.co/NlwmCDfIsQ
p328
aVRT @LCVoters: Thank you Secretary Kerry for your leadership in the global fight against #ClimateChange https://t.co/NEuyOXZXvd
p329
aVLCVAF is holding a 48 hour #GreenStorm to help pro-environment candidates! Join us ---&gt;&gt;&gt; https://t.co/k01Hye0Lut
p330
aVRT @LCVoters: Making some last-minute tweaks to today's DNC speech. What's the best adjective to describe Trump? #DemsInPhilly https://t.co\u2026
p331
aVRT @LCVoters: LCV's @SaraChieffo with #Climate Champ @JeffMerkley - talking clean energy and Oregon! #DemConvention https://t.co/EDuDGJxTLl
p332
aVRT @LCVoters: LCV Board Chair Carol Browner explains how the Democratic platform will make history, especially for climate change: https://\u2026
p333
aVWell said, @SenSchumer!  https://t.co/lO1AWyre5l
p334
aV.@SEIU head @MaryKayHenry sharing stories of local union members organizing their communities for clean air, water, climate axn. #USCAN2016
p335
aVI'm joining @SenatorDurbin to speak out against efforts in Congress to end decades of lifesaving @DeptofDefense research #ResearchNotRedTape
p336
aV.@BillNye "Will US deliver on carbon pollution reductions?" @GinaEPA "YES!" #ClimateAction https://t.co/ioRdurO3yz
p337
aV.@LCVoters's Tiernan Sittenfeld outlining what's at stake in Supreme Court vacancy fight #DoYourJob #WeNeedNine https://t.co/3Z9P3bXhl8
p338
aV.@LCVoters joins @SenBrianSchatz @MartinHeinrich @SenMarkey @VanJones68 @NextGenClimate presser #WeNeedNine https://t.co/Efp6M0poNk
p339
aVRT @JohnDingell: Old Guy Who Yells A Lot Sick Of Listening To Old Guy Who Yells A Lot
p340
aVRT @HillaryClinton: The average woman makes just $0.79 for every $1 a man earns.\u000a\u000aRT if you agree we have to fix that. #EqualPayDay https:/\u2026
p341
aVCheck out today's awesome addition to our national parks system. Fitting that today is  #EqualPayDay! https://t.co/O2xh30rSZy
p342
aVWhat are the odds that the #dcps preK 3 lottery results are an April Fools prank?
p343
aVThis photo just about sums it up! Thx for the dinner, discussion, and debate @BGOV. https://t.co/K0HUNvcOtQ
p344
aVRT @WhiteHouse: "I saw how both of our nations are threatened by rising seas, melting permafrost and disappearing glaciers and sea ice" \u2014@P\u2026
p345
aVRT @ALCassady: "Canada is joining us in our aggressive goal to bring down methane emissions in the oil and gas sector" - @POTUS https://t.c\u2026
p346
aV.@LCVoters and other environmental groups call on Senate to #DoYourJob and give Supreme Court nominee hearing &amp; vote https://t.co/guoEsUjFCc
p347
aVWonderful to have your continued support @SenJeffMerkley for research funding for tuberous sclerosis! #march4tscresearch @tsalliance
p348
aVThank you @repblumenauer for your continued support for research into treatments and a cure for #TSC! #march4tscresearch @tsalliance
p349
aV.@RepPeterDeFazio your continued support for research into a cure for #TSC is inspiring. Thank you! #march4tscresearch @tsalliance
p350
aVThank you @RepSchrader for supporting research 4 a cure 4 #TSC! #march4tscresearch @tsalliance
p351
aVThank you @RepBonamici for joining the fight for a cure for #TSC #march4tscresearch @tsalliance https://t.co/w0zjgQiUgr
p352
aVRT @LeoDiCaprio: #ClimateChange action starts w/ electing leaders who'll make brave &amp; vital changes needed to save our planet. Visit https:\u2026
p353
aVBeautiful day to volunteer to get out the vote for @HillaryClinton in VA! #ImWithHer @LCVoters https://t.co/Czf0NVTOhl
p354
aVGreat morning back @ the Hilltop talking to all-star Baker Scholars about careers in advocacy #HoyaSaxa @Georgetown https://t.co/Yt1X5G0lCZ
p355
aVTrying to enjoy this epic #Snowzilla #DCBlizzard https://t.co/vUNMl6d28c
p356
aVRT @NASAGoddardPix: Epic view from NASA as the #blizzard2016 bears down on the east coast: https://t.co/r53xgncynF https://t.co/CJFoaUgnAc
p357
aVRT @CFigueres: #HappyNewYear everyone! And thx again to everyone who made the #ParisAgreement a success. On now to implementation! https://\u2026
p358
aVWH senior advisor Brian Deese: Paris climate agreement "fundamental shift" &amp; "sends a very strong signal to capital markets" #ClimateDC
p359
aV.@JacquiPatt of NAACP shares that 35 youth from HBCUs were at #cop21 and highlighted harmful health impacts of coal-based energy #ClimateDC
p360
aVVicki Arroyo of @Climate_Center: local leaders are putting #climatechange solutions in place and making $ doing it. https://t.co/hZ5iEVpNDH
p361
aVLive from #cop21 - protest in main alleyway with more than one hundred chanting "Climate...Justice...Equity." https://t.co/ok0l8zYkOi
p362
aV.@LCVoters Prez Gene Karpinski live from #cop21: "Public supports action on climate change &amp; the Clean Power Plan." https://t.co/zdXOhFKNEH
p363
aVRT @uscan: NOW @uscan Discuss What\u2019s Next live https://t.co/aitFE9QilF #cop21 @keya_chatterjee @UCSUSA @SustainUSAgents @LCVoters @interfai\u2026
p364
aVInspired by the diversity and beauty of voices gathered in Paris for #climateaction https://t.co/4aW1eyhJys
p365
aVWhile I was taking this photo Jane Goodall walked right behind me! Just another day at #cop21 #ActOnClimate https://t.co/pfoZJneDWZ
p366
aVJust tasted a pollution meringue! Gross &amp; ingenious way to communicate about air pollution.   #smogtasting #cop21 https://t.co/0FMVFEClto
p367
aVWY Farmer John Fenton: "Fracking fractures our communities. We are in a struggle for survival." #cop21
p368
aVLive from #COP21 -- packed house for international ban fracking panel. Inspiring stories about ppl &gt;&gt;&gt; polluters https://t.co/CkmqGydDMB
p369
aVRT @mollyrauch: @SaraChieffo visited @CleanAirMoms at #cop21. #motherlove https://t.co/3Q4TvQzGMY
p370
aVGovs Brown, Inslee, &amp; Shumlin @ #COP21 delivering a strong message: our states are leading on climate action https://t.co/kLmscuToW0
p371
aVExciting event at #COP21 featuring leadership of US states -- CA, WA, VT, NY -- on #climatechange and #cleanenergy https://t.co/2aNKxow8MO
p372
aVLive from Paris #COP21: 10 Senate Climate Champions calling for strong climate action, praising Obama leadership. https://t.co/E98k3MU8mo
p373
aVInspired by even the entrance 2 the #climate summit. Captures diversity of perspectives and unity of purpose #COP21 https://t.co/jtkxQWiOZN
p374
aVPretty proud of this one &gt;&gt;&gt; Jeff Goldblum sets Big Polluters straight in @LCVoters and @funnyordie's new video: https://t.co/kmebyUJwmF
p375
aVRT @LCVoters: "We have to use every tool we have. There is no planet b." -@HillaryClinton on fighting #climatechange at LCVAF's endorsement.
p376
aV.@LCVoters Prez Gene Karpinski speaking in front of WH about the importance of @POTUS rejecting #KeystoneXL 2day https://t.co/mvY8R0q0ef
p377
aVGreat celebration for #NoKXL! Thank you, Mr. President! #ActOnClimate https://t.co/aqTaNDj8FC
p378
aVPacked house at @ClimateAdvisers Post-Paris event on closing the climate gap w/ Carol Browner and Henry Waxman. https://t.co/HVHI8eHHFP
p379
aV"Some of the most innovative climate solutions are being pioneered by cities." @JohnKerry #OurCitiesOurClimate http://t.co/UQc8VXoqqO
p380
aVRT @EnvAmAnna: More #womenvswarming with @sarachieffo and @lcvoters http://t.co/i1KZu3clsb
p381
aVRT @RiverDefender: #DefendRivers https://t.co/ozBGwAQ64b
p382
aVBeautiful day 2 rally to #ActOnClimate. Excited to hear @Pontifex speak to congress about the need to protect or home http://t.co/a7KpxHGqth
p383
aV.@SenatorShaheen "time for our federal energy policy to catch up with the energy revolution already underway." #DemEnergy #ActOnClimate
p384
aV.@SenCantwell - "those who bet against American innovation should think twice." #DemEnergy http://t.co/DKmuG8vVCE
p385
aVNow this is the energy conversation we should be having in Congress! Check out this clean energy bill #DemEnergy http://t.co/IomUfdvdEE
p386
aVInspired by the diverse and passionate leaders at the USCAN conference #climatenetwork http://t.co/gFgbDHtPmv
p387
aVRT @LCVoters: Been watching #CNNDebate for 4 hrs &amp; STILL no #Climate question. @CNN: we must know how candidates plan to #ActOnClimate
p388
aVPacked house for the #climatechange round table! Thx @SenWhitehouse @SenMarkey @SenatorShaheen @SenAngusKing http://t.co/Q01HLYGNqE
p389
aVHonored to be part of this impressive list of alums! Thx @Alpha_Sigma_Nu  https://t.co/5ynZybmFzn
p390
aVRT @LCVoters: It's time for the media to connect the dots between #ClimateChange &amp; social justice #Katrina10 @mmfa http://t.co/zWngmcTi7q
p391
aV.@POTUS "For decades we've been told it doesn't make economic sense to switch to renewables. Today that isn't true." #NCES8
p392
aVLooking good @MandalayBay - love the solar panels! http://t.co/DSOqergGXz
p393
aV.@repdinatitus great remarks at #NCES8. Thanks for your continued clean energy leadership. http://t.co/qhF7KxUoqJ
p394
aVI could listen to these two visionary leaders all day!  https://t.co/EjFOYUf1wa
p395
aVRT @ALCassady: .@NancyPfundDBL #cleanpowerplan creates long-term market certainty. Good for investors. #NCES8
p396
aV.@SenatorReid says traditional utility model no longer serves us best. Utilities should embrace change and distributed energy. #NCES8
p397
aVRT @LCVoters: Kudos to Hillary Clinton for saying #ShellNo to Arctic drilling. We need to #ActOnClimate &amp; keep growing clean energy jobs.
p398
aVRT @LCVoters: #GOPDebate moderator asks about #climatechange. Fact Check: Conservative primary GOP voters DO want to #ActOnClimate: http://\u2026
p399
aVThank you @SenGillibrand for so passionately opposing the #polluterprotectionact. You brought tears to my eyes. #ActOnClimate
p400
aVRT @LCVoters: .@GinaEPA [climate change] affects everything we know and everyone we love. #CleanPowerPlan #ActOnClimate
p401
aVRT @LCVoters: THERE\u2019S STILL TIME: #MakeTheCall for Climate Action --  call 866-568-9628 to be connected to your senator and tell them to su\u2026
p402
aVRT @LCVoters: I will #ActOnClimate -- because we can't leave this problem to future generations. Share if you agree. http://t.co/fVEkX48hsU
p403
aVDefense Dept. issues new report on climate change's threat. More refugees, poverty, &amp; instability. #climatechange is a "threat multiplier"
p404
aVListening to World Bank official explain their move away from coal and fossil fuel: "climate change is a poverty issue." @tnr #ActOnClimate
p405
aVThx @benandjerrys for the yummy ice cream and for calling for 100% clean energy. Two of my fav things!#ActOnClimate http://t.co/DP9zUX6IyI
p406
aVRT @Vargas_ErnestoS: #Latinos are working with @EPA to protect our families &amp; environment  #EJinaction @ChispaAZ  @LCVoters @ProtegeteCO ht\u2026
p407
aVRT @LCVoters: "Is climate change real? Is the pope catholic?" closing words from an inspiring speech from @GinaEPA
p408
aVSo thankful for your incredible leadership @GinaEPA on climate, clean water, and protecting our families' health! http://t.co/WfZAFoPhJO
p409
aVWH SAP hot off the presses: "if the President were presented with HR 2042 he would VETO it!" Thank you for standing for #climateaction!
p410
aV@tsalliance thanks for a great walk and event today! #IAMTSC http://t.co/8OyivPBCLL
p411
aVRT @scottdools: I hope that at least one of the FIFA delegates tried to get out of being arrested by rolling around on the floor grabbing h\u2026
p412
aVRT @washingtonpost: How FIFA became the world\u2019s most powerful and loathed sports organization http://t.co/FOPm4lcxhg
p413
aVRT @LCVoters: Thanks to the #CleanWaterRule, drinking water is now protected for ALL Americans! Say thank you to Pres. Obama: http://t.co/3\u2026
p414
aVTen years ago 2day, MT created its renewable energy standard. Has grown state by $17M! Thx to @MTvoters and @SenatorTester.
p415
aVI #ActOnClimate for my daughter's future. Thanks for your leadership @SenWhitehouse! #100Reasons #TimeToWakeUp http://t.co/12e3T2OTZt
p416
aVRT @washingtonpost: How Western media would cover Baltimore if it happened elsewhere http://t.co/lnTJGWAFsq via @PostOpinions
p417
aVRT @LCVoters: Check out our new TV ad urging Senate to reject Big Polluters &amp; #ActOnClimate https://t.co/DilPGUtRDn
p418
aVRT @LCVoters: No one fights the good fight harder than @SenatorReid. LCV's statement on his announcement: http://t.co/oDeuw5mjbi
p419
aVGoing on hour 14 of Senate #VoteARama -- send snacks, please. Not sure when this is gonna wrap people.
p420
aVRT @GinaEPA: We #ActOnClimate to protect &amp; strengthen the economy. A stable climate is critical to growth &amp; to companies' bottom lines.
p421
aVSnapshot of 2day --&gt; State perspectives hearing on @EPA Clean Power Plan. It's time to #ActOnClimate http://t.co/OEzzXReGgH
p422
aVRT @LCVoters: CA is "living proof that growing the economy and a healthy environment go hand-in-hand" -@EPWBoxer #ActOnClimate
p423
aVHappy 30th #EMILYsList30! So inspired. Thank you.
p424
aVVETO! #NoKXL Thank you, Mr. President.
p425
aVRT @LCVoters: Together, we can keep Alaska wild. Tell Congress to #ProtectTheArcticRefuge from #BigOil! http://t.co/5qF1nCr2EP
p426
aVRT @LCVoters: #Climate progress happens when we hold Congress accountable. Read our #SpecialEditionScorecard for 2015 Senate votes: http://\u2026
p427
aVRT @kate_sheppard: God I love @rtraister. Read her on the absurdity of America's maternity leave situation: http://t.co/kr6kZ2kbQD
p428
aV#Getcovered! A story worth reading by a friend I am lucky to have --&gt; What Could Possibly Happen? http://t.co/JEZgeYD6Aj @whitehouse
p429
aVRT @climateprogress: Transmission line that could bring wind and solar power to millions in West gets go-ahead http://t.co/4JUdV9jv0P http:\u2026
p430
aVRight on, Mr. President! "Pentagon warns that climate change poses immediate risks to our national security. We should act like it." #SOTU
p431
aVRT @LCVoters: We couldn't agree more! President @BarackObama "Let's set our sights higher than a single oil pipeline." #NOKXL
p432
aVRT @LCVoters: "Every 3 weeks we bring online as much solar power as we did in all of 2008." - President @BarackObama #SOTU #ActOnClimate
p433
aVAmen, Mr President! "Quality, affordable childcare is a must have...let's stop treating this like a side issue or a women's issue."
p434
aVU.S. House leadership proves (again) they value polluters, not people. Passes #KXL bill - good news 153 NO votes enough to sustain veto.
p435
aVRT @LCVoters: Thank you @RepRaulGrijalva for op-ed calling out leadership for doing polluters #DirtyWork on Keystone: http://t.co/iL7ijvlNZ\u2026
p436
aVRT @LCVoters: Enviro champ @DonBeyerVA being sworn in to Congress today! Check out all the new champs here: http://t.co/rPuLDm3F90 http://t\u2026
p437
aVRT @LCVoters: Congrats to enviro champ Rep Pete Aguilar on joining Congress today! See all our new champs: http://t.co/s4sJKaZm7X http://t.\u2026
p438
aVAll too true piece from @drgrist -- Politico\u2019s normal, awful story on EPA\u2019s new air rule http://t.co/BPeQ9INni4 via @grist
p439
aV.@zachdd thx to u Zach for getting me prepped for my TV debut! #NoKXL
p440
aVRT @zachdd: .@LCVoters own @SaraChieffo killed it on the TV last night (video at the bottom): http://t.co/m969xuJRr3 #KeystoneXL
p441
aVThx @CCTV_America and @mikewaltercctv for having me on 2nite to explain why the #KeystoneXL pipeline is a bad deal for the American people
p442
aVSenate climate allies defeat dirty and dangerous KXL tar sands pipeline bill! #NoKXL #ActOnClimate
p443
aVICYMI While you were sleeping US &amp; China announced deal 2 limit carbon pollution. Game changing step in fight to tackle #ClimateChange.
p444
aVRT @TheFix: We probably just saw one of the lowest-turnout elections in American history. http://t.co/697D1MuzOB http://t.co/4fENe19uJn
p445
aVInteresting opening point form Obama's post election presser: "to the 2/3rds of voters who chose not to participate, I hear you too."
p446
aVI did my civic duty. Have you? http://t.co/JbRRxPgxx5
p447
aVRT @HartSurveys: #CleanPower Plan resoundingly popular, 2/3 of voters in favor. Poll for @NRDC_AF @LCVoters @NextGenClimate http://t.co/TC2\u2026
p448
aVThis story on #solar isn't being told often enough. http://t.co/i8xdcCzJ8D
p449
aVRT @jgohringer: Scott Brown says he disagrees with Defense Dept. on #climate change &amp; will do his own research: https://t.co/oqS51WrgUF #NH\u2026
p450
a.