(lp0
V@nickdewar @pissysoundguy Does that system have Outrun?
p1
aVWe got a few @Fender guitars over here. #telecaster #jazzmaster #bassvi #drones #morereverb https://t.co/TwoPrHZWcE
p2
aVOnly the necessary. #puretone #whammybar #fuzzguitar #harmonics https://t.co/RHXjSiRsxx
p3
aV@pelicansong @trevordebrauw @TwatterLord Those pedals are very big.
p4
aV@MsSmartie2u @LeviRUClassy @nick_nolan17 @clovesdietpills @beatsbydre @halsey Roger used a vocoder, which was creat\u2026 https://t.co/GEpChpoxCx
p5
aVSeasonal things. https://t.co/1UDeDbgtUR
p6
aVSounds on the way. #guitars #ambiance #drone #ambient #soundtrack #fuzzpedals https://t.co/VxEaUkavyR
p7
aVGuitar solo. https://t.co/Okf1le7FUn
p8
aVScreech! #fenderguitar #vintageguitar #fenderjaguar https://t.co/g8f5yLgFo5
p9
a.