(lp0
VTravel can be about strengthening your friendships - just sign up for Guest Rm and begin creating a network of your\u2026 https://t.co/ZXZBne57O4
p1
aVRT @JustinBurkhardt: Before and after: Sofar Sounds concert at work tonight! Sponsored by Guest-Rm @SliceComm @GuestRmSocial @sofarsounds @\u2026
p2
aVWe are sponsoring a concert with @sofarphilly - TOMORROW! Grab your tickets now and we will see you there - BYOB, w\u2026 https://t.co/hwX26nypui
p3
aV@SmallBizPhilly @wildforcongress We would love to send over our press release and more info to you - who is the rig\u2026 https://t.co/SBMuXmCJit
p4
aV@SmallBizPhilly @Michael_Nutter Great question! We feel that money isn\u2019t as important as making sure that everyone\u2026 https://t.co/0vQE6Xslvl
p5
aV@JGrimSouthSide Thanks - we couldn\u2019t agree more!!
p6
aVWe are offering free rooms to those that are traveling to vote. Learn more about how we can do this at @MktsInsider\u2026 https://t.co/ouwiaPg1EW
p7
aVWe know that financial conversations can get weird. That's why we have made our platform so affordable. We love the\u2026 https://t.co/20Ra246lKW
p8
aVEverything is bigger in Texas - including this ferris wheel at the @StateFairofTx! Show us your travel photos using\u2026 https://t.co/ZVSTrj8BmL
p9
aV@Ojeda4congress Hi Richard! We want to make sure everyone gets to the polls this November, so we are offering FREE\u2026 https://t.co/IzviaaeCDg
p10
aV@IronStache Hi Randy! It's so important that everyone makes it to the polls this November, so we're offering FREE a\u2026 https://t.co/HKeK02xVxP
p11
aV@JenniferWexton Hi Jennifer! It's so important that everyone makes it to the polls this November, so we're offering\u2026 https://t.co/4OnopGW6tZ
p12
aV@SpanbergerVA07 Hi Abigail! We want to make sure everyone gets to the polls this November, so we are offering FREE\u2026 https://t.co/pz41bw3PKd
p13
aV@ColinAllredTX It's so important that everyone makes it to the polls this November, so we're offering FREE accommod\u2026 https://t.co/Y5MrTVk4aH
p14
aV@mjhegar We want to make sure everyone gets to the polls this November, so we are offering FREE accommodations to t\u2026 https://t.co/nlBlPqJxXp
p15
aV@GinaOrtizJones Hi Gina! It's so important that everyone makes it to the polls this November, so we're offering FRE\u2026 https://t.co/u6ZooyxR5M
p16
aV@Lizzie4Congress Hi Lizzie! It's so important that everyone makes it to the polls this November, so we're offering\u2026 https://t.co/Lsyqkji4Nf
p17
aV@janasanchez We agree Jana! That's why we're offering FREE accommodations through our platform to traveling voters\u2026 https://t.co/1bwBGA9ang
p18
aV@JoeCunninghamSC It's so important that everyone makes it to the polls this November, so we're offering FREE accomm\u2026 https://t.co/SKxtl2jNG7
p19
aV@GScott4Congress Hi Scott! We are a new startup based in Philadelphia and we want to make sure everyone gets to the\u2026 https://t.co/6UxtN5W4pI
p20
aV@wildforcongress Hi Susan! We are a new startup based in Philadelphia and we want to make sure everyone gets to the\u2026 https://t.co/ELfGfTI2g2
p21
aV@ScottWallacePA Hi Scott! We are a new startup based in Philadelphia and we want to make sure everyone gets to the\u2026 https://t.co/LoqPj2lMbh
p22
aV@HoulahanForPa @KatherineClark Hi Chrissy! It's so important that everyone makes it to the polls this November, so\u2026 https://t.co/OGR2xiIY4D
p23
aV@BetsyRaderOH Hi Betsy! We want to make sure everyone gets to the polls this November, so we are offering FREE acco\u2026 https://t.co/3ac6ZCzFxy
p24
aV@dannyoconnor1 Hi Danny! We want to make sure everyone gets to the polls this November, so we are offering FREE acc\u2026 https://t.co/SUgXLXvyVA
p25
aV@ABrindisiNY Hi Anthony! It's so important that everyone makes it to the polls this November, so we're offering FRE\u2026 https://t.co/hLh2HGwWGF
p26
aV@DelgadoforNY19 Hi Antonio! We want to make sure everyone gets to the polls this November, so we are offering FREE\u2026 https://t.co/etxsggnMIS
p27
aV@StevenHorsford We want to help GOTV by offering FREE accommodations through our platform for traveling voters. Hel\u2026 https://t.co/JaAdx3bSbb
p28
aV@MikieSherrill Hi Mikie! It's so important that everyone makes it to the polls this November, so we're offering FRE\u2026 https://t.co/Meo9czKXdK
p29
aV@Malinowski Hi Tom! We want to make sure everyone gets to the polls this November, so we are offering FREE accommod\u2026 https://t.co/o1daVfGoTx
p30
aV@AndyKimNJ We want to help GOTV by offering FREE accommodations through our platform for traveling voters. Help us\u2026 https://t.co/3amvb0hPM7
p31
aV@ChrisPappasNH We want to help GOTV by offering FREE accommodations through our platform for traveling voters. Help\u2026 https://t.co/3JLi2narWG
p32
aV@karaforcongress Hi Kara! It's so important that everyone makes it to the polls this November, so we're offering FR\u2026 https://t.co/z9EJ46XNo2
p33
aV@KathyManningNC Hi Kathy! We want to make sure everyone gets to the polls this November, so we are offering FREE ac\u2026 https://t.co/87oWMrNDSg
p34
aV@McCreadyForNC It's so important that everyone makes it to the polls this November, so we're offering FREE accommod\u2026 https://t.co/nrgxHLWXhI
p35
aV@LindaForNC We agree Linda. We want to help GOTV by offering FREE accommodations through our platform for traveling\u2026 https://t.co/CuQXDzH47g
p36
aV@cortvo @JoeBiden @McCaskill4MO Hi Cort! We want to help GOTV, so we're offering FREE accommodations through our pl\u2026 https://t.co/RZ57FNa0dD
p37
aV@joeradinovich Hi Joe! It's so important that everyone makes it to the polls this November, so we're offering FREE\u2026 https://t.co/hpqp97GR4C
p38
aV@deanbphillips Hi Dean! We're a new home-sharing service and we want to help GOTV. We're offering FREE accommodatio\u2026 https://t.co/Atze6oKMfh
p39
aV@AngieCraigMN It's so important that everyone makes it to the polls this November, so we're offering FREE accommoda\u2026 https://t.co/rqg3g2Tws1
p40
aV@danielfeehan Hi Dan! We are a new home-sharing service platform and we are offering FREE accommodations to help tr\u2026 https://t.co/n1qloKs5NO
p41
aV@HaleyLive Hi Haley! We're offering FREE accommodations through our platform to traveling voters to help make sure\u2026 https://t.co/tXsm80wZHG
p42
aV@ElissaSlotkin It's so important that everyone makes it to the polls this November, so we're offering FREE accommod\u2026 https://t.co/YR2ULW68BA
p43
aV@MattLongjohn We want to make sure everyone gets to the polls this November, so we are offering FREE accommodations\u2026 https://t.co/GbThJW6FCs
p44
aV@golden4congress Hey Jared! It's so important that everyone votes this November, so we're offering FREE accommodati\u2026 https://t.co/rJzCh7s4rK
p45
aV@AmyMcGrathKY We want to make sure everyone gets to the polls this November, so we are offering FREE accommodations\u2026 https://t.co/VdxtNswZ7E
p46
aV@sharicedavids Hi Sharice! We want to make sure everyone gets to the polls this November, so we are offering FREE a\u2026 https://t.co/Ifps7fbiJh
p47
aV@PaulDavisKS We agree Paul! It's so important that everyone votes this November, so we're offering FREE accommodati\u2026 https://t.co/etxnSyuTHh
p48
aV@LizForIndiana Hi Liz! We're offering FREE accommodations through our platform to traveling voters to make sure eve\u2026 https://t.co/iO3l2MEqLF
p49
aV@melforcongress Hi Mel! It's so important that everyone makes it to the polls this November, so we're offering FREE\u2026 https://t.co/I8ONHIw95a
p50
aV@LUnderwood630 Hi Lauren! We're offering FREE accommodations through our platform to traveling voters to make sure\u2026 https://t.co/HCrUDKOmQR
p51
aV@BetsyforIL Hi Betsy! We want to make sure everyone gets to the polls this November, so we are offering FREE accomm\u2026 https://t.co/Vpw5PxuNLX
p52
aV@Kelly4SouthrnIL We agree! We also want to make sure everyone gets to the polls this November, so we are offering F\u2026 https://t.co/kd311Qf8ji
p53
aV@SeanCasten Hi Sean! We're offering FREE accommodations through our platform to traveling voters to make sure every\u2026 https://t.co/IAUizlhv1R
p54
aV@Axne4Congress Hi Cindy! We are offering FREE accommodations to traveling voters to make sure everyone gets to the\u2026 https://t.co/9PZIPs0h2I
p55
aV@Abby4Iowa Hi Abby! It's so important that everyone makes it to the polls this November, so we're offering FREE acc\u2026 https://t.co/s0BiP1SzDp
p56
aV@Carolyn4GA7 @staceyabrams @SarahRiggsAmico @MooreForGeorgia @benku We want to make sure everyone gets to the polls\u2026 https://t.co/CywPKR19jh
p57
aV@LucyWins2018 Hi Lucy! We want to make sure everyone gets to the polls this November, so we are offering FREE accom\u2026 https://t.co/j7hEUIzJW5
p58
aV@DebbieforFL We agree Debbie! We also want to ensure everyone makes it to the polls this November, so we're offerin\u2026 https://t.co/lrJhsUWYOc
p59
aV@MBFforCongress Hi Mary! We want to make sure everyone gets to the polls this November, so we're offering FREE acco\u2026 https://t.co/jW2iBWTqCZ
p60
aV@laurenbaer We want to ensure that everyone makes it to the polls this #ElectionDay, so we're offering FREE accommo\u2026 https://t.co/gMpYzDAFmF
p61
aV@Shapiro4FL16 It's so important that everyone makes it to the polls this #ElectionDay, so we're offering FREE accom\u2026 https://t.co/dBslHDgeHo
p62
aV@KristenForFL Hi Kristen! We're offering FREE accommodations to traveling voters to make sure everyone makes it to\u2026 https://t.co/UFSUQrUY8n
p63
aV@nancysoderberg Awesome! We love to see young students voting. We also want to make sure everyone can make it to th\u2026 https://t.co/3Glpt9uzXI
p64
aV@JahanaHayesCT We want to make sure everyone makes it to the polls this #ElectionDay , so we're offering FREE accom\u2026 https://t.co/9b36xyDq71
p65
aV@JasonCrowCO6 Hi Jason! We're a new home-sharing service and we're offering FREE accommodations to traveling voters\u2026 https://t.co/kFE6GRW2WS
p66
aV@MikeLevinCA We want to make sure everyone makes it to the polls this November, so we're offering FREE accommodatio\u2026 https://t.co/6S605gNot4
p67
aV@HarleyRouda Hi Harley! We're a new home-sharing service and we are offering FREE accommodations to traveling voter\u2026 https://t.co/lMlZQzinw7
p68
aV@katieporteroc It's so important that everyone makes it to the polls this November, so we're offering FREE accommod\u2026 https://t.co/ZAiPSKlucR
p69
aV@GilCisnerosCA We agree Gil. So we're offering FREE accommodations to traveling voters so that everyone can make it\u2026 https://t.co/oMIfGhJPFn
p70
aV@KatieHill4CA Hi Katie! We're a new home-sharing service and we're offering FREE accommodations to traveling voters\u2026 https://t.co/0oHsELa6rf
p71
aV@TJCoxCongress We want to make sure everyone makes it to the polls this November, so we're offering FREE accommodat\u2026 https://t.co/51DRjS3j7Q
p72
aV@joshua_harder We're working to GOTV by offering FREE accommodations to traveling voters this November. Help us spr\u2026 https://t.co/uccBNKP3OU
p73
aV@Morse4America Hi Jessica! Traveling voters can get FREE accommodations through our platform this November. Help us\u2026 https://t.co/GSnQEh3ELz
p74
aV@hiral4congress Hi Hiral! We're helping to GOTV by offering FREE accommodations to traveling voters this November.\u2026 https://t.co/rkfQk7PUTN
p75
aV@Ann_Kirkpatrick We want to make sure everyone makes it to the polls this November, so we are offering FREE accommo\u2026 https://t.co/mrxehlgjnu
p76
aV@clarketucker Hi Clarke! We believe it's so important that everyone makes it to the polls this November so we're of\u2026 https://t.co/Mf3R2vlVCB
p77
aV@AlyseGalvin This is awesome! We're also helping to GOTV by offering free accommodations to any traveling voters. P\u2026 https://t.co/KBrxBUqhjh
p78
aV@TheDemocrats @HillaryClinton we are working to help GOTV efforts by offering anyone FREE accommodations if they're\u2026 https://t.co/X2UibqL0zm
p79
aV@staceyabrams hi! we are so excited for you to be running and are offering FREE accommodations to anyone that is tr\u2026 https://t.co/v3R4meNKZ9
p80
aV@davefbarden Hi! We are helping to GOTV in the US by giving anyone traveling to vote free accommodations! Help us c\u2026 https://t.co/FdqbBQDTUY
p81
aV@Scholten4Iowa We want to help get you elected - we are offering FREE accommodations to anyone traveling to vote an\u2026 https://t.co/BjtefD7pWD
p82
aV@nvdems @CoryBooker We agree!! We need to get more voters out this midterm. To do so, we are giving anyone that is\u2026 https://t.co/R9cj0RdMOQ
p83
aV@Alyssa_Milano Hi! We are trying to help GOTV by giving anyone that is traveling to vote FREE accommodations! Pleas\u2026 https://t.co/gap0S6bKOK
p84
aV@PhiladelphiaGov Hi! We are a local startup for affordable travel. We are waiving ALL fees for those traveling to G\u2026 https://t.co/PhWaq415ED
p85
aV@Michael_Nutter Are you worried about people not voting due to travel? We are a local Philly startup and offering p\u2026 https://t.co/E8DrVJbGc8
p86
aV@GovEdRendell We couldn't agree more! We are a travel platform offering free accommodations to anyone traveling to\u2026 https://t.co/RcN6jxLWjU
p87
aVWe are waiving all fees for first time users to travel FOR FREE on #ElectionDay to get out the vote! Register with\u2026 https://t.co/xCPYF3w7mT
p88
aVPlanning a trip doesn't have to be expensive. Traveling with us means your accommodations are never more than $20.\u2026 https://t.co/Oi3VOqra1P
p89
aVWe had the chance to explore Dallas last week for the @StateFairofTexas - including the #WomensMuseum!\u2026 https://t.co/pEWGYMInay
p90
aVWe are feeling inspired for 2019 with this list of travel trends from @TravellerAU!  https://t.co/TpvZfCScbL https://t.co/FlWbsVJVzo
p91
aVDo you feel like your travel dreams are out of your budget? Same. That's why we created Guest Rm - travel anywhere\u2026 https://t.co/OCxQwYTc0F
p92
aVEven State Fairs are bigger in Texas! We are just getting back from all the fun of the @StateFairofTexas\u2026 https://t.co/AGIJA6m5ZW
p93
aVDon't just wait for the next travel opportunity, create your own today - all you need is a Guest Rm account to esta\u2026 https://t.co/GXsKA1M59R
p94
aVWant to get to your destination with minimum complications and hassle? These travel hacks can help you. Via @Forbes\u2026 https://t.co/WBmL2LarlS
p95
aVBreak out of your day-to-day routine and go on an adventure exploring the world - we are exactly what you need to g\u2026 https://t.co/a57X86f5Qp
p96
aVCuisine is an integral part of travel - check out these destination's most popular foods via @travelLeisure.\u2026 https://t.co/oaeZQRnjjN
p97
aVBecoming a globetrotter and exploring new places has never been easier. With Guest Rm, you can build a network that\u2026 https://t.co/fL3jrWVkxK
p98
aVDon't let lodging expenses prevent you from experiencing the world. Sign up for Guest Rm today and start traveling\u2026 https://t.co/1j7tkutZtx
p99
aVLooking for a way to travel before it gets too cold? How about that trip you planned forever - with Guest Rm you ca\u2026 https://t.co/PfUpeEm2dV
p100
aVaveling can get expensive - keeping within a budget gets difficult when booking accomodations, activities and every\u2026 https://t.co/ZyaXfPHyx6
p101
aVStop breaking the bank while you travel by staying anywhere in your network for $20. Does it sound too good to be t\u2026 https://t.co/uC27nkIIFO
p102
aVFall colors are what gives us the #travelbug - all we want to do is get out and see it all! Here are some tips from\u2026 https://t.co/tgD5S97rZX
p103
aVHave you thought about taking a quick getaway this fall? We are the solution to the rising costs while traveling! S\u2026 https://t.co/r3HqnJDDmM
p104
aVMillennials are changing the way that people travel. Everything can be booked in the palm of your hand - here are t\u2026 https://t.co/6wX8P7SfO9
p105
aVEscaping to a nearby city for the weekend does not need to break the bank. With a Guest Rm account, you can travel\u2026 https://t.co/HFBBrVwWLn
p106
aVMillennials are changing the way that people travel. Everything can be booked in the palm of your hand - here are t\u2026 https://t.co/W51PbfKzv8
p107
aVToday is the last day of voting for the 2018 TIMMY Awards! Vote for us for Philly's Best Tech Startup!\u2026 https://t.co/QWd7NLKO3U
p108
aVHave you voted for us yet for the TIMMY Award for Best Tech Startup? Voting ends next week so we need your help!\u2026 https://t.co/fHfWnG1vGa
p109
aVThe end of summer is something we all dread, but we are already looking forward to the upcoming fall foliage! Here'\u2026 https://t.co/jYgqpJEoX0
p110
aVHaving a Guest Rm account means that you can take that weekend in the city for no more than $20. Sign up today and\u2026 https://t.co/WdjNGnjWpJ
p111
aVThe #TIMMYAwards are coming up quick - please vote Guest Rm for best Tech Startup in Philadelphia! You can vote eve\u2026 https://t.co/MYe8baslnN
p112
aVThere are many ways to save for your next vacation - booking in advance and choosing Guest Rm over a hotel are two\u2026 https://t.co/s90i8Dh6DV
p113
aVWe all wish we visited nearby cities more often - and we can. With Guest Rm, you can visit a friend in a different\u2026 https://t.co/FTUSQush1Z
p114
aVWe are so excited to be nominated for a #TIMMYAward for Best Tech Startup in Philadelphia! Voting takes place until\u2026 https://t.co/BabRizoori
p115
aVFall will soon be here and we are ready to check off our fall bucket lists with all of our friends. Signing up for\u2026 https://t.co/3uRwngzQvT
p116
aVWe are always daydreaming about our next travel destination. Check out these budget vacation tips from\u2026 https://t.co/mPblTXm9uG
p117
aVHappy Labor Day from all of us at Guest Rm! We pride ourselves in helping everyone spend more time with their frien\u2026 https://t.co/V1emgYBwsE
p118
aVMove over food - Instagrammability is the new trend in reasons to travel! via @travelweekly https://t.co/u5nS8WS192 https://t.co/hjB7CpljgY
p119
aVWondering what it is that your friends are doing differently that allows them to go on so many trips? Check out thi\u2026 https://t.co/pn3i81Xemx
p120
aVDo you want more affordable and safer travel? We've got you covered. Sign up today and go anywhere in your network\u2026 https://t.co/5wmBAC0lrR
p121
aVFollow these tips to see how you can get away without paying a fortune. Via @CNBC https://t.co/Cc0GhEANKw https://t.co/tlmWQC5s3F
p122
aVMore millennials are leaving their full time jobs to explore the world for themselves. Get the inside scoop on this\u2026 https://t.co/qkFd005TYh
p123
aVThe end of summer is quickly approaching, but it's not too late to get away! Travel with us for all your last minut\u2026 https://t.co/W33JQuOoPB
p124
aVAstronauts are bringing their travel planning back to Earth. Learn more about how you can incorporate their tips fo\u2026 https://t.co/q6YPNOdMZx
p125
aVThe travel industry has adapted to the needs of millennials technology is now a place to show your travel photos, b\u2026 https://t.co/MENpdVL6bV
p126
aVWe are helping to change the way you think about travel. Build your network and travel for a low cost the safest wa\u2026 https://t.co/APOIalXjLh
p127
aVIt's already August, but there's still time for trip with your pals. Here are the 21 most beautiful beaches to visi\u2026 https://t.co/Rz0fNmVYec
p128
aVGuest Rm is here to make an easy and affordable way to visit with far away friends and family! Create your account\u2026 https://t.co/pnDFrh4Hdx
p129
aVSeventy-three percent of people said they use travel as an outlet for their curiosity. Next time you're feeling cur\u2026 https://t.co/RcTwa0YdpS
p130
aVWhich of these 4 trends is the reason why you travel? https://t.co/LoyH1k9x5C https://t.co/Kk8byFwmBi
p131
aVHas it been too long since the last time you saw a far away friend? Guest-Rm is here to help! Sign up now to start\u2026 https://t.co/XM73lgWQI0
p132
aVIt's time to try something new. Check out the most popular places for female travelers. https://t.co/OcJmIfkImh  vi\u2026 https://t.co/1dreJEndf3
p133
aVWant to travel more, spend less, and get connected with long distance #friends? Guest-Rm is here to help. Create yo\u2026 https://t.co/d9yNVPkfwv
p134
aVIt's possible to be environmentally friendly and still have your dream vacations. Start by staying local and checki\u2026 https://t.co/oSiXP9rKC1
p135
aVYou don't have to choose between your dream backpack vacation and saving money. Here are 5 great tips for\u2026 https://t.co/RvUUGWuXeZ
p136
aVJust because Summer ends in September doesn't mean your vacations need to! Here are the best places to travel to in\u2026 https://t.co/swevPdXyut
p137
aVLove trying new things? You're not alone. Grab your friends and try traveling somewhere brand new.\u2026 https://t.co/SeUc6f9C0e
p138
aVSave more on where you stay, so you can spend more on what you do! Sign up for Guest Rm now to get started.\u2026 https://t.co/4U3ALcybg9
p139
aVHow are you planning a trip that all your friends will love? Stick to a plan and budget that everyone agrees with -\u2026 https://t.co/1ODZ5xBRI5
p140
aVWe are creating adventures for you and your network. All you have to do is sign up for an account and you can begin\u2026 https://t.co/EjdWxMnNQ7
p141
aVWe all want to have a fun and active life - but being able to afford this can seem overwhelming. We are so excited\u2026 https://t.co/DMkLSKJN7m
p142
aVOne of the many reasons we started Guest Rm because we were inspired to reduce our carbon footprints while travelin\u2026 https://t.co/WceIRiW7QS
p143
aVHow you organize your trip while traveling with your friends is key to having the perfect group vacation! We are ex\u2026 https://t.co/TXWbtW0tn7
p144
aVWe are changing the way that people #travel. We approach #homesharing in a way that enhances your social experience\u2026 https://t.co/2Af6yJGXc3
p145
aVWe hope that everyone is having a Happy 4th of July! #4thofjuly #indepdendenceday https://t.co/oM2ad6miCv
p146
aVWe need to #travel to help enhance our lives through new cultures and experiences - but we also need it to clear ou\u2026 https://t.co/9LCJ7IyDQq
p147
aVWe're the organized friend (you're welcome), but which friend are you in your group? https://t.co/Yxm94GRsKx https://t.co/qhleIbcloe
p148
aVHotels can be such a lonely experience and #homesharing can leave you feeling anxious. We have found an inbetween.\u2026 https://t.co/5KNMTycA3s
p149
aVTraveling gets so expensive! Besides signing up for a Guest-Rm account, what are you doing to lower the costs of yo\u2026 https://t.co/rfv3D7sJNv
p150
aVHow are you staying social while traveling solo? There are so many different ways to immerse yourself in new cultur\u2026 https://t.co/cjE02Bkxga
p151
aVWhy pay for overpriced hotels to visit your friends when you could make connections and have a more personal trip?\u2026 https://t.co/NhC9OG52WA
p152
aVIs it possible to travel right after graduation? Take the stress off of planning your post-college trip by making a\u2026 https://t.co/AiVDvWotYO
p153
aVAre you following these 10 ways to make yourself happier at home? (Calling your dad for father's day counts!)\u2026 https://t.co/PKVlgky2a1
p154
aVWe are revolutionizing the way you travel. When you and your friends sign up for Guest Rm accounts, your networking\u2026 https://t.co/6saLHgJPez
p155
aVTraveling solo doesn't have to be lonely. You can make your solo trip a time to make friends (and increase your Gue\u2026 https://t.co/ucSlVD72HW
p156
aVWe pride ourselves on the trusting experience that our users receive and the relationships that they can build thro\u2026 https://t.co/01RO1tWJeI
p157
aVHow do you like the sound of more vacations that cost less? It's not too good to be true! Sign up for your account\u2026 https://t.co/fVeDjGYtTn
p158
aVWhat ways are you saving to go on your dream vacation? #travelinspo #budgettravel #dreamdestination\u2026 https://t.co/fAjA2S9cTG
p159
aVLiving simply can help you rid yourself of the nonessentials and create your own stress free lifestyle.\u2026 https://t.co/hrjt45cuJT
p160
aVKicking off the summer right with our official launch! Be sure to sign up for an account today! https://t.co/3lJBCe5rbh
p161
aVGuest-Rm, a home-sharing service for friends, launches in Philly -  read all about us! https://t.co/bfjOzvf66W
p162
aVHappy new year everyone! We've been hard at work to make our site better for you! Do us a favor and test it out...S\u2026 https://t.co/DjzIxC87RL
p163
aVPlanning your holiday travel? Sign up for #GuestRm today and save! https://t.co/00YfG0lBhv https://t.co/LlOyGchtiu
p164
aVRT @CurbedPhilly: Guest-Rm, a new home-sharing service, has launched in Philly. But there's a twist: https://t.co/T8De4DZZlI https://t.co/y\u2026
p165
aV@CurbedPhilly Hi Melissa! Thanks again for your great article. We are hosting a launch party tomorrow at La Colombe\u2026 https://t.co/d3GB8bQEjQ
p166
aVJoin us tomorrow for our launch party @LaColombeCoffee Independence Mall from 7-10pm. Free drinks, food, and fun! R\u2026 https://t.co/xfDhWHgK8W
p167
aVJoin us at https://t.co/00YfG0lBhv!
p168
aV#GuestRm is live! Read about us in feature from @CurbedPhilly https://t.co/bfjOzvf66W
p169
aVRead about us in a new feature from @NextCityOrg https://t.co/unjVfscHGo
p170
aV#GuestRm site launching Monday, Oct. 30. We can't wait to meet you world! #TravelFriendly #TravelCheaper #TravelBetter
p171
aVJoin us for our launch party in Philadelphia on November 10. Register here! https://t.co/R5RKDuenYz
p172
aVWe are excited to introduce Guest-Rm (pronounced Guest Room!). Our website will be launching next week, so stay tuned for more info.
p173
a.