(lp0
VRT @george_capen: I've seen some very scary tweets recently. PLEASE, do NOT take violent actions to cause change. Trump wants a civil war -\u2026
p1
aVhttps://t.co/uDghK2qJns
p2
aV#InspirationToVote https://t.co/gao5KdrZNB
p3
aVhttps://t.co/mfk8uXWgJC
p4
aV@realDonaldTrump I believe you are (once again) extremely confused.  It was your delusional supporters that got cau\u2026 https://t.co/5Hqopxry0c
p5
aV@realDonaldTrump Can you please get over yourself with the size obsession, it's quite childish and very annoying!
p6
aV@LeonieJSchau @lost_cj @bridget_joy_ @C_Stroop The thing is that none of it is even real. These "Christians" do hor\u2026 https://t.co/CRcLj03lgJ
p7
aVRT @Bellatrixx2018: @DebraMessing @Patti_lynnAZ Pizza to the Polls will send free \U0001f355 to long lines of voters, including volunteer staff. Use\u2026
p8
aVRT @DebraMessing: If you are on a LONG LINE to #vote, call in the address and Pizza to the Polls will send \U0001f525FREE PIZZA\U0001f525 to make your wait m\u2026
p9
aVRT @BernieSanders: It should be repeated every hour of every day until Election Day that Donald Trump and the Republican leadership in Cong\u2026
p10
aVRT @challenger_grey: This is the former U.S. Dir.of Ethics under Trump! (He resigned in protest. ) https://t.co/368QFmjD8z
p11
aVRT @ChrisJZullo: How dare Sarah Sanders, Donald Trump or the Republican party compare heckling to sending political opponents bombs then bl\u2026
p12
aV\U0001f602\U0001f602\U0001f602 https://t.co/NrQalIWAim
p13
aVRT @Infantry0300: I\u2019m a white male Marine Corps veteran and I\u2019m calling this last week\u2019s activities what they are: white nationalist terror\u2026
p14
aV@mmpadellan @liuba4congress Deep down he wants badly to be a mob boss\U0001f609
p15
aV@cameron_kasky Once again the republicans are reaching for shit
p16
aVRT @cameron_kasky: RT if you think a financial literacy class should be required in all high schools.
p17
aVBallot dropped off!  Suck it republicans!\U0001f64c\U0001f499\u000a#VoteBlueToSaveAmerica
p18
aV@realDonaldTrump This is on your head!  You incited this!  Stop the hate speeches!\U0001f621
p19
aV@MrFilmkritik Sounds like the Kemp camp is reaching hard for shit. \U0001f60f.  They must be really worried. #VoteBlue
p20
aV@TheCenteredEgg Freak the f**k out!\U0001f635
p21
aV@Acosta How do you not constantly roll your eyes every time he opens his dirty whorish mouth?\U0001f635
p22
aVRT @tedlieu: Watching this made me smile. You will too. https://t.co/LsrPovHEMP
p23
aVHey @LindseyGrahamSC,  remember this little gem?\u000aWhat are you going to do now? https://t.co/l5YvVROxA9
p24
aV@bdubdrum @realDonaldTrump \U0001f602 love it!
p25
aV@BrendaJetson These people are disgusting\U0001f620
p26
aV@MohamedMOSalih https://t.co/ss8jVVap0w
p27
aVRT @Momma_DE_: Hell yeah\U0001f4aa\U0001f3fc https://t.co/I624H1E6K7
p28
aVRT @ItsMeCathi: To all transgender people:\u000a\u000aWe hear you and we see you.\u000a\u000aTrump and his administration are bigoted, weak. narrow minded and\u2026
p29
aV@Airstart @leeproffitt70 @realDonaldTrump Unfortunately, no
p30
aV@realDonaldTrump Calm down crazy pants and quit MAKING SHIT UP!
p31
aV@brycetache Ditto!
p32
aV@scousewrestling @johnpgrier @GeorgeTakei Too bad @johngrier doesn't realize if it wasn't for France we would have not won that war\U0001f60f
p33
aV@realDonaldTrump If the laws get changed then your wife has got to go. I would appreciate it if you and the rest of\u2026 https://t.co/2n2GAeTebI
p34
aV#GetOutAndVote https://t.co/2z65ZQqZVi
p35
aVRT @ChrisMurphyCT: Take notes, friends. This is how Democrats must talk about guns. Bold. Unapologetic. Passionate. \u000a\u000aI am flying to Florid\u2026
p36
aVVote! https://t.co/I5GJDODBiY
p37
aV@ReneeLibby2 https://t.co/ZPbPrvGJpI
p38
aVOregon voters #NoOn105 , #NoOn106.  West Linn, #YesRachelPrusak
p39
aVhttps://t.co/ermMMp8wvp\u000aDo the right thing Florida, vote Andrew Gillum in!\u000a#AndrewGillum
p40
aV@realDonaldTrump No, It means your boyfriend\u2019s trolls will be
p41
aVRT @AndrewGillum: RT if you\u2019ve got my back in tomorrow night\u2019s debate. https://t.co/79eE8tgnQB
p42
aV@realDonaldTrump So will you be punishing yourself?  You are the king of fraud
p43
aVRT @klmcl: @leeleeb50 Have you read this?  https://t.co/u1O8asLM7F #globalcitizen
p44
aV@realDonaldTrump @RonDeSantisFL @realDonaldTrump is a shit magnet and anyone you endorse is more than likely a raci\u2026 https://t.co/QFKQcip2My
p45
aVRT @BarackObama: The last presidential election turned on fewer than 100,000 votes in three states. More people go to Coachella. There\u2019s no\u2026
p46
aVRT @OregonWildlands: Hooray! The #OregonWildlands Act just passed out of a key Senate committee. RT to thank @RonWyden and @SenJeffMerkley\u2026
p47
aV\U0001f496 https://t.co/DDDMLb1uPI
p48
aVRT @CountryFirst50: Oregonians, you can verify you are a registered voter using this link.......... With all the gerrymandering going on th\u2026
p49
aVRT @benwikler: ALERT: The Trump administration has a plan to drastically curtail protests in DC, shutting down space in front of White Hous\u2026
p50
aVRT @Domini_Templari: I watch Week in &amp; Week out #resistors like @Kokomothegreat, @BossyLadySunday, @SocialPowerOne1, @JCTheResistance, @1Ir\u2026
p51
aVRT @Alyssa_Milano: Georgia Voters: Here\u2019s How to Legally Vote Even if You\u2019re on Brian Kemp\u2019s Can\u2019t-Vote List https://t.co/uNZvG3a5fe
p52
aV@suerb2 @WyattEarpLA @realDonaldTrump \U0001f602\U0001f602\U0001f602
p53
aV@realDonaldTrump You couldn't pay me enough to watch either of those shows.  I'd rather shove bamboo shoots under my fingernails
p54
aVRT @yankeemoe23: @MichaelAvenatti #VoteToSaveAmerica https://t.co/jdU9qYclFY
p55
aV@Momma_DE_ He makes me sick\U0001f637
p56
aVRT @glenngaslin: Listen to George. https://t.co/LjjZDwlcgv
p57
aVRT @fferic30: This young lady hit the nail on the head! Until we as a NATION own up to our past we CAN NOT move forward!!! https://t.co/IYY\u2026
p58
aV@GeorgePapa19 Keep reaching....
p59
aV@rkbpss @PassTheSalty I feel like he should have been able to call security to have her removed
p60
aVThese disgusting racist assholes need to be shipped off to a remote iceberg during melting season https://t.co/pH6wSJTI1p
p61
aV@TheDemCoalition @Axne4Congress She had over 7,000 followers now!
p62
aVRT @TheDemCoalition: Cindy Axne is an Obama-endorsed Democrat running for Congress in Iowa. Right now her campaign has around 4,000 followe\u2026
p63
aV@ABC @TomLlamasABC What platform?  What is it that you do?  Asking for a friend\U0001f609
p64
aV@MrReginaldJames @freedom2015glo @ABC @TomLlamasABC How is it possible that she can speak multiple languages yet be so incredibly stupid?\U0001f635
p65
aVGreat article! https://t.co/sVW4cIndUm
p66
aV@DebraMessing https://t.co/L02XQM2Ll1
p67
aV@rolandscahill https://t.co/P2FoTNbTMt
p68
aVBefore the republicans start thinking this is a good idea just remember all the tea party protests during the Obama\u2026 https://t.co/4dyLju1QqV
p69
aV@realAliTweets @BlackBluesee We have fallen into the pits of hell (if I believed in such a place)
p70
aV@leeleeb50 @VCSP8 @leeleeb501 Done!
p71
aV@GeoEdResearch @BravenakBlog I just used this term the other day at work when I had a full on tantrum\U0001f44d
p72
aV@bridget_joy_ They are paid actors\U0001f609
p73
aV@realDonaldTrump Put down your cheeseburger and take off the tin foil hat and quit MAKING SHIT UP!!!!!\u000aTry really,\u2026 https://t.co/EV1HShYK4K
p74
aVRT @KamalaHarris: Have friends that live in: \u000aArizona \u000aArkansas \u000aFlorida \u000aGeorgia \u000aIndiana \u000aKentucky \u000aMichigan \u000aMississippi \u000aNew Mexico \u000aOh\u2026
p75
aVRT @ProPublica: We\u2019re on the lookout for any problems that prevent people from voting \u2014 such as long lines, registration problems, purged v\u2026
p76
aV@MKGenest Nope
p77
aV@carlasotelo18 @TalbertSwan I was thinking that too. She's definitely on something\U0001f62e
p78
aV@JohnHewell @sandy06906 Go Navy!
p79
aVGo Navy! https://t.co/FbJj6gg3Rd
p80
aV@MarkRuffalo \U0001f496 it!
p81
aV@realDonaldTrump Nope.  Wrong!  Many are disgusted\U0001f621
p82
aVRT @Domini_Templari: #RetweeetPlease in support of the #BlueWaveComing2018 https://t.co/DmxlVhRDQ9
p83
aV@ItsMeCathi Take care yourself too. So sorry about your mom\U0001f496
p84
aVRT @JohnnyBlkshrt: 29 days to election.\u000aNo time to be lukewarm,no time to mince words.\u000a\u000a1.if you are voting for Democrats please follow me.\u2026
p85
aV@woundedangel_70 @JohnnyBlkshrt @liz_warthen Oregon
p86
aVAmazing! https://t.co/VI9l163aob
p87
aV@BravenakBlog \u201cExpress yourself \u201c-Madonna
p88
aV@Lady_Star_Gem @DrDinD I\u2019m seeing a lot of women (like Kellyanne) trying to shame other women and it sickens and di\u2026 https://t.co/XtbSh698is
p89
aVRT @GeorgeTakei: Do it. Make three calls:\u000a\u000aFLAKE 202-224-4521\u000aCOLLINS 202-224-2523\u000aMURKOWSKI 202-224-6665\u000a\u000a"I\u2019m calling to urge the Senator\u2026
p90
aV@ChasingOzPhotog Tupac Shakur https://t.co/XgfQsMZTao
p91
aVRT @shaunking: I signed this. Men, join me. https://t.co/w0Tg5nAoNl
p92
aVRT @nowthisnews: 'The safety and dignity of women is no longer secondary to the needs of powerful men.' \u2014 @timesupnow is calling for Brett\u2026
p93
aVRT @MiaHamm: Voting is the best way to make your voice heard. Register to vote right now -- it only takes a few minutes. Text WeAllVote to\u2026
p94
aVRT @myserenity69: SPREAD THE WORD!! \u000a\u000aNo ride to the polls? NO PROBLEM \u000a\u000a        @lyft has you covered! \u000a\u000a15 million people cited transport\u2026
p95
aVRT @DiscordOfSound: I'm an Army vet who was raped over six years ago by my NCO, and when I reported it, I wasn't believed. \u000aThis is my #FBR\u2026
p96
aVYes! https://t.co/F26e0Exrmx
p97
aV@coleyworld #TheFutureisFemale
p98
aV\U0001f602\U0001f602\U0001f602 https://t.co/iBTPOWoo4V
p99
aV@craving_filled \U0001f602
p100
aV@ItsMeCathi \U0001f496 it! Retweeted\U0001f600
p101
aV\U0001f496 this! https://t.co/yzVOWyExCI
p102
aVRT @TheSiwarqinti: \u201cPeople are so alienated from their own soul that when they meet their soul they think it comes from another star system\u2026
p103
aV@marc_boone1 @thehill \U0001f602
p104
aV@kimpizza99 @SenJeffMerkley @TheDemocrats I see the tin foil hat brigade is out in full force today\U0001f446@kimpizza99
p105
aV@mgallagher822 .\u000aThank you! https://t.co/sbaNgZc0a7
p106
aV@AnaMariaArchil2 .\u000aThank you! https://t.co/i0WA4IWo99
p107
aVRT @TopRopeTravis: I cannot confirm this event, but I was just told McConnell demanded Murkowski &amp; Flake get in line.\u000a\u000aThey replied either\u2026
p108
aV@senatemajldr Nope! WRONG!  He is a hysterical, petulant and spoiled little boy. He doesn't deserve to preside as a\u2026 https://t.co/qHbXarbp1h
p109
aV@BrianBoyer20 @afshineemrani @TomiLahren Careful, your tin foil hat is slipping
p110
aV@GeorgeTakei https://t.co/V8EAApUT6I
p111
aV@GayleTranson @AnnCoulter I\u2019m not entirely sure she is even a human \U0001f928
p112
aV@afshineemrani @TomiLahren It\u2019s called doing the right thing. You should try it
p113
aV@rushing_to @TomiLahren \U0001f602\U0001f602\U0001f602
p114
aVRT @GeorgeTakei: A woman stopped Jeff Flake in the Senate elevator and let him have it. She spoke from her heart. Sen. Flake had indicated\u2026
p115
aVRT @ChaseMit: Don\u2019t thank Flake. Thank the lady who bodied his ass on that elevator
p116
aV@cj_jovan @shaunking Bummer \U0001f614. Thanks for responding \U0001f44d
p117
aVRT @FirenzeMike: @JuddApatow Retweet this https://t.co/S01byGsqXI
p118
aV@FirenzeMike @Inxsible1still @JuddApatow \U0001f602\U0001f602\U0001f602. Love it!
p119
aV@PressSec @LindseyGrahamSC You clearly like your men weak and emotional and perverted
p120
aV@realDonaldTrump @PressSec No, he acted like the spoiled little brat that he really is. Kavenaugh is not qualified\u2026 https://t.co/fPZwdohsEb
p121
aVHey republican senators now is the time to step it up and be the hero and vote no to Kavenaugh aka man-baby!\u270c
p122
aVRT @chelseahandler: If you #BelieveWomen and live in one of these states, you can make a critical call today: 202-804-8191. Your Senator is\u2026
p123
aV@shaunking Serious question, can the bar association revoke a law license from a judge to make them no longer able to be a judge?
p124
aVI don\u2019t understand how Kavanaugh got this far in his career assuming this man-baby, petulant behavior is not a new thing.
p125
aV@foxandfriends @LindseyGrahamSC Linsey Graham is a vile and disgusting excuse of a human being \U0001f92c
p126
aVRT @AynRandPaulRyan: BREAKING: Senator Jon Tester is a NO on Kavanaugh.\u000aManchin, Collins, and Murkowski are undecided.\u000aCALL CALL CALL CALL\u2026
p127
aV@Emma4Change I am fortunate that senator Jeff Merkley and senator Ron Wyden are speaking out and giving full support to Dr. Ford\u2764\ufe0f
p128
aV@missylovesdante @nananesbitt So sorry. Hang in there and fight!\u2764\ufe0f
p129
aV@missylovesdante @nananesbitt So disgusting. I don\u2019t know how he can stand himself \U0001f92c
p130
aVRT @krassenstein: We have until 9am tomorrow\u000a\u000aStop Kavanaugh! \u000a\u000aCALL &amp; RETWEET!\u000a\u000a@BenSasse  202-224-4224\u000a@JeffFlake 202-224-4521\u000a@JerryMora\u2026
p131
aV@DLoesch Do you ever think things through before you open your mouth?
p132
aVRT @TeamPelosi: They're so afraid of the truth. They're terrified of women. Brett Kavanaugh must withdraw. RT if you agree. #KavaNO
p133
aVRT @openletterbot: Here\u2019s an open letter from @democracymd1776 to @RonWyden and @SenJeffMerkley #orpolitics #SCOTUSpick https://t.co/wsiyOZ\u2026
p134
aV@slothoughts @SenWarren @realDonaldTrump You are part of the problem. You are the face of rape culture\U0001f620
p135
aVRT @SueinRockville: @SenJeffMerkley Everyone must call  @senjudiciary \u000a202-224-5225 \u000aDemand a @FBI Investigation\u000aThen #GOPCowards\u000aAll #s 20\u2026
p136
aVHappy \U0001f436 dogs \u2764\ufe0f https://t.co/eDSX8C1wyY
p137
aVRT @ivanxgarcia: #DearProfessorFord,\u000aYou are strong. \u000aYou are worthy. \u000aWe believe you. \u000aWe are here for you. \u000aThis is not your fault.\u000a\u000aLike\u2026
p138
aV@tedcruz @peta Are you really that stupid?\U0001f635
p139
aV@ChasingOzPhotog Motley Crue
p140
aVJust when you think they can't possibly go any lower\U0001f621
p141
aVWow!\u000aTrump administration seeks to limit access to U.S. for immigrants who use or are likely to use public assistan\u2026 https://t.co/Xz7XXgX2HC
p142
aV@SenJeffMerkley They probably don\u2019t treat their mothers, sisters, wives much better \U0001f928
p143
aVRT @DaddyDaddymac: Here\u2019s a question...\u000a\u000aDo you think that RACIST white folk are banding together like this and looking at TRUMP as their l\u2026
p144
aV@real_farmacist @jim_pennington WTF ?! Inbreeding at its finest\U0001f60f
p145
aV@ellie_roj13 \U0001f602\U0001f602\U0001f602 love it!
p146
aVRT @BJS_quire: My wife leaves for Dilley, TX, tomorrow for a week providing pro bono legal help to immigrant families. I'll be home with ou\u2026
p147
aVRT @PreetBharara: Kavanaugh vote postponed. Judiciary Committee hearing Monday. This is a huge deal.
p148
aV@KassandraSeven #PostponeTheVote !
p149
aV@JuddLegum #PostponeTheVote !
p150
aV@TeaPainUSA #PostponeTheVote !
p151
aV@PattyArquette #PostponeTheVote !
p152
aV@EdKrassen #PostponeTheVote !
p153
aV@PatrickW #PostponeTheVote !
p154
aV@AmoneyResists @GOP #PostponeTheVote !
p155
aV@DearAuntCrabby @realDonaldTrump #PostponeTheVote !
p156
aV@mmpadellan #PostponeTheVote !
p157
aV@tonyschwartz #PostponeTheVote !
p158
aV@RonWyden Yes!\u000a#PostponeTheVote
p159
aV#PostponeTheVote \u000a\u000aDworkin Report https://t.co/oXOIJcRUqL
p160
aVRT @Infantry0300: \U0001f602\u000a\u000a#MarinesagainstTrump #vetsagainstmagats https://t.co/mqlNDDJJDn
p161
aV@Momma_DE_ @ORDeptEd Love it!
p162
aVEntered this for hunk Wednesday on Crusoe celebrity dachshund 's site \U0001f600\U0001f415
p163
aVhttps://t.co/kkXa2IMKtW
p164
aV@Momma_DE_ These are exciting times!
p165
aV@Momma_DE_ That would be amaze -balls!\u000a#Kamalaforpresident
p166
aVEnjoy this cute little man\u2764\ufe0f https://t.co/A1uqBW9MKO
p167
aV@TheRickyDavila @VCSP8 \U0001f602\U0001f602\U0001f602
p168
aV@VCSP8 What is wrong with these people?  I use the term loosely \U0001f928\U0001f92c
p169
aV@leeleeb50 So sorry. It\u2019s the worst\U0001f62d\u2764\ufe0f
p170
aVRT @BravenakBlog: If you want another President like Barack Obama, do the entire world a favor. \u000a\u000aFind out who Black Women are voting for a\u2026
p171
aVYes!  Let\u2019s do this\u270a\U0001f3fc https://t.co/YjgMY0wA1M
p172
aV@kathygriffin Congratulations!\U0001f389 https://t.co/tmlqO4gKq4
p173
aVRT @Inxsible1still: 2 lives were just lost in #Missouri. #POTUS, it\u2019s time to do something. #BackfireTrump https://t.co/OdahELwjbI
p174
aV@Kokomothegreat @JagbusAnne @tedcruz @BetoORourke Fuck yeah!
p175
aVYep https://t.co/OZPmGWFTNo
p176
aVVote! https://t.co/XABYn79Zzn
p177
aV@mmpadellan @BluESinTX \U0001f602\U0001f602\U0001f602
p178
aV@DaddyDaddymac Reported and blocked\U0001f64c
p179
aV@Zigmanfreud This puritan bullshit is getting really old\U0001f620
p180
aVRT @armyguyJustin: No one should be scared or ashamed to come forward with their story. \u000a\u000aThis is mine. \u000a\u000ahttps://t.co/tAaaZpxMpZ
p181
aVRT @KamalaHarris: Save this number to your favorites: (202) 224-3121. Call your Senators in the morning and tell them to oppose Kavanaugh.\u2026
p182
aV@TracySkidds @nanakim1956fl @realDonaldTrump @Nike I read that he also has donated to democrats. Go figure\u000a#TakeAKnee
p183
aVRT @krassenstein: After today\u2019s leaked documents show Kavanaugh\u2019s true feelings on Roe Vs. Wade, I urge you all to contact the two Republic\u2026
p184
aV@Obed8417 @realDonaldTrump Gross\U0001f635
p185
aV@realDonaldTrump It's super fantastic that you are letting this get under your skin\U0001f602
p186
aV@TracySkidds @nanakim1956fl @realDonaldTrump @Nike FYI. Phil Knight just donated 1 million to a Republican running for governor in Oregon\U0001f60f
p187
aV@AynRandPaulRyan How do those people keep a straight face during that\U0001f62e
p188
aV@MariaBartiromo @MorningsMaria @FoxBusiness @PuppyPartiesNYC @minniedoodle Are you day drinking?\u000a#tweetiromo
p189
aVThis makes me sad\U0001f61e https://t.co/cdaxHZXckq
p190
aV@funder Yesss!
p191
aV@jbradford4349 @mcspocky \U0001f602\U0001f602\U0001f602
p192
aVRT @krassenstein: BREAKING: In Kavanaugh emails just released by Senator Cory Booker, risking his own expulsion from the Senate, Kavanaugh\u2026
p193
aV@realDonaldTrump There is something very wrong with you.  Again, please go away!
p194
aV@PressSec @realDonaldTrump Are you drunk?
p195
aVRT @RealMuckmaker: #BabyBlimp45 and 5 others are up for adoption now. The Resistance Air force is flying one over Trump's NJ golf Course th\u2026
p196
aV@realDonaldTrump Please kindly go away\U0001f645
p197
aVthey made $1,510 over their goal so far\u000agreat job!\u000ahttps://t.co/RjVIAsULFN
p198
aVRT @TrueFactsStated: This is a collaborative effort between @davidhogg111 myself and our Texas partners. Texas against Ted Cruz https://t.c\u2026
p199
aV@paulfromderry @ameliafreeman17 @realDonaldTrump The people who support him are generally poorly educated and easil\u2026 https://t.co/xzozzVRamL
p200
aVRT @missmayn: There's been 32 days of peaceful protest outside the White House, but without twitter I wouldn't know they were happening. Th\u2026
p201
aVRT @krassenstein: BREAKING: Randolph County in Georgia is considering closing 7 of 9 voting precincts during the midterms on Nov 6th.\u000a\u000aRand\u2026
p202
aVRT @mmpadellan: \U0001f6a8SPREAD THE WORD!!!\U0001f6a8\u000a\u000aOhioans have a great chance to #FlipOH12 if they #VoteOConnor on Tuesday!!!\u000a\u000aDonate.\u000aVolunteer.\u000aMake\u2026
p203
aVRT @RonWyden: RT if you agree that it\u2019s WAY past time for the @realDonaldTrump\u2019s tax returns to be released. #ReleasetheReturns
p204
aVRT @AndrewGillum: Welcome back to Florida, @realDonaldTrump. My name is Andrew Gillum and I'm the only candidate for Governor who believes\u2026
p205
aV@DeepStateExpose @realDonaldTrump @RandPaul Not real. Separation of church and state is a must
p206
aVRT @chelseahandler: If we don\u2019t scream and yell, any person will be able to start printing 3D guns this Wednesday, August 1st. Jeff session\u2026
p207
aVRT @twitymctwity: I can be Christian and be a Democrat. I can be pro life yet respectful enough to understand about the right of choice. I\u2026
p208
aVRT @Bornabrit1: Dear MSNBC @MSNBC CNN @CNN.  Trump is spouting he's going to promote the midterms by doing a 60 day tour.\u000a\u000aThese TOURS will\u2026
p209
aVRT @PattyArquette: We need to pass #PAVEAct @RonWyden https://t.co/MdpFNBcdB0
p210
aVRT @davidhogg111: When you hear of our \u201cleaders\u201d celebrating the GDP as a measuring stick of our nations success, remember these words from\u2026
p211
aV@SecNielsen @TheUnionLeague @DHSgov You don't deserve an award. You deserve prison!\U0001f620
p212
aVRT @Kokomothegreat: O. M. G. \u000a\u000aI think I love this man. \u2764\u2764\u000a\u000aMUST SEE video of  interview with the border patrol commissioner. Activists int\u2026
p213
aV@realDonaldTrump You have had one too many big Mac's today.
p214
aV@realDonaldTrump The news is not fake. Everything about you is fake and disgusting!  Get out of this country. Go to Russia
p215
aVRT @SaysHummingbird: RT if you AGREE that a TRAITOR like Trump must be removed from office IMMEDIATELY. He has become a NATIONAL SECURITY R\u2026
p216
aV@realDonaldTrump Step away from the crack pipe
p217
aVRT @SenJeffMerkley: 1/2: Calls in my office about Brett Kavanaugh were running 13:1 against his nomination.  Keep it up, America!  To win t\u2026
p218
aVRT @krassenstein: RETWEET if You Promise me that you will Vote in the 2018 Midterm elections!\u000a\u000aLIKE if you will Vote Democrat across the bo\u2026
p219
aVRT @krassenstein: BREAKING:  McKinsey &amp; Company has just announced that they will no longer do work for ICE.\u000a\u000aWe \u201cwill not, under any circu\u2026
p220
aVRT @funder: RT if you agree Trump must cancel this Putin summit. #CancelPutinSummit
p221
aVThis! https://t.co/uHWPzjNxFe
p222
aVRT @chrissyteigen: I don\u2019t care to see grainy fireworks, coachella selfies or infinity pool pics but i let people live. calm your tits and\u2026
p223
aVRT @funder: Whatever you do, don\u2019t retweet this interview I did with Kristin Mink, who went up to Scott Pruitt in a restaurant a few days a\u2026
p224
aV@realDonaldTrump No, nope. It is not
p225
aVRT @Heart4WI: To all of those complaining that #SecondCivilWarLetters isn't funny, or is disrespectful, or makes light of war, I have only\u2026
p226
aVRT @RockandRally: July 28th - The 8th Annual Rock and Rally for t he Troops is off the hook! @DrowningPool @RestReposeBand @hellbellyband a\u2026
p227
aVRT @Toure: In the picture below you see an adult woman screaming at a 14 yo child. She is Roslyn La Liberte, a MAGA zealot racist who runs\u2026
p228
aV@Somnspcl @funder Some dipshit in Washington running for Senate. Part of that ridiculous patriot prayer group\U0001f60f
p229
aV@MapwifeJodi @funder I believe this trump group comes from Vancouver, Washington
p230
aV@MapwifeJodi @funder We are surrounded by white hate groups. Long history of hate in Oregon\U0001f61f
p231
aVYou can email it call this disgusting idiot. It's all on her Facebook page https://t.co/nZR6QUcv0m
p232
aV@rsmale \U0001f602\U0001f602\U0001f602
p233
aV@WilliamShatner There are plenty more other things to concern yourself with. This is not one of them
p234
aV@RepSwalwell @FoxNews It's not just misinformation it's willful ignorance\U0001f620
p235
aV@Jalbarron13 @dvorakoelling Done!\U0001f64c\u270a
p236
aVRT @Jalbarron13: @dvorakoelling Ok resistors. Donald Trump is coming to Great Falls Montana.on July 5th. Here\u2019s what I need from you. \u000a\u000aGo\u2026
p237
aV@GovMikeHuckabee I'm worried that your gene pool is actually reproducing\U0001f62e
p238
aV@SpeakerRyan You are complicit
p239
aV@SpeakerRyan So you are lying to everyone's face again\U0001f620
p240
aV@SpeakerRyan Big fucking deal!  It won't matter when we all decide to just quit paying for you assholes to sit arou\u2026 https://t.co/GcmNdvIp3G
p241
aVRT @jennpozner: 14 Restaurant manager asks if I'm okay, apologizes. I say I'm fine, it's not her fault. That I didn't want to make a scene\u2026
p242
aVRT @JamilSmith: Reginald Fields is the same age that Tamir Rice was. The same age, on the east side of the same city where we all were 12-y\u2026
p243
aVRT @PalmerReport: Hey Marco Rubio \u2013 the whole country is on fire, the fate of humanity is at stake, and all you\u2019re worried about is how oft\u2026
p244
aV@realDonaldTrump You are responsible for this shooting. The blood is on your hands!
p245
aV@realDonaldTrump Again, stop making shit up
p246
aV@realDonaldTrump STOP MAKING SHIT UP!!!!
p247
aV@realDonaldTrump Nope, nope, nope!
p248
aV@realDonaldTrump  https://t.co/TNqlZaBIu1
p249
aV@shannonrwatts @NRA What is wrong with that woman?  What caused her to become so unhinged? https://t.co/q4HVaXwV58
p250
aVRT @EdKrassen: BREAKING:  The Iowa Supreme Court has blocked a law that required a 72-hour waiting period for a woman to have an abortion.\u2026
p251
aVRT @coleyworld: What people don\u2019t understand is that Trump is a distraction. The real damage is happening behind the scenes and under cover\u2026
p252
aV@TheRickyDavila It feels like 20 years \U0001f614
p253
aV@LizzGBrown @GovMikeHuckabee @BBKing1969 \U0001f602\U0001f609
p254
aV@GovMikeHuckabee @ShannonBream @FoxNews @realDonaldTrump Good! https://t.co/9CT17PTi6H
p255
aV@MonaFishman @GovMikeHuckabee I think you used up your last brain cell for that\U0001f60f
p256
aV@GovMikeHuckabee @BBKing1969  https://t.co/81teAa7ASr
p257
aV@PressSec @POTUS Careful Sarah, I hear Orange is the new black for GOP\U0001f609
p258
aVDemonstrators at an Occupy ICE protest at Portland City Hall on Sunday, June 24, 2018. (Photo: Lindsay Nadrich, KGW\u2026 https://t.co/mNs0tzYcdg
p259
aVThey are at the ICE building
p260
aVHey resisters, the feds are coming for the occupy protesters in Portland, Oregon!  Show the protesters some love \U0001f496\u000a#aclugotajobforyou
p261
aV@realDonaldTrump You are being investigated you idiot
p262
aV@realDonaldTrump This is all, 100% your fault!  Fix it now!
p263
aV@realDonaldTrump How are you this stupid?!
p264
aV@JacobAWohl @realDonaldTrump Nope. They definitely are not
p265
aV@realDonaldTrump I truly hate you from the depths of my soul
p266
aVRT @Goss30Goss: Democrats sitting back &amp; not standing up has left us with Donald Trump, Conservative SCOTUS, &amp; division in this country not\u2026
p267
aVRT @funder: Obama. Is. Back. Retweet if you're thrilled to have him back on the campaign trail. I talk about that today in a new #DworkinRe\u2026
p268
aVRT @Superman231: @marcushjohnson  https://t.co/MKt6CuUNLq
p269
aVRT @TravisAllen02: Just paid $3.53 for gas!\u000a\u000aGas prices are at the highest level in almost FOUR YEARS!\u000a\u000aRT to spread the truth!
p270
aV@realDonaldTrump You are a walking human disaster!
p271
aVRT @renato_mariotti: Thank goodness for the Constitution, which requires due process. The Constitution and our laws are the only thing stan\u2026
p272
aVRT @RanttMedia: Watch this Trump surrogate get fact-checked in real-time by video footage.\u000a\u000aThis is what needs to happen at every press bri\u2026
p273
aV@Ythrift @BluESinTX @naretevduorp @extremecdn @PressSec She needs to hand in her woman card (sanders)
p274
aV@GovMikeHuckabee Pay backs are but a bitch
p275
aV@realDonaldTrump I am pretty sure that you will just make it more of a hot mess\U0001f928
p276
aV@SpeakerRyan I feel like this is a lie\U0001f612
p277
aVRT @SteveSchmidtSES: 29 years and nine months ago I registered to vote and became a member of The Republican Party which was founded in 185\u2026
p278
aV@realDonaldTrump Quit making shit up!
p279
aV@realDonaldTrump @FoxNews Go home.  You're drunk
p280
aVRT @BlueGhost40_: Just in case you forgot or aren't aware, Cheeto-n- Thief Trump held a "veterans charity event"  claiming he raised $6 mil\u2026
p281
aV@realDonaldTrump Your "deal" is worse than a shit sandwich
p282
aV@realDonaldTrump Just shut your mouth!
p283
aVRT @davidhogg111: Human beings are not illegal \u000aHuman beings are not illegal  \u000aHuman beings are not illegal \u000aHuman beings are not illegal\u2026
p284
aVRT @krassenstein: I have literally had hundreds of people ask me how they can help fight Trump's Family Separation policy.\u000a\u000aThis article by\u2026
p285
aVRT @LILLIES007: Share this far and wide! \u000a\U0001f46a\U0001f49c\U0001f499\U0001f49b\U0001f49a\u2764\U0001f46a\u000a#DoitFortheChildren\u000a#CorruptGOP \u000a#KeepFamiliesTogether \u000a#Passthisbill \u000a#FutureDependsonit\u2026
p286
aVHappy father's day to all of the fathers trying to make a better life for their children #Happyfathersday2018 #Resist
p287
aV@BarackObama happy father's day\U0001f496
p288
aVThis is heart breaking\U0001f622 https://t.co/STgoehJ42d
p289
aVRT @ACLU: Happy Father's Day to all the dads fighting for a better future for their children. #FathersDay https://t.co/MJrW1iFsKM
p290
aVRT @HamillHimself: We still need "a" Republican senator to join. Not ONE?!\u000aAnd I thought human compassion was nonpartisan... \U0001f494 https://t.co\u2026
p291
aVRT @SenJeffMerkley: Paul: The Trump child-snatching policy is evil. Let\u2019s put a straightforward cancelation of this policy on the floor of\u2026
p292
aVRT @HamillHimself: \u201cGive me your tired, your poor, your huddled masses yearning to breathe free, the wretched refuse of your teeming shore-\u2026
p293
aV@MarieBakun @kaicee118 @SpeakerRyan @mayrabella101  https://t.co/XFdhy51ykK
p294
aVRT @ItsMeCathi: 9 million people have lower cost HIV/AIDS medicine because of the Clinton Foundation. \u000a\u000aThe Trump Foundation purchased a $1\u2026
p295
aVRT @goodoldcatchy: \U0001f92c\U0001f621Please retweet this if you are extremely fucking pissed off. I want to follow anyone that does, because if you are ang\u2026
p296
aV@realDonaldTrump Get off of the wall bullshit!  WE DON'T NEED A WALL!!!!!
p297
aV@realDonaldTrump  https://t.co/QVcHCdf0O5
p298
aVRT @KamalaHarris: Using kids as leverage to get billions for a wasteful border wall is outrageous and immoral. This is simple: the Administ\u2026
p299
aV@thehill Wow!  Just wow https://t.co/HrzVIl6tUB
p300
aVRT @halltoons: #Hitler showed up in two of my cartoons this week. NOT a good sign. Please share. Thanks. @laloalcaraz @reddroostermann @co_\u2026
p301
aV@amiee72 @JonMarcMcD @PressSec She (sanders) said the bible says to follow the law then seconds later said she did\u2026 https://t.co/RpRkr7Nl8V
p302
aV@SteveScalise @PressSec  https://t.co/adHH4suINh
p303
aV@dsmnla @PressSec @CBSNews @POTUS @BrianKarem @Acosta @Lawrence @god \U0001f446this! https://t.co/5l6nCqvK7e
p304
aV\U0001f602\U0001f602 https://t.co/DRZDihissT
p305
aV@SpeakerRyan Hopefully your children won't be taken away from you at some random boarder
p306
aV@SpeakerRyan  https://t.co/gW05SNueUx
p307
aV@foxandfriends @realDonaldTrump @jasoninthehouse Fake news!
p308
aV@realDonaldTrump Nope. It is 100% you that is doing this all for that stupid, ridiculous wall. Try telling the truth for once
p309
aV@realDonaldTrump Stop!  Just stop with your nonsense. We are sick of your bullshit \U0001f621
p310
aVRT @davidhogg111: Women\u2019s rights are human rights  \u000aWomen\u2019s rights are human rights \u000aWomen\u2019s rights are human rights \u000aWomen\u2019s rights are hu\u2026
p311
aVRT @charlie_adler: @c_a_charbonneau @proudliberalmom To all veterans  &amp;their families,please consider https://t.co/vnjRlWsKBF least RT far\u2026
p312
aV@PressSec You mean they one between two dictators?  Fox news description
p313
aV@PressSec @CBSNews @POTUS Please leave.
p314
aV@ZemanLynnZ @PressSec @CBSNews @POTUS Then she immediately denied saying it.  I'm 100% convinced that they are all stupid and liars
p315
aVRT @tonyposnanski: What is sad is 62% of the Senate are okay with kids being ripped away from their parents. https://t.co/6KqTd3jtXw
p316
aV@realDonaldTrump Some how l feel like you are making shit up again\U0001f612
p317
aVRT @ItsMeCathi: First Trump said Russia should be allowed back into the G7(currently the G6).\u000a\u000aNow he blames Obama, instead of Putin, for t\u2026
p318
aVRT @EmmanuelMacron: The American President may not mind being isolated, but neither do we mind signing a 6 country agreement if need be. Be\u2026
p319
aVRT @EdKrassen: RETWEET if You Promise that you will Vote in the 2018 Midterm elections!\u000aLIKE if you are already registered!\u000a\u000aIf you haven\u2019t\u2026
p320
aVRT @JeanneBauer50: @MamaRose2017 @Carmenr1Carmen @keanothedog @SaraBall1989 @realDonaldTrump It is Saturday, June 9, 2018. \u000aOne citizen, I\u2026
p321
aVRT @JonLionFineArt: Lil video with some of the artwork I\u2019ve done for @AMarch4OurLives\u000a\u000aVOLUME UP\U0001f9e1\u000a\u000aPortrait #9 is almost done\u000a\u000a#MarchForOur\u2026
p322
aV@PRyan @mike_pence  https://t.co/MQ04rmvnYc
p323
aVRT @krassenstein: Trump and his now-politicized DOJ are not defending the legal right for Americans with pre-existing conditions to obtain\u2026
p324
aVRT @kathygriffin: Thank you, Mr. President, for firing James Comey...if you hadn't then we wouldn't have Bob Mueller...and boy do we love B\u2026
p325
aVRT @treasonstickers: Trump is now threatening to end trade with all of our allies, while blaming Obama (and not Putin) for Russia's illegal\u2026
p326
aVRT @PHXMarch4Lives: "We are the ones we've been waiting for. We are the change that we seek" - Barack Obama \u000aVote. https://t.co/fyQVaJfveK
p327
aVRT @SarahKSilverman: Dear members of ICE:  \u201cjust following orders\u201d is what nazis said during the Nuremberg trials. It is YOU who are doing\u2026
p328
aV@realDonaldTrump I'm curious about how much crack you smoke daily?
p329
aVRT @ThornCoyle: Please read all 4 of these screenshots from Tiana Smalls. \u000a\u000aI\u2019ll follow w a thread of a similar experience: \u000a\u000a#Resist #Soli\u2026
p330
aVRT @NancyPelosi: The losses of Anthony Bourdain &amp; Kate Spade are leading many people to reflect. We never truly know what is happening in a\u2026
p331
aVRT @honeyspctacular: @votevets @Kaacee352 @davidhogg111 #VetsResistSquadron \u000a#VetsResistSupportSquadron https://t.co/6ZSXZ3mtYZ
p332
aVRT @nycsouthpaw: This transcript is hard reading. This is the ACLU lawyer pleading with the court. https://t.co/JWqKMdYTAa
p333
aVRT @KonstantineinCA: @cameron_kasky Join the #MarchForStolenChildren\u000a\u000ahttps://t.co/KsQ0ZeQhWX https://t.co/NSOj7n3SAM
p334
aV@realDonaldTrump Would that possibly be on the 12th of never?
p335
aV@realDonaldTrump  https://t.co/mTbevziV3E
p336
aVThis! https://t.co/oxPLjf1JgW
p337
aV@realDonaldTrump You are drunk
p338
aVRT @RVAwonk: Fox News is lying right now about federal $ being used for abortions. Federal funding for clinics like Planned Parenthood isn'\u2026
p339
aV@missrubypugslee @delila_cain @gunboss68 @PPact @realDonaldTrump They provide healthcare services for women who don't have insurance
p340
aVRT @PPact: .@RealDonaldTrump: It\u2019s not your right to control my body.  #NoGagRule #IStandWithPP
p341
aVRT @funder: What Kelly Sadler said about Senator John McCain absolutely must not be accepted. We can\u2019t let this become normal. These are so\u2026
p342
aVRT @superman0169: Please go to @ItsBrunchOclock especially since @NRA doesn\u2019t like them. It makes the food taste even better. See you next\u2026
p343
aV@realDonaldTrump @SecPompeo  https://t.co/E7jMomaEQO
p344
aVRT @krassenstein: I have 3 simple words for you...\u000a\u000aRegister To Vote!!\u000a\u000aRETWEET!
p345
aVRT @AndrayDomise: I'm done. I'm absolutely done with watching while Black people are criminalized, arrested, shot at, and executed because\u2026
p346
aVRT @BlackGroveIII: By the time I turned 15 I had had grown men threaten to lynch me. \u000aJust last year I had to quit a job with political can\u2026
p347
aV@realDonaldTrump I served during the beginning of Operation Iraqi Freedom when someone else made this same statemen\u2026 https://t.co/tAWv7N3BfH
p348
aVRT @funder: All Dems must vote no on Mike Pompeo. Everyone who retweets this agrees. We need to stand united against this tyranny. \U0001f1fa\U0001f1f8 #TheR\u2026
p349
aV@realDonaldTrump It will be a great honor for the people of the United States to fire you
p350
aVRT @rdfrs: This legislation would divert taxpayer dollars to private, religious schools that discriminate. Call your representative today a\u2026
p351
aVRT @SaysHummingbird: Taxpayers paid $73,000 for Don Jr. and Eric Trump to attend the wedding of a business partner in Dubai.\u000a\u000aRT if you agr\u2026
p352
aVRT @StormResist: C\u2019mon guys!  Can you give @Marshall4House a follow?  \u000a\u000aLet\u2019s show how \U0001f4aa\U0001f3fc the #BlueWave2018 is and how we will support ALL\u2026
p353
aVRT @BradHBishop: Congress must take immediate action to #ProtectMueller. Retweet if you agree.\u000a\u000aCopy, paste &amp; post. RT #ProtectMueller #Pro\u2026
p354
aVRT @funder: Speaker Ryan should resign. Retweet if you agree. Today I filed a House Ethics Complaint on Ryan for allowing Rep. Steve King t\u2026
p355
aV@RosaParksResist Exciting!\U0001f496
p356
aV@KATUNews I can't. Not with the "look" and "ahhh" every five seconds\U0001f632
p357
aV@justinhendrix @DebraMessing @businessinsider What?!  Not doing their job?  Tell me it isn't so\U0001f60f
p358
aV@EmPHaach That's a bit of a compliment.  It seems most of them avoid thinking\U0001f609
p359
aVRT @keatonc33: I\u2019m seeing the terms \u201cwhore,\u201d \u201cslut,\u201d etc. being thrown around a lot.  Look, call him what you will, he\u2019s still your preside\u2026
p360
aV@Submarine_Guy @veterans_i Reality is not something these people are familiar with. They prefer to embrace their stupidity\U0001f612
p361
aVRT @drsisterclark: One of the best  #MarchForOurLivessigns of the day #MarchForOurLivesDC #MarchForOurLives https://t.co/2GtICs4Ksr
p362
aVRT @nowthisnews: Don't let the NRA fool you: Many proud gun owners believe in gun reform \u2014 and they attended the #MarchForOurLives to let t\u2026
p363
aVRT @PreetBharara: If you're attacking kids whose classmates and teachers were massacred, you're losing
p364
aVRT @krassenstein: In 2016:\u000a\u000a70% of 18-29-year-olds DID NOT vote\u000a60% of 30-44-year-olds DID NOT vote\u000a\u000aOnly 38% of 45-64-year-olds did not vo\u2026
p365
aVRT @SarahKSilverman: Keep saying \u201cban\u201d when you know they are simply asking 4reform that BY FAR most Americans want \u2014 in fact, by far, most\u2026
p366
aV@mbillips @DebraMMason1 @ChrisMurphyCT Shhh. They think all memes are factual \U0001f440
p367
aVRT @Top_Sergeant: Don't be fooled #Veterans https://t.co/qRhVHwaqVP
p368
aV@chad_williams05 You are amazing!
p369
aV@rhythmofcamila @chad_williams05 @ChangeTheRef Ditto
p370
aV@GeneGillies @Goss30Goss @NRA As far as I know they never were a "news" source. Long before trump I heard them making shit up\U0001f612
p371
aVRT @funder: The NRA needs to be investigated extensively. Retweet if you agree.\u000a\u000aWe are still investigating the NRA. Help support our probe\u2026
p372
aVRT @thehill: Landmarks go dark to call attention to climate change during "Earth Hour" https://t.co/lk6fM4kHYE https://t.co/YX8KYam1cV
p373
aVRT @AsteadWesley: Heartbreaking: "Draylen Mason, the 17-year-old high school student who was one of two people killed in the Austin bombing\u2026
p374
aVRT @johnpmcneil02: I\u2019m an old Marine...I\u2019d feel MUCH safer with any LGBTQ person watching my Six than Trump, Bolton or any other of his Ban\u2026
p375
aVSomeone please show this to Trump. This is how to be a leader.  Hiding out on a golf course is definitely not showi\u2026 https://t.co/psolS6sBwk
p376
aV@NoctrisOTP @kazweida Yep. He's probably not still in though
p377
aV@JohnPaul_USA @realDonaldTrump @EmmanuelMacron @KyleKashuv Does that frighten you for some reason?\U0001f60f
p378
aVRT @DearAuntCrabby: Oh, snap! Now, why did you go measuring crowd sizes like that? You KNOW @realDonaldTrump is not gonna like that. \u000a\u000aNow\u2026
p379
aVRT @islandgirlPR: @krassenstein This is just insanity!! Now, more than ever, VOTE. Everyone! \u000aEncourage others to vote, help register peopl\u2026
p380
aVRT @krassenstein: This is Matthew Hunter. He was the director of political affairs at Cambridge Analytica.\u000a\u000aNow he's Assistant Deputy Secre\u2026
p381
aV@NoctrisOTP @kazweida Yep. Got someone in my reserve unit kicked out during Desert Storm
p382
aV@TheRickyDavila She is either too thick to get it or just another ratings whore.  Either way she sucks\U0001f620
p383
aV@Cali_Verb @igorbobic @abroshar @Reuters \U0001f602\U0001f602\U0001f602
p384
aV@oufenix @OneOfTheSmiths @JohnRMoffitt @Chuckw12 \U0001f602\U0001f602
p385
aV@edklein_ @cheersmom @KatieGoliday @JohnRMoffitt I know.  So confusing\U0001f60f
p386
aV@nicdanger619 @4YrsToday @realDonaldTrump \U0001f602\U0001f602
p387
aV@GaryTheCynic @Skydiver992 Please, please let this be true!\U0001f64f
p388
aVRT @GaryTheCynic: Oh my fucking God Trump was fooled into signing new Russia sanctions they were hidden in this spending bill !!!!!!!!!!
p389
aVRT @FrancisWegner: @realDonaldTrump  https://t.co/Z5oP0sWHvJ
p390
aV@TrumpsTaxes @JuddLegum \U0001f602\U0001f602
p391
aVRT @RonWyden: Southern Oregon high school students are saying #NeverAgain at #MarchForOurLives in Medford. https://t.co/w8FuLM3AbX
p392
aVRT @AuthorKimberley: Dear @NRA and @GOP, We The People have had ENOUGH of your bullshit. #BlueTsunami #MarchForOurLives https://t.co/nn022s\u2026
p393
aV@TomiLahren Umm pretty sure that is not proper gun etiquette. \U0001f926\u200d\u2640\ufe0f
p394
aVRT @DisavowTrump16: BREAKING: Former Tennessee Governor and Democratic candidate for Senate Phill Bredesen holds a stunning 4-point lead ov\u2026
p395
aV@marcorubio It\u2019s gun reform they are fighting for. Try shutting your mouth and put your listening cap on #gunreform\u2026 https://t.co/V8hh0KhwHm
p396
aVRT @SenJeffMerkley: I applaud the young Americans who sent a powerful message today with the #MarchForOurLives. The time for moments of sil\u2026
p397
aV@SpeakerRyan And then you f**ked it all up by deciding to exclude and remove some people. You are disgusting \U0001f616
p398
aV@TrumpyTunes #strongertogether \u270a\U0001f3fc
p399
aVShout out to all the other countries for their support today!  #GunReformNow #marchforourlives\u270a\U0001f3fc\u2764\ufe0f
p400
aV@FroggyBottomPnd @tedcruz \U0001f602\U0001f602\U0001f602\u2764\ufe0fit!
p401
aVRT @EdKrassen: The only thing that can stop a bad guy with a gun is a good guy with a vote. \u000a#MarchForOurLives #NeverAgain
p402
aVRT @DebraMessing: You won @realDonaldTrump !!!!! https://t.co/bJpKjbsskI
p403
aVRT @MrTommyCampbell: Soon-to-be voters\u000aTake to the streets\u000aCoast to coast\u000aThey\u2019re on their feet\u000a\u000aPlea for change\u000aIs what they say\u000aRational\u2026
p404
aV@ChantalTV @angeil Merci beaucoup!  #marchforourlives
p405
aVRT @imfabulous13: #MarchForOurLives is march against Death.\u000a\u000aDeath in America is synonymous with NRA, Conservatives, Republican Party and T\u2026
p406
aVRT @RESlST45: Getting heated in NYC\u000a\u000a#MarchForOurLives https://t.co/4x4NFvOPvN
p407
aVRT @TheBaxterBean: REMINDER: 41 Republicans blocked sensible gun legislation, right after the #SandyHook Massacre.  #MarchForOurLives #Neve\u2026
p408
aVRT @LiberalLecter: Just so the gun nuts are well aware, today in DC every single crisis actor in the world participated in the march For Ou\u2026
p409
aVRT @funder: I wish @realDonaldTrump had the courage to take on the NRA &amp; fight for an assault rifle ban &amp; gun reform. But he doesn\u2019t. He\u2019s\u2026
p410
aV@GypsySpirit46 @funder @realDonaldTrump @GOP \U0001f44d
p411
aVRT @Misty_Mornin: Cue the music!  Staunch Trump supporter and ardent Fox news watcher on my FB friend list just posted this! (Yes, I kept s\u2026
p412
aVRT @mitchellvii: Retweet if you wish SC would stop re-electing Lindsey Graham. https://t.co/EeoE3JXVvz
p413
aV@cloroxgal @DreadHead_46 \U0001f602\U0001f602
p414
aV@StephenAtHome @TheWomensWatch @realDonaldTrump Pretty sure he would suffer a massive heart attack from the mere thought of running\U0001f609
p415
aV@_NotFakeNews_ His penis is probably very small\U0001f615
p416
aVRT @TheRickyDavila: One of the most powerful Gun Reform Ads I\u2019ve ever seen. Wow. #NeverAgain #GunReformNow \u000ahttps://t.co/3NPDnCcL0K
p417
aV@mikeD404 @Oregonian It\u2019s you\u2019re \U0001f928
p418
aVRT @killendave: Pioneer Square is packed and hundreds of people are still slowly marching down Broadway https://t.co/5rOWmcCTO4
p419
aVRT @Toby4USCongress: I filed my paperwork to run for Congress today...I am so grateful and humbled... https://t.co/BxEdeyZkmk
p420
aV@Toby4USCongress You got this!  \u270a\U0001f3fc#womenrule
p421
aVRT @BarackObama: Michelle and I are so inspired by all the young people who made today\u2019s marches happen. Keep at it. You\u2019re leading us forw\u2026
p422
aVRT @adamcbest: Sir Paul McCartney in a "We Can End Gun Violence" shirt talking about how gun violence took one of his dearest friends, John\u2026
p423
aVRT @DebraMessing: Around the world the death knell rings on the NRA\u2019s grip on our legislators. The extraordinary\u2026 https://t.co/C8DdKhafAV
p424
aVRT @timkaine: \u201cMy name is Naomi and I\u2019m 11 years old ... I represent the African American women who are victims of gun violence, who are si\u2026
p425
aVRT @lincolndow: Crowd chanting "TED CRUZ BAD" outside his Houston office during the #MarchForOurLives https://t.co/QKWqyYrdFw
p426
aVRT @Marmel: Dear every transgender patriot.\u000aSorry this President sucks.\u000aWe will fix this.\u000aAnd get you a commander-in-chief worthy of your c\u2026
p427
aVRT @Pietro5266: #MarchforOurLives \u000a#Atlanta #Georgia #GA https://t.co/yRA5N39YtV
p428
aVRT @richardhine: They couldn't march but came out to support the kids. Said that me posting this on Twitter would make it even more worthwh\u2026
p429
aVRT @RJH321: Poster on the left is on point. The NRA is a lobby for gun manufacturers, not sportsmen. #MarchForOurLives https://t.co/jhjmuGD\u2026
p430
aVRT @funder: Remember why students came up with #MarchForOurLives in the first place. Because Republican lawmakers refused to take any actio\u2026
p431
aVRT @joncoopertweets: As I watch the amazing turnout by young people at countless #MarchForOurLives events nationwide, I recall what the hea\u2026
p432
aVCalling all politicians... are you listening?  This is our future!\u270a\U0001f3fc#marchforourlives
p433
aV@browneyes0793 @TheRickyDavila Yep
p434
aVRT @krassenstein: Trump's EPA recently announced that it's dissolving a program that funds studies on the effects of pollution and chemical\u2026
p435
aV@JimmyTeton @Miller263757 @SassBaller @Emma4Change God is not real
p436
aVRT @CynthiaNixon: \u201cWhen I announced yesterday that I\u2019m running for gov, one of Cuomo\u2019s top surrogates dismissed me as an \u201cunqualified lesbi\u2026
p437
aV@realDonaldTrump Your head is so far up your own ass you wouldn't notice if he set himself on fire right in front of you\U0001f612
p438
aVRT @suju_bala: Sweet boy\u000a\U0001f338id# 62351\u000aLooking for a home &amp; family to Love\U0001f493\u000a\U0001f535Available to adopt NOW\U0001f198\U0001f198\u000a@ City of Clovis Animal Shelter, Clovis\u2026
p439
aVRT @JuddLegum: Georgia Republicans are pushing an insidious plan to suppress black votes by shortening voting hours in Atlanta. \u000a\u000aThis is h\u2026
p440
aVRT @realMatMolina: The official White House proposals for gun control:\u000a\u000a\u2022No age limit increase\u000a\u2022Give teachers guns\u000a\u2022\u201dUrge\u201d states to take g\u2026
p441
aVRT @TrisResists: Tomorrow is the big day PA! Fired up? Ready to go? Vote! @ConorLambPA is the man that will have your best interest at hear\u2026
p442
aV@DanishNougat @GarbonzoShwartz @MattCropley1 @Zebbie67 @HuevosDeChivo @realDonaldTrump (Not so) funny thing is that\u2026 https://t.co/cSIGtPFjm4
p443
aVRT @physicianwomen: Facts and science matter.  We need to allow our agencies to research gun violence.  Abolish the Dickey and Tiahrt Amend\u2026
p444
aV@Kingme32 @ambernight78 @Dina1trump @knucklepushup @bearlythere0524 @tombrokaw I'm hoping those two are not reproducing\U0001f62e
p445
aVRT @EveryVoice: Live in DC? Call Mayor Bowser and tell her to support the DC Fair Elections Act! Let's reduce the power of big money in cit\u2026
p446
aV@dh_area51 @nagel79 @mrdanhamilton @cameron_kasky you do realize the U.S. Military can totally out gun you
p447
aVRT @SaysHummingbird: UPDATE: 7 students who stayed sitting got ARRESTED\u000a\u000aRT if you agree this is so wrong they're arresting those calling f\u2026
p448
aV@KmcwillKathleen @__DorianGray_ @RWPUSA Totally agree.
p449
aVRT @MoveOn: Killing #NetNeutrality will open the floodgates for Internet censorship. Tell your members of Congress, "we need net neutrality\u2026
p450
aVRT @Skydiver992: Washington becomes first state to pass law protecting net neutrality\u000ahttps://t.co/1VKKI9drPV
p451
aV@Skydiver992 \U0001f64c\U0001f44d https://t.co/DCqyYmsnCa
p452
aV@jafhog @suannelqr @DrYardSale @TapeReaderDanno @leroyjo65459240 @tonyposnanski @HillaryClinton Pretty sure I would\u2026 https://t.co/V8d2h8n1SO
p453
aVRT @RWPUSA: This is a medical ethics issue, not a government issue. Same with end of life medical decisions.\u000aAmericans are sick of sanctimo\u2026
p454
aVRT @krassenstein: BREAKING: Kroger to Stop Selling Guns to Buyers Under 21!!\u000a\u000aAnother Win for the Children!  \u000a\u000aPlease RETWEET to encourage\u2026
p455
aVRT @EdKrassen: Now that Adam Schiff released the Democratic Memo, it's time that we all DEMAND that the lying, cheating, fraudulent Devin N\u2026
p456
aVRT @united: United is notifying the NRA that we will no longer offer a discounted rate to their annual meeting and we are asking that the N\u2026
p457
aVRT @Bravoandoren: Hey @realDonaldTrump ! Here's an open letter to the president from us, two 14 year old girls. #GunControlNow https://t.co\u2026
p458
aVRT @BoycottUtah: It is Saturday, February 24, 2018. One citizen, I humbly call for the resignation of Donald J Trump as President of the Un\u2026
p459
aVRT @VioletReads: @GrumpyIndy @JoyAnnReid Did you know that the #NRABloodMoney is tax exempt?\u000aHelp revoke the NRA's 501c4 Tax Exemption as a\u2026
p460
aVRT @mcspocky: #RT @krassenstein\u000a10 Things Teachers need more than GUNS\u000a#BoycottNRA #BoycottTheNRA https://t.co/oaDaB45YZd
p461
aV@TayrnG @realDonaldTrump @JudgeJeanine @FoxNews  https://t.co/Gf8zf7kwF3
p462
aV@realDonaldTrump @JudgeJeanine @FoxNews How did your phone call go with Mexico's President?  Asking for a friend
p463
aVRT @jrstrange007: @realDonaldTrump You use social media cause you desperately want the love and attention of others to fill the void inside\u2026
p464
aV@jrstrange007 @realDonaldTrump  https://t.co/xoNxAPJ92P
p465
aVRT @SaysHummingbird: CAN'T. RETWEET. THIS. ENOUGH. \u000a\u000a13 Anti-Trump Twitter Accounts You Must Follow if You\u2019re in The Resistance.\u000a\u000ahttps://t\u2026
p466
aV@SportsTalkJo3 @realDonaldTrump @FoxNews Are you mad? https://t.co/BuRwSNDbP3
p467
aV@northAmericanVL  https://t.co/5vjkgm06Aj
p468
aVhttps://t.co/kzCbfpK9gT\u000a\u000aThese people are something else \U0001f62e
p469
aVRT @WilliamKBrown59: @ananavarro Video:\u000ahttps://t.co/Ds2E1PIqkA
p470
aV@nisseschultz @ananavarro Absolute chaos!
p471
aVhttps://t.co/b4WYagbPab via @youtube
p472
aVRT @TalbertSwan: United Airlines just kicked the @NRA to the curb!\u000a\u000aRetweet and show @united some love!\u000a\u000a#BoycottNRA
p473
aVRT @AynRandPaulRyan: Yeah, @FedEx.\u000aIs this the hill you wanna die on?\u000aThe @NRA is complicit in the slaughter of school children.\u000a\u000aThe survi\u2026
p474
aVRT @ValerieJarrett: Thank you, @Delta. https://t.co/jmVU7dmNxU
p475
aVRT @davidhogg111: Hey @FedEx why do you support the NRA?
p476
aVRT @ProudResister: SHAME ON YOU @AppleTV @Google @amazon @RokuPlayer.\u000a\u000aYour streaming services are currently providing a platform to the @N\u2026
p477
aVRT @adamcbest: Please follow @davidhogg111 &amp; @cameron_kasky. Both at around 200K. Would be fantastic if many of the strongest voices emergi\u2026
p478
aVRT @adamcbest: In the last 30 minutes, @Emma4Change has gone from 504K to 509K. That's 5K new followers in half an hour. KEEP IT UP. She's\u2026
p479
aVRT @EdKrassen: JUST IN: @United Airlines has just joined @Delta in cutting their ties with the @NRA.
p480
aVRT @shannonrwatts: Tell them to #DumpNRATV https://t.co/1Vy9qgHUO3
p481
aVRT @longlivekcx: To those who\u2019ve doubted my classmates and I. To those who refused change. Douglas is creating change. Our voices are being\u2026
p482
aVRT @krassenstein: Please help support the #ArmMeWith movement which has popped up as teachers fight back against Trump's plan to arm teache\u2026
p483
aVRT @BettyBowers: Many people are appalled Dana Loesch is an NRA spokesperson, but I live for it! It\u2019s like hiring Westboro Baptist Church t\u2026
p484
aVRT @ProudResister: 20 brands have dumped the @NRA: \u000a\u000a@MetLife\u000a@symantec\u000a@LifeLock\u000a@BestWestern\u000a@Wyndham\u000a@Alamo\u000a@NationalPro\u000a@Enterprise\u000a@FN\u2026
p485
aV@SaysHummingbird @MrFilmkritik Look Bill is trying to make himself relevant\U0001f609 https://t.co/C1fDgvCfuj
p486
aVRT @repblumenauer: When it comes to gutting environmental protections Trump's administration moves with lightning speed, no public input, &amp;\u2026
p487
aVRT @williamlegate: We need to ramp up our FedEx boycotts because they don't appear to be listening.\u000a\u000aI made a special link below where you\u2026
p488
aV@williamlegate Done
p489
aVRT @EdKrassen: BREAKING: Delta Airlines(@Delta) has just ended their contract with the @NRA that provided discounts to NRA members, and dem\u2026
p490
aVRT @Marmel: Neat.\u000aDon\u2019t get cocky.\u000aRegister.\u000aCheck registration.\u000aGet voter IDs.\u000aHelp friends do the same.\u000a#BlueWave isn\u2019t a thing to take f\u2026
p491
aVRT @SaysHummingbird: #ArmMeWith \u000a\u000aBooks, not bullets.\u000aBooks, not bullets.\u000aBooks, not bullets.\u000aBooks, not bullets.\u000aBooks, not bullets.\u000aBooks\u2026
p492
aVRT @Mrsbowmanocsa: I am a teacher. Arm me. Arm me with funding for a full time school Psychologist. Arm me with funding and mandatory schoo\u2026
p493
aVRT @krassenstein: The following companies have cut ties with the NRA over the last 24 hours. \u000a\u000a- Enterprise\u000a- Wyndham\u000a- Metlife\u000a- Hertz\u000a- B\u2026
p494
aVRT @TwitterMoments: The list of brands severing ties with the NRA is growing.\u000ahttps://t.co/cpoSPL8ksc
p495
aVRT @krassenstein: BREAKING:  Hertz just cut ties with the NRA\u000a\u000a#BoycottNRA \u000a\u000aPlease RETWEET @Hertz to encourage the other NRA sponsors to d\u2026
p496
aVRT @NickPonticello: I am a high school teacher, and I refuse to work in an environment where firearms are the norm. I refuse to be bullied\u2026
p497
aV@mattdaly @walterowensgrpa @kylegriffin1 #waltered lol
p498
aVRT @Gdad1: A Democrat getting outspent 17-1 is now neck and neck in deep-red Pennsylvania https://t.co/GIoPMXKOFk via @voxdotcom
p499
aV@AP @lsarsour Best thread ever!  Especially the trump supporters getting all verklempt \U0001f602 https://t.co/qXQlfT6Dkf
p500
aVRT @Ike_Saul: Students have:\u000a\u000a- forced CNN town hall\u000a- got new commitments from Rubio \u000a- pressured POTUS to call for bump stock ban\u000a- led a\u2026
p501
aVRT @EdKrassen: BOOM!\u000a\u000aEarlier today I tweeted a list of companies who were still doing business with the @NRA. \u000a\u000aNow a couple hours later,\u2026
p502
aVRT @girlsreallyrule: #AlyssaAlhadeff, a student who was killed in her high school last week, was only 14 years old. Her mother has asked th\u2026
p503
aV@realDonaldTrump Are you daft?  Do you even know what is involved in handling a weapon?! https://t.co/gyjDxugRGb
p504
aVRT @DanRather: The voice of a child is often a clarion call to action. In their purity lies passion and courage. They are our future. And w\u2026
p505
aVRT @pecunium: This is true. I shot competitively (tried out for the \u201884 Olympics), and spent 16 years in the Army. I was qualified as an Ex\u2026
p506
aVRT @OriginalJLP: With all the talk of AR-15s just being another gun I feel like I should address that. First off, the AR-15 is basically a\u2026
p507
aV@thehill Since when did this administration care about not being qualified? Seriously
p508
aV@RpmPatty @CBSNews @WCCO I was just thinking that same thing\U0001f61e
p509
aVRT @jbendery: Everytown took out this 2-page ad in the NYT today listing off members of Congress, their phone numbers and how much NRA mone\u2026
p510
aVRT @SaysHummingbird: Everyone who retweets this tweet agrees that #TrumpColluded and is the worst president ever!\u000a\u000a#PresidentsDay2018 \u000a#Pre\u2026
p511
aV@realDonaldTrump @MittRomney @OrrinHatch That's a sure death sentence for his political career
p512
aVRT @IanMargol: Peter Wang was killed in the Stoneman Douglas attack. According to other students, he was holding a door so others could get\u2026
p513
aVRT @KamalaHarris: Just over a week ago, Devin Nunes weaponized classified intelligence in a blatant attempt to undermine the Russia investi\u2026
p514
aV@realDonaldTrump Seems more likely that you are too lazy to read it
p515
aVRT @krassenstein: IMPORTANT: Just because the media says that democrats appear to be on track to win a large amount of House seats, you mus\u2026
p516
aVRT @chelseahandler: There is an entire generation of children who\u2019s first memory of their President is a man who supports child molestors,\u2026
p517
aVRT @bmastersc: @Cryn_Johannsen @Tedward_Perrin @EireEyes @mshollyt @rtraister Don't give up! Use this as fuel for being FIRED UP to make su\u2026
p518
aVRT @EdKrassen: IMPORTANT: Just because the media says that democrats appear to be on track to win a large amount of House seats, you must r\u2026
p519
aVRT @WHO: Vaccine-preventable diseases include:\u000aCervical cancer\u000aCholera\u000aDiphtheria\u000aHep B\u000aInfluenza\u000aJapanese encephalitis\u000aMeasles\u000aMumps\u000aPertu\u2026
p520
aVRT @davidsirota: Democrats led by Rep. @TedLieu are pushing a new bill to restrict Trump's power to launch nuclear weapons https://t.co/8n3\u2026
p521
aVRT @OllieEnglish: It appears @BBCNews does not think Tens of thousands marching on Downing Street today is worth reporting! Let's show them\u2026
p522
aVRT @MarcATice: 2000 days since we last heard from our son, Austin. 2,880,000 minutes of longing. Thousands of people of goodwill standing w\u2026
p523
aVRT @Mr_RyanGuillory: Hi all,\u000a\u000aI\u2019m running for Congress in #GA04. \u000aI would be honored if you can #retweet my donation link and support my ru\u2026
p524
aVRT @Dr_CMGreer: Ruby Bridges is still alive and only 63 years old. This was not long along. Many of the people who endured cruelty and humi\u2026
p525
aVRT @krassenstein: Paul Ryan posted this tweet earlier today, bragging about a teacher receiving $1.50 a week extra after GOP tax plan.  He\u2026
p526
aVRT @KamalaHarris: On this day in 1870, the Fifteenth Amendment was ratified, granting Black men the right to vote. This was not fully reali\u2026
p527
aVRT @EdKrassen: Dear friends, I awoke today to find my @Twitter account has been \u201cshadow banned\u201d. I didn't break any Rules or even receive a\u2026
p528
aV@gtorres25 @superman0169  https://t.co/O24aMuJakf
p529
aV@PRyan Are you high?  Seriously.
p530
aVRT @funder: BREAKING: The stock market is getting hammered. Down 547 points today and counting. RT if you agree @realDonaldTrump is to blam\u2026
p531
aV@RWPUSA @politico Not at all surprised
p532
aVRT @BetteMidler: Get out there and do the right thing! https://t.co/C9Za19ISI5
p533
aVRT @KamalaHarris: Dreamers represent the best of who we are as a nation. I won\u2019t stop fighting to give them the security they need to live\u2026
p534
aVRT @womensmarch: On #HolocaustMemorialDay, we remember the 6 million Jews murdered and the millions of people with disabilities, European R\u2026
p535
aVRT @EdKrassen: BREAKING: Tourism in the U.S. has dropped 4% under President Trump, costing the U.S. 40,000 jobs and $4.6 billion in Travel\u2026
p536
aVRT @KamalaHarris: Reminder: We still need to find one more Republican Senator to pass a resolution overturning the FCC's decision to gut #n\u2026
p537
aVRT @SenJeffMerkley: Voted NO on Alex Azar for HHS Secretary. He\u2019s a long-time Big Pharma exec who can\u2019t be trusted to lower Rx prices and i\u2026
p538
aV@SpeakerRyan @speakerRyan  please put down the crack pipe and look at what is really happening
p539
aVRT @thehill: San Francisco votes to replace Columbus Day with Indigenous Peoples Day https://t.co/jVDmhxm9nl https://t.co/MUNSLSpHXT
p540
aV@mediamadnessss @Oregonian @repblumenauer The article states he is sending a representative in his place and stayin\u2026 https://t.co/F2Vkcw4d5Y
p541
aV@DyanneWark @tiffanylevy2 @gettinnoticedmo Total lie!
p542
aV@mediamadnessss @Oregonian @repblumenauer Did you even read the article?
p543
aVRT @splcenter: "Trump\u2019s presidency and administration have now adopted a broad anti-LGBTQ agenda \u2014 one that has gone after LGBTQ workers, t\u2026
p544
aVRT @SRuhle: As the #womensmarch2018 weekend comes to a close, please note @IvankaTrump has recently changed her @Twitter bio - IT NO LONGER\u2026
p545
aVRT @ChrisJZullo: With over 200,000 women raped a year Republicans desire to take away their access to a legal, safe abortion with personhoo\u2026
p546
aV@washingtonpost We need better gun laws. Too many irresponsible gun owners \U0001f622
p547
aV#SOTUResistanceResponse https://t.co/P65utsQ7z3 @moveon \u000aSign this!
p548
aV@SpeakerRyan how can you go on about pro-life (aka anti-women's rights) while there is yet again a school shooting\u2026 https://t.co/Nd42xbpTid
p549
aV@SpeakerRyan @March_for_Life So what are you doing for the already living?  The wrongly accused death row inmates,\u2026 https://t.co/uj8Z7cY188
p550
aV@realDonaldTrump @WhiteHouse This is all in you and basically you just suck!
p551
aV@SpeakerRyan if you truly cared about life you would pass CHIP and DACA
p552
aVRT @AHamiltonSpirit: Dear @SenateMajLdr,\u000a\u000aHere you go...#TheResistance fixed your meme for you\u000a\u000a\U0001f44b\U0001f618\U0001f601\U0001f60f\u000a\u000a@SpeakerRyan @GOP @SenateGOP #TrumpSh\u2026
p553
aV@SpeakerRyan All your fault republicans!
p554
aVRT @joncoopertweets: \U0001f449RT if you agree that NO Democrat should vote for a stopgap spending bill if Lyin' Ryan and Mitch McTurtle refuse to a\u2026
p555
aV@SpeakerRyan Do you honestly believe your bullshit?
p556
aVRT @SaysHummingbird: Dear Tweeps\u000a\u000aPlease follow &amp; support my friend \U0001f449 Dr @eugenegu \U0001f448 who has recently been placed on leave by Vanderbilt Un\u2026
p557
aVRT @Alyssa_Milano: HEY, @GOP! DO YOU HEAR ME?! I AM SCREAMING. \u000a\u000aYOUR SILENCE IN CONDEMNING THE HATEFUL WORDS OF @realDonaldTrump IS DEAFEN\u2026
p558
aVRT @MoveOn: .@RepTimWalz, thank you for your vote to impeach @realdonaldtrump. ADD YOUR NAME &amp; demand #Congress work to #ImpeachTrump now:\u2026
p559
aVRT @SenatorCantwell: Over the last several years the biggest job growth we have seen in America has come from internet businesses. We canno\u2026
p560
aVRT @ProudResister: Bill Clinton testified under oath.\u000a\u000aHillary Clinton testified under oath.\u000a\u000aRichard Nixon testified under oath.\u000a\u000aDonald T\u2026
p561
aVRT @MarchForTruth17: Retweet if you believe Donald Trump should testify under oath and in person  in the Russia investigation.
p562
aVRT @brianschatz: Now that the Senate has 49 Democrats we only need 2 Republicans to support a free and open Internet to win the Senate vote\u2026
p563
aVRT @krassenstein: BREAKING: Trump appears to be kicking 200,000 Salvadorans from this country, separating thousands of children from parent\u2026
p564
aVRT @EdKrassen: Trump literally has fired half a dozen people who were investigating him. If you don't have a problem with that, then you do\u2026
p565
aVRT @diana_rolan: I \u2764\ufe0fthis guy. Wish more billionaires would be like him. https://t.co/bUam8CYDVg
p566
aVRT @RedTRaccoon: Supplemental Nutrition Assistance Program (SNAP) or "Food Stamps" is a government program that shouldn't be cut\u000a\u000a44.2M Ame\u2026
p567
aVRT @ArminNavabi: This woman in #Iran took off her #Hijab to protest the mandatory Islamic dress code imposed on Iranian women. #IStandWithH\u2026
p568
aV@SpeakerRyan As if you care about citizens\U0001f621
p569
aVRT @sleezsisters: My wife's nurse had to stand for 30 mins &amp; administer a drug slowly through a syringe because there are almost no IV bags\u2026
p570
aVRT @Marmel: Ignore this.\u000aRegister.\u000aGet your IDs ready if need be.\u000a\u201cAdopt a voter\u201d and help them do the same.\u000aStay registered.\u000aWork toward t\u2026
p571
aVRT @JasonHalle: Rosa Parks was not protesting the bus.\u000aBostonian's were not protesting the tea.\u000aPlayers were not protesting the anthem.\u000a\u000aPR\u2026
p572
aVRT @DTrumpPoll: How do you feel about the future after almost a year with @realDonaldTrump as @POTUS?\u000a\u000aPlease vote &amp; RT \U0001f60a
p573
aVRT @womensmarch: On January 21, 2018, what happens in Vegas definitely does not stay in Vegas. Join us! #PowerToThePolls\u000a\u000ahttps://t.co/yekb\u2026
p574
aVRT @TitusNation: To be an FBI agent every aspect of your life is INVESTIGATED. Family, friends, employers questioned, polygraphs. You need\u2026
p575
aVRT @RevDrBarber: Our moral character is so distorted right now. Too many are willing to sell out the betterment of humankind for a bonus, b\u2026
p576
aVRT @EdKrassen: RT If you think the Bushes, Jimmy Carter, Bill Clinton &amp; Barack Obama should all make a joint statement in supporting Robert\u2026
p577
aVRT @splcenter: The United States has the highest child poverty rates in the developed world.\u000a https://t.co/cJbJi4b416
p578
aVRT @SenJeffMerkley: House GOP just voted to:\u000a\u2705Enrich the already richest Americans\u000a\u2705Raise taxes on millions of working families\u000a\u2705Wreak havo\u2026
p579
aV@CongressmanHice @SpeakerRyan #LiarLiar https://t.co/XY5WqQqqMN
p580
aV@RepWesterman @SpeakerRyan I believe you mean will suffer horribly\U0001f620
p581
aVRT @krassenstein: The #GOPTaxScam seems to be on target To Pass. One woman can stand in the way, Sen. Susan Collins!  Light up her phones &amp;\u2026
p582
aVRT @SenJeffMerkley: #TodaysClimateFact: This credit rating agency is urging US cities &amp; states to prepare for the effects of #ClimateDisrup\u2026
p583
aVRT @SenJeffMerkley: \U0001f6a8\U0001f6a8\U0001f6a8\U0001f6a8\U0001f6a8Five alarm fire \u2014 GOP plans to vote TONIGHT on their outrageous giveaway to the richest and most powerful American\u2026
p584
aVRT @brandonlancast2: @SpeakerRyan  https://t.co/aYbe4nDUea
p585
aVRT @EdgeOfMyTweet: @SpeakerRyan  https://t.co/dQAY2xn6kf
p586
aVRT @SeanPDent: Cedars-Sinai Nurse Sues Surgeon For Alleged Attack https://t.co/IWfDFMH92M She needs our support. https://t.co/bliKyhHj7h
p587
aVRT @davidsirota: BREAKING: @SenBobCorker\u2019s senate chief of staff has been investing in a real estate LLC, meaning Corker\u2019s vote for the tax\u2026
p588
aV@SpeakerRyan As if you even have a heart.  Give me a break
p589
aV@SpeakerRyan You are a big fat liar!
p590
aVRT @BarackObama: Just got off a call to thank folks who are working hard to help more Americans across the country sign up for health cover\u2026
p591
aVRT @Alyssa_Milano: The wonderful people of Alabama will have a choice when they #VoteDec12. \u000a\u000aI have faith they will vote for @GDouglasJone\u2026
p592
aVRT @NASA: Heads-up, Earthlings! The annual Geminid meteor shower has arrived, peaking overnight Dec. 13-14. It's a good time to bundle up!\u2026
p593
aVRT @FamiliesUSA: Passionate about affordable healthcare for all? Come to #HA2018 in January in D.C.!  https://t.co/OVBhEP2DDx https://t.co/\u2026
p594
aVRT @SenJeffMerkley: Earlier this week, the Trump administration recommended stripping protections from and shrinking Oregon\u2019s #CascadeSiski\u2026
p595
aVWe #NeedtoImpeach @RealDonaldTrump. Join me and sign on to @TomSteyer\u2019s petition demanding Congress impeach Trump. https://t.co/b32JjPt4iz
p596
aVRT @FMoniteau: This is truly incredible.\u000a\u000a#nature #SundayMorning #October1st https://t.co/j21OkF5dGL
p597
aVRT @SenKamalaHarris: We MUST pass the DREAM Act. Retweet if you agree.
p598
aVRT @womensmarch: Please share!\u000a\u000aMiami-Dade County: Undocumented people seeking shelter from #HurricaneIrma will not be asked for ID. https:\u2026
p599
aVRT @SenKamalaHarris: .@SenWarren, @SenSanders, and I all agree - health care is a right. Retweet if you agree too.
p600
aVRT @UNITEDWEDREAM: \U0001f6a8IMPORTANT: \u000a\u000aThese are the 5 things you need to know about Trump's announcement to end #DACA.\u000a\u000aRT &amp; Share widely! https\u2026
p601
aV@slcpd not acceptable behavior!  We will not tolerate abuse of nurses https://t.co/pKwlVsmcIw
p602
aVRT @womensmarch: Here's one thing you can do to #DefendDACA today:\u000a\u000aCall and tweet these Attorney Generals and tell them to stop their laws\u2026
p603
aVHappy national dog day \U0001f436 https://t.co/u6BepMh5UR
p604
aVRT @DJSMOOK: I'll be attending the #Maui #Charolettesville candle light vigil at the State Building. https://t.co/6n12q64P0J
p605
aV@WaysandMeansGOP @SpeakerRyan @SpeakerRyan you are a complete idiot!
p606
aVRT @KevinDarryl: Everyone Retweet! An LGBT "Underground Railroad" Is Working To Evacuate Gay Men From Chechnya https://t.co/wprmCsiK2N via
p607
aV#WTF? https://t.co/h0HNcdPuRU
p608
aVRT @HillaryClinton: Help rangers protect the elephants.\u000aGo to https://t.co/pqxZttyOGh.\u000a#EarthDay #Tribeca2017
p609
aVRT @GeorgeTakei: Dear France,\u000a\u000aPlease don't fuck this up.\u000a\u000aSincerely,\u000a\u000aThe World
p610
aVRT @HouseDemocrats: Translation: We're going to gut Social Security, &amp; take away health care from MILLIONS of Americans to fund big tax gif\u2026
p611
aVRT @TheDemocrats: The new GOP health care plan could deny care to people with pre-existing conditions. RT if you'll fight to stop it. https\u2026
p612
aV@Indivisible_OR @sciencemarchpdx Portland rocks!
p613
aVRT @repblumenauer: What a great crowd at our Portland March for science!!! https://t.co/4E6sRBsLD0
p614
aVRT @BernieSanders: For too long the Democratic Party has turned its back on a lot of states in this country. @Tomperez being in Utah says t\u2026
p615
aVJoin me in helping Caleb's Canines  support Oregon Humane Society by joining or donating here: https://t.co/bnLvjwREVF\U0001f436\U0001f431
p616
aVRT @womensmarch: Together, let's send a strong message that we are speaking out; we will not be silent in the face of these atrocities. #Wo\u2026
p617
aVRT @TheDemocrats: \U0001f4c5 Members of Congress will be home for two weeks. \U0001f4c5\u000a\u000aRemind them that they are there to represent you, not Trump. https:/\u2026
p618
aVRT @yashar: Never forget...this is the real Bill O'Reilly. https://t.co/Zt4FCt4gJ6
p619
aVRT @thehill: WA attorney general sues to block Trump immigration ban https://t.co/FdNdaVjs0t https://t.co/XJnLcqv967
p620
aVRT @TheDemocrats: Trump doesn't want you to know that tomorrow is the last day to enroll in Obamacare.\u000aDefinitely don't retweet this: https\u2026
p621
aVRT @AndieMarie888: .@SenToomey Please vote NO on Betsey DeVos. She is unqualified, unfit &amp; inexperienced to lead the Ed Dept. #JustSayNO #P\u2026
p622
aVRT @splcenter: DeVos doesn't have a record of working in schools. She does have a history of donations to anti-#LGBTQ groups. #DeVosFacts h\u2026
p623
aVRT @brianstelter: The @ACLU received 5 times as much $$$ via online donations this weekend as it usually receives in a whole year.  https:/\u2026
p624
aV@SpeakerRyan you helped to cause health care act to fail!
p625
aVRT @Sethrogen: Ppl w friends/family flying frm affected countries contact airport@refugeerights.org b4 they arrive 4 access 2 counsel. Pls\u2026
p626
aV#Portlandrocks https://t.co/Pwv0Ci6hKv
p627
aVRT @GeorgeTakei: Please share. https://t.co/mTT9G4OAXh
p628
aVRT @nikatarani: Immigrants are welcome here. #MuslimBan https://t.co/DqxcwrmFMb
p629
aVRT @SindidAlam: possibly my favourite sign from tonight #MuslimBan https://t.co/LQKmXP1kdZ
p630
aVRT @GIJew29: I don't have a lot of time, money or followers. But for every RT by Sunday at 9pm, I'll donate .25 cents to @ACLU (up to $500)\u2026
p631
aVRT @NotAltWorld: Trump's govt hiring freeze will stop the National Parks hiring the 8,437 people needed to safely run the parks.  \u000ahttps://\u2026
p632
aVJoin me in voting once a day for @Celeb_Dachshund to win the #ShortyAwards. https://t.co/vkfcjW5I0H
p633
aVTo change everything, we need everyone. Join me April 29 to stand up for our communities and climate #peoplesclimate https://t.co/jq3vYuhDHI
p634
aVTo change everything, we need everyone. Join me April 29 to stand up for our communities and climate #peoplesclimate https://t.co/jq3vYuhDHI
p635
aVRT @TheDemocrats: Fighting to make sure that the right to choose is protected and that reproductive health care is accessible to all. #7in1\u2026
p636
aVI just took action on @theactionnet: 10 Actions in 100 Days. Take action here: https://t.co/RUsLuSGdwa
p637
aVOur leaders MUST fix this. @ONECampaign is demanding action \u2013 add your name https://t.co/BzJS58I3ir https://t.co/pHFt3ZRyO3
p638
aV@SpeakerRyan do not take away health care for women! \u000a#IStandWithPP
p639
aV@WhiteHouse @POTUS you are an amazing man. I thank you for your service to this country
p640
aVRT @WhiteHouse: "Over the course of these eight years, I have seen the goodness, the resilience, and the hope of the American people." \u2014@PO\u2026
p641
aVRT @HouseDemocrats: In honor of #MLKday2017, let us recommit ourselves to Dr. King\u2019s dream of justice, peace, &amp; equality. https://t.co/qJJO\u2026
p642
a.