(lp0
VRT @scotsmum: Thank you, l laughed out loud and cried - so needed this! https://t.co/osMDrrCPjd
p1
aVRT @KeatonPatti: I forced a bot to watch over 1,000 hours of TED Talks and then asked it to write a TED Talk of its own. Here is the first\u2026
p2
aVRT @StephenKing: Molly, aka the Thing of Evil, turns four. As a special treat, we gave her a postman for dinner. https://t.co/HNkNQOiZgX
p3
aVRT @_SJPeace_: I need this.\u000a\u000aThis made me smile. Hope this makes you smile. \u000a\u000aHere\u2019s a deer playing with a bunny \U0001f60d\u2764\ufe0f\u000a\u000aRETWEET! https://t.co\u2026
p4
aVRT @DavidCornDC: Hard to see how Kavanaugh could be fair-minded in any case involving Democratic or liberal plaintiffs after this speech.
p5
aVRT @DrSCubed: @DonaldJTrumpJr I'm no psychology professor, but as a PhD neuroscientist I've taught numerous undergraduate &amp; graduate level\u2026
p6
aVRT @CleverTitleTK: My brother just asked how it is that 93% of Kavanaugh\u2019s judicial records can\u2019t be found but he has no problem locating h\u2026
p7
aVRT @The_UnSilent_: This is Beto leaving the Debate \U0001f918\U0001f3fb\u000a\u000aWhat do you think Ted Cruz\u2019s drive home was like last night? \U0001f610https://t.co/OMr18ltQe9
p8
aVRT @BFriedmanDC: My favorite part of the Kavanaugh controversy is how people who are absolutely convinced they know exactly what happened i\u2026
p9
aV@Silsbycarr Wait... what?
p10
aVRT @rhymewithrachel: aragorn and legolas but theyre just tired camp counselors https://t.co/wyNY6M8ehC
p11
aVRT @designmom: I\u2019m a mother of six, and a Mormon. I have a good understanding of arguments surrounding abortion, religious and otherwise. I\u2026
p12
aVRT @texasinafrica: This is an *amazing* thread. \U0001f525\U0001f525\U0001f525 https://t.co/mOGrI7w5CJ
p13
aVRT @KeatonPatti: I forced a bot to watch over 1,000 hours of Trump rallies and then asked it to write a Trump rally of its own. Here is the\u2026
p14
aVRT @IHLaking: If you need some positivity in your newsfeed today, here\u2019s Bradley the baby kangaroo practicing his first hops at a kangaroo\u2026
p15
aVRT @UFWupdates: Next time you enjoy radishes in your salad, remember the farmworkers like these Oxnard workers, who harvest the food that w\u2026
p16
aV@Silsbycarr I\u2019m totally reading that next. Just got done reading The Woman in the Window (which, once I was able to\u2026 https://t.co/EKNGpPuH83
p17
aVRT @BetteMidler: Now Trump\u2019s saying Democrats are going to be \u201cviolent\u201d if they win big in November? What are we going to do? Throw our PBS\u2026
p18
aV@realDonaldTrump This is hilarious. Like, texting your husband while you are sitting in the same room together. \u201cI\u2026 https://t.co/wpl6eKffvW
p19
aVRT @ClintFalin: hold on mr. dinosaur, something important came up.\u000a\u000a                      (Atlas / skoko on Imgur) https://t.co/EEiWcrsem6
p20
aVRT @FluffSociety: "Kirk, a female Border Collie, watching herself win the 2017 Purina Pro Challenge." https://t.co/VizPLJ1REY
p21
aV@realDonaldTrump Oooooor you could help Flint with their water crisis.
p22
aVRT @dog_feelings: it is difficult. to perform a good sit. when my feets keep sliding away from me. this is why. i believe the entire househ\u2026
p23
aVRT @dog_feelings: the human\u2019s fren came over. for the first time in a long time. i tried to show them. how the skittle under the fridge. st\u2026
p24
aVRT @pauldauenhauer: This is going up in the lab https://t.co/lkgfq631cl
p25
aVRT @HamillHimself: How about replacing it with someone who really earned it? Like @carrieffisher    https://t.co/f1XMXanpWP
p26
aVRT @JUSTAMAZlNG: Get out of my way human! https://t.co/7jMfauO3rK
p27
aVRT @TheVandals: Leaping into the weekend like: \U0001f40e\U0001f3c3\u200d\u2642\ufe0f https://t.co/1eqmsMigt3
p28
aVRT @AbbieEvansXO: Me: *covers foot with blanket*\u000a\u000aMonster 1: *about to grab my foot anyway*\u000a\u000aMonster 2: *quickly pulling him back* NO. we h\u2026
p29
aV@Silsbycarr I always wondered!
p30
aVRT @GlennonDoyle: Decide which side of history you\u2019re on. Nobody cares about your motives anymore. https://t.co/QRcf5HZ80F
p31
aVRT @ShaunKing: His name is #OthmanHilles. \u000a\u000aUnarmed, non-violent. 14 years old. A baby. A peaceful protestor. \u000a\u000aShot and killed by an Israe\u2026
p32
aVRT @TrumpBabyUK: #TrumpBaby just gave @realDonaldTrump the welcome he deserves.\u000a\u000a\u201cI guess when they put out blimps to make me feel unwelcom\u2026
p33
aVRT @bstephenmitchel: @PressSec @POTUS  https://t.co/EG4CY13K66
p34
aV@Silsbycarr Wow is all I can say...
p35
aVRT @jayxwolf: We didn't "kill" kitchens, you did, trying to tell us a $$ studio with a mini fridge and a microwave counts as having a kitch\u2026
p36
aVRT @TheGoodGodAbove: Scott Pruitt resigned and 3 poachers got eaten by lions.\u000a\u000aToday was a good day.
p37
aVRT @Reuters: Iran to Trump: oil will cost $100 per barrel, and it is your fault https://t.co/8Y9nL1E582 https://t.co/nWNrpVwAGb
p38
aVRT @mizsant: So Velveeta isn\u2019t allowed to call itself \u201ccheese\u201d but an unlicensed crisis pregnancy center can pretend to be a medical facili\u2026
p39
aVRT @Ukiiyo__: koala: i want to eat leaf\u000a\u000aeuaclyptus leaf: no dont eat me im worthless\u000a\u000akoala: no i want leaf!\u000a\u000aeucalyptus leaf: i'll poison\u2026
p40
aVRT @prophethusband: 20-something in 1958: why it sure is swell that even tho i never finished high school my job at the factory allows me t\u2026
p41
aVJust tuned in for a second. So many pasty, old crusty men. I bet it smells like a crypt in there.
p42
aVRT @neiltyson: I still think there should be a dinosaur named the Thesaurus.  And I imagine Thesaurus Rex would be badass with wordplay.
p43
aVRT @NelsonMRosario: "There's a medical center down here, and everyone that was in the Intensive Care Unit, died. Everyone. That's just one\u2026
p44
aVRT @RedTRaccoon: RETWEET to remind @realdonaldtrump that he has the USNS COMFORT at his disposal &amp; Puerto Rico is part of the United States\u2026
p45
aVRT @chelseahandler: I would greatly appreciate never hearing Jeff Sessions speak publicly again. Especially, without a hood.
p46
aVRT @ashleyfeinberg: fucking giddy about destroying people\u2019s lives https://t.co/yTuWGuMTy6
p47
aVRT @TheGoodGodAbove: Don't thank God for Labor Day.\u000a\u000aThank unions for fighting to get workers this day off.\u000a\u000aThank them by joining or formi\u2026
p48
aVRT @LeahDaughtry: Dear White Politicians, do not go to black churches today &amp; tell us how much you hate racism. Go to white churches and te\u2026
p49
aVRT @TopherSpiro: BREAKING: In rare joint letter, insurers say Cruz amendment "unworkable in any form" and will lead to "widespread terminat\u2026
p50
aV@BadlandsNPS watched this roll through on June 30 from Cliff Shelf \U0001f49c https://t.co/m8NGP9ginT
p51
aVRT @JohnnyMcNulty: McCain: Would you say gooblewoobledeedo?\u000a\u000aComey: I don't...what?\u000a\u000aMcCain: I thought you said that.\u000a\u000aComey: What?\u000a\u000aMcCain\u2026
p52
aVRT @RiotFest: 119 days until Riot Fest. There's a good chance you won't win, but RT for your chance to win a pair of tickets. https://t.co/\u2026
p53
aVRT @abbvie: Are you an undergrad or grad student with cystic fibrosis? We're offering scholarships up to $25K. https://t.co/h44eAwfeD7
p54
aVRT @BraddJaffy: Watch this\u000a\u000aJohn Lewis is shouting on the House floor: I'll \u201cfight every day\u2026I oppose this bill with every breath and every\u2026
p55
aVRT @RiotFest: Who the fuck am I supposed to root for here? https://t.co/PNyDMartjN
p56
aVMy cat... plotting my demise https://t.co/t8QQcmNOcF
p57
aVLousy Smarch weather https://t.co/rO4TDZiI6M
p58
aVRT @abbvie: Less than 1 in 10 employed scientists &amp; engineers are minority women. That needs to change - &amp; change starts now: https://t.co/\u2026
p59
aVRT @kylegriffin1: This is what comes up when you Google "The Southern White House". https://t.co/qsYDFMSdPC
p60
aVRT @FieldMuseum: At The Field Museum, facts matter. See why, from our experts in geology, paleontology, human evolution, and climate change\u2026
p61
aVRT @fanniesroom: Literally no woman familiar with watching incompetent men consistently rise to the top is stunned by this. https://t.co/AR\u2026
p62
aVRT @McKelvie: So it's weird none of these signs are handmade right https://t.co/RCGf0Z2GD7
p63
aVRT @arnettwill: This is lunacy.No matter your politics you must admit these are the rantings of a madman.I mean it.All politics aside https\u2026
p64
aVRT @NaphiSoc: BREAKING NEWS \u000aRussian Troops are now directly and actively shelling Ukrainian troops  \u000a\u000aTrump is ignoring https://t.co/Xibsp\u2026
p65
aVRT @mitchellreports: Someone please tell White House Australia has more troops fighting ISIS in Iraq than any other ally + has fought at ou\u2026
p66
aVRT @TrumpDraws: peenut https://t.co/YSoZm83Wkf
p67
aV@Silsbycarr Yes. Yes we can!
p68
aVRT @ajplus: Acting Attorney General Sally Yates stood up to Pres Trump \u2013 so he fired her. \u000a\u000aWas there foreshadowing back in 2015? https://t\u2026
p69
aVRT @HRC: Trump doesn't deserve credit for floating #LGBTQ rights repeal &amp; suddenly dialing back to avoid negative attn. 1/7 https://t.co/E5\u2026
p70
aVRT @abbvie: We proudly support our #LGBT employees &amp; are honored to attend this year\u2019s #oesummit! @OutandEqual https://t.co/ruGYFVhNyY
p71
aVRT @abbvie: How to help when a crisis has no end in sight? @IMC_Worldwide shows us how: https://t.co/rDcTHIajGP
p72
aVRT @juliasilge: My senator's local office is not answering his phone, and his voicemail seems to be full. https://t.co/WGbvAYlSw0
p73
aVRT @Reuters: Trump vows to continue LGBT workplace rights protection https://t.co/IwQ0J1Zt2l
p74
aVRT @johnpavlovitz: Have you noticed that all the qualified, sane people are being eliminated?\u000a\u000aI have.\u000a\u000a#SallyYates
p75
aVRT @themattmcd: So it's okay if it's a certain class of immigrant? You would've been fine with Obama banning, say, Slovenian models? https:\u2026
p76
aVRT @Twitter: Twitter is built by immigrants of all religions. We stand for and with them, always.
p77
aVRT @MMFlint: ...and the Orlando killer -- not one of these terrorists were from ANY of the 7 Muslim countries where ppl are now banned from\u2026
p78
aVRT @MMFlint: 9/11 hijackers, shoe bomber, underwear bomber, Times Sq bomber, Ft.Hood &amp; San Bernadino shooters, Boston Marathon bombers, Che\u2026
p79
aVRT @SteveKornacki: Lyft says it is donating $1 million to the ACLU in protest of Trump's refugee order https://t.co/x6qbDu699W
p80
aVRT @NYCjosh: One more @ACLU win against Trump's illegal and discriminatory immigration order, this time in Boston -- thanks to @ACLU_Mass #\u2026
p81
aVRT @RogueNASA: Hours after landing in U.S., Cleveland Clinic doctor forced to leave by Trump\u2019s order https://t.co/JgK6uA6UnW
p82
aVRT @ScienceMarchCHI: Sister march for @ScienceMarchDC. Many thanks to the original organizers. More info will be posted as it becomes avail\u2026
p83
aVRT @PTFCinFL: Not today wankers, the good people won today!#NoBanNoWall #StopPresidentBannon https://t.co/GSRWcwFLrw
p84
aVRT @gameism: Something important here going unmentioned: these lawyers had to buy tickets to gain access to work here pro bono. These are C\u2026
p85
aVRT @johnpavlovitz: While you sit in church tomorrow singing about your devotion to Jesus while YOUR children are nearby playing, laughing,\u2026
p86
aVRT @yashar: Bannon being added to National Security Council. Joint Chiefs of Staff and Director of National Intelligence removed https://t.\u2026
p87
aVRT @RogueNASA: Warning: @NASAGoneRogue seems to be a fake anti-climate change troll account.
p88
aVRT @rickygervais: It's like we're watching history repeat itself but only half the population know how bad it turns out.
p89
aVRT @billprady: When we consider denying refugees sanctuary, consider what happened the last time we did that.  https://t.co/da2P6F8eBN
p90
aV@BadHombreNPS Acadia National Park https://t.co/gx2LT4Juho
p91
aVRT @altUSEPA: Want to learn more about climate change facts and impacts on the US? For now, the 2014 climate change report is here\u000ahttps://\u2026
p92
aVRT @missmayim: I'm Jewish. I stand ready to register as a Muslim in #solidarity  if it comes to that.
p93
aVRT @RogueNASA: We're not going lie. We fangirled a little about this tweet. Okay, fine. A lot. \u2764\ufe0f https://t.co/nv1xP8QERJ
p94
aVRT @funder: Trump Owns Stake In Oil Pipeline\u000a\u000aThis should disturb everyone\u000a\u000a#NoDAPL #trumpleaks #theresistance #alternativefacts https://t.\u2026
p95
aVhttps://t.co/sqoZ0jcFIY
p96
aVRT @pemalevy: This one got a lot of cheers https://t.co/UyZ6kMvFoD
p97
aVRT @theatre_direct: During WWII, Churchill was asked to cut funding for the arts. \u000aHe replied "Then what are we fighting for?" https://t.co\u2026
p98
aVMy favorite sign so far from the Women's March: I didn't come from your rib, you came from my vagina.
p99
aVRT @sarahjanet: This is amazing. https://t.co/yhu5MQP03y
p100
aVRT @katewillett: The White House website removed: LGBT rights, climate change, healthcare, &amp; civil rights.  \u000aThey added: Melania's jewelry\u2026
p101
aVRT @DavidYankovich: Wars Trump's engaged in, day 2:\u000a\u000aWar on-\u000a1. Women\u000a2. Muslims\u000a3. Hispanics\u000a4. PoC\u000a5. LGBT\u000a6. Vets\u000a7. IC\u000a8. Media\u000a9. Park\u2026
p102
aVRT @jersing: "Girl"\u000a"Girl I know girl" https://t.co/f2YkzyDUWh
p103
aVRT @SarahKSilverman: This was my mother's pin from 1972.  As important today as ever https://t.co/uxYWF4x4bI
p104
aVRT @DanaSchwartzzz: I feel like we're 24 hours away from the moon crashing down in Majora's Mask
p105
aV@PerfectAdequate I'm with you in spirit, sister!
p106
aVhttps://t.co/wz3E64lWTl
p107
aVRT @asabenn: "Writing my inaugural address"? @realDonaldTrump doesn't need to be so shy about his sketch - V. Putin must be v. proud https:\u2026
p108
aV@Silsbycarr what??
p109
aVRT @splcenter: John Lewis is an American hero who has changed this country for the better with courage, sacrifice, and a lifelong commitmen\u2026
p110
aVRT @SethAbramson: Retweet if you stand with John Lewis (D-GA) in saying that, until Trump's ties to Russia are investigated, he is not a le\u2026
p111
aVRT @jimmyeatworld: Merry Christmas baby\u2026..\u000a\u000ahttps://t.co/ewKxfYDYlw
p112
aV@jimmyeatworld @FM1021 \u000aDon't wait so long to come back!
p113
aV@jimmyeatworld Gets it Faster! Please?? In MKE!
p114
aVRT @bradlander: Trump took time to condemn the thoughtful plea of the @HamiltonMusical cast. But not the swastikas in his name in a Brookly\u2026
p115
aVRT @HillaryClinton: "Nobody respects women more than me." \u2014Donald Trump earlier tonight\u000a\u000a"Such a nasty woman." \u2014Donald Trump just now #Deba\u2026
p116
aVRT @SarahKSilverman: Nuclear codes? We clearly can't even trust this man with self tanner  #debatenight
p117
aVSo long to the east. https://t.co/BViywDQp1N
p118
aVSo the only ppl who will receive fair and equal treatment are straight white men. Explain that one away... https://t.co/9rPrX96FYF
p119
aVRT @OhNoSheTwitnt: Reminder: The men worried about transgender people groping women in bathrooms are voting for a man who bragged about gro\u2026
p120
aVOh, Maine, you are a saucy flirt... https://t.co/Jv1K9AFaaf
p121
aV@Silsbycarr Love you like a sister always, soul sister
p122
a.