(lp0
VThis is truly just astounding. @CNN @MSNBC https://t.co/JN6ruS7kjv
p1
aVIf you live in #alaska or know someone who does please encourage everyone to vote. People often don\u2019t vote because\u2026 https://t.co/gClpjGPZEh
p2
aV@CNN I hope you call this out for what it is and not feed into Mr. Kemp\u2019s BS. Your highest obligation is to cover t\u2026 https://t.co/3gKB1lNtcn
p3
aVThis is an insane accusation and these types of games can completely undermine democracies. Please people of GA to\u2026 https://t.co/6VUFS6Jvod
p4
aVRemember: each person you help encourage to vote is worth 10,000,000,000,000 likes. #vote #bluewave #endvotersuppression
p5
aV@BrianKempGA Sir you should truly be ashamed of yourself for using the good people of Georgia\u2019s hard earned money t\u2026 https://t.co/DlwI7zfcKh
p6
aVI hope voters in Georgia see through the fake chaos Brian Kemp is causing in this election. Like his fellow white n\u2026 https://t.co/hHGbMQOAVX
p7
aV@CoachJim4UM are you voting on Tuesday?
p8
aV#virginia #michigan text each of your friends to vote Tues! Help ensure your children and grandchildren will always\u2026 https://t.co/XiDLWeNp5h
p9
aV@HarleyRouda is about 72 hours away from Vladamir Putin having to find a new favorite congressman! Great\u2026 https://t.co/VVr3zmgc8i
p10
aVRT @BeeForGeorgia: Mrs. Tran is an 80-year-old Viet naturalized citizen. Her registration was \u201cpending\u201d due to \u201cexact match.\u201d\u000a\u000aShe was flag\u2026
p11
aV@AndrewGillum @staceyabrams we support you, bring home the W! https://t.co/V9Iyn1oZmv
p12
aVGOP needs right leaning independents to hold their nose and vote red on economic issues. So Trump focuses on the th\u2026 https://t.co/72O8QDqGWp
p13
aV#bluewave https://t.co/e8zHGrANPl
p14
aVImagine how mad he would have been if the guy wasn\u2019t white! Give $10 to his opponent! #racist #antisemite https://t.co/PkooyRzybp
p15
aVThe time is now America, you can have a permanent impact on this country by texting every one of your friends to vo\u2026 https://t.co/IJYiC7zSxQ
p16
aV@Evan_McMullin just completely destroyed \u201cAlice\u2019s Friend\u201d Steve King, not the hardest thing to do but still kickass\u2026 https://t.co/0T8QSUYFMU
p17
aVThis is disgusting. Shame on Republicans for supporting these KGB type tactics. #wherearethetaxreturns https://t.co/01UQLxvlrX
p18
aV@mkraju @daveweigel Poor 300 lb baby!
p19
aV@Reuters @andysullivan @ReutersTV This is the true American Dream and don\u2019t let any racists say otherwise. #BlueWaveComing2018
p20
aVIf you want a check and balance on this despicable administration, support @SeanCasten in IL-6. He is in one of the\u2026 https://t.co/nwFQXmXwxv
p21
aV@webkris @CA45_voter If you care about your children and grandchildren having coverage for pre-existing conditions\u2026 https://t.co/RwPUz288oW
p22
aV@DNC @NancyPelosi @TomPerez @WhipHoyer Please dedicate resources to this race and give the people of #Iowa a break\u2026 https://t.co/NlNLmzylUR
p23
aVDonate $10 to @HarleyRouda @Morse4America @AndrewJanz @KatieHill4CA @katieporteroc @ACampaNajjar don\u2019t get mad get\u2026 https://t.co/DZcRcD2sZQ
p24
aV#vote #VoteBlueToEndThisNightmare #BlueWave2018 https://t.co/tgR3ZGQVlH
p25
aV@MSNBC Can we stop pretending like John Kasich is some kind of profile in courage because he\u2019s only 50% wrong
p26
aVWhen 4-Star generals can\u2019t help but point out how scared POTUS is of real questions. #toodumbtoanswer\u2026 https://t.co/3oXS4RlWtb
p27
aV@xoxsmithyxox @ZellnerLaw @digitalspy @lifeafterten @michellemalkin Would be disrespectful not to! Go KZ!
p28
aVI am Russian-American supporting @HarleyRouda because a Putin stooge in Congress only hurts America https://t.co/pbvzqSANZs
p29
aV@chucktodd @chucktodd  don\u2019t let the bottom 25% of the country get you down. There will always be angry old men lik\u2026 https://t.co/5qxWn38QsR
p30
aVRT @chucktodd: If you actually believe media is the problem then the last thing one should do is respond with your own hate and anger... Tr\u2026
p31
aVIf you have a college degree and plan to vote repub in this yr, you should call your alma mater to get your much de\u2026 https://t.co/0UZ8dlkze3
p32
aV@TManitowoc @cadaverdogbrutu This could be worded more respectfully to the Halbach family while still making the sa\u2026 https://t.co/Kq65MrnYvW
p33
aV@KingJames  Thank you for all you do to try to make the world a little bit better. @BetoORourke 2018! #BetoORourke\u2026 https://t.co/HOyuqv0jRU
p34
aV@RalstonReports @DeanHeller is mad about having to find a real job soon
p35
aV@SenWarren Text 4 friends to VOTE EARLY ignore  the polls ignore the projections just #VoteEarly \u2b50\ufe0f\u2b50\ufe0f\u2b50\ufe0f\u2b50\ufe0f
p36
aV@RepAdamSchiff @RepAdamSchiff  thank you for your honesty and leadership
p37
aV@kylegriffin1 That\u2019s what we used to call a #BURN @AndrewGillum got that f-i-i-r-r-e-e-e! \U0001f94a\U0001f94a\U0001f94a\U0001f525\U0001f525\U0001f525\U0001f525
p38
aV@manal_alsharif We will all rue the day we trusted the world to these fools. I would take two random names out of a\u2026 https://t.co/DdeyGc9cph
p39
aV@chucktodd @chucktodd #germanhistory
p40
aVWatching #worldseries in #spanish to avoid listening to Joe Buck. Wish I had learned spanish.
p41
aV@realDonaldTrump @POTUS Any comment on @nikkihaley calling @realDonaldTrump  a total loser today?
p42
aV@LindseyGrahamSC @realDonaldTrump @LindseyGrahamSC @realDonaldTrump  What is the current market cost to get away wi\u2026 https://t.co/LrECkjemeQ
p43
aV@chrislhayes @realDonaldTrump has no balls because he lets murder go unpunished! #LawAndOrder indeed!
p44
a.