(lp0
VRT @SteveKornacki: New NBC/WSJ poll (conducted 7/15-18)\u000a\u000aTrump job performance:\u000aApprove 45%\u000aDisapprove 52%\u000a\u000aGeneric ballot:\u000aDem 49%\u000aGOP 43%
p1
aV@kept_simple I'm sure they are watching in Normway.
p2
a.