(lp0
V@austin_perea Also, I really don\u2019t have the bona fides to make that call. But I like the conversation!
p1
aV@austin_perea Peacing our without saying anything would also have qualified you.
p2
aV@austin_perea Cool. Ya that\u2019s the real New Yorker answer.
p3
aV@austin_perea Depends, did you make a fuss about it or  did you say nothing to anyone and peace...
p4
aVRT @GTM_Events: New England Solar &amp; Storage Forum has kicked off here in Boston with @Cory_Honeyman, our director of solar research. This e\u2026
p5
aVhttps://t.co/USHPPtiRz4
p6
aVThis is the best side effect of NYC dog ownership. We met more people in the three days after getting a dog than we\u2026 https://t.co/brQPjvR40A
p7
aV@austin_perea @Stphn_Lacey @Rottoturbine @CleanGridView @JigarShahDC @TheEnergyGang Also, because it\u2019s the Southern\u2026 https://t.co/risNe6c86k
p8
aVSome exciting personal news: https://t.co/TMRNh1dkm6
p9
aV@birsic Dimitri Martin says this best: \u201cI think vests are all about protection. Like a lifevest protects you from d\u2026 https://t.co/hPsC7Qdb27
p10
aV@ZackMunsell @nicole_wachtel I, Scott Moskowitz, hereby nominate Zackary Peter Munsell for the Nobel Peace Prize, i\u2026 https://t.co/zjAaBBpCEe
p11
aV@nicole_wachtel Wait. Kale has to be massaged to taste good? Does it come pre-massaged in the store? Or have I been\u2026 https://t.co/LNTt1bCHKJ
p12
aVRT @_fei_wang: Thread: My research insight on residential flexibility came out this week. 88 GW of potential by 2023 is a big number, so le\u2026
p13
aVThis is awesome! https://t.co/MlIVayduTk
p14
aV@Stphn_Lacey @TheEnergyGang What energy technologies would be most resillient in a worldwide zombie apocalypse?
p15
aVThis may be the biggest waste of $5.8 million bucks I can think of. Thank goodness that common sense has finally pr\u2026 https://t.co/jSUHwfltuj
p16
aVRT @GTM_Events: Nerds. https://t.co/KH8UqbIMOB
p17
aV"His role is to make the world a better place by conveying unconditional love and doing as many good deeds for othe\u2026 https://t.co/3JVyqoMuTV
p18
aVRT @CitiusMag: This song makes every sports moment better https://t.co/PeialX6IAU
p19
aVRT @DanFinnFoley: On the left, our federal government preparing for #Florence. On the right, @WaffleHouse doing the same. https://t.co/qqn4\u2026
p20
aV@ThompsonIsland Thank you, @ThompsonIsland! The island is such a special place and we couldn't be happier to suppor\u2026 https://t.co/NW7911mntK
p21
aVRT @ThompsonIsland: Meet Thompson! Newlyweds Christine and Scott recently adopted this little pup and named him after our island where they\u2026
p22
aVRT @GTMResearch: Led by Surging Residential Sector, Q2 US Energy Storage Deployments Grow 200% Year-Over-Year https://t.co/XXqkTA91Ym
p23
aVStumbled on this 8-yr old @KAnthonyAppiah article. What will future generations condemn us for? Agree with suggesti\u2026 https://t.co/EeuKwkLT4w
p24
aV\U0001f44f \U0001f44f \U0001f44f \U0001f44f \U0001f44f \U0001f44f \U0001f44f \U0001f44f \U0001f44f \U0001f44f https://t.co/haceehNqvE
p25
aVWell, I\u2019m sufficiently terrified. Seems like the key need here is strong regulation of corporations to address the\u2026 https://t.co/uprALvhPdh
p26
aVRT @DanFinnFoley: I've been seeing a lot of people responding to #SB100, California's 100% clean energy bill, with pure pessimism, and it's\u2026
p27
aVRT @GTMResearch: Solar on water, robots, and 2-sided panels, oh my: solar tech\u2019s near future  https://t.co/jcke5U7AWu A great piece by @drv\u2026
p28
aVThis article makes me enormously proud of Ben Gallagher. He does awesome work on super cool topics. Great piece\u2026 https://t.co/ihBhuZPWIR
p29
aVRT @greentechmedia: Here's a new prediction: Global lithium-ion battery deployments over the next five years will grow by 55 percent annual\u2026
p30
aVI just went from reading about blockchain companies to crying in like five seconds flat. https://t.co/zYd57UAuw3
p31
aV@ZacharyRWood @nytopinion @nytimes I enjoyed reading this. Thank you. You have amazing perspective. Looking forward\u2026 https://t.co/6tdIrXVQ07
p32
aVRT @EltaKo7: California (the world's 5th largest economy) passes a historic bill aiming for 100% carbon-free #electricity by 2045.\u000a\U0001f4a1what ca\u2026
p33
aV@ewesoff Hahah the subtle use of Yuan as the dominant currency is a nice touch \U0001f44f
p34
aVRT @Stphn_Lacey: A little news fiction this morning: @ewesoff reports from the 2022 auto show on Tesla's post-bankruptcy revival by GM, App\u2026
p35
aVI typically shy away from Tweeting these types of discussions, but this is worth posting. So many of our societal p\u2026 https://t.co/xbVODlW5t7
p36
aVRT @JMPyper: For thought: https://t.co/VKXFVCvSHP
p37
aVNFL players have been peacefully protesting for two years and it still has to be spelled out why. Everyone should b\u2026 https://t.co/P2x9nvDcZM
p38
aVRT @DanFinnFoley: A critical and timely piece from my colleagues @MitaleeGupta @RaviManghani @WoodMackenzie https://t.co/jWuSEOgXlh
p39
aVRT @GTMResearch: 1/ The electricity sector is undergoing a major transformation. And so are we. We\u2019d like to re-introduce ourselves https:/\u2026
p40
aVRT @ThompsonIsland: Volunteers from @GTMResearch get ready for a great day of volunteering! They are helping us to clear out our Family Lea\u2026
p41
aVThis is remarkable. Keep in mind though that these are capacity-weighted numbers. The average tracker project is mu\u2026 https://t.co/K845IPqiOk
p42
aV@Energy_Rich @espn Ok. So the reason he's currently a free agent is that he's bad at football. Gotcha.
p43
aVSo tons of cool stuff to pay attention to. Please read the report! And with that, I'm off to get married and then s\u2026 https://t.co/y4LVBZKPTJ
p44
aV...and if that's not enough, bifacial modules on trackers might be the last major step-function decline in the leve\u2026 https://t.co/HZJweFYXUs
p45
aV3) Tracker technology is extremely dynamic (see what I did there?). Costs continue to be pulled out and integrated\u2026 https://t.co/nwQAQUxFQl
p46
aVThe 10% Section 301 tariffs announced in July will affect imports of many finished PV tracker components imported t\u2026 https://t.co/MMkHE4GoSa
p47
aV2) Tariffs and steel price upticks have caused chaos for PV tracker buyers and sellers. Global steel prices were al\u2026 https://t.co/8eWnmEEBVr
p48
aVIt's also game on for global diversification. The U.S. will be the leading market for solar trackers through 2023,\u2026 https://t.co/8sv6FHOV7f
p49
aV1) Solar trackers are still the fastest growing racking segment and will continue to be over the next five years. https://t.co/cxpf9iOZ8T
p50
aVThe third edition of @GTMresearch's Global PV Tracker Report goes out today! Here are a few of the things that stan\u2026 https://t.co/tzj3ivtmRu
p51
aV@Energy_Rich @espn Sure, he was benched at times in 2016, but he played on a historically bad 49ers team and still\u2026 https://t.co/o9Me9mz4xo
p52
aVA top twenty list of NFL free agents that does not include @Kaepernick7 should not be taken seriously. Shame on you\u2026 https://t.co/PHzjNXBKmN
p53
aVRT @michelle_schmo: 1/ Check out some recent analysis I've published highlighting how major commercial solar markets are "unique snowflakes\u2026
p54
aVRT @greentechmedia: A Snapshot of the U.S. Market for Smart Solar Inverters https://t.co/2JIGIkh9f6 https://t.co/r1cNJU4Ag2
p55
aVRT @DanFinnFoley: It's never a bad time to plug this spectacular initiative from our amazing grid edge team. So proud to be working with co\u2026
p56
aVRT @hwitteman: That $35 that scientific journals charge you to read a paper goes 100% to the publisher, 0% to the authors. If you just emai\u2026
p57
aVI'm guessing this puppy will just be called whatever name is the exact nominal opposite of Mick Mulvaney. https://t.co/kSl0nTifqU
p58
aVRT @RaviManghani: What does it take for @ewesoff to write for @greentechmedia again? Two words: #batteries and #unicorn. @Volkswagen Invest\u2026
p59
aVWhat kind of society is this that lawyers expect the public to believe that the drunk male athlete remembers the si\u2026 https://t.co/B2IVN89idS
p60
aVHa World Cup announcer: \u201cSo far up 2-0! No homophonic chant! Everything is going well for Mexico!\u201d Not sure I\u2019d be\u2026 https://t.co/wN5FLw1Pz1
p61
aVLive view from @GTM_Events #GridEdge Innovation Summit. Here's to many, many more panels like this one. https://t.co/SvvIpjidfB
p62
aVRT @michelle_schmo: @LizFinneganDC @GTM_Events @LizFinnegan - we agree this is a tough problem and we work hard to recruit female speakers,\u2026
p63
aV"We weren't elected to do this." Um.....maybe they should be. This is a great article. I hope @realdonaldtrump take\u2026 https://t.co/nJJ35bAnMl
p64
aV@manan_parikh @JulianSpector @pujolrestaurant @Intersolar \U0001f64b\u200d\u2642\ufe0f
p65
aV@nicole_wachtel Only one way to find out?
p66
aVThis is a fascinating article, though I'm left wondering why @jeff_ball excluded investigation of Suniva's place in\u2026 https://t.co/0s5P3X9ZR3
p67
aVUh, cool. Can we start with championing maternity leave? Happy Father\u2019s Day, but this should read \u201cin addition to s\u2026 https://t.co/gHD5uhv58o
p68
aVCurrently unpopular but normally popular opinion: raccoons suck. https://t.co/kH0lXv8Mwx
p69
aVGood write-up on the Enphase-SunPower acquisition from the indefatigable @jmpyper https://t.co/IrtbQPiHyG via @greentechmedia
p70
aVUpdate to point #2. Enphase's official press release makes it pretty clear that they will be selling the new IQ7 32\u2026 https://t.co/kDJlsMboe0
p71
aVAnd shameless plug time. The most recent GTM source that contextualizes this announcement can be found here: https://t.co/FpHy4njvag
p72
aVEnd/ $25 million + 4.5 mil ENPH shares is ~ $59 million. No paltry sum, but this should contribute to Enphase's 30%\u2026 https://t.co/k8L4LwyPdH
p73
aV3/ No matter what, this instantly grows Enphase's market share, particularly in the U.S., where SunPower ships the\u2026 https://t.co/ECQ4N0aXmZ
p74
aV2/ The primary question is whether Enphase will sell its own microinverter to SunPower (in which case it is paying\u2026 https://t.co/4XV9B773aM
p75
aV1/ Some solar inverter market consolidation with Enphase buying SunPower's microinverter business (the former Solar\u2026 https://t.co/GQ3EUR7MMI
p76
aVDr. Gay sat front row in a presentation on solar technology evolution I gave at Solar Summit last month. I joked th\u2026 https://t.co/s0HUevoUW2
p77
aV@cody_a_hill Agreed. She really should have a gazillion followers. @solar_chase, I\u2019m looking forward to reading the\u2026 https://t.co/pNRXOZTLYa
p78
aVRT @bradplumer: Best piece I\u2019ve seen yet on China\u2019s sudden pullback of support for solar. Could mean way less Chinese solar (~20 GW) gets i\u2026
p79
aVRT @BrettSSimon: 1/ It's my favorite time of the quarter: my regular tweetstorm highlighting the latest findings from the U.S. Energy Stora\u2026
p80
aV@RaviManghani @drvox Haha ya I guess so. Later, @GTMResearch.
p81
aVRT @cmetelitsa: Hey #energytwitter - Grid Edge Innovation Summit is only 3 weeks away! Come watch me and the other brilliant @GTMResearch w\u2026
p82
aV@Patricia_Energy @realDonaldTrump Yes, but in spite of Trump, not because of him. His administration is actively at\u2026 https://t.co/cipH1hrYMx
p83
aVThere really needs to be a poop emoji for this @drvox thread with a frown or some Trump hair. The smiley one \U0001f4a9 just\u2026 https://t.co/6THRc9ieId
p84
aVThe perfect video for when your plane diverts to South Carolina and sits on the runway for two hours. https://t.co/axWbqTAHeV
p85
aV@DanFinnFoley @cmetelitsa @GTMResearch I'm going to request the code GTMPUPPY for my next @GTM_Events promo code. L\u2026 https://t.co/DUoUiYsX3o
p86
aVRT @JMPyper: PR's loss is a painful example of how #energyaccess is a literal lifeline. It goes beyond medical care to refrigeration &amp; bett\u2026
p87
aVI\u2019m so glad @DanFinnFoley is on Twitter now. https://t.co/AUlDgTQ0Gr
p88
aVRT @solarmj: This is by far the worst ICO ever https://t.co/xyCPDR0FJ2
p89
aV@Adam_S_James I'm just hoping that these targeted smart ads pick up on my love of dogs. I'd be much more inclined t\u2026 https://t.co/Wd6dbDRcnM
p90
aVRT @BrettSSimon: Getting paid to charge a #battery attractive but limited opportunity, ft. @DanFinnFoley https://t.co/wBtFFABuQd via @Utili\u2026
p91
aVI just want the internet to know that national treasure @Stphn_Lacey does not have a Wikipedia page nor is his\u2026 https://t.co/1gycsGUw2V
p92
aVRT @Stphn_Lacey: Honest to god, I have no idea how @JMPyper found the time to write this 7,500 word tome on California's solar roof mandate\u2026
p93
aVRT @greentechmedia: Trina Solar said Monday it will turn its partnership with Spanish tracker company NClave Renewables into a full-blown p\u2026
p94
aVRT @GTM_Events: We have so many amazing women confirmed to speak at Grid Edge Innovation Summit this year! @nationalgridus @Exelon @ConEdis\u2026
p95
aV@Adam_S_James I'm also very creeped out by the microtargeting suggestion. I'm worried there's a future where Twitte\u2026 https://t.co/9J2hST6U0N
p96
aV@Adam_S_James I'm considering ordering three pairs. One to run in. One to dissect for scientific purposes. And anot\u2026 https://t.co/3cXAVPmIMv
p97
aVDid Adidas solve the duck curve? These guys are moving pretty quick during the morning peak! https://t.co/yzpuOanmDH
p98
aV@Stphn_Lacey @shaylekann I agree. I just don't think they're the limiting factor. Like nobody is saying, "man, thin\u2026 https://t.co/cQkF3rZCfo
p99
aVThis was great. I give @shaylekann the nod. @stphn_lacey, power electronics? Important? Totally. Decarbonizing huma\u2026 https://t.co/IjWY5qAvtv
p100
aVRT @emmafmerchant: V informative and v timely. Check it out! https://t.co/NB4VdSeJ2M
p101
aV@Adam_S_James I\u2019m not against this but...counterpoint: What if you only need like one super important item that is\u2026 https://t.co/frz1ulIJRy
p102
aVRT @EltaKo7: .@SolarEdgePV getting closer to the #gridedge launching a #VPP solution and getting into #EnergyStorage through an acquisition\u2026
p103
aVOk, perhaps hate is a strong word here. I prefer they be called advanced, integrated, or even just next-gen inverte\u2026 https://t.co/r2iRtKuT6k
p104
aVTesla engineers worked on this for months, and @elonmusk figured it out in a single sit down? That really sounds li\u2026 https://t.co/YhYUVDyIcD
p105
aV@solarmj So you're saying it's describing the availability of complex software, and I agree with that. But by your\u2026 https://t.co/BVlQMTXmPK
p106
aV@Adam_S_James Totally, but Grid Edge refers to a specific sector of business and issues. Digitalization is specific\u2026 https://t.co/qHroWHuo6w
p107
aV@lidija_sekaric I agree with all of that. We're talking about controls, aggregation, optimization, etc., so softwar\u2026 https://t.co/iWhd23kct9
p108
aVRT @lidija_sekaric: @scottamoskowitz It just means "software" because it's: (a) cheap(er); (b) reconfigurable; (c) adds value. The biggest\u2026
p109
aVMy take is that digitalization is really just the merging of solar and energy storage with the grid edge. It's the\u2026 https://t.co/t6yHMha91Z
p110
aVNow, this isn't to say these topics aren't important. They are. @solarpowereu wrote a highly nuanced report last ye\u2026 https://t.co/Z3xKqkqdOV
p111
aVMeh! Now we're just applying the same jargon to virtual power plants. @solaredge announced their take on VPPs just\u2026 https://t.co/tQrk5OPP6p
p112
aVHow about this? Is this "digitalization"? https://t.co/jjbYFHSVhu (7/)
p113
aVNo! We're basically describing a distributed energy management system (DERMS), which is a term @gtmresearch has bee\u2026 https://t.co/pf1UWmmacj
p114
aVSo here's a quiz. Is this "digitalization"? https://t.co/vyRTxKXlCp (5/)
p115
aVIt's the same reason I hate the term "smart" inverters, which presumes other inverters are dumb. They're not. (4/)
p116
aVSecond, I've got an issue with the word itself. Calling it digitalization implies that earlier technologies aren't\u2026 https://t.co/dqy90IYC67
p117
aVFirst, the term digitalization doesn't describe anything. It's basically a catchall for a bunch of long-defined gri\u2026 https://t.co/KGKJZ4CiXk
p118
aVI've had thoughts brewing about the term "digitalization" and its use in the renewable energy industry. And I'll ju\u2026 https://t.co/A4phQSGPae
p119
aVRT @GTMResearch: Presentation highlights from #SolarSummit -- 2017 Was Weird For Solar. What\u2019s Coming This Year and Beyond? https://t.co/7v\u2026
p120
aVRT @almond913: Great article on what's going on with SolarCity/Tesla.@GTMResearch @WSJ @timkhiggins @ianthedugan \u000ahttps://t.co/Rx8BmqoCff
p121
aVBack to energy! Conference/trade show season is upon us. Kicking off today at the GTM Solar Software Summit. Follow\u2026 https://t.co/QXCeWZKQbU
p122
aVIf you follow pro runing and have ever run the loop in Central Park, you know how insane this is. 27:08 for 10K? Th\u2026 https://t.co/RSQppN4WHV
p123
aVRT @mikemunsell: Kanye on the future of electricity #gridedge https://t.co/wKTU6Q2gdr
p124
aVRT @nicole_wachtel: Know of anyone looking for a summer internship? @greentechmedia is hiring a solar/storage research intern: https://t.co\u2026
p125
aVRT @shaylekann: I'm biased, but the @greentechmedia #solarsummit is the best solar conference in the world. And I'll be there again this ye\u2026
p126
aVGTM's 11th annual Solar Summit is in TWO WEEKS! Been to San Diego before? Great! You know it's beautiful. Not been?\u2026 https://t.co/6MnHCfbIyO
p127
aVRT @Stphn_Lacey: On Monday, SolarWorld asked the government to exclude SunPower from solar tariffs. Today, SunPower made a bid to acquire S\u2026
p128
aVRT @GTM_Events: https://t.co/okmFCOEAfw
p129
aVRT @adambrowning: Want to go to the @GTM_Events Solar Summit? You should--it's an amazing lineup of pioneers of the clean energy future (in\u2026
p130
aVRT @chriscmooney: This report from @GTMResearch, combined with recent findings from @UNEnvironment, suggest solar is entering an era of ~10\u2026
p131
aVJust an unbelievable day in running. Incredible to see @des_linden and @kawauchi_yuki win the @bostonmarathon. Will\u2026 https://t.co/iBB3avO7FB
p132
aVGood luck to everyone running, supporting, volunteering, and spectating the #BostonMarathon. One of the best days o\u2026 https://t.co/UPco2BxbJA
p133
aVRT @MitaleeGupta: Come hear me talk about global storage markets, battery tech trends, supply chain and costs, at #ESACon18 next week. http\u2026
p134
aVSo I just listened to this and 1. @JMPyper, @ShaneSkelton, and @BrandonHurlbut are insanely smart. 2. Since he was\u2026 https://t.co/SuaOf2JTjp
p135
aVRT @mikemunsell: New podcast from @greentechmedia !! With @JMPyper https://t.co/CMFSedwlpk
p136
aVRT @GTMResearch: [REPORT] Global Solar PV Inverter Market Shares and Shipment Trends 2018 https://t.co/dptr2MACWh
p137
aVEnd/ The PV inverter market is clearly maturing, but it is still changing. Price declines for power electronics and\u2026 https://t.co/ofFPMTLLjB
p138
aV4/ It's also worth noting that ALL inverter segments grew in 2017. Three-phase string inverter shipments increased\u2026 https://t.co/0gAQx1o1PL
p139
aV3/ And those twenty vendors own more share than ever before. They accounted for 93% of shipments in 2017. That is t\u2026 https://t.co/F0iAZv3LVX
p140
aV2/ @HuaweiSolar, @SungrowPowerSCo, and @SMAsolar lead the PV inverter shipment rankings. TWENTY VENDORS SHIPPED MOR\u2026 https://t.co/nUS4w9EiTp
p141
aV1/ The latest global solar inverter market findings are available today from @gtmresearch. https://t.co/FpHy4njvag
p142
aVRT @almond913: Great article in the WSJ explaining recent struggles in the tumultuous residential #solar industry. And of course, great dat\u2026
p143
aVRT @croselund: Looks like li-ion batteries for #EVs and #energystorage to accompany #solar are not included in potential Section 301 tariff\u2026
p144
aVI quite like this typo. Also, yes. That is correct. https://t.co/YtjGzdkJGz
p145
aVRT @solarbenattia: 200 GW of PV?! The Saudi-Softbank MOU is exciting, but here's how you should really feel: https://t.co/J3Z6wNwApZ
p146
aVI appreciate this @chriscmooney @washingtonpost piece about the latest Saudi Arabia solar MOU. I automatically like\u2026 https://t.co/pGFFG60ksL
p147
aVSomeone give @drvox a prize for this. @greentechmedia is there a prize we can come up with? This is informative and\u2026 https://t.co/kHLXqKioOY
p148
aV@madmarkO That figure actually excludes shipments to Turkey, which we include with the Middle East and Africa in ou\u2026 https://t.co/JShUKBazXS
p149
aVStay tuned for more from @GTMResearch in the coming weeks.
p150
aV4. Shipments of solar inverters to Europe increased by 28% in 2017! That market had been declining or stagnant every year since 2012.
p151
aV3. The central PV inverter segment was flat in 2017, but every other inverter segment grew year-over-year.
p152
aV2. Three-phase string inverters outsold central inverters worldwide by 7 GW in 2017. In 2016, central inverter ship\u2026 https://t.co/PhpFsihbYT
p153
aV1. NINETEEN companies shipped more than a gigawatt of solar inverters in 2017. That's up from fifteen vendors the year before.
p154
aVGTMResearch is putting together its latest on the global PV inverter vendor and product landscape. We're not ready\u2026 https://t.co/UWoaRA89p4
p155
aVIt's Monday and we all need coffee, so let's re-up this offer for a $10 Starbucks card OR THE CHANCE TO WIN A DRONE\u2026 https://t.co/zXJHsvg3Fi
p156
aVRT @emmafmerchant: Trump's steel tariffs have created angst throughout the energy industry. In my latest column, I spoke with @GTMResearch\u2026
p157
aVWe'll be sharing the results with survey respondents and presenting them at the @greentechmedia Solar Software Summ\u2026 https://t.co/80MjEW8Ne4
p158
aVHey #solar folks, want a $10 Starbucks gift card or a chance to win a drone? Take the @GTMResearch/@FolsomLabs sola\u2026 https://t.co/OcHg8laRYZ
p159
aVRT @BillSimmons: https://t.co/8zJNLhCuqH
p160
aV@dcjams @ENERGY Has that always been the case or is that specific to the new administration? I\u2019m curious if this ha\u2026 https://t.co/A5KxpJhLVB
p161
aVAnd just your monthly reminder that the wall is racist, will have little to no impact on crime, and won't stop illegal immigration! \U0001f603\U0001f600\U0001f600
p162
aVWHERE ARE THE SOLAR PANELS!?!?!?!?! https://t.co/hdomDS7ylw
p163
aV@shaylekann Doesn't this beg a storage-specific follow-up to your "How Wealthy Are Residential Solar Customers" rep\u2026 https://t.co/GyZ7PgXnRm
p164
aVRT @GTMResearch: @scottamoskowitz @solarmj @greentechmedia @Stphn_Lacey https://t.co/KsrzYdsRh4
p165
aV@Stphn_Lacey @GTMResearch @solarmj @greentechmedia Hahah I\u2019m so pleased that I remembered the exact wording of this note.
p166
aVRT @JMPyper: New analysis: Trump\u2019s new steel and aluminum #tariffs could increase the levelized cost of energy for U.S. renewable power pla\u2026
p167
aV@solarmj @greentechmedia @Stphn_Lacey This reminds me of the sticky note in the old GTM office bathroom that said,\u2026 https://t.co/3DvJfm7HCY
p168
aVI feel pretty darn lucky to work with this group of awesome women. Happy International Women's Day everyone.\u2026 https://t.co/NXNEJSlUdo
p169
aVRT @Stphn_Lacey: This is a very important piece from @emmafmerchant. Is Puerto Rico witnessing green energy colonialism? She talked to a bu\u2026
p170
aVRT @algore: More positive momentum. Energy storage in the US is growing rapidly and may double this year according to @GTMResearch projecti\u2026
p171
aVThundersnow in NYC? Somewhere, @JimCantore is going nuts. https://t.co/IH95ndjzw8
p172
aVRT @BrettSSimon: 1/ GTM Research's 2017 Year In Review U.S. Energy Storage Monitor was published this morning. Let's dig into some of the k\u2026
p173
aVRT @Stphn_Lacey: Blockchain mania is sweeping the energy sector. @cmetelitsa has a killer new report tracking deals, the taxonomy, and pilo\u2026
p174
aVAll folks can really do is monitor the situation, stay informed and plan accordingly.
p175
aVAnd it's impossible to know how this will be resolved. It's far more complex than any Section 232 petition filed to\u2026 https://t.co/uj0K8i6Akl
p176
aV3. As it relates to solar, again, there's not much folks can do. The utility segment would be by far the most impac\u2026 https://t.co/1F7IduvmcJ
p177
aV2. There's a lot of uncertainty - in every industry - about how the tariffs would be imposed. Would they be retroac\u2026 https://t.co/Lx6HxBAs6t
p178
aVA few notes. 1. Folks have no idea what is included in the scope of the tariff. The language states "steel mill pro\u2026 https://t.co/m6W22yTuvw
p179
aVThis WaPo article does a good job outlining the steel/aluminum tariffs and Section 232.  https://t.co/pSzbLnhBhL
p180
aV2-4 cents per watt of uptick on a roughly $1.00 stack is significant. Not only that, there would be little to no wa\u2026 https://t.co/CVnIMpZpJa
p181
aVThis is important. The solar industry is just starting its adjustment to the new module tariffs. These would not be\u2026 https://t.co/ACi8WRYcij
p182
aVRT @MitaleeGupta: Check out our latest storage system price forecast.. https://t.co/YV3nXcqfSO
p183
aVRT @GTMResearch: For the first time, Latin America was the largest market for solar trackers, followed closely by the United States https:/\u2026
p184
aVRT @GTMResearch: Head of Americas @solarmj rebuts some statements by @POTUS on U.S. and Chinese solar manufacturing via @USATODAY @Sammy_Ro\u2026
p185
aVRT @_fei_wang: 1/Eversource's minimum monthly reliability contribution was approved for new net-metered customers in MA, the 1st IOU to imp\u2026
p186
aVThis is such a great piece of cross-cutting work from @GTMResearch's grid edge, solar, and energy storage teams. https://t.co/1fJs9TPIQ5
p187
aVSolar trackers are always fun to discuss. Thanks @BeckyBeetz and @pvmagazine for the interview. https://t.co/YNXP4YGJ7A
p188
aVRT @DanFinnFoley: The next five years in energy storage, a free report pulling trends and insights from @GTMResearch and industry professio\u2026
p189
aVWe also expect more consolidation in the PV tracker space. Some vendors will struggle in the near term while others\u2026 https://t.co/GSeBzhCWak
p190
aVBut the U.S. is now a minority of global solar tracker demand (28% of shipments in 2017 compared to 67% in 2016), a\u2026 https://t.co/fG4YzKq7Oc
p191
aVThere's a lot going on though. Prices are ticking upwards due to rising steel and shipping costs. Potential tariffs\u2026 https://t.co/YQoQvqW16Q
p192
aV@NEXTracker, @Arraytechinc, and @Soltectrackers lead the PV tracker market, but 11 vendors have now shipped more th\u2026 https://t.co/ERAU6R2Ti6
p193
aVGTMResearch's latest on the solar tracker market is available today. 14.5 GW shipped in 2017! That's double what wa\u2026 https://t.co/wzOhiPZzlQ
p194
aVThis is blockchain podcast number four, right? I think I'm gonna need at least five for it to really sink in. https://t.co/oxWB6FaMF0
p195
aV@Adam_S_James Ah, I was wondering who the Tesla manager was that the article says "could see the advantage" of this\u2026 https://t.co/McLTHhviF3
p196
aVI don't know where to start. The picture says it all. I appreciate out of the box thinking, but this......there's j\u2026 https://t.co/1hta8xnSJX
p197
aVIt\u2019s a glorious day. https://t.co/0bnmp4aASx
p198
aVRT @solarmj: An unfortunate situation but look at the comments - @Arraytechinc and @NEXTracker's CEOs (among many others) weighing in on fu\u2026
p199
aVRT @Stphn_Lacey: I like this story. And not just because I'm in it. As Alex says in the podcast, we're all "fellow travelers" on this crazy\u2026
p200
aV\u201cThis Is Us\u201d should be renamed \u201cThis Is Sad\u201d. Way more accurate.
p201
aVRT @shaylekann: Trump's new solar import tariffs have led at least two foreign producers to make plans for facilities in the US. But a US s\u2026
p202
aVRT @GTMResearch: According to our solar analysts, 2018 trends include a diversifying market, the proliferation of solar tenders, storage in\u2026
p203
aV@pv_techjohn @Solar_Editor Ha there\u2019s an American version of this game as well. GTM fields a pretty competitive tea\u2026 https://t.co/KWC0vnajk3
p204
aVEnd/ Overall, this follows many of the themes we laid out in our latest report on the global solar inverter market.\u2026 https://t.co/DHCu9iF128
p205
aV5/ Storage is a huge growth market, but as SMA points out and as GTM laid out in its first storage inverter report,\u2026 https://t.co/QAo9kWpwXt
p206
aV4/ Second, there is more detailed coverage and analysis of the storage inverter market than previously included. https://t.co/vS1CvESmu5
p207
aV3/ Everyone expects energy services to be a huge market. It's only a matter of when. SMA clearly believes that now\u2026 https://t.co/6pgrpE5QE6
p208
aV2/ It is very different from past presentations. First, there is a huge focus on digital services. SMA isn't the fi\u2026 https://t.co/tD6cmq5rp4
p209
aV1/ @SMAsolar's Capital Markets Day presentation is a fascinating piece on the future of solar, storage, and the gri\u2026 https://t.co/tO6UPQlPRp
p210
aVReally great article from Cedric @SOLICHAMBA. Who knew that competition and scale drove innovation?! Here I was thi\u2026 https://t.co/o6BIeGLVie
p211
aVRT @JMPyper: John McCain is going off on Trump\u2019s tariff decision. There are several more tweets like this... https://t.co/25BA8tkAel
p212
aV@solarmj @ddayen @jeffspross Agreed......and this article is being retweeted in high places (cc @chrislhayes). The\u2026 https://t.co/BzPlb2jLp0
p213
aVIt bears repeating, THIS is the conversation we should be having: https://t.co/giR7XFFQmT
p214
aVThere is merit to tariffs, but the reality here is they do not solve this problem and have immediate real-world imp\u2026 https://t.co/Po6v3gZwjx
p215
aVThe difference is, she KNOWS SHE DOESN'T GET IT, and would never pretend to. Trump's willingness to act with a demo\u2026 https://t.co/uXOsTcniYR
p216
aVIt reminds me of my wonderful mother, who no matter how many times I explain solar to her, doesn't really understan\u2026 https://t.co/Yf2ULvBC0R
p217
aVThe language itself shows Trump's lack of understanding or interest in the nuance of the tariff. It would almost be\u2026 https://t.co/0FUhRh5MSD
p218
aV"This is for solar products so that we\u2019ll be making solar products now much more so in the United States.  Our comp\u2026 https://t.co/w4z3vNhrvz
p219
aV"So this is panels and products \u2014 generally, solar. Potentially great industry in this country, but now we\u2019ll be ma\u2026 https://t.co/PVvdbhpbGv
p220
aVHere's the transcript of Trump signing new tariffs on solar cells and modules. \u000ahttps://t.co/DHaMwuIskA
p221
aVRT @Stphn_Lacey: This morning, we pulled together a GTM podcasting supergroup to answer your questions about Trump's solar tariffs. We cove\u2026
p222
aVRT @solarmj: By reductions to potential solar installations (in MW) over the next 5 years, here are the top 5 most impacted states by the n\u2026
p223
aVRT @shaylekann: Trump's solar tariffs are announced, largely in line with the ITC recommendations. https://t.co/3JYpxifWCo
p224
aVAlright. I\u2019ll watch. https://t.co/STb7pq1hCD
p225
aVThere's nothing like Atlanta local news after a little bit of snow, "Conditions are still treacherous out there....\u2026 https://t.co/jLfUSHIdqt
p226
aVI nominate golden retrievers for the 2018 Nobel Peace Prize. https://t.co/59O7UtpON9
p227
aVRT @GTMResearch: The Next Five Years in Energy Storage According to 500 Energy Professionals https://t.co/IvZJQWfy3F https://t.co/8moWBT5rji
p228
aV@Adam_S_James @shaylekann \U0001f914 https://t.co/iDprntiZPL
p229
aVRT @Stphn_Lacey: Trump's team is working on an aggressive trade crackdown agenda over the coming weeks that could include tariffs on solar\u2026
p230
aVRT @greentechmedia: The rate is 20 percent lower than the cheapest PV-plus-battery power-purchase agreement seen to date. https://t.co/Rr8O\u2026
p231
aVThanks, for a second there I was worried I might actually get some work done! https://t.co/fiHbpevTcU
p232
aVThread: https://t.co/wMbiRqNRIV
p233
aVRT @Stphn_Lacey: Corey, this was decided by Trump-appointed regulators. They rejected the proposed rule because it was legally flimsy. Anyo\u2026
p234
aVRT @greentechmedia: An @xcelenergy solicitation set a new solar-plus-storage record after attracting a median price of $36 per megawatt-hou\u2026
p235
aVThis article tastes like medicine. https://t.co/N0yA6V03sC
p236
aVThe field is 150 feet wide. https://t.co/kMpcc0d3nM
p237
aVRT @washingtonpost: The real star of tonight's national championship game https://t.co/pGZoQo57P8
p238
aVRT @sclavennaGTM: It was a real pleasure. Of course you think of the better responses after it\u2019s over. 1) I do have at least one regret: no\u2026
p239
aV(Takes deep breath, realizes this is still insane.) Have we lost our minds? This is not normal or okay. Why is cong\u2026 https://t.co/RUHTZqiAnS
p240
aV@solarmj @BenKellison @RaviManghani @BrettSSimon @MitaleeGupta Semi-related, why does GTM's most clever analyst, th\u2026 https://t.co/sVgZrRB4zG
p241
aVI think there's a GTM analyst or two (or ten) that may have an interest: @solarmj, @BenKellison, @RaviManghani,\u2026 https://t.co/JWzdnGxTi5
p242
aV@cmetelitsa @ColumbiaSIPA @greentechmedia And a move to Brooklyn to boot! Happy New Year! Cheers to an exciting and optimistic 2018.
p243
aVRT @adambrowning: Pleased to join the advisory board for @greentechmedia @GTMResearch 2018 Solar Summit. #energytwitter, what do you want t\u2026
p244
aVRT @Stphn_Lacey: 90 days without power for Puerto Rico! We\u2019ve NEVER had a 90-day outage for millions of Americans ever. Wow! https://t.co/a\u2026
p245
aVRT @greentechmedia: LightSail Energy Enters \u2018Hibernation\u2019 as Quest for Game-Changing Energy Storage Runs Out of Cash https://t.co/OS3nkfM6zW
p246
aV@solarmj Yes. That'll be eight golden retriever puppies with floating dog beds and solar-powered tracking collars f\u2026 https://t.co/o8fRLUjbEV
p247
aVRT @BrettSSimon: The 10 Stories That Defined #Energy #Storage in 2017. Looking forward to discussions on these topics at the U.S. Energy St\u2026
p248
aVRT @GTMResearch: The Trade Case Just Put $1 per Watt Solar Pricing Back Out of Reach https://t.co/cGRVfYuGKL https://t.co/yj4FirZqIT
p249
aVRT @GTMResearch: When this year comes to a close, we expect 8 countries will top the 1-gigawatt mark in annual PV installations. By the end\u2026
p250
aVThis is the conversation we should all be having: https://t.co/FSuCMnhPjN
p251
aVThe basis of Suniva's argument is sound, but the solution isn't as black and white as tariffs, which cause near-ter\u2026 https://t.co/o8B0GL0v5C
p252
aVSuniva op-ed from the Washington Post today. \u000ahttps://t.co/XvAO8lsjAX
p253
aVLooking for a Black Friday deal on some of these. https://t.co/1MaAw83Mn1
p254
aVRT @solarmj: Mark your calendars: CEO+Co-Founder @sclavennaGTM tells the @greentechmedia story on @joinpowerhouse's Watt it Takes podcast o\u2026
p255
aVRT @TEngelmeier: Lessons from Ethiopia's black market for solar panels from @anandm86 https://t.co/gQOLx4B90Z via @greentechmedia @tfedigit\u2026
p256
aVRT @GTMResearch: SolarCity Is No Longer the Top Residential Solar Lease Provider in the US https://t.co/HqihcXZ6Yp
p257
aV@BrettSSimon Ya, here's an actual photo of someone's mug. Super jealous of anybody who snags one of these bad boys. https://t.co/LmPUaJwECh
p258
aV@BrettSSimon Brett, is it true that if you use your code, you also get a mini Brett Simon GTM action figure and a m\u2026 https://t.co/vU5nz6hTiR
p259
aVFloating PV trackers are officially a thing. Now, if someone just finds a way to make a floating solar carport - a\u2026 https://t.co/33nP0IxcYD
p260
aVRT @Stphn_Lacey: The top of GTM today:\u000a\u000a\u2022 Musk puts hype machine into ludicrous mode, via @katiefehren\u000a\u000a\u2022 Perry's coal rule is straight fro\u2026
p261
aVThe guy 24 seconds in is NYC in a nutshell. https://t.co/eFQEbOjwnR
p262
aVRT @Stphn_Lacey: Good snapshot of the state of power electronics for solar. \u26a1\U0001f447 https://t.co/6xCmZf4iIM
p263
aVQuestion everything, right? https://t.co/QoYqsswbcR
p264
aVGood by the NYTimes to keep on this story: https://t.co/GrXTn9scRm
p265
aVSecond this. @BillWalton what do you say? https://t.co/FfkF26ngKU
p266
aVRT @greentechmedia: Solar Inverter Consolidation Will Continue: \u2018Prices Show No Sign of Stabilizing\u2019 https://t.co/aELeUH2ih5
p267
aVRT @nycmarathon: Emotions! @ShalaneFlanagan does it! Your 2017 #TCSNYCMarathon Champion!! \U0001f947\U0001f3c6\U0001f1fa\U0001f1f8
p268
aVRT @ChrisChavez: At an event tonight in NYC @EliudKipchoge was asked about the @sweatscience article on smiling &amp; running. Here's what he h\u2026
p269
aV@GTMResearch 6/ We're expecting a lot of the PV inverter industry over the next five years. Here are some of the ma\u2026 https://t.co/oepk3psSUg
p270
aV@GTMResearch 5/ Huawei, SMA, and Sungrow are the top three vendors globally. The market has become more concentrate\u2026 https://t.co/mTNCunpQkM
p271
aV@GTMResearch 4/ PV inverter pricing has actually stabilized in 2017, but it will re-accelerate downward with intro\u2026 https://t.co/77urx9zjvg
p272
aV@GTMResearch 3/ Energy storage inverters will make up for PV declines, but that market is still nascent. Our covera\u2026 https://t.co/djSY41b61t
p273
aV@GTMResearch 2/ PV inverter shipments will hit a record 88 GW in 2017, but revenue will decline through 2022 due to\u2026 https://t.co/AQJY7CjJD4
p274
aV1/ Today, @GTMResearch released its latest report on the solar inverter market. https://t.co/vx6fz8nYyB
p275
aV@nicolelitvak @shaylekann Thank goodness for puppies, right? https://t.co/O1IRyjQTYX
p276
aVStill no tweets from @nicolelitvak re: Jimmy G. I hope she's okay! https://t.co/9nvsOWmD9C
p277
aV@shaylekann drops the mic: https://t.co/X6XkxLhBUP https://t.co/4lCFAwbOTI
p278
aVA victory for common sense. https://t.co/kOHGReIJBl
p279
aVRT @Stphn_Lacey: In an op-ed for GTM, @MartinHeinrich doesn't hold back on Rick Perry's "crude attempt" to bail out dying coal plants https\u2026
p280
aVKD\u2019s face at 0:15 is fantastic https://t.co/AlEdAow9W4
p281
aV@manan_parikh @Chase That's literally a thing: https://t.co/OX8cZURL2Z
p282
aVThis is exceptional. Still not going to eat at Burger King, but this is exceptional. Well done, BK. Major props. https://t.co/we5ZaTq6e4
p283
aVRT @greentechmedia: The cost to install solar has increased for the first time in ages. https://t.co/5sEs5c7HD3 https://t.co/MuzC6SUdIH
p284
aVHuh. I see no solar panels on any of these. https://t.co/J6W5Mjju0o
p285
aVSome really strange bedfellows in the solar trade case. https://t.co/1HKNko7m4K
p286
aVRT @greentechmedia: The Potential Impact of Solar Tariffs in 12 Charts https://t.co/UPpVqZV0nP
p287
aVRT @SOLICHAMBA: Check out 7 global trends in #solar #pv #monitoring  identified in my recent report published by @GTMResearch: https://t.co\u2026
p288
aV@shaylekann @EltaKo7 Are those the same drones that will be soon be installing rooftop solar?
p289
aVRT @feiwangGTM: Insightful survey/analysis by @greentechmedia on the relationship b/w #utilities and #gridedge technology vendors /1 https:\u2026
p290
aVhttps://t.co/dFF5c19NHT
p291
aVRT @AtlantaFalcons: #TurboTaylor\U0001f680 and #JetJones\u2708\ufe0f training for Tokyo 2020? https://t.co/Ad00uyufN5
p292
aVRT @GTMResearch: US Residential Grid-Tied Energy Storage Will Overtake Off-Grid Storage in 2017 https://t.co/iZpXTeKbr5 https://t.co/RjzrD0\u2026
p293
aVRT @Stphn_Lacey: We have many policy tools to encourage US solar manufacturing. We don't need tariffs, argue @solarmj &amp; @shaylekann. https:\u2026
p294
aVRT @ChrisEvans: What did we do to deserve dogs? https://t.co/JbVPd3eeZ1
p295
aVFor the record, if the @AtlantaFalcons sign @Kaepernick7, I\u2019ll be first in line to buy a jersey.
p296
aVThis is so devastatingly racist and hypocritical (only white supremecists get luxury of free speech?). A heartbreak\u2026 https://t.co/vhNUfvZilI
p297
aVRT @solarmj: Official release by USITC on Section 201 decision. https://t.co/uZ0KSY0Enm
p298
aVRT @shaylekann: Re-upping this thread in light of today's affirmative ruling from the International Trade Commission. https://t.co/7N5PJ8dd\u2026
p299
aVRT @Cory_Honeyman: Solar Tariff Case Advances as ITC Finds \u2018Injury\u2019 https://t.co/LaiHIqf7Wo via @greentechmedia
p300
aVRT @shaylekann: Lots of foreign solar mfrs *talking* about setting up U.S. facilities bc of Sec. 201. But given timeline, very risky https:\u2026
p301
aVRT @goldensglee: PLEASE RETWEET and help animals in #Houston! They've been displaced and need our help! #HurricaneHarvey #dogs #pets\u000a\u000ahttps\u2026
p302
aVRT @BarackObama: Thinking about our neighbors in Mexico and all our Mexican-American friends tonight. Cuidense mucho y un fuerte abrazo par\u2026
p303
aV3) Consider donating now to organizations that will be called upon after the storm like https://t.co/9Tq3E8kVkL and https://t.co/D9e8bLnGZk
p304
aV2) P.R. is poorer than all 50 states. Hoping against hope that when all is said and done Congress will provide assistance as if it were one
p305
aV1) Extremely concerned about Puerto Rico given that it has weaker infrastructure than the rest of the U.S. and folk\u2026 https://t.co/FNCYlUMND3
p306
aVRT @shaylekann: It's long, it's wonky, but it matters. @Stphn_Lacey and I spoke with the lead on DOE's landmark grid report: https://t.co/k\u2026
p307
aVRT @GTMResearch: The Energy Gang Is Coming Back to New York City. Get Your Tickets Now https://t.co/mZUN9naWOQ @TheEnergyGang
p308
aVAnd here: https://t.co/MBBbers1wS
p309
aVHere: https://t.co/sHDwTpNVWq
p310
aVAlso, please donate to Harvey victims. Here: https://t.co/CXXX3VCoP6
p311
aVThis too. https://t.co/7IsVDjiJps
p312
aVStrong response to Bret Stephens latest column on Houston and long-term natural disaster planning. https://t.co/GeO2noyPVu
p313
aVRT @greentechmedia: Solar-Plus-Storage Poised to Beat Standalone PV Economics by 2020 https://t.co/vU6XaeHDsc
p314
aVJust totally floored by this piece of journalism. Unbelievable reporting. https://t.co/DcMg3TmaOc
p315
aVRT @stevemagness: "After a race like this, nobody cares about football." @jessewashington @espn https://t.co/V1wR4GBFEs
p316
aVRT @JMPyper: Exosun in Receivership: The Latest in a Fast-Growing, Fiercely Competitive Tracker Market https://t.co/Jw8LzHziJ2
p317
aVThis is very cool: https://t.co/yIFDrk4Yqb \u2026 https://t.co/qiN9ZU97JS
p318
aV@coupercox Hahah now that you've pointed it out that microwave sure looks a little funny...
p319
aVRT @bradplumer: Welp. Michael Lewis' piece on Trump's Energy Department is both incredibly insightful and also deeply unnerving: https://t.\u2026
p320
aVRT @JMPyper: In an interesting development, conservative groups ALEC and The Heritage Foundation have joined opposition to Suniva &amp; SolarWo\u2026
p321
aVSome Final Words From Outgoing GTM Editor Eric Wesoff https://t.co/llU95Opl8x via @greentechmedia
p322
aVRT @DCCleanEnergy: Inside the rise and fall of NRG\u2019s green strategy | GreenBiz https://t.co/E01sOtYW8i
p323
aVRT @solarmj: ...and this is what the @greentechmedia team does for kicks. No, I'm not mapped here thankgoodness https://t.co/xTqHwXRV6s
p324
aVRT @JMPyper: Leaked draft of DOE grid study says #renewables are not a threat. But will that language stay? https://t.co/k0Y3g6tpRa https:/\u2026
p325
aVRT @brianreports: Big scoop from @business' @ctraywick @AriNatter @jendlouhyhc. https://t.co/0PdrF7q7mu
p326
aVHistory will judge harshly. This matters, and it's beyond sad this "debate" is still a thing in 2017.
p327
aVIn which a lawyer/politician with executive power, heavily influenced by special interests, argues scientific fact https://t.co/8B5P4cRi8t
p328
aVRT @JMPyper: Perry indicated could be a "red team, blue team" exercise on #climatechange in testimony. @emilyhholden confirms: https://t.co\u2026
p329
aV@solarmj @greentechmedia Wait, GTM pays you? I thought we were all just friends! If I remember right, @Adam_S_James\u2026 https://t.co/RB3hLKiAOI
p330
aVRT @cohan_ds: @bradplumer Suniva's request for 78 c/kW minimum on panels to US tops the _installed_ cost of solar in India \u000ahttps://t.co/vf\u2026
p331
aVRT @shaylekann: What's happening with the new solar trade case: https://t.co/R4fg2JXmUc and why the risk is so high: https://t.co/NIWMTndYzu
p332
aV@chrisnickinson @jgault13 @dont_blink1 Tagging @Paulchelimo might help here.
p333
aVRT @GTMResearch: Will you be at Intersolar next month? Be sure to schedule a meeting with our analysts. Drop us a note at hello@gtmresearch\u2026
p334
aVRT @GTMResearch: Solar Costs Are Hitting Jaw-Dropping Lows in Every Region of the World https://t.co/eoQrtAoi6k https://t.co/TmGwBUY7yP
p335
aVRT @solarbenattia: An important step in the right direction: https://t.co/crNYdldJx8
p336
aVRT @GTMResearch: Suniva Trade Dispute Could Halt Two-Thirds of US Solar Installations Through 2022 https://t.co/51WLKItqZQ https://t.co/8ST\u2026
p337
aV@Stphn_Lacey opens the kimono and shares tons of @GTMResearch data with GTM Squared subscribers: https://t.co/EXDEPtxLnm
p338
aVCongrats to @Stphn_Lacey and the @TheEnergyGang for another milestone! Appreciate all you do. https://t.co/RA94yI44Af
p339
aVRT @GTMResearch: [REPORT] The Global PV Inverter and MLPE Landscape H1 2017 https://t.co/ySyy6Rts15
p340
aVRT @ErnestMoniz: I never left. https://t.co/JK76GiKaa9
p341
aVSolar is kind of like corn. Goes great in a field. Does well on a roof garden. It definitely doesn't belong on a ro\u2026 https://t.co/HtytFyUkWT
p342
aVThis sentiment should be repeated every single day the solar wall is still a thing. https://t.co/iwVMq4YBdu
p343
aV@greentechmedia There are many fantastic places for solar panels, but on top of a useless, racist border wall is no\u2026 https://t.co/efyZUgyFWK
p344
aVRT @nicolelitvak: But at least I know more than this guy... https://t.co/Tbr42l62tf https://t.co/SrZIuxaiI3
p345
aVRT @ramez: Coal India, the largest coal company in the world, closes 37 mines.\u000ahttps://t.co/0QnI1cjKnK
p346
aVRT @TheEnergyGang: We're giving listeners a sneak peek of next week's live podcast at the Grid Edge World Forum. (And a 15% discount!) http\u2026
p347
aVRT @austin_perea: Looking ahead, California's Q1 performance can tell us a lot about U.S. resi #solar: https://t.co/5gUHHxJNvu via @greente\u2026
p348
aV@ewesoff @Enphase More thoughts in the coming week with the release of GTM's latest Global PV Inverter and MLPE Landscape Report.
p349
aV@ewesoff @Enphase But tons of risk: Stalling U.S. resi demand, Suniva 201 petition, Huawei entrance. Many impedimen\u2026 https://t.co/M7PnQ1ucGd
p350
aV@ewesoff @Enphase Market trends support ENPH return to growth: Namely increasing safety protocols (NEC), growth of\u2026 https://t.co/IbzSD3W9dE
p351
aV@ewesoff @Enphase But conversation must continue to concentrate on execution. This SA article hits the nail on the\u2026 https://t.co/ScJ650nD5x
p352
aV@ewesoff @Enphase @Enphase product roadmap is highly focused on simplicity, as it should be.
p353
aV@ewesoff on @Enphase's latest analyst day presentation: https://t.co/otAP2s7X6l
p354
aVRT @Cory_Honeyman: .@GTMResearch \U0001f525\U0001f525\U0001f525takes from @austin_perea on the resi #solar downturn in California + US https://t.co/wP4Bf7R3v0
p355
aVRT @NYTSports: What cancer did to this runner: "It's like I lost all excuses for not pushing myself to reach my fullest potential.\u201d https:/\u2026
p356
aVRT @JamesFallows: A year ago, this job was held by MIT physicist. Before him, by Nobel  winner in physics \u000a Now by \u2026 Rick Perry! \u000ahttps://t\u2026
p357
aVRT @MLiebreich: @nicolelitvak Solar panels are full of tiny unicorns. The sun makes them happy, so they grab an electron and  gallop around\u2026
p358
aVOn the last day of her illustrious 5 years @GTMResearch, I'll permit a @nicolelitvak mic drop...as long as there ar\u2026 https://t.co/UyzBrlWPzq
p359
aVRT @GTMResearch: The Global Wind Market Enters a Period of Transition https://t.co/cPfvQ3sLJS https://t.co/ITd8hQeFrW
p360
aVRT @GTMResearch: [REPORT] PV System Pricing H1 2017: Breakdowns and Forecasts https://t.co/eu5ZUMTaG1
p361
aVRT @shaylekann: Welcome to the double-digit club, America. Wind+solar were &gt;10% of electricity generation for the 1st time in March https:/\u2026
p362
aVChill inducing article about Alex Honnold's climb - the last paragraph in particular. https://t.co/oHbGVny1JS
p363
aVIt's an all-star game. https://t.co/AnPe3ftyRl
p364
aVKiller scoop @AustinCarr @FastCompany
p365
aVI've been curious how Tesla roof cells would be connected. Turns out they're still working on that: https://t.co/3U9DDLnkMg
p366
aVRT @GTMResearch: U.S. utility-scale solar prices fell below $1 per watt for first time in Q1 2017 https://t.co/WaV0zB8Lut
p367
aVRT @RogerPielkeJr: Potentially huge for sport:\u000a"officials are believed to be building cases against athletes and Alberto Salazar"\u000ahttps://t\u2026
p368
aVRT @greentechmedia: Tesla\u2019s Solar Roof Was Code Named \u2018Steel Pulse,\u2019 and Musk Called the Prototype a \u2018Piece of Shit\u2019 https://t.co/HhAv9q1gZl
p369
aVRT @GTMResearch: Q1 2017 was the 6th straight quarter in which &gt;2 GW of PV and &gt;1 GW of utility-scale PV was installed https://t.co/WaV0zB8\u2026
p370
aVGood take from the Atlantic on using environmental causes to push alternate agendas - here as relates to solar wall  https://t.co/ZqtY9bDem4
p371
aVRT @RaviManghani: .@elonmusk "I quit your council"\u000aTrump "I'm going to build a yuge border wall of #solar panels &amp; call it #Powerwall" http\u2026
p372
aVRT @shaylekann: To be clear, this was a joke. But now....https://t.co/su6DWrveoM https://t.co/dDQi0bvYao
p373
aVAnd shall we not forget the baselessness of the wall to begin with! A racist, useless, relationship-killing idea.
p374
aVThere are plenty of fantastic rooftops and barren land begging for solar. And it's cheap to put it there.
p375
aVThis - along with solar roadways - is one of the least efficient and least cost-effective ways I can think of to install solar.
p376
aVIt's one thing for the layman to think this is a good idea, but for folks that make real decisions...
p377
aVI'm in shock that this is real. This is real? I can't believe this is real. https://t.co/WC5wsQ7rbQ
p378
aVRT @GTMResearch: US Energy Storage Market Experiences Largest Quarter Ever https://t.co/ISmsLvR6JM https://t.co/JnQiZ9U9VB
p379
aVPruitt's clearly a good attorney. Just makes me ask why a lawyer/politician heads the EPA. Same w/ DOE. This is sci\u2026 https://t.co/6ZyKb7c0To
p380
aVRT @greentechmedia: Nevada Legislature Passes Bill to Restore Net Metering for Rooftop Solar https://t.co/ypdjDbV9E4
p381
aVRT @GTMResearch: https://t.co/yPCF1g071d  --\u000a @shaylekann https://t.co/wGNp7SjWFg
p382
aVRT @shaylekann: My take: What an \u2018America First\u2019 Energy Policy Should Really Look Like https://t.co/uB7sFjo74j
p383
aVThe most impressive singular feat of athleticism, strength and focus I can think of.
p384
aVAs a climber, it's impossible to fathom. Can barely touch a 5.13a. Difficult to complete a move 1 foot off the ground, let alone a thousand
p385
aVTo do such sustained, world-class climbing for 4 hrs, with a mistake resulting in death...
p386
aVCompare to Nike sub-2 attempt. Consider purity of this climb. No aid. No fanfare. Had Kipchoge run 26 secs faster it wouldn't compare.
p387
aVWorth repeating how unbelievable this is. IMO the greatest athletic achievement in history. https://t.co/IbgEO68vnN
p388
aV@nytimes 7/ NYT should be more careful choosing its images. This one offends twice.
p389
aV@nytimes 6/ Two panels ballasted with rocks on a roof is not evidence of the major industry transformation underway.
p390
aV@nytimes 5/ And though a less serious offense, image is also proof that editors don't view solar as mainstream, in\u2026 https://t.co/mpZhCcVvP2
p391
aV@nytimes 4/ But here, they default to an image of poverty, which is totally demeaning when not specifically discussing poverty.
p392
aV@nytimes 3/ India is building massive, cost effective, state of the art solar plants to modernize its grid. That's the story.
p393
aV@nytimes 2/ Overall, this is a good piece about significant changes underway in the Indian and global energy industries.
p394
aV1/ @NYTimes should consider why it's compelled to use image of a barefoot kid on a tarpaulin roof for this article. https://t.co/1lg34qQ96t
p395
aVTotally amazing. Just impossible to fathom how he did this. https://t.co/npt5JPjH9u
p396
aVHard not to feel angry/sad/emotional about this. Will take time for the industry to process, but I imagine response\u2026 https://t.co/pxBven0Ne9
p397
aVRT @solarbenattia: Obviously this is a historically asinine decision. Nothing to gain, everything to lose, and resulting in irreversible da\u2026
p398
aVHometown making things happen.  https://t.co/e8Ev1zqRmJ
p399
aVRT @nytimes: Opinion: Read the full text of Mayor Mitch Landrieu\u2019s speech on the removal of Confederate monuments in New Orleans https://t.\u2026
p400
aVRT @GTMResearch: Verisk Analytics Acquires MAKE to Add Deep Wind Expertise to Wood Mackenzie and GTM https://t.co/hsvvJKE3YJ
p401
aVRT @AukeHoekstra: I made a graph showing the historic track record of the IEA in predicting solar: reality steeply increasing but IEA is ha\u2026
p402
aVhttps://t.co/VGRVH6ea5T
p403
aVRT @shaylekann: Overview of my keynote on the state and future of solar at #solarsummit2017. Part II to come tomorrow.  https://t.co/YU1i0F\u2026
p404
aVRT @GTMResearch: The preliminary results from the upcoming U.S. Solar Market Insight report are in https://t.co/TC6QyZruYb https://t.co/rHw\u2026
p405
aVRT @JMPyper: Interesting... https://t.co/cPEKXMpJ2M
p406
aVAdditional details regarding Tesla's solar roof: https://t.co/28D2t1Q0AW via @greentechmedia
p407
aVEventful day in solar. Sad news re:SolarWorld. Path forward is uncertain. https://t.co/dK2QBzfJiZ via @greentechmedia
p408
aV.@ewesoff Though to be fair, equally critical is how you use the inverter, which is a possible cause of TenK's issue.
p409
aVScoop from @ewesoff. A sad demise for an extremely ambitious company. Shows how critical inverter choice can be. https://t.co/X2TMaWa72F
p410
aVRT @ChrisChavez: Eliud Kipchoge just ran a marathon in 2:00:24. \u000a\u000a#Breaking2 https://t.co/sUIbsrlfxQ
p411
aVGTM CEO @sclavennagtm on 10 years of @GreentechMedia Solar Summit w/ special shoutout to GTM favorite @BillWalton! https://t.co/0O3hEreij7
p412
aVRT @ewesoff: Trump Selects Green Energy Policy Skeptic to Lead Renewable Energy and Efficiency Office at DOE https://t.co/IiFTRvEUOz via @g\u2026
p413
aVRT @JMPyper: Atlanta now the 27th US city to commit to 100 percent #cleanenergy -  https://t.co/jlMdCh6mYa
p414
aV@NatBullard @JMPyper Mine as well! Nice to hear.
p415
aVRT @JamesFallows: Claim is 100% false\u000a-If Trump knows and still says it, bad. Plain old lie\u000a-If he imagines it\u2019s true, worse. Ignorance / c\u2026
p416
aVStrong suggestions here from @johnupton @ClimateCentral re: @BretStephensNYT and the @nytimes https://t.co/oUCRGl0jBm
p417
aVWhy It\u2019s a Critical Time to Be at the Forefront of Solar Software https://t.co/9wnByFuAxB via @greentechmedia
p418
aVFrom @stphn_lacey, A Guide to the Latest Solar Trade Dispute: How Suniva\u2019s Petition Could Impact the US PV Industry https://t.co/DDQnO5U2dM
p419
aVRT @solarmj: Hearing that Suniva filed the Section 201 trade petition today @greentechmedia+@gtmresearch story from last week: https://t.co\u2026
p420
aVA really nice profile with some wise words and from my colleague @solarbenattia. https://t.co/fVCulzZipN
p421
aVIt is absolutely amazing (read: horrific) that this is still a thing: https://t.co/1dr7tiyMoT
p422
aVRT @jgault13: This is fascinating (and much cooler than it sounds): how spectators cross the street during the Boston Maraton.\u000ahttps://t.co\u2026
p423
aVRT @nicolelitvak: Less than a month until Solar Summit 2017 - stop procrastinating and register now! https://t.co/18MbPmyrbj
p424
aVRT @GTMResearch: Will Suniva\u2019s Bankruptcy Spark Another Solar Trade Dispute? https://t.co/7Ea22vgaJs
p425
aV@solarmj @GTMResearch Not much downside. You can make a tracker and build a bottoms up forecast. Not such a crappy\u2026 https://t.co/4yA13ixPcp
p426
aVRT @solarmj: I am going to be very disappointed if @gtmresearch doesn't accept my idea to create a solar poopchar market forecast https://t\u2026
p427
aVRT @ReutersSports: Rio Olympic marathon champion Sumgong fails drugs test: IAAF https://t.co/ouHd74RJdb
p428
aVRT @JMPyper: This KY coal mining museum just went solar... Just gonna let this speak for itself... https://t.co/LvjSo4MjHz
p429
aVRT @KevinMKruse: President's cuts to Interior: $1.5 billion\u000aPresident's check to Park Service: $77K\u000aPark Ranger's face: Priceless https://t\u2026
p430
aVRT @JamesFallows: So everyone\u2019s a winner! https://t.co/uYLvJFENd5
p431
aVThe Sungevity Saga: Is This Any Way to Run a Bankruptcy? https://t.co/6si1dzXAjV via @greentechmedia
p432
aVRT @CanadianRunning: VIDEO: Chaos and heartbreak. @gary_robbins' finish at the #BarkleyMarathons comes down to seconds &amp; confusion #BM100 h\u2026
p433
aVRT @MarkMuro1: And here's why automation matters more than Trump emissions easing for coal's dim future https://t.co/lJGsjzz7Rw @Revkin @vs\u2026
p434
aVClever work on Przemek Karnowski's Wikipedia page #Gonzaga #FinalFour https://t.co/7A5hOEOtMh
p435
aVRT @solarbenattia: 1/ @GTMResearch's latest global #solar demand view: China's crazy install vols largely sustainable, flip 2017 growth sto\u2026
p436
aVRT @greentechmedia: Utilities Are Bullish on Solar, Down on Coal Despite Clean Power Plan Rollback https://t.co/eckd9vULiv
p437
aVGood piece by @espiers, though @washingtonpost should have mentioned Gawker/Peter Thiel lawsuit in a disclosure\u2026 https://t.co/Reku63rtxY
p438
aVRT @greentechmedia: The Fallout From Trump\u2019s Review of Climate Rules: Uncertainty for Some, Opportunity for Others https://t.co/Pa5UxGAb1i
p439
aVRT @austin_perea: There are now twice as many solar jobs as coal jobs in the US - a small reminder: https://t.co/VBL2gJWSil via @voxdotcom
p440
aVRT @dog_rates: SHE DID AN ICY ZOOM AND KNEW WHEN TO PUT ON THE BRAKES 13/10 CANCEL THE GAME THIS IS ALL WE NEED https://t.co/4ctgpGcqAd
p441
aVRT @RaviManghani: We @GTMResearch have launched #energystorage service: end to end market coverage w/ data, analysis, insights &amp; more https\u2026
p442
aVRT @sclavennaGTM: 21 US States Have Energy Storage Pipelines of 20MW or More https://t.co/FJFCIZJsuj via @greentechmedia
p443
aVRT @nicolelitvak: Or just apply for this one at @GTMResearch: https://t.co/GF3Ofj0bZ0 https://t.co/gi7jqnxyUE
p444
aV@SenSanders Feeling the (solar) Bern! (solar burn? sunbern?)......(sorry \U0001f62c) @greentechmedia https://t.co/HZfnL2Mmyf
p445
aV@JamesFallows Apparently, good judgment is understanding that meetings with Russian oligarchs are innocuous:\u2026 https://t.co/7FKDgrXaMD
p446
aVRT @guardian: Chile\u2019s new \u2018route of parks\u2019 aims to save the wild beauty of Patagonia https://t.co/yu7tOopZ37
p447
aVRT @justinshanes: Meanwhile, at today's meeting on feline healthcare... https://t.co/wApNyFS7jz
p448
aVNice analysis from @jfaenergy @solarmosaic on resi solar potential w/ @googlesunroof and @gtmresearch @cory_honeyman https://t.co/UBSv61gMRy
p449
aVI think this is what they mean when they say "he really took his eye off the ball there." https://t.co/EhpDWQ1AWg
p450
aVExcellent use of graphic support in an article: NYT "Is America\u2019s Military Big Enough?" https://t.co/3lKzjJTYZ0
p451
aVThis was my first thought re:Trump laptop ban. Reasonable response to intelligence? Or airline power grab? Who knows https://t.co/EKl8QhLMzl
p452
aVLooking to do something great today? Donate to @DanaFarber in support of @GTMResearch's @Mj_Casey at @bostonmarathon https://t.co/Pav356Bomp
p453
aVRT @solarsamrise: Who said you can't have a little fun on the job? @solarjeni @SolarInMASS \U0001f600 https://t.co/JH1lT0c4yY
p454
aVRT @shaylekann: Per @ewesoff, Tesla/@solarcity has job postings for 36 roofers. Guess we know the solar roof channel strategy https://t.co/\u2026
p455
aV@shaylekann @ewesoff @solarcity and notice listings spread across 7 states. 23 in CA and the rest strewn through DE, MA, MD, NJ, PA and TX.
p456
aVRT @petridishes: REAL NEWS REAL NEWS https://t.co/Im4o2DkADb
p457
aVRT @Stphn_Lacey: The WH linked to a piece w/ the headline: "Trump\u2019s budget makes perfect sense and will fix America, and I will tell you wh\u2026
p458
aVRT @mollytempleton: This was in today's email from the White House. So clearly, literally no one read the linked piece by @petridishes, did\u2026
p459
aVJoin @GTMResearch analysis on the Futurology channel on @reddit at 1pm  eastern to ask us anything! I'll be answeri\u2026 https://t.co/hIflN4u7V5
p460
aVRT @Stphn_Lacey: Trump's newest DOE appointee is a massage therapist who thinks the Obamas are tied to radical islam: https://t.co/8tkiNTAq\u2026
p461
aV@stphn_lacey bringing the heat in this one: https://t.co/gRBKsvB1nm via @greentechmedia
p462
aVRT @crampell: EPA environmental justice leader resigns, amid White House plans to zero out program https://t.co/EJjHlN8R4l
p463
aVRT @GTMResearch: US Solar Market Has Record-Breaking Year, Total Market Poised to Triple in Next 5 Years https://t.co/RVLwdM0OcF
p464
aVRT @EltaKo7: How One US Startup Is Making Electrification a Bankable Business in Frontier Markets https://t.co/pQsMmalumo via @greentechmed\u2026
p465
aVDo Nike\u2019s New Shoes Give Runners an Unfair Advantage? https://t.co/gQUCZo9kYD
p466
aV"That omission might have confused some viewers." Well done, WAPO. https://t.co/davq0UEeE4
p467
aVA Lesson Trump and the E.P.A. Should Heed https://t.co/Tm8pIfFFvc
p468
aVRT @sclavennaGTM: In Shift to Longer-Duration Applications, US Energy Storage Installations Grow 100% in 2016 https://t.co/COQX1DlUXx via @\u2026
p469
aVRT @Bostonthefilm: Check out the trailer for #BostonTheFilm, narrated by Boston\u2019s own Matt Damon. Coming to theaters one night only... http\u2026
p470
aVRT @shaylekann: It's official: more residential solar customers buy than lease https://t.co/LoAOu7ZICZ
p471
aVTrump "believes" in spite of evidence. Since he doesn't read but does watch TV, his staff should show him this: https://t.co/AM6wJi9lbL
p472
aVComey Asks Justice Dept. to Reject Trump\u2019s Wiretapping Claim https://t.co/h1xSIzYHkz
p473
aVI miss @sullydish reg commentary, though learned as much from his fall NYMag article as from years of tweets/essays: https://t.co/RbzzhT0ZpF
p474
aVRT @NYMag: The grief of change, by @sullydish https://t.co/K37pUGmMQN
p475
aVWhen our national discourse has you down... https://t.co/5yaApdljkp
p476
aVRT @davidfrum: You normally wouldn\u2019t want to inform an adversary that your best defense against him had already failed https://t.co/jvHbYPx\u2026
p477
aVRT @mattkoff: Well, I'm glad he has his eye on the ball. https://t.co/Tiv20K3WTt
p478
aV@JoyceCarolOates 2016 DoD budget = $524 billion, 2016 NEA and NEH budgets = $148 million each so really only ~five hours when broken down
p479
aVRT @bill_easterly: The new trend is finding really unusual ways to lose. https://t.co/7CJ2k6Wv2C
p480
aVRT @greentechmedia: Where Does Energy Storage Fit in the Long Tail of Solar Installers? https://t.co/PmoFokFy4o
p481
aVNow Kushner? Might be easier to start asking who didn't meet with the Russians rather than who did. https://t.co/UzLULye409
p482
aVRT @umairfan: Rick Perry confirmed as Secretary of @energy - Current vote tally 60-37 https://t.co/aFoFLmHVU9
p483
aVRT @greentechmedia: Enphase Still Looking to Turn the Corner on Microinverter and Battery Profitability https://t.co/LrgKXEXOBE
p484
aVRT @austin_perea: Interested to hear what @TheEconomist has to say about renewables, but I don't think their being "intermittent" resources\u2026
p485
aVRT @chrisnickinson: Important thing to remember here: Russian government once again violating a US institution in effort to influence an ou\u2026
p486
aVWould be curious to see largest PV system with trackers. These appear to be fixed-tilt. https://t.co/fW2IXrCcOf via @grist
p487
aVRT @thesundaytimes: BREAKING: Leaked Usada report accuses coach Alberto Salazar of endangering Mo Farah with drugs https://t.co/49mHYbHkDR\u2026
p488
aVRT @jaketapper: I imagine it must be really annoying when someone puts out false info about where you were born. Must really bother you!!\u2026
p489
aVRT @breakground: Solar display atop parking lot across from @MBStadium, which is on track for #LEED platinum. #Falcons https://t.co/CTfISZ1\u2026
p490
aVRT @shaylekann: Here's how nearly 15 GW of solar gets built in one year. Data via @GTMResearch https://t.co/ZmyulWb8X7
p491
aVRT @GTMResearch: For the first time ever, US solar ranked as the No. 1 source of new electric generating capacity additions https://t.co/3X\u2026
p492
aVRT @Stphn_Lacey: A new solar system was built every 83 seconds in 2016. Solar made up 39% of all new capacity, beating natural gas. https:/\u2026
p493
aVRT @NBA: #KevinDurant up top for #RussellWestbrook for #TeamWEST!\u000a\u000a#NBAAllStar @NBAonTNT https://t.co/lXDtN6hIfu
p494
aVRT @BillSimmons: Russ and KD are back alley oops heal all wounds!!!!!!
p495
aVRT @greentechmedia: Scott Pruitt Is Confirmed to Lead the EPA, an Agency He Sued 13 Times https://t.co/NU3YWUOUCw
p496
aVRT @shaylekann: The U.S. installed 14.6 GWdc of solar PV in 2016, up 95% from 2015 and remarkably close to our beginning-of-year forecast (\u2026
p497
aV..he does nothing and permits them to continue. Some of those actors will see it as an implicit endorsement and eventually people will die.
p498
aVInstead of recognizing the problem and saying "I strongly condemn these acts, we're working with the FBI on each and every one of them..."
p499
aVThat's not hyperbole. He's unable to see the question isn't about him.
p500
aVIt's easy to say this isn't a big deal and doesn't matter, but eventually people will die due to answers like this. https://t.co/eqOm8tDyxH
p501
aVAtlanta's on the up-and-up. Just don't start rooting for the sports teams... #breakyourheart #ludacris #remix https://t.co/4HjWHAPAvN
p502
aVhttps://t.co/662bCskzGN
p503
aVWill @Cory_Honeyman find love this Valentine's Day? Nehhh. But here's his fantastic ode to community solar! https://t.co/qWxcq9mbz8
p504
aVI've seen this show. Frank Underwood wins. https://t.co/JhtKC54mBf
p505
aVRT @solarbenattia: Great presentations ahead on MX solar outlook from @manan_parikh &amp; @solarmj today @GTMResearch Mexico Client Briefing he\u2026
p506
aV"Atlanta" by Michael Vick in The Players' Tribune https://t.co/FaFeQRowFN
p507
aV@JigarShahDC @ShellenbergerMD You'd think the smog from eastern China would give Japan pause here, even w/ HELE tech https://t.co/x74nbeWuPY
p508
aV@letsrundotcom This tweet is why this thread exists https://t.co/tvJfZZZZie
p509
aVRT @GTMResearch: U.S. Community Solar Market Will Surpass 400MW in 2017 https://t.co/QDDkssEP90 https://t.co/lFbnMxhjAT
p510
aVFascinating little piece of transportation history. Breezewood sounds like a great spot for a Waffle House... https://t.co/D6Ma0IOQrL
p511
aVRT @JMPyper: Fake news is no joke. https://t.co/FZnugft5dQ
p512
aVThis feels like election night all over again #atlantafalcons #superbowl
p513
aVRT @nbcsnl: *lunges with podium* #SNL https://t.co/dam3OdX2FB
p514
aVRT @CBCOlympics: Trump ban adds to years of border hassles for Somali-Canadian Olympian, Mohammed Ahmed @Moh_Speed\u000ahttps://t.co/rAaPKkcvX8\u2026
p515
aVRT @BAA: The @baa and @ATLtrackclub have agreed to a friendly agreement based on the outcome of Super Bowl LI. Read more: https://t.co/rqCB\u2026
p516
aV@RockyMtnInst Solar carports in downtown Atlanta are a fantastic choice for a report cover. https://t.co/1s5MXGCw1n
p517
aVRT @BAA: Now THAT'S what you call a running streak! https://t.co/WmxSYu7omS
p518
aVRT @shaylekann: Well put https://t.co/JBqsiUwbTf
p519
aVObama rejects comparison between Trump's immigration policy and his own, encourages protests https://t.co/pSFQk1GaF9
p520
aV(4/4) ...Generalized "regulation" does not hurt small business. Policy uncertainty does.
p521
aV(3/4) ...I couldn't disagree more with Trump's diagnosis and childlike response...
p522
aV(2/4) ...in a role covering and working with many other successful small businesses...@sclavennaGTM
p523
aV(1/4) Anecdote can't fully retort systemic issues, but as an employee of a thriving small business...@greentechmedia https://t.co/eF49ZoBtJ4
p524
aVGreat overview of Trump's energy impact from week 1 by @jmpyper https://t.co/ONkIedGzoM
p525
aVHeartbreaking to think of all the heroes like @lopezlomong being shunned and turned away https://t.co/MvWaVJNJiu
p526
aVSunShot $1 per Watt Solar Cost Goal: Mission Accomplished, Years Ahead of Schedule https://t.co/q9boTzejGi via @greentechmedia
p527
aV\u201cThe Queen made me a knight, Donald Trump made me an alien.\u201d https://t.co/hFudTII0y6
p528
aVToday seems like as good a day as there will ever be to get a bit more active on Twitter.
p529
aVRT @GTMResearch: Highlights from our latest report on the global inverter market https://t.co/zLMfs1O6nm
p530
aVRT @GTMResearch: In Q3 2016, California became the first state ever to add more than 1 GW of utility PV in a single quarter https://t.co/9d\u2026
p531
aV@anandm86.....@sclavennaGTM is riding this bandwagon very hard https://t.co/EuZiLSbjhP
p532
aVRT @GTMResearch: Global PV Tracker Market to Grow 254% Year-Over-Year in 2016 https://t.co/At8dxa0cqI https://t.co/RexDtPXR4C
p533
aV@solarbenattia partially due to how they track/compare prjcts, which is at COD. Larger project, longer timeline, falling prices, less EOS
p534
aV@d9monti 163.3(b) infringement of the inside border
p535
aVRT @GTMResearch: 1,500-volt systems will make up 9% of worldwide utility solar installations in 2016 https://t.co/PRbEVLITOz
p536
aVInvestment Tax Credit Extension Would Increase US Solar Installations 54% Through 2020 https://t.co/1qu978baLn via @greentechmedia
p537
aVWill the US Mandate Module-Level Power Electronics in 2017? https://t.co/DokHsHHiQl via @greentechmedia
p538
aVRT @GTMResearch: Download this free Executive Briefing on the Future of Solar in the US by @shaylekann https://t.co/DNmZq29aLL https://t.co\u2026
p539
aVGlobal Market for Integrated Smart and AC Modules to Surpass 1GW by 2020 https://t.co/ui5sjThRAl via @greentechmedia
p540
aV@Mj_Casey challenge not accepted?
p541
aVWho Is Leading the Race for Advanced Energy\u2019s PV Inverter Market Share? http://t.co/wvFHJAza9k via @greentechmedia @nicolelitvak
p542
aVJoin me at #USSMI in San Diego! Use code FRIENDOFGTM for 15% off. Learn more here: http://t.co/sXpGkfGoan
p543
aVThese Are the Top 10 Inverter Vendors in the United States http://t.co/GyLKCHjZ3Q via @greentechmedia
p544
aVThe Next Opportunity for Utility PV Cost Reductions: 1,500 Volts DC : Greentech Media http://t.co/Q3Or14kR5f via @greentechmedia
p545
aVRT @GTMResearch: 6 Solar Inverter Companies to Watch in 2015 http://t.co/HKkYcurqFl by @scottamoskowitz
p546
aVRT @greentechmedia: RT @GTMResearch: 3 Strategies for Globalizing PV Inverter Sales http://t.co/a2jem4ynEd http://t.co/i7L5WLq1E0
p547
aVRT @GTMResearch: BREAKING: Global Shipments of PV Inverters Will Exceed 50 Gigawatts in 2015 http://t.co/97ARZWi1FZ
p548
aVRT @washingtonpost: The best idea in a long time: Covering parking lots with solar panels http://t.co/ZCO23RmKqr http://t.co/8SxAEU0oz7
p549
aVRT @AtlantaBeltLine: The Atlanta Streetcar is here http://t.co/bBvxNyU4L8
p550
aVRT @greentechmedia: Breaking: SunPower Buys VC-Funded Microinverter Startup SolarBridge http://t.co/5857K7gXuK
p551
aVSolarCity and Zep Spice Up the Solar Carport Race http://t.co/EfLxzLWJwt via @greentechmedia
p552
aVEnphase Intros New Microinverter and O&amp;M Service Aimed at Commercial Solar : Greentech Media http://t.co/hqtR3uhlBO via @greentechmedia
p553
aVRT @MarkFHand: Solar carports surging in popularity. My interview with @GTMResearch's @ScottMoskowitz: http://t.co/xp12HDo6Li #solar http:/\u2026
p554
aVRT @GTMResearch: US Solar Carport Market Poised for Record Year, Continued Growth http://t.co/c3WJJUBOlL
p555
aVRT @GTMResearch: Does Yaskawa\u2019s Purchase of Solectria Make Sense? @solarmj and @scottamoskowitz give it a B+ http://t.co/FSmwlhaGiP
p556
aVRT @GTMResearch: \u201cThe future of solar isn\u2019t about \u2018if\u2019 the industry will grow, it\u2019s about \u2018how\u2019 the industry will grow.\u201d http://t.co/Hljbs2\u2026
p557
aVFrom @GTMResearch and @GreentechMedia: New Tariffs on Chinese solar modules to raise US prices by 14%. http://t.co/6tI6v2Oyad.
p558
aVChina lowers solar target from 14 to 10 GW, in line with market realities - still world's largest PV market in 2014. http://t.co/eoQSV7lLrw.
p559
aVThe new ebook from @Stphn_Lacey and @greentechmedia - http://t.co/eZ5nIF381A   - Resiliency: How Superstrom Sandy Changed America's Grid.
p560
aVThe first Global Solar Bulletin from @GreentechMedia courtesy of @ewesoff and @Adam_S_James - http://t.co/WGa6DByL8r.
p561
aVRT @McKinsey: Reports of #solar's death have been greatly exaggerated: @McKQuarterly @McKSustainable on its potential: http://t.co/uZOJagLD\u2026
p562
aVHow Romania Became a Gigawatt-Scale Solar Market and What\u2019s Next http://t.co/qBWbvcz5Ac via @greentechmedia
p563
a.