(lp0
V@ItsWilliamD yo ikr
p1
aVwow. 1 day shy of not tweeting for 2 years. pretty crazy
p2
aV@_WilliamD_ @_FatNick n
p3
aV@RepJohnYarmuth i drew you in my art class https://t.co/jCD9ESngGT
p4
aV@manglethefoxtoy. Stop children whatsbyhay sounr
p5
aV@JohnKDelaney ive been behind you for president since day 1. I cant wait to see you in thw white house #delaney2020
p6
aV@AlmightyMandals when are you next streaming. Dont want to be mean but can you do it sometime after 1pm arizona time
p7
aV@AlmightyMandals i hope you havent forgot about me. when are you gonna steam again. im icecaprisun if you remember
p8
aV@meechonmars happy late bday
p9
aV@Araki_Hirohiko wuz poppin boi
p10
aV@AlmightyMandals  do you still live stream. Sorry i havent watched you since may
p11
aV@AlmightyMandals any new videos coming out soon
p12
aV@razzadoop happy birthday
p13
aV@John_Carney run in 2020
p14
aV@GovernorMarkell run in 2020
p15
aV@timkaine i know ur not committing voter fraud. But if you did i wouldn't be mad because we need you and not trump. #ImWithHer
p16
aV@timkaine tim you are my hero. I would love if you were president. But i wont stop supporting you two untill the end of time #ImWithHer lvya
p17
aVRT @HillaryClinton: If a candidate begins his career running a company that discriminates against people of color, what kind of president w\u2026
p18
aV@HillaryClinton happy birthday. Lets work on making a stronger america
p19
aV@SnoopDogg happy bday
p20
aV@AlmightyMandals have u watched the pinecone fall on newyears
p21
aVRT @NateWantsToBtl: *drinks soda*\u000aIt's okay I had a salad\u000a*eats 3 cookies*\u000aIt's okay..I had a salad?\u000a*eats 4 whole pizzas*\u000aIt's..Okay..I..\u2026
p22
aV@realDonaldTrump if you believe lgbt people should have rights then why did you chose mike pence. i hope you have a mediocre day.
p23
aVCheck out this site!
p24
aV@JustinTrudeau why are you so awesome
p25
aV@Matthiasiam #AutoIncorrects https://t.co/KrDz6CpsyS
p26
aV@Matthiasiam wheres todays video
p27
aV@Matthiasiam #autoincorrect https://t.co/S91SIT1wBq
p28
aV@Matthiasiam https://t.co/rinE87zOej
p29
aV@BillNye  hoe often do you use Instagram because i added you in a group chat
p30
aV@AlmightyMandals  where b the stream
p31
aV@johngreen did you vote for bernie
p32
aV@JohnKasich hey governor. i have an idea choose Arnold Schwarzenegger as your running mate to help you in California and he endorsed you...
p33
aV@EricaSmegs as much as i support you and feel very sad for your mother its not the gun manufacturers fault that that happened
p34
aV@realDonaldTrump real photo of you. Ps i hate you bey https://t.co/75i7GY4EFB
p35
aV@AlmightyMandals get better bro
p36
aVRT @AlmightyMandals: Sorry, everyone, but I'm calling off today's stream. The depression is pretty bad today, so I don't think it'd be a go\u2026
p37
aV@Aviv_swim if you there you wanna play showdown
p38
aV@Aviv_swim are you streaming tonight m8
p39
aV@Aviv_swim do you wanna play showdown on skype?
p40
aV@Aviv_swim showdown?
p41
aV@Aviv_swim are you streaming tonight
p42
aV@JimmyWhetzel vote for bernie
p43
aV@harto are you voting fr bernie
p44
aV@HollyConrad are you voting for bernie
p45
aV@bwecht are you voting for bernie
p46
aV@JonTronShow are you voting for bernie
p47
aV@ProJared are you voting for bernie
p48
aV@GameGrumps are you voting for bernie
p49
aV@razzadoop are you and the other grumps voting for bernie
p50
aV@PeanutButterGmr voting for bernie?
p51
aV@chuggaaconroy did you vote for bernie
p52
aV@TamashiiHiroka are you voting for bernie
p53
aV@hankgreen are you voting for bernie
p54
aV@PeanutButterGmr are you voting for bernie?
p55
aV#FeelTheBern
p56
aV@BernieSanders Bernie, I've been with you since the beginning
p57
aV@Senpai_Bot_ but i didnt tweet to you. How did you see my tweet? :[
p58
aV@BernieSanders notice me senpai
p59
aV@Pontifex i aint religious but i think you are awsome
p60
aV@AlmightyMandals may i recommend one day you do a a stream where you fight either in showdown or in oras/xy the people watching youre stream
p61
aV@AlmightyMandals is you streaming
p62
aV@Aviv_swim skype and showdown?
p63
aV@AlmightyMandals get well soon mandalls. ps i loved page
p64
aV@MunchingOrange who did you vote for in the election. PLS BERNIE
p65
aV@AlmightyMandals are you streaming tonight
p66
aV@Aviv_swim wanna play showdown on skype
p67
aV@AlmightyMandals next stream?
p68
aV@TamashiiHiroka why are comments disabled for most videos
p69
aV@TheKingNappy is wtw over
p70
aV@realDonaldTrump sup asshole
p71
aV@eddsworld im gonna miss this channel : (
p72
aV#BernBrighter
p73
aV@AlmightyMandals you streaming today?\u000am8
p74
aV@AlmightyMandals will you be streaming tonight
p75
aVif bernie does not win i think we should still vote for hillary
p76
aV@AlmightyMandals i'd hit that ass
p77
aV@Aviv_swim are you streaming tonight
p78
aVbernie for prez
p79
aVbecause he is a racist bigot. #NeverTrump
p80
aV@marcorubio wait what? a republican thats not an idiot. WOW
p81
aV@HillaryClinton stupid stupid loser
p82
aV@realDonaldTrump stpid stupid loser
p83
aVRT @SenSanders: Your ability to vote shouldn\u2019t depend on whether you have a car or how much money you have.  It\u2019s your right, plain and sim\u2026
p84
aVI use wikipedia every day  https://t.co/5M94zYELXz #wikipedia15
p85
aV@GavinFree WHY DO you follow trump?
p86
aV@realDonaldTrump MR Trump, your choice to to ban Muslims makes as much sense as your hairstyle. Sincerely your biggest hater
p87
aV@MrDwarfman who are you why follow me
p88
aV@Stegalina95U4 who are you and why do you follow me
p89
aV@RoosterTeeth I love you guys
p90
aV@RoosterTeeth the carolina reaper
p91
aV@Aviv_swim whens the streame starting
p92
aV@Aviv_swim 1 hour hype
p93
aV@Aviv_swim whats youre twitch
p94
a.