(lp0
VRT @RealBaileyking: Instead of working in a bipartisan manner to make comprehensive, common-sense, and humane reforms to our immigration sy\u2026
p1
aVRT @ZachWahls: Just knocked on the door of a woman in Coralville who is from Texas and voted absentee for @BetoORourke. Can't be upset abou\u2026
p2
aVRT @MatsonForHouse: "All eyes will be on Ankeny on election night.  Matson is one of Democrats\u2019 top-targeted races... This is one of the be\u2026
p3
aVRT @Scholten4Iowa: Endorsed by The Storm Lake Times! \u000a"We can change history on election day...  White supremacy and fascist nationalism is\u2026
p4
aV#USAoverNRA #MAGA #BlueWave #GOTV
p5
aVRT @thebucksdaily: FINAL SCORE:\u000aMilwaukee Bucks: 144\u000aSacramento Kings: 109\u000a-\u000a22 three\u2019s + Giannis triple double = win \U0001f44c\u000a\u000a#FearTheDeer https\u2026
p6
aVRT @BBallTipoff: Milwaukee Bucks blowout Sacramento Kings\u000a144 to 109. Giannis increases his MVP credentials. \u000aTriple Double on a high compl\u2026
p7
aVRT @CobleRandolph: Federal Judge Orders Georgia's Brian Kemp to Unblock Thousands From Voting https://t.co/WG1jDFQO4V
p8
aVSee this @Judgepete81. Judge rules against vote thief @BrianKempGA. Go @staceyabrams! #GOTV #BlueWave https://t.co/cFoWg1Y6xw
p9
aV"Nearly one-third of U.S. households paid more than 30 percent of their incomes for housing in 2016."\u2026 https://t.co/cC3fDgmLJn
p10
aVA couple of rich people create a stunning new art museum in Maryland.  #Glenstone https://t.co/uqBLNWyicV
p11
aVWhen you come to Iowa, @MayorOfLA, maybe you could talk about bridge housing or "A Bridge Home" that could be adapt\u2026 https://t.co/9f8rfjnvSu
p12
aV#SundayThoughts #sundaymorning #innovation #greenenergy Bolueta, a 289-feet and 28-story residential high rise in B\u2026 https://t.co/VZFz1p9Q7X
p13
aVAmericans spend 30% of income on housing.  Accessory Dwelling Units could help alleviate housing shortages, help ho\u2026 https://t.co/vwCHxgOLqe
p14
aVRT @EWarner04: We won\u2019t be stopped by long driveways or steep hills. #GOTV #EveryVoteCounts #BlueWave https://t.co/S7FS9pQlRa
p15
aVRT @FettforIowa: On a day like today, I\u2019m more thankful than ever for our hardy volunteers. You bring the \u2614\ufe0f, I\u2019ll start the \u2615\ufe0f https://t.c\u2026
p16
aVRT @BetteMidler: Millennials, and all people of good will....DON'T BOTHER WITH THE POLLS! Remember 2016, when they swore @HillaryClinton wa\u2026
p17
aVRT @Vote4Dems2020: @ABC Republicans have been risking the well-being of a nation by feeding their base propaganda for decades.  Now they ri\u2026
p18
aVWhen Watergate player finds POTUS scummy, you know @realDonaldTrump is bottom of the barrel. #BlueWave #GOTV\u000a"Histo\u2026 https://t.co/qb5UTTE0p3
p19
aVRT @JohnWDean: Trump\u2019s is making the long nightmare of Nixon\u2019s Watergate seem like a brief idyllic daydream. History will treat Nixon\u2019s mor\u2026
p20
aVRT @DemWrite: \u201cTed Cruz says he supports veterans, but he has voted against us at every opportunity.\u201d \u000a\u000aRepublicans like Cruz love to send\u2026
p21
aVHe doesn't even have to wear a costume to scare the bejeezus out of people.  #MAGA #BlueWave2018 #GOTV #Resist (Pic\u2026 https://t.co/A35h9IjgDj
p22
aV@staceyabrams should easily be the next governor of Georgia but unethical (he should have resigned) and entirely de\u2026 https://t.co/zyJDez6brI
p23
aVHoly Crap.  @realDonaldTrump is the antithesis of any messiah. Ask @SteveKingIA what antithesis means.  Vote for sa\u2026 https://t.co/1T7ARCDwru
p24
aVRT @brycetache: The GOP thinks we\u2019re scared of black people. Brown people. Trans people. Immigrants. People of different faiths &amp; cultures.\u2026
p25
aVI just activated @Tweet_Delete on my account to automatically delete my old tweets (https://t.co/o4zxh5R8Jp)!
p26
a.