(lp0
VRT @fred_guttenberg: To every politician who I have supported since Jaime's murder, I am asking you to SPEAK now.  We cannot wait and I wil\u2026
p1
aVRT @brianstelter: Speaking about the synagogue attack, Trump said "if there was an armed guard inside the temple, they would have been able\u2026
p2
aV@FoxNews @EricTrump Yes. \u201cSick and deranged\u201d. So, let\u2019s keep it so very simple for people just like him to have eas\u2026 https://t.co/6kWtoITsir
p3
aVRT @DanRather: \u201cI swore never to be silent whenever and wherever human beings endure suffering and humiliation. We must always take sides.\u2026
p4
aVSomeone said, \u201cthere are no words.\u201d But there are. So many words. I can no longer accept or even try to understand\u2026 https://t.co/PnAHX2qtRQ
p5
aVRT @RepSwalwell: The President just blamed the #PittsburghShooting synagogue for the parishioners it lost. \u201cThey should have had an armed g\u2026
p6
aVRT @robreiner: As long as Trump takes no responsibility for his part in inciting violence, which he will never do, we will see more and mor\u2026
p7
aV@fred_guttenberg Don\u2019t ever stop fighting. Don\u2019t let these horrible people stop you - let\u2019s all take their words an\u2026 https://t.co/smmUndC6EL
p8
aVRT @DocBruce_Banner: I have been a lifelong Republican since the age of 18. This November I will vote a straight Blue ticket for the first\u2026
p9
aV@wolkitout This is EXACTLY how I remember your parents. #graymoor
p10
aVIn the words of @Lin_Manuel...\u000a\u000a\u201cTell your brother that he's gotta rise up. Tell your sister that she's gotta rise\u2026 https://t.co/amwCIoXr0w
p11
aVPlease tell me the toilet paper video is real. Please, oh please!
p12
a.