(lp0
VRT @Ojeda4congress: Please Retweet! Right now Donald Trump is hosting a fundraiser for Carol Miller. She can keep her lobbyists and corpora\u2026
p1
aVWhat a beautiful moment. Congratulations! https://t.co/0RYssEmRK2
p2
aVRT @ThompsonWVHouse: Don\u2019t forget to vote! Vote for Cody Thompson.  Democrat for WV House of Delegates 43rd District.  It\u2019s time for change\u2026
p3
aV@BobT854 Thank you!
p4
aVRT @AngHRevolt: WV ALERT - MAY 8th primary.  Get out &amp; vote.  A few Revolution candidates - @paulajean2018 - senate.  House of Delegates ca\u2026
p5
aV@AngHRevolt @paulajean2018 @VickersForHouse @maryannclaytor @ThompsonWVHouse @SeeSammiRun \u2764\ufe0f
p6
aV@AngHRevolt @paulajean2018 @VickersForHouse @maryannclaytor @ThompsonWVHouse @SeeSammiRun Thanks for all you\u2019re doi\u2026 https://t.co/ZXF08kb8DW
p7
aV@AngHRevolt @paulajean2018 @VickersForHouse @maryannclaytor @ThompsonWVHouse @SeeSammiRun Running in 36th, just thought I\u2019d let you know!
p8
aV5 days away from our WV primary. Can you donate $5 to help us secure a victory in WV\u2019s 36th House District. Learn m\u2026 https://t.co/XztTdBZreg
p9
aVRT @Ojeda4congress: This Guy! If you live in his district...VOTE FOR HIM! If you don\u2019t, send him $5! https://t.co/DtFPThuZ6Q
p10
aV@Ojeda4congress Looking good! https://t.co/zXQywleCuf
p11
aVRT @bmastersc: @Ojeda4congress We need the TURNOUT to VOTE to be a LANDSLIDE! Get out to VOTE in the MAY 8 primaries for @Ojeda4congress @K\u2026
p12
aVRT @paulajean2018: #UniteOurFight\u000a#PaulaJean2018\u000a#InvestingInOurselves https://t.co/svVH7IJT6N
p13
aVRT @bmastersc: WEST VIRGINIA is bursting at her beautiful seams with amazing candidates! Get registered to vote  by THIS TUESDAY, APRIL 17\u2026
p14
aV@ballotpedia Thanks for covering my campaign. Love your site, very informative! \U0001f499
p15
aVRT @ballotpedia: Rep. Blake Farenthold (R-Texas) resigns from Congress amid sexual misconduct allegations: https://t.co/IumT9LY7TB
p16
aVDisgraced GOP Congressman Blake Farenthold, what a joke! Using $84,000 in tax-payer money to pay your settlement fo\u2026 https://t.co/qmoQogdCbV
p17
aVThanks for your endorsement, @OurPoliticalRev. I will be fighting for West Virginia in the WV House of Delegates! O\u2026 https://t.co/VQjKSnPQsM
p18
aV@OurPoliticalRev Thank you so much for endorsing my candidacy for the WV House of Delegates, Dist. 36. I\u2019m proud to\u2026 https://t.co/HZ59xY5QQK
p19
aVRT @WVFDW: Clint Casto (no photo provided), James Elam, Amanda Estep-Burton, incumbent Andrew Robinson, and incumbent Larry Rowe are the De\u2026
p20
aVI\u2019d be honored to be your next #Delegate for #WestVirginia\u2019s House District 36. Openly gay candidate, law enforceme\u2026 https://t.co/7kPrdfjuOM
p21
aVHappy Easter, West Virginia! From my family to yours, I pray God continues to strengthen and sustain you; that he r\u2026 https://t.co/G5YjyOkjzo
p22
aVRT @wvdemocrats: #TBT: What do you say we send @EdGaunchWV back to that "cushy life" come November? #RememberInNovember #wvpol https://t.co\u2026
p23
aVWe need $1,500 to reach our goal. Can you help us? https://t.co/AQpQZppo4x. A vote for #Elam in the WV House of Del\u2026 https://t.co/0PnUNbSG4f
p24
aVRT @elamforhouse: Looking for $3 donations for my political campaign. Let\u2019s see how many we can get! https://t.co/AQpQZppo4x #RT #wv #westv\u2026
p25
aVAlways speak truth to power.
p26
aVRT @wvdemocrats: Delegate @pushkinforhouse says let\u2019s start a People\u2019s Caucus! What do you think? #wvdems https://t.co/fPDytaN6VO
p27
aVPraying for healing and unity in #WestVirginia We are #55Strong &amp; #55United and I am proud to stand w/ #wvteachers\u2026 https://t.co/kdBUDXij17
p28
aVProud former Corrections Officer standing with our #teachers #WestVirginia is leading the country in these protests\u2026 https://t.co/5QMZs4w4ry
p29
aV#55Strong Proud to stand for #WestVirginia and hope to get your support in May &amp; November. I\u2019m a progressive Dem. O\u2026 https://t.co/NsfkLrBJfO
p30
aV@davidhogg111 Running for the House of Delegates in West Virginia, and am former Law Enforcement. I\u2019m really proud\u2026 https://t.co/efAmbhlVVB
p31
aVRT @paulajean2018: #UniteOurFight #WVpol #SupportFellowProgressives https://t.co/3GlLLeaOiq
p32
aVRT @officialdaniwv: Standing together on one accord supporting Cannabis legalization and coal miners\u2019 black lung benefits. @paulajean2018 @\u2026
p33
aV@ctpdenver @RollingStone Thank you!! \u2764\ufe0f\u2764\ufe0f\U0001f4aa\U0001f3fb\U0001f46e\u200d\u2642\ufe0f
p34
aVRT @LlysseWylle: "There is a #revolt brewing in WV politics. Last Friday Lissa Lucas, an author &amp; celebrated backyard chicken farmer from C\u2026
p35
aV@RollingStone Thank you so much for mentioning my #campaign for the #WestVirginia House of Delegates, Dist. 36. I\u2019m\u2026 https://t.co/pNmq63e4RP
p36
aVCheck out our campaign mentioned in the Rolling Stone Magazine! A Progressive Revolt Is Brewing in West Virginia\u2026 https://t.co/ehoEAVbdyJ
p37
aV@JustinNobel contact me when you can! :) @ 608-719-8580
p38
aV@RollingStone @JustinNobel Hey Justin, I noticed the link associated with my name is a deactivated GoFundMe page..\u2026 https://t.co/0POJuhmvsA
p39
aVRT @ReblaFlaruh: @jonomonroe He deactivated all of his social media but his name is Menos Hiras and he attends West Virginia university.
p40
aVRT @jadeINDIE: You\u2019re better than this @WestVirginiaU. This is unacceptable behavior from a student. Racist and threatening comments like t\u2026
p41
aVRT @thirsty4waters: Good morning, @WestVirginiaU.  No need for \u201creviewing potential violations of the Student Code of Conduct\u201d\u2014I\u2019ve already\u2026
p42
aV@paulajean2018 @MVFCUpshurCo @billmaher @LlysseWylle @Ojeda4congress @kernermatt @SelinaVickers Thank you, Paula! I\u2026 https://t.co/YhChanXQxC
p43
aV@Vote4USA2018 \u2764\ufe0f
p44
aVRT @NCBerniecrat: Candidates endorsed by r/political_revolution\u000aJames Elam (D) - WV State House - 36th district\u000aLissa Lucas (D) - WV State\u2026
p45
aVRT @Ojeda4congress: Anyone want to help me flip WV-03? Let's do it together! #OjedaIsBetta #wvpolitics \u000a\u000ahttps://t.co/zbfpNIyS4A https://t.\u2026
p46
aVGood morning, West Virginia. I\u2019m James Elam and I\u2019m running for the House of Delegates in District 36. Watch and\u2026 https://t.co/Z1XpNGM1DN
p47
aVWe are trying to raise $5,000 for our House of Delegates campaign to expand #LGBT protections, #legalize  #cannabis\u2026 https://t.co/BbXISowKLd
p48
aVI\u2019ll always fight for you, West Virginia. https://t.co/w7c9WbfXxA
p49
aVRT @Ojeda4congress: We need to rethink this war on drugs that Jeff Sessions is so unusually obsessed over and decriminalize marijuana \u000a\u000ahtt\u2026
p50
aV@IamAnuNaik It definitely would. Healthcare should be treated as a right not a privilege. Thank you for you kind words!
p51
aV@IamAnuNaik I\u2019ll be sure it\u2019s added!
p52
aV@IamAnuNaik &amp; raising the wage to $15/hr.
p53
aV@IamAnuNaik I do.
p54
aV@IamAnuNaik I also stand in support of Net Neutrality, urging WV\u2019s Attorney General to sue the FCC. https://t.co/wDnTmHQagK
p55
aV@IamAnuNaik My platform is on my website! Can\u2019t fit it all in a tweet. LGBT protections, legal cannabis, criminal j\u2026 https://t.co/lNKzUdOxVn
p56
aV@IamAnuNaik https://t.co/1rxuq0Kmpm
p57
aVI need you, West Virginia! @ James Elam for House of Delegates https://t.co/XXMWGPKYzr
p58
aVI need your help! Youngest gay man to run for WV Legislature! Spread my campaign around and let\u2019s Move West Virgini\u2026 https://t.co/I6WImP5re5
p59
aVRT @Ojeda4congress: I've travelled all across WV-03. I have put my boots on the ground in all 18 counties many of which several times. I've\u2026
p60
aVLIKE &amp; SHARE. Important campaign announcement! \u000a\u000aKANAWHA CITY, W.VA.\u2026 https://t.co/hahcQqM3oa
p61
aVRT @Ojeda4congress: If your elected official is not willing to stand up for the working class citizens then you have to ask yourself....who\u2026
p62
aVJames Elam: A correctional officer's take on fixing the WV prison system https://t.co/q42cZr4pj2 via @wvgazettemail
p63
aVI\u2019m running for office in West Virginia because #love is love. I will #Resist #Trump as much as need be. We will\u2026 https://t.co/NDnSnaLrOR
p64
aVThanks for the happy birthday wishes. Much love. \U0001f499\U0001f49b
p65
aVBest way to support my campaign? Leave us a small donation @ https://t.co/AQpQZppo4x?amp=1 We won\u2019t take corporate\u2026 https://t.co/yCaIPAAdYt
p66
aV@wvdemocrats @MorriseyWV @Ojeda4congress I was proud to stand with @Ojeda4congress today (furthest to the left) in\u2026 https://t.co/Bt0iCq6Thx
p67
aVRT @Ojeda4congress: If you get a chance, go support @elamforhouse campaign! James is running in the 36th house district in West Virginia an\u2026
p68
aV@SarahKSilverman I appreciate what you did for Jeremy w/ back pain. As the youngest gay candidate in WV for the Sta\u2026 https://t.co/4Z2o4cKNFF
p69
aV@cenkuygur @TYTPolitics @TheYoungTurks Hey guys! Just an update, I\u2019ve officially filed for the primary and general\u2026 https://t.co/VpHQCXCaD4
p70
aVRT @pushkinforhouse: Officially filed for reelection this morning. I hope to earn your support during the upcoming session by seeking commo\u2026
p71
aVYou can\u2019t just censor and violate the First Amendment simply because you don\u2019t like what it says. This is America.\u2026 https://t.co/wajkTW2xKj
p72
aV@realDonaldTrump @jeffsessions Why don\u2019t you guys go after real drugs? You\u2019re seriously going to stop at nothing to\u2026 https://t.co/jRoldnwJl2
p73
aV@sadpotus45 @cenkuygur @TheYoungTurks @sadpotus45 Thank you! \u2764\ufe0f I appreciate it very much!
p74
aV@TYTPolitics Thank you for having me! You are helping WV realize her potential and elect true progressives to serve\u2026 https://t.co/oCrLh8dUxt
p75
aVRT @TYTPolitics: Former Correctional Officer @Elamforhouse Runs In West Virginia\u000a\u000aWatch the full video HERE: https://t.co/Wu9r6YkUd2 https:\u2026
p76
aV@RastaMonkz @cenkuygur @TheYoungTurks Thanks Jeff! I can\u2019t wait either.
p77
aV@VictoryFund Hello guys! I\u2019m the youngest openly gay man running for the WV House of Delegates (36 District) and ju\u2026 https://t.co/phyXFmIrti
p78
aV@TheYoungTurks @cenkuygur Here is also our ActBlue account. I\u2019m refusing corporate donations and special interests.\u2026 https://t.co/NeK0bTQ7VF
p79
aVRT @TheYoungTurks: https://t.co/g5kykYjIH1
p80
aV@feathersnpaws @cenkuygur Thanks! \u2764\ufe0f
p81
aV@cenkuygur Thanks for having me on @TheYoungTurks #RebelHQ I really appreciate you helping me move West Virginia Forward. \U0001f499\U0001f49b
p82
aV@paulajean2018 @cenkuygur Thanks guys! See you tomorrow @cenkuygur
p83
aVAs we get closer to my interview with @cenkuygur this Wednesday, Jan. 3, 2018 8PM ET, I am asking for any help poss\u2026 https://t.co/7Yda1ctHml
p84
aV@smwandling Sure send me a message and I will get back to you tonight or tomorrow in  my inbox.
p85
aV@smwandling Anyway we can market and brand my campaign throughout the District. Really want to spread the message so we can help the people.
p86
aV@Ojeda4congress Thank you so much, @Ojeda4congress
p87
aVAs we enter into the New Year I am praying for civility and wisdom. For both myself and for the leadership in West\u2026 https://t.co/QZmQ50ZUN1
p88
aVHappy New Year!
p89
aVhttps://t.co/y3DcRzdgus
p90
aV@cenkuygur Thank you so much for having me on your show on Jan. 3, 2018. I appreciate it so much! I won\u2019t stop unti\u2026 https://t.co/Iksnrh1hy3
p91
aVRT @paulajean2018: I want to personally thank @cenkuygur for interviewing #WV candidate @elamforhouse ! #eyesontheprize #unitingourfight
p92
aVMy exclusive interview with @WOWK13News talking about the #StateofEmergency declared by @WVGovernor As your\u2026 https://t.co/EDDjPxwXcl
p93
aVDiscussing my campaign.  https://t.co/bR7NSzqqzP
p94
aV@LGBTEqCaucus My name is James Elam. I\u2019m a former Corrections Officer and the youngest openly gay man to run for th\u2026 https://t.co/HlBsIAGQS3
p95
aV@BuzzFeedLGBT Youngest openly gay man to run for the West Virginia Legislature. I have a Law Enforcement background\u2026 https://t.co/nzx7qrZtHy
p96
aVTough as nails. Tough progressive for West Virginia House of Delegates. (36th) I\u2019ve spent a long time working as a\u2026 https://t.co/cB6q7jHkoD
p97
aV@justicedems My name is James Elam\u2014you may not know me, but I hope this will shed some light on my campaign. I\u2019m th\u2026 https://t.co/60GLUirQJ9
p98
aVGuys I need your #help! I am the youngest #gay man to run for the West Virginia Legislature. We need more\u2026 https://t.co/Ye8xnBoKYc
p99
aVI guess this is what we\u2019re up against in #WestVirginia politics. #Really #Democrats #HoldYourGovernmentAccountable\u2026 https://t.co/CMN0pBnbY8
p100
aV@repjocasta I\u2019m an openly gay candidate for the W.Va. House of Delegates\u2014former Corrections Officer, and used to li\u2026 https://t.co/CDZBC2D3P2
p101
aVI need your help to be #elected as a #Delegate in the #WestVirginia #legislature for the WV #House District 36. I\u2019m\u2026 https://t.co/YZ6Et56oVc
p102
aVHey guys, #follow my #campaign for the #WestVirginia #House (36th) to be as elected as your next openly gay delegat\u2026 https://t.co/y4TXWbBMJV
p103
aVMerry Christmas! \U0001f381
p104
aV#Retweet if you #love #pizza \U0001f355 and love #Christmas We\u2019ve had pizza every Christmas Eve for nearly the last five dec\u2026 https://t.co/zPQLggGcCd
p105
aVRT @KS_VOTER: Progressive Candidates who WORK for YOU the PEOPLE and POWERED by YOU the PEOPLE.\u000a\u000aA list of Progressive Candidates 2018 by S\u2026
p106
aVLooking for $3 donations for my political campaign. Let\u2019s see how many we can get! https://t.co/AQpQZppo4x #RT #wv\u2026 https://t.co/aJI82rsxgU
p107
aVRT @elamforhouse: I\u2019m running for the West Virginia House of Delegates in the 36th District because I believe in #equality for all. This is\u2026
p108
aVRT @ChurchGr8Oval: James Elam is a 21 year old, openly gay Democratic Candidate in West Virginia.\u000aWhat courage and dedication. Perhaps our\u2026
p109
aV@ChurchGr8Oval Will do! Thank you!
p110
aV@ChurchGr8Oval Also sharing the campaign really helps!
p111
aV@ChurchGr8Oval Any support or small donations help. All available here https://t.co/AQpQZppo4x
p112
aV@BattMoyle @YoBenCohen Also a reason I\u2019m a friend to the cannabis industry, would love bring jobs, tourism, and mon\u2026 https://t.co/lQJB3RuPOp
p113
aV@BattMoyle @YoBenCohen If you\u2019re referring to the War on Drugs. Total failure. Full supporter of legalized marijuan\u2026 https://t.co/YTDHt2oiBA
p114
aV@ChurchGr8Oval Thank you so much! :) you rock!  \u2764\ufe0f\U0001f64f\U0001f3fb
p115
aV@YoBenCohen Thanks for your efforts to #GetMoneyOut of politics. I am running a very grassroots campaign in West Vi\u2026 https://t.co/FUAUC0rZNR
p116
aV@shlomothehomo I encourage you to check out our entire campaign as well as social media. Also, if viewed on a mobil\u2026 https://t.co/RafVlfGSot
p117
aV@shlomothehomo I\u2019m close friends with Paula Swearengin, who is affiliated w/ JD. I\u2019ve tried reaching out to organiz\u2026 https://t.co/bmlsvRwFZ4
p118
aV@shlomothehomo I am definitely progressive. https://t.co/1rxuq0Kmpm and you can learn all about me :)
p119
aV@shlomothehomo Thank you so much. We rely heavily on small campaign contributions. The link to donate is on my bio at my website.
p120
aVRT @paulajean2018: .@justicedems and @BrandNew535  candidates are not backing down! It's time for the working class to have working class r\u2026
p121
aVLike us on Facebook @ https://t.co/OzcO3tTjLE
p122
aV#Follow me for updates on my #campaign for the #WestVirginia House of Delegates 36th District. #democrat #lgbt #gay\u2026 https://t.co/7LIdufeCvn
p123
aVI\u2019m running for the West Virginia House of Delegates in the 36th District because I believe in #equality for all. T\u2026 https://t.co/fC0z0TE7BF
p124
aV@smerconish I was a Corrections Officer in WV. Now a candidate for the WV House of Delegates. Youngest openly gay c\u2026 https://t.co/eWlUWPgCSo
p125
aV@falazar Couldn\u2019t agree more. 45 needs to go!
p126
aVRT! Small #campaign #contributions accepted @ https://t.co/AQpQZppo4x if you\u2019re against #Trump and the #GOP w/ thei\u2026 https://t.co/iQdSYGwjDd
p127
aVI\u2019m a former Corrections Officer. I don\u2019t care to say that I think Donald Trump is dangerous. Need action against t\u2026 https://t.co/3aO09YxvZV
p128
aV@GenXer4Progress @4aPeoplesParty I would argue you still should my platform is as progressive as it gets. If not, I\u2026 https://t.co/nkvvISPuD1
p129
aV@shipman96 ... throw people off insurance. The GOP will stop at nothing to rob the middle-class of everything we ha\u2026 https://t.co/Hz5d2jMwv0
p130
aV@shipman96 For profit prisons are wrong. I was a Corrections Officer because I was compassionate and wanted to help\u2026 https://t.co/a6kvgtBuu6
p131
aV@shipman96 Check out my Facebook page. I\u2019ve been posting updates on my platform in regards to all of those issues you just addressed.
p132
aV@TYTPolitics https://t.co/1rxuq0Kmpm James Elam is the #Youngest openly #gay man running for #WestVirginia\u2026 https://t.co/SPw2gZW6Qi
p133
aV@MichelleLamberr Thanks!
p134
aVStand up against #Trump and the #TaxScamBill, fight for #CHIP #FundCHIPNow and #follow my #campaign for the\u2026 https://t.co/YItjzamQiv
p135
aVNot just a #Democratic #politician\u2014I also have a #LawEnforcement background as a former #CorrectionsOfficer elect\u2026 https://t.co/6jNrgag2p3
p136
aV@DoobiusGamer Much love! \u2764\ufe0f
p137
aVPlease RT to spread my campaign! #dem #blue #wv #democrat #lgbt #policy #WomensChampion #WomensHealth #ProChoice\u2026 https://t.co/8uXrYbssVa
p138
aVOh man! I\u2019m CRYING\U0001f602\U0001f602\U0001f602\U0001f602 https://t.co/MxJX4DepCR
p139
aV@Sen_JoeManchin As a dem. candidate for WV House - 36th, the ability to get basic health care SHOULD NOT be up for\u2026 https://t.co/6tFVyuGuUC
p140
aV\U0001f49b\U0001f499Please Like &amp; Share, my ActBlue account is set up, and you can now\u2026 https://t.co/EQdu1U87fJ
p141
aVPlease Like &amp; RT, my ActBlue account is set up, and you can now donate easily to my campaign!\u2026 https://t.co/J8cOqCLKej
p142
aV@paulajean2018 @kernermatt @BrendaWeese @rustywilliams00 @PunchinNazis365 @justicedems @OurPoliticalRev\u2026 https://t.co/OgynFUc6gv
p143
aVRT @paulajean2018: Stand up for our Dreamers! #OurDream #uniteourfight https://t.co/Gy0awwioFp
p144
aV#Follow my page! Let\u2019s Move #WestVirginia Forward! https://t.co/1rxuq0Kmpm RT #retweet
p145
aVI\u2019m a former #Corrections #Officer and #politician from #WestVirginia running for the #HouseofDelegates as a\u2026 https://t.co/B9pzPgnVxh
p146
aV#Vote #Elam in #WV #HouseofDelegates in 2018. I\u2019m the youngest #gay candidate to run for office in #WestVirginia\u2026 https://t.co/XuXKpe7ura
p147
aV@funder Somebody should tell that to Roy Moore.
p148
aVRT @RWPUSA: Great way to celebrate Veterans Day. Put down a former U.S. Secretary of State and your own CIA, but trust Putin. https://t.co/\u2026
p149
aVRT @funder: .@realDonaldTrump-You need to resign immediately. Everyone who retweets this agrees. #TrumpResign https://t.co/AxVIaw3oIq
p150
aV@WOWK13News Thanks for the interview discussing #Corrections #reform as a former #CorrectionsOfficer and now\u2026 https://t.co/FB7N3oSoft
p151
aV@JamesReader_RP Thanks for the follow! Hoping to make West Virginia a more progressive state.
p152
aV#Elam running for #WestVirginia #HouseofDelegates #wv #politician #democrat #justice #gay #lgbt #usa #freedom #pride #work #love District 35
p153
aV#Proud to be #gay. Even more proud to be from #WestVirginia #lgbt #gay #wv #politician #equality #democrat #progressive #liberal #politics
p154
aVI love #WestVirginia hopefully I can be your next #democratic #delegate in the #HouseofDelegates #wv #democrat #lgbt #gay #love #equality
p155
aV@WaltAuvil No problem! :)
p156
aVWe love you #LasVegas sending #love from #WestVirginia. This needs to stop, #America. We are #better than this. #Vegas #LasVegasShooting
p157
aVI'm raising money for James Elam for House of Delegates. Click to Donate:  https://t.co/klehpB7pLa via @gofundme #wv #democrat #lgbt #elam18
p158
aVObamacare Repeal Vote Divides West Virginia https://t.co/IoNQUack6o\u000a\u000a#wv #healthcare #capito #grahamcassidy #handsofhealthcare #ACA #wva
p159
aVGlad #GrahamCassidy failed. Bad for #WestVirginia and #USA #Healthcare is a #universal #right I stood up to #Capito! https://t.co/S6dd4yCfb4
p160
aV6pm!
p161
aVCatch me on #WOWK on #Channel13News speaking out against #GrahamCasiddy urging #Capito to #VoteNo #wv #democrat #equality #elam2018 #wvcares
p162
aVCatch me on #WOWK tonight at 11:30pm ET. We're #WorkingForYou and I plan on #MovingWestVirginiaForward. Will you join me? #elam #wv #house18
p163
aV@WOWK13News Catch me tonight on #WOWK who is #workingforyou! Truly professionals! 11:30pm ET tonight! Speaking against #GrahamCassidy!
p164
aV@SenCapito Please do the right thing and vote No on #GrahamCassidy you and I both know #WV will be negatively impacted if it passes. #VoteNo
p165
aV#GrahamCassidy is not something #WestVirginia can afford to get behind. Even McCain opposes. #GOP slashing health-care. Hurting #families!
p166
aVRead my bio on my website to learn a little more about me! https://t.co/hdzwx1yorU thanks for the #support! #wv #westvirginia #politics
p167
aVhttps://t.co/1rxuq0Kmpm visit our Political website! #wv #democrat #wsaz #wchs #elam #2018 #progressive #lgbt\u2026 https://t.co/J4n85Y1BBW
p168
aV@rlsaffle Definitely. Big corporate donors and special interests have no place in political.
p169
aVProud supporter of #legal #marijuana, #lgbt rights, #creating #jobs, #raising #wages, ensuring all West Virginians have #equal #opportunity
p170
aV@BrookeBCNN Whether or not I have a sense of humor is irrelevant, this was inappropriate and done in poor taste. It\u2026 https://t.co/hrBPiYnfcO
p171
aV#ClayTravis came on CNN and was absolutely disgusting. This isn't what our country is about. Kudos to you\u2026 https://t.co/pjuxUuCEoo
p172
aV@BrookeBCNN Good for you! As a democrat running for office, his comments were disgusting! You handled that extremely well. #IsThisHappening
p173
aVProud to be an American. Remembering those we lost. Never forget September 11th, 2001. \U0001f1fa\U0001f1f8#NeverForget911 #NeverAgain #911 #September11 #wv
p174
aVMy time as a #CorrectionsOfficer I was fighting for #WestVirginia then and I'm fighting for her now. #vote #elam\u2026 https://t.co/LPjpS1NSvY
p175
aVRT @pushkinforhouse: "80% of success is showing up" - Woody Allen  https://t.co/BZZXIWDgAa
p176
aVJoin me. #elamforhouse #elam2018 #wvhouse #wv #delegate #politics #democrat #legalizemarijuana #marijuana #lgbt\u2026 https://t.co/j79LWeK52n
p177
aVElect a man who cares! I love #WestVirginia! \U0001f499\U0001f49b #love #vote #elamforhouse #elam2018 #wv #legalizemarijuana #FightFor15 #DefendDREAMers #usa
p178
aVThe #right choice for #WestVirginia. Vote for #JamesElam for the #WVHouse https://t.co/f2T6gnA6X6
p179
aV@AnnCoulter I find your stance on LGBT Americans against all values we hold dear as Americans. Your recent comments were not welcome.
p180
aVCheck out my YouTube channel!  https://t.co/WSaBgrFCbT
p181
aVNew #advertisement #elamforhouse #WestVirginia #wv I'm so #happy to be #workingforyou #democrat #joinus #race\u2026 https://t.co/UOfnMQHHLt
p182
aVI love #WestVirginia so much! Let's just take minute to enjoy this beautiful picture! #wv #photography #mountains\u2026 https://t.co/Qb2XwJgrcb
p183
aVCheck out these videos we've been working on! #jameselamforhouse #elamforhouse #elam2018 #wv #democrat #lgbt #gay\u2026 https://t.co/mR8MA9qOMv
p184
aVBrief segment of my speech at the #WestVirginia #Capitol on #WomensEqualityDay supporting women's #suffrage and key\u2026 https://t.co/aSUJtaQ1gA
p185
aVPraying for Texas and all those affected by #HurricaneHarvey Sending love and prayers from #WestVirginia. #PrayforTexas #PrayforHouston
p186
aVIm fighting for you, #WestVirginia and I'm loving every second of\u2026 https://t.co/GYbuGM6ee0
p187
aVI love you, #WestVirginia thank you for your continued support! #politics #delegate #wvhouse #government #us #usa\u2026 https://t.co/03Gz5gDBKe
p188
aVPraying for the safety of the people of #Texas and surrounding southern states. #HurricaneHarvey #hurricane #Texas #stay #safe #pray4texas
p189
aV#WestVirginia here is your #weekly #update I'm so excited about all we are doing together! #wv #lgbt #marijuana\u2026 https://t.co/o77KbFJgKM
p190
aVWorking for you today #WestVirginia I love our State so much. #wv #love #lgbt #gay #candidate #delegate #summer
p191
aVBeautiful picture from #NASA loved watching the #eclipse #wv #solareclipse #space #moon #sun #galaxy #universe\u2026 https://t.co/tupie1Kwg0
p192
aVGoodnight!
p193
aV#BlackLivesMatter rally in #Charleston #WV was awesome! Fighting for #racial #equality everywhere! I could feel the\u2026 https://t.co/AI2NwqMw8V
p194
aVSee you at the #Capitol tomorrow, #Charleston be safe! #love #lgbt #gay #candidate #politics #democrat\u2026 https://t.co/DLQpeCSYNF
p195
aVWest Virginia, I'm working hard for you! #candidate #love #lgbt #gay #politics #delegate #wv #westvirginia #progressive #loveislove
p196
aVSunday there will be a rally at the Capitol. Be peaceful and stay safe. Will be there to show my support for racial equality. #WV #capitol
p197
aVWe are all United by one flag. No one in this great country is better than the other. #UnitedWeStand #USA\u2026 https://t.co/lmg3rPMNit
p198
aVWatching the memorial service for #HeatherHeyer we should all be #loving and #forgiving of others. Love trumps hate. #lovewins #love
p199
aVAnother beautiful day working for you #WestVirginia join me tomorrow on Facebook live answering questions and speaking directly to you!
p200
aVRT @politico: Marijuana legalization just moved from the fringes of the last presidential campaign to center stage in 2020. https://t.co/JD\u2026
p201
aV#Follow my twitter to read more about me, my platform, and my plans for #westvirginia We're going to do so many good things together! #wv
p202
aVGood morning #WV it's to be another beautiful day! #loveislove #lgbt #peace #usa #candidate #platform #marijuana #education #jobs #reform
p203
aVRT @NYGovCuomo: I am calling on President Trump to clearly and unequivocally condemn and denounce the violent protest organized by white su\u2026
p204
aVRT @SenSanders: If it's radical to think that someone working 40 hours a week shouldn't be living in poverty, then yes, count me as a radic\u2026
p205
aVRT @SenSanders: We are a stronger country when we stand together and do not let cowardly politicians try to divide us up. https://t.co/rrr9\u2026
p206
aV@hkinderr_ What's going on?
p207
aVRT @mind_disturb: Trust before you Love. Know before you Judge. Commit before you Promise. Forgive before you Forget. Appreciate before you\u2026
p208
aVLove is love. I think our country needs to stand together in love, resist hate, and move forward together. #loveislove #movingforward #usa
p209
aVRT @WVUFLU: Great to see turnouts like this throughout the country and especially in West Virginia! https://t.co/Gm7bgoKe5E
p210
aVRT @pushkinforhouse: This is sad. I hope the people of Pkb who believe in basic human rights pay attention and vote those 6 relics out  htt\u2026
p211
aVGoing to be campaigning downtown Charleston tomorrow. Would love to meet you! #wv #lgbt #legalization #candidate #wvhouse
p212
aVKeep it peaceful in #Seattle this Alt-Right movement is garbage! No race is better than any other. We are all Americans. #UnitedWeStand
p213
aV#MoveWestVirginiaForward by voting James Elam for House of Delegates 2018! #wv #marijuana #politics #equality #lgbt\u2026 https://t.co/4GEqHxwxeG
p214
aVHeather Heyer was simply crossing the street when she was killed at the hands of an ideal that is destroying our country. #justiceforheather
p215
aVAccepting campaign donations here: https://t.co/wbrRZjfBMv Let's Move West Virginia Forward! #westvirginia #democrat #delegates
p216
aVI need your help! Please donate to my political campaign at the following link.\u2026 https://t.co/5K5J8NKfj9
p217
aVLegalizing #marijuana in WV would eliminate most of the black market for marijuana in WV, ensure a quality product, and boost our economy!
p218
aVLet's legalize #marijuana, reform our #criminal justice system and improve our #economy #infrastructure and #jobs here in #WestVirginia \U0001f1fa\U0001f1f8\U0001f499\U0001f49b
p219
aVRT @SenWarren: How can @realDonaldTrump can show whose side he's on? He can start by publicly calling this what it is: white supremacy.
p220
aV@maddow Watching you now. Am a Candidate for House of Delegates in West Virginia. We need to #ImpeachTrumpNow praying for #charlottesvile
p221
aVWe need to #ImpeachTrump this country can no longer succeed under his leadership. Worst President in U.S. history! #impeach #donaldtrump
p222
aVJust saw some very graphic footage from #Charlottesville rally. Absolutely sick! This needs to stop!! People are dying!!!! \U0001f621
p223
aVEvents that took place today in #charlotesville were disgusting! White supremacy is domestic terrorism! Prayers! \u2764\ufe0f#prayforCharlottesville
p224
aVThank you #WestVirginia for another beautiful day! I love this state, and I hope to serve you in 2018! Another hard day of work tomorrow!\U0001f499\U0001f49b
p225
aV#Batman gave me a special endorsement. In all seriousness though, just finished the photo shoot. Pics tomorrow! Smi\u2026 https://t.co/oZvGxq3Ukg
p226
aVI believe responsible #marijuana legalization will help West Virginia and our economy/drug epidemic! \U0001f44d\U0001f3fb #marijuana #legalize #wv #candidate
p227
aVEveryone stay safe! #Charlottesville this is wrong! Love conquers hate! \U0001f49c\U0001f3f3\ufe0f\u200d\U0001f308
p228
aVWhat does this accomplish? https://t.co/lTROUH0N71
p229
aVPray for Charlottesville, VA. Hoping everyone is safe. Racism and demonstrations like this are fueled by hate! #equality #love #rally #VA
p230
aVJust spoke #FairnessWesfVirginia and we had a complex and dynamic discussion about our LGBT community! \U0001f3f3\ufe0f\u200d\U0001f308 What a great organization! \u2764\ufe0f
p231
aVRT @JeffKesslerWV: #GovernorJudas shafts party &amp; staff! Justice predicts some staff members won\u2019t survive. #LastToKnow\u000a https://t.co/lIxtRJ\u2026
p232
aVRT @JeffKesslerWV: Insightful coverage on issue &amp; my friend @pushkinforhouse \u000aLegalizing pot could create jobs &amp; end WV opioid crisis\u000ahttps\u2026
p233
aV@JeffKesslerWV @pushkinforhouse @JeffKesslerWV check out my platform, I've said the same that I am for the legalization of marijuana. \U0001f44d\U0001f3fb
p234
aVGood morning, West Virginia! \U0001f1fa\U0001f1f8#letsgetitdone #politics #debate #legislation #lgbt #gay #love #tolerance #reform #bethechange
p235
aVBeing #gay shouldn't hurt your ability to run for office! Love is love! \U0001f1fa\U0001f1f8\u2764\ufe0f #democracy #westvirginia #politics #democrat #wv #delegate
p236
aVI want everyone in West Virginia to be able to succeed! Retweet my tweets and view my political profile to see my platform! \U0001f1fa\U0001f1f8\U0001f3f3\ufe0f\u200d\U0001f308
p237
aVUnveiling my platform! \U0001f1fa\U0001f1f8\U0001f3f3\ufe0f\u200d\U0001f308\U0001f64c\U0001f3fb See the rest on my political Facebook page, https://t.co/OzcO3tTjLE https://t.co/DaCZTGSQ6R
p238
aVYoungest openly gay candidate for West Virginia House of Delegates! \U0001f1fa\U0001f1f8Let's Move West Virginia Forward! #Love #LGBT\u2026 https://t.co/GHZomOXfX9
p239
a.