(lp0
VRT @washingtonpost: A woman approached The Post with dramatic \u2014 and false \u2014 tale about Roy Moore. She appears to be part of undercover stin\u2026
p1
aVRT @SenDuckworth: When I was bleeding to death in my Black Hawk, I didn\u2019t care if the troops saving me were gay, straight, transgender, bla\u2026
p2
aVRT @realDonaldTrump: Happy Father's Day to all, even the haters and losers!
p3
aVRT @BraddJaffy: A Twitter play in 4 acts. Surprise ending! https://t.co/nhrkYhoU8k
p4
aVRT @RexHuppke: Trump voters: Your hero promised Obamacare repeal. He gave up. Today he played golf and had a fancy dinner with family.\u000a\u000aYou\u2026
p5
aVRT @jonfavs: Barack Obama's master plan:\u000a1) Wiretap the opposition \u000a2) Gather damaging info \u000a3) Say nothing\u000a4) Let him win \u000a5) Ride off int\u2026
p6
aVRT @tyleroakley: how to sell your soul in 416 days https://t.co/1AuIe907Hk
p7
aVRT @AndyRichter: Whenever I want people to believe that I'm really on the up-and-up, I pay a lawyer to read a prepared statement while I st\u2026
p8
aVRT @joe_sheehan: Psst...she won't be locked up, the robot who took your job isn't getting fired, there won't be a wall, and that tax cut is\u2026
p9
aVDonald Trump is wrong about Hillary Clinton's 'deplorable' remarks https://t.co/U1hGmWHQnD
p10
aVRT @ZeddRebel: Trump voter: "I like Trump because he says exactly what he means."\u000aTrump: 'Somebody shoot my opponent'\u000aTrump voter: 'He didn\u2026
p11
aVRiver of violence takes life of an innocent man - West https://t.co/hM9kbFdRyK via @sharethis
p12
aV@CeeAngi agree.  Would be nice to get a DH who can H
p13
aVRT @whitesox: According to STATS, tonight is the first time in @MLB history that four first place teams have all played in the same city on\u2026
p14
aVVoters Might Not Miss Jeb Bush, but Campaign Reporters Will https://t.co/r9a5HRXvOi
p15
aVMy Tinder date with 'Pharma bro' Martin Shkreli https://t.co/iMipzTDQ11
p16
aV#sixthinningselfie @whitesox http://t.co/GXoIzwswD5
p17
aVRT @nbcchicago: JUST IN: Karen Lewis has brain tumor, source says http://t.co/WfXNYZCP3P
p18
aV@fieldmuseum #thermoselfie The Sliwa family! http://t.co/YmheE51GZ3
p19
aVRT @eads: It's still in beta, but I'm very excited about this http://t.co/k4js5UGHEx -- search for your birthday by add YYYY/MM/DD to url
p20
aVRT @GridAssassin: @mullyhanley Miami is on standby. http://t.co/6tN8tyPQ6u
p21
aVDomestic violence victim banned by a nonprofit as she had an Order of Protection against her ex. The group chose her ex http://t.co/mZZ3EUKh
p22
aVRT @NotHawk: YAZ BIRTHDAY FACT: THE ONLY DIFFERENCE BETWEEN YAZ AND GOD IS THAT YAZ ACTUALLY EXISTS.
p23
aV#BaseballBands Mark Stone DeRosas
p24
aV#BaseballBands Chan Ho Linkin Park
p25
aV@natnatsn pot stickers!
p26
aV@natnatsn Thanks.  I'm not old though - you are the one getting married in 30 days!
p27
aV@natnatsn This morn Nee got a msg that her yahoo acct was hacked-It kinda seemed like her Android phone was continuously sending bad passwd
p28
aV@natnatsn eh, I guess that's a start.  You've usually got better stuff than that.
p29
aVRT @TheGarfoose: Look, Casey, I'm sorry, but OJ Simpson is the Micheal Jordon of national court room Drama. You'll have to settle for Le ...
p30
aVRT @pgammo: Dunn is 4/$56 with White Sox
p31
aVRT @flipflopflying: Photos of other things that are as close to the World Trade Center as the proposed Muslim community centre. http://i ...
p32
aV@rasliwa  @natnatsn I think the bird icon is fine for you
p33
aVRT @NotHawk: I should be calling this game.  I'd be rooting against everyone but Paulie and Matt.
p34
aVRT @cst_sox: Here is my professional sketch of Peavy's injury. http://tweetphoto.com/31237290
p35
aVRT @cst_sox: Alex Rios is the real deal. KW should be applauded for that move. That's twice he's pulled one over on Toronto.
p36
aVRT @SoxMachine: Just posted it. Omar Vizquel the DH means that it's 2007 all over again. http://bit.ly/aJoGTK
p37
aVPart-time DH Jim Thome: 2HR 5RBI .346OBP .545SLG in 22AB.  #whitesox rotating DH combined: 1HR 3RBI .297OBP .281SLG in 32AB
p38
aVSears to close at Ford City Mall in July - Chicago Breaking Business: http://bit.ly/cUJQR6 via @addthis
p39
aV@natnatsn twidroid, Google listen, pandora, goggles, Google sky map, Fandango
p40
aV@natnatsn Back to school? What are you thinking of taking?
p41
a.