(lp0
VTo all of the campaign workers out there: hang in there, and thank you for your hard work. #BlueWave2018\u2026 https://t.co/qMwjbm2e74
p1
aVI love this. Oprah on message. https://t.co/572zljWs0e
p2
aVTonight!  Excellent costumes, beautiful (sometimes eerie) music. Oboes, voices, xylophones, clarinets, saxes, cat d\u2026 https://t.co/PWCqpLsxWi
p3
aVJoin RIC Dept of MTD this Friday in Roberts for the Halloween Collage Concert featuring the RIC Chamber Singers, th\u2026 https://t.co/szrehXFTk7
p4
aV@RICStuAct https://t.co/cfDMZCSDpC
p5
aVOn Friday Oct 26th, join the RIC Dept of Music, Theatre and Dance and support the RIC Unity Center and the Pride Al\u2026 https://t.co/OEnzpQPKtW
p6
aVThank you @Nirva_LaFortune https://t.co/xg0PEgiHop
p7
aVRT @mitchellreports: .@MichaelSteele: Little Marco is not the same as calling a woman horseface, and lying Ted is not the same as calling a\u2026
p8
aVRT @LEBassett: https://t.co/1KE1zSBJbb
p9
aVRT @shannonrwatts: What it looks like when a reporter isn\u2019t just asking questions, but is holding an interviewee accountable with the facts\u2026
p10
aVRT @shannonrwatts: Women will have the last word. Maybe not today, maybe not tomorrow, but we will. And we won\u2019t go backwards. \u000a\u000aHart Senat\u2026
p11
aVThis candidate is the future of our country. Hopeful, real, tells it like it is, unafraid of tackling tough issue.\u2026 https://t.co/FvnTxbzYAD
p12
aVI think Orin Hatch might cry.
p13
aV@JohnMarionjr How about a list of every position someone can run for in RI listed by town - including every party c\u2026 https://t.co/TZFs602y5Z
p14
aVI love how she smiles while saying this! https://t.co/SxEWu0hy0J
p15
aVRT @KamalaHarris: I support Dr. Blasey Ford\u2019s request for an FBI background investigation before a hearing. She should not be bullied into\u2026
p16
aVAnita Hill didn\u2019t have to come forward then, or now. But she did, and we are better for it. https://t.co/JxohzU4pwe
p17
aVRT @TaranaBurke: #supportsurvivors #protectRVW \u000a#noKavanaughConfirmation\u000a#metooMVMT https://t.co/eRVFpBUd9P
p18
aVWhy doesn\u2019t our society get that no woman looks forward to talking in detail to the Senate judiciary committee abou\u2026 https://t.co/hrVUYol6w4
p19
aVRT @BetoORourke: Back in South Dallas! Our thanks to the historic Good Street Baptist Church for hosting an energizing town hall. https://t\u2026
p20
aVRT @mkarolian: https://t.co/GubzMVPD5P
p21
aVRT @BillClinton: Twenty-four years ago, I signed the Federal Assault Weapons Ban into law. It, along with other policies, led to a 33-year\u2026
p22
aV@JohnMarionjr Thank you for the good work you do, and also for that extra info about the high speed tabulator!
p23
aVRT @jennifereduffy: Wow, Democrats have women nominees in a third of the 36 Governors races this cycle. https://t.co/CAo6jJfdcb
p24
aVCongratulations @RebeccaKislak, my new state rep!
p25
aVCongratulations @MRanglinVassell!!! https://t.co/ANcijrD6PE
p26
aV@Nirva_LaFortune @RISecState Thank you @Nirva_LaFortune!
p27
aVRT @RIPR: There's still some time to get to your polling place. And if you're in line by 8:00 PM, you can vote! When you're done, tune in f\u2026
p28
aVVoter #1078 at Nathan Bishop middle school at 7:30pm.
p29
aVRT @jbillinson: I guess sometimes it\u2019s a meltdown and other times it\u2019s just arguing a strike \U0001f937\U0001f3fb\u200d\u2642\ufe0f https://t.co/I3ZyxBMzGT
p30
aVRT @BillieJeanKing: (2/2) When a woman is emotional, she\u2019s \u201chysterical\u201d and she\u2019s penalized for it. When a man does the same, he\u2019s \u201coutspok\u2026
p31
aVRT @MRanglinVassell: I\u2019m not afraid to pick big fights . District 5 will always have a fighter in me. I stand up to the status quo and the\u2026
p32
aVI am cheering on @BetoORourke from Rhode Island! https://t.co/eAx8b3kVPX
p33
aVRT @Steph_DeSilva: I realize yesterday\u2019s news cycle was insane, but Bishop Tobin ADMITTED to ProJo that he knew children were being abused\u2026
p34
aVRT @ItsMeCathi: Now I hear Democratic Senator Doug Jones is on the fence about voting NO to confirm Supreme Court nominee Brett Kavanaugh.\u2026
p35
aV@ethangy @SNAprov @DanMcGowan @Jorge_Elorza @KobiForMayor @derobbio4mayor @RebeccaKislak @MarkTracyRI @JAHernandezRI Thx!
p36
aV@ethangy @SNAprov @DanMcGowan @Jorge_Elorza @KobiForMayor @derobbio4mayor @RebeccaKislak @MarkTracyRI\u2026 https://t.co/BDgmzDoXjx
p37
aVTonight is debate night!  Go! https://t.co/VhzOQKU5uO
p38
aV@ethangy This was 6-7 houses in from Hope on one of the numbered streets- maybe 10th?
p39
aVI find it really odd when I see political signs for Ward 2 City Council candidates in the yards of Ward 3 voters, n\u2026 https://t.co/wurTAxxEtB
p40
aVRT @krassenstein: It's been 169 days since the Stoneman Douglas massacre.\u000a\u000aThe media has stopped their coverage of the tragedy almost compl\u2026
p41
aVRepublicans in Congress are silent bystanders. They are complicit in the dismantling of our Democracy. What does it\u2026 https://t.co/jrABlhwKmD
p42
aVRepublicans in Congress should switch parties, resign, or start impeachment proceedings. Words mean diddly. https://t.co/LgViWF0Qdg
p43
aVSo, all you folks who stayed home on Election Day in 2016 - or voted for Jill Stein, Gary What\u2019s-His-Name, or a wri\u2026 https://t.co/jV9Ua2nnlu
p44
aVI wish Mitch McConnell had a conscience and a sense of duty. https://t.co/1XSw3pqMg3
p45
aVRT @KatyTurNBC: What will republicans do?\u000aWhat will republicans do?\u000aWhat will republicans do?\u000aWhat will republicans do?\u000a\u000aThat is the only q\u2026
p46
aVRT @HillaryWarnedUs: Today is why you felt horrible the night of November 8th, 2016.
p47
aVRT @HillaryClinton: Great World Cup. Question for President Trump as he meets Putin: Do you know which team you play for?
p48
aVYup, watch it. She is on the money in explaining then what we have come to know about the danger Trump poses to our\u2026 https://t.co/bjqQDQx8Ip
p49
aVWatching the joint press conference w Trump and May made me miss this President even more. https://t.co/vwTQwLNgwM
p50
aVRT @Lindafblue: @kathyprojo @IanDon @TedNesi https://t.co/7zGvRyYHXi
p51
aVThis makes me sick to my stomach.  #VoteThemOut #NRABloodMoney https://t.co/bWz71C1vof
p52
aVRT @StevenBeschloss: Everyone who voted for Jill Stein or stayed home on election day because you're of such high principal: Well done. And\u2026
p53
aVRT @repjohnlewis: Do not get lost in a sea of despair. Be hopeful, be optimistic. Our struggle is not the struggle of a day, a week, a mont\u2026
p54
aVRT @SenWhitehouse: Here's my statement on the Supreme Court's decision to uphold the Trump Muslim ban: https://t.co/7xMxFHimCB
p55
aV@gaylegoldin thank you for everything you do for your constituents, including putting up with this level of hateful\u2026 https://t.co/Z2AYzxS5bE
p56
aVRT @RITreasury: VIDEO: Rachel says the condition of her school building sends her students a clear message: "Your education does not matter\u2026
p57
aVRT @GovRaimondo: Thank you @RIHouseofReps and @RISenate for passing legislation to create a Red Flag law and ban bump stocks.
p58
aVRT @pwcdanica: Just sayin\u2019...\u000a@EmergeAmerica https://t.co/60DIG1btKw
p59
aVWatch @AbbyWambach Barnard College speech.  #Wolfpack #GiveMeTheBall https://t.co/0gUjyCVMtm
p60
aVRT @Weinsteinlaw: Columbine - 6978 days\u000aVirginia Tech - 4056 days\u000aAurora - 2138 days\u000aSandy Hook - 1987 days\u000aCharleston - 1072 days\u000aUmpqua -\u2026
p61
aVI\u2019m so proud of Erich and all of his hard work. https://t.co/xzm7wAdibu
p62
aVRT @nytimes: Breaking News: History in Georgia: Stacey Abrams became the first black woman to be a major party's nominee for governor after\u2026
p63
aVHaving spent some time in Kentucky\u2019s 6th, this makes me happy.  Go @AmyMcGrathKY!          \u000ahttps://t.co/RaE1AO8BtA
p64
aVExactly. https://t.co/Q4PNp6FOoX
p65
aVRT @_AlexHirsch: News outlets should have to refer to mass shooters simply as \u201cShooter #86, Shooter #87\u201d etc. Never say their names, never\u2026
p66
aVI am not moving on, grieving for the victims, and for our country. I will give money and work for candidates who wa\u2026 https://t.co/VGYhgG0o2F
p67
aVRT @PollackHunter: A lot of media outlets do a horrible job covering mass shootings by saying the killers name. Why should they give them t\u2026
p68
aVYes. #EnoughIsEnough https://t.co/102FXIELV6
p69
aVRT @tsukkiu: Please try and not retweet or spread pictures of the santa fe shooter. You don\u2019t understand how it feels to go online and cons\u2026
p70
aVRT @ananavarro: Many of us were distracted by pageantry of Meghan &amp; Harry, but let\u2019s not forget 10 lives cut short by yet another mass shoo\u2026
p71
aVRT @fred_guttenberg: Struggling this morning.  3 months ago I lost my baby girl to a mass casualty shooting at her school in Parkland, Fl.\u2026
p72
aV@bishoptjt My view: I\u2019d rather not receive receive Holy Communion from someone who publicly and consistently judges people he doesn\u2019t know.
p73
aVLeader of the Catholic Church in RI is ranking people on how worthy he thinks they are of receiving communion from\u2026 https://t.co/fqceciLuqE
p74
aVGo @VineyardWindMA https://t.co/IwPz2vlIBY
p75
aVRT @LaikaSpaceDog: One image is the @nytimes app after Hillary Clinton had *gasp* pneumonia. The other is after news broke that Trump dicta\u2026
p76
aVRT @MichaelSkolnik: Trump will attend the @NRA Convention this weekend, but didn\u2019t attend one funeral for the victims of the Marjory Stonem\u2026
p77
aVRT @gaylegoldin: Once again, @projo has decided that they'd rather hope for more clicks than address online mysogyny that goes unrestrained\u2026
p78
aVRT @tkocreative: Hundreds of students pouring into Washington Square Park to perform a die in for the #NationalSchoolWalkout #ENOUGH https:\u2026
p79
aVRT @nihonmama: "when she tried to attend aviation career day at her high school, she wasn\u2019t allowed to go because they didn\u2019t accept girls.\u2026
p80
aVRT @shannonrwatts: ONE DAY after Vermont's governor @GovPhilScott signed a package of gun safety measures, one of the new laws - the Red Fl\u2026
p81
aVRT @SarahLerner: Vermont\u2019s GOP governor, who had an \u2018A\u2019 rating from the NRA in 2016 &amp; just signed gun control bills, said: \u201cI understand I\u2026
p82
aVRT @projo: Gun-control bills win R.I. House approval by wide margins https://t.co/0A5H1ESezI @PatrickAnderso_ https://t.co/S1VradTWZq
p83
aVHe won\u2019t stand up to Trump and he is scared to face his opponents in the campaign. True colors. And one more seat t\u2026 https://t.co/UMWe75la2s
p84
aVRT @ri_wfp: #FairPay Act passes the Senate! TY for your leadership Sen @gaylegoldin  and @RISenate. Making sure women and people of color a\u2026
p85
aVRT @SenWhitehouse: Mueller Watch \u2014 Remember that at one point Boente wore three hats in this investigation: Acting AG overseeing before Mue\u2026
p86
aV@littlefieldw Has @projo blocked the poster of the hateful comment? NOT fair to place burden on @gaylegoldin to remove it. cc @jefflevy
p87
aVDespicable. @projo should not allow comments if no one is going to moderate them. @gaylegoldin @jefflevy https://t.co/MbkSdn0vLh
p88
aVRT @AdyBarkan: Your daily reminder that @repjohnlewis is legit. https://t.co/DzQlTslUlV
p89
aVThis needs to change. https://t.co/VDHh7kc3ex
p90
aVAnother week, another school shooting. When will the madness end? #NeverAgain #Enough #StoptheNRA\u2026 https://t.co/VrfPPTRiEx
p91
aVI am so inspired by the students who walked out today. Your teachers are proud! #StudentWalkout #neveragain #March4OurLives
p92
aVAmen. This teacher supports #StudentWalkout and #March4OurLives https://t.co/tEEfv5gKWl
p93
aVObligatory snowy picture. #NorEaster2018 https://t.co/G8JM67rJxp
p94
aVBrilliant! #stopmrsnra https://t.co/4icK3qlHNw
p95
aVRT @cameron_kasky: Hi my name is REGISTER TO VOTE
p96
aVRT @robreiner: Watching this ridiculous human being who became president is beyond disturbing. A lying con man who spews racism, abuses wom\u2026
p97
aVRT @krassenstein: It's been 3 weeks since the Stoneman Douglas massacre. The media has already slowed their coverage of the tragedy to a cr\u2026
p98
aVRT @cameron_kasky: Sure we can arm teachers...\u000a\u000aAfterward, should we arm lifeguards? Ticket takers at the movies? Bartenders? \u000a\u000aHow many pe\u2026
p99
aVRT @SNAprov: Coming soon from the Friends of Rochambeau Library #PVD https://t.co/9xAJKWSYHz
p100
aVRT @projo: Poll shows most Rhode Islanders favor assault-weapons ban https://t.co/XEASjBisMy @kathyprojo https://t.co/DQ9sauXHwJ
p101
aVRT @robreiner: The most corrupt WH in US history. A president who lies every time he opens his mouth. A president who abuses women, spews r\u2026
p102
aVThank you @GovRaimondo https://t.co/3rAKQLifRV
p103
aVAfter Sandy Hook. Las Vegas. Parkland. @RISpeaker \u201chas to be convinced\u201d that an assault weapons ban would \u201chelp peo\u2026 https://t.co/6baoSiyq9c
p104
aVThank you @Jorge_Elorza https://t.co/ksYbEKqnD8
p105
aVThis young woman is extraordinary. https://t.co/9uhk1IQ0Qz
p106
aVRT @nbc10_brian: Found out from RI Courts that judges have used new domestic abuser/gun law 309 times since Oct to order gun surrender, if\u2026
p107
aVThank you @Cornell https://t.co/AxPYDhgdgT
p108
aVPoliticians in RI also need to cut ties with the NRA. #NRABoycott #EnoughIsEnough https://t.co/SPnhV4qJCy
p109
aVWe need to call out politicians who take #NRABloodMoney https://t.co/WNnilQL8tl
p110
aVRT @Lindafblue: In 8 days @Emma4Change has amassed 599k of @Twitter  followers. The @nra has 50k less. This is a movement to ban weapons of\u2026
p111
aV#ArmMeWith funds for professional development, every year.
p112
aVI am a teacher. Arm me with love, not with bullets. #ArmMeWith #GunSenseNow #NotOneMore #CommonSenseGunLaws https://t.co/MJce8aE66J
p113
aV\u201cOur teachers need supplies, not firearms..\u201d thank you @GovRaimondo for being a leader on this issue. https://t.co/CiZFjFGD3i
p114
aVRT @joshgad: Retweet if you are angry and done with the status quo. Retweet if you are done with nonsense bandaid fixes. Retweet if you bel\u2026
p115
aVRT @_kyliemarie_3: My cousins school West Boca High School protesting today. Her school is about 30 minutes away from Marjory Stoneman Doug\u2026
p116
aVRT @kathyprojo: In the last race for governor in 2014, @MayorFung scored a 93 percent rating from the @NRA; Democrat Gina Raimondo, -0-.\u000aht\u2026
p117
aVThese young adults give me hope. #EndGunViolence https://t.co/A5URQszNga
p118
aV\u201c...our powerlessness on guns hardly enhances our democracy\u2019s image to the world.\u201d https://t.co/KqxxFCftlx
p119
aVHow about this for some gun laws:  https://t.co/4gexH2aleO
p120
aVPOTUS continues to embarrass all of us. #unhinged https://t.co/gC663xJuSM
p121
aVRT @EJDionne: #Trump's own Justice Department has made a comprehensive case that Russia interfered in our election to make him president.\u2026
p122
aV\u201cThey are illegal for hunting, and they are unnecessary for protection.. \u201c Thank you @gaylegoldin for your leadersh\u2026 https://t.co/1Nr5nEgXgn
p123
aVWhen should we talk about gun control, if not after 17 innocent people are killed with a semi-automatic, military-style weapon?
p124
aVI wish someone had come for Nikolas Cruz\u2019s guns. @itsAdamJSmith
p125
aVRT @RICAGV1: We have leaders in RI trying to ban weapons of war: @SenatorMillerRI @Rep_Jason have bills to ban AR-15s from purchase in RI:\u2026
p126
aVRT @morganw_44: I cannot stop hearing the sound of the gun as he walked down my hallway. I cannot unsee my classmates who were shot get car\u2026
p127
aVWe need action to stop gun violence.  Please join me and make a contribution to @RICAGV1 tonight.
p128
aVHow many more people need to die before we do something? #CommonSenseGunLaws
p129
aVPlease vote for candidates in  2018 who will help end gun violence, not those who seem determined to perpetuate it. #EndGunViolence
p130
aVJust imagine our reaction if Obama, either of the Clintons, either of the Bushes, or pretty much anyone else had sa\u2026 https://t.co/UUVy0jb4iP
p131
aVI think anyone who sits through an hour and 20 minutes of politely listening to DJT should be given a medal. https://t.co/fobIsFMTYc
p132
aVRT @SenatorDurbin: Without a free and open press, how can we hold a government and public officials accountable for their actions? The noti\u2026
p133
aVRT @EJDionne: #Trump's racist rant weakens democracy by promoting division &amp; hatred, violating the obligation of democratic leaders to prom\u2026
p134
aVRT @BarackObama: Dr. King was 26 when the Montgomery bus boycott began. He started small, rallying others who believed their efforts matter\u2026
p135
aVRT @itsAdamJSmith: If you\u2019re wondering where to hide if nuke goes off in your area:\u000a\u000aHide at the polling place where you voted third-party\u2026
p136
aVRT @SenGillibrand: As we look ahead to some very important fights in the new year, never forget that your voice matters. You never know: Yo\u2026
p137
aVRT @EJDionne: Dec. 20, 2017, will live on as a day of disgrace &amp; dishonor, the \u000aday when a government of, by and for the people became a go\u2026
p138
aVRT @repjohnlewis: I oppose this conference report with every bone in my body. This tax bill is a $2.3 trillion holiday gift for Wall Street\u2026
p139
aVRT @EJDionne: The tax bill the House GOP is expected to pass today is an unfair deficit-bloating hodgepodge written on the fly. It is also\u2026
p140
aVRT @MassAGO: The @FCC's repeal of #NetNeutrality was illegal and we will be filing suit. Here's why: https://t.co/9Imp7P19sz
p141
aVRT @EJDionne: We are far closer to the edge than we want to think. With Republicans joining #Trump in his attacks on Mueller, our \u000ademocrat\u2026
p142
aVRT @repjohnlewis: President Trump\u2019s attendance and his hurtful policies are an insult to the people portrayed in this civil rights museum.\u2026
p143
aVRT @SenSanders: We have a president who acknowledged on tape that he assaulted women. I would hope that he pays attention to what's going o\u2026
p144
aVRT @SallyQYates: The FBI is in \u201ctatters\u201d?  No.  The only thing in tatters is the President\u2019s respect for the rule of law. The dedicated men\u2026
p145
aVRT @geoffgarin: So Trump knew Flynn had committed a crime by lying to the FBI and then asked Comey to go easy on him anyway.  Quite an admi\u2026
p146
aVRT @SenatorDurbin: BREAKING: Senate Democrats just tried to get Senate Republicans to adjourn for a few days and take the time to actually\u2026
p147
aVRT @Nirva_LaFortune: November Ward3 newsletter is now available: https://t.co/Iu532GQJ3N
p148
aVRT @ericabuist: Why not just ban guns and when people are upset about it, just send them thoughts and prayers?
p149
aVRT @repjohnlewis: We must do more than mourn and pray for those murdered in Texas. We must act.
p150
aVRT @RICAGV1: There is almost always a link with domestic violence and mass murder... and easy access to AR 15s. https://t.co/mUiozQz4kQ
p151
aVSuch a great show! https://t.co/hHzJOEnakO
p152
aVMe too. As a result, I didn\u2019t pursue a job I wanted at the time.
p153
aV@SenJackReed The food truck at the Southeast Lighthouse on Block Island has the best I've ever had.
p154
aVhttps://t.co/u5cUZLURQc
p155
aVRT @KatyTurNBC: Whole thread--&gt; https://t.co/DYZ4wYfZfF
p156
aVRT @DanMcGowan: Nirva LaFortune captured more than 90% of the vote at Summit Commons. She's your councilwoman-elect. https://t.co/mggyaXoV7F
p157
aVhttps://t.co/7NWzlFhVbi
p158
aVRT @kurteichenwald: Peter Cvjetanovic, a white nationalist, is upset that this photo of him has gone viral. So be nice: dont retweet this t\u2026
p159
aVGo @VineyardWindMA ! https://t.co/CdjmzTRUup
p160
aVRT @projo: Providence Ward 3 Democrats choose LaFortune to fill City Council seat. https://t.co/TWSv8ez21W via @mrkrynlds
p161
aV@nickinglis @DanMcGowan  approx % in each precinct as compared to overall voters: Summit 31% NB 30%, MLK 25%, Hebrew Day: 14%
p162
aV@DanMcGowan is the # at Hebrew Day the same as it was at 10:20?
p163
aVRT @SethMagaziner: To all my Providence Ward 3 neighbors, don't forget to vote in today's special city council primary election! https://t.\u2026
p164
aV@JohnMarionjr I was thinking about going to that BOE meeting! You, of course, turned thinking into doing. Thank you!
p165
aVRT @DanMcGowan: NEW: Incorrect polling place info was sent to some Ward 3 voters. City working to correct now. https://t.co/lPMgHdSzai
p166
aVRT @RISecState: @DanMcGowan Find your polling place information online using your name, DOB, and zip code. Visit https://t.co/PCoayn4bj2! #\u2026
p167
aVRT @DanMcGowan: Wow: Check out the crowd at tonight\u2019s Ward 3 forums. https://t.co/5ORapUPcRO
p168
aVRT @DanMcGowan: Man down: Rondie Almeida tells me he's withdrawn from the race to replace Kevin Jackson in Ward 3.
p169
aVRT @SNAprov: We're looking forward to a great community conversation Thursday. All community members welcome! https://t.co/IQjtq9VpuO
p170
aVRT @SNAprov: SNA is pleased to announce a two-night series of Ward 3 City Council Candidate Forums. https://t.co/n8I0j1rXKt
p171
aVRT @DanMcGowan: Special Ward 3 election dates - Primary: July 12  General: Aug. 16 Yes, those are Wednesdays.
p172
aV@DanMcGowan Term limits for the Council are as of the 2010 elections, correct? @TurquoiseLady1 @projo
p173
aVRT @Jorge_Elorza: Can you name the 25 neighborhoods in Providence? Take this quiz, plz share... https://t.co/VPihJAUaXN
p174
aVRT @RosieWoodsTV: Just spoke to @GinaRaimondo outside a Providence polling location. She says she voted to recall Jackson. @wpri12
p175
aV@RecallJackson Volunteers give insight into why they are knocking on doors in Ward 3\u000ahttps://t.co/YgweCrWeVb
p176
aVhttps://t.co/q1gl0aZfqX @RecallJackson
p177
aVRT @JohnMarionjr: Nice job Providence Board of Canvassers putting the sample ballot on the back of the notice of the polling location for T\u2026
p178
aVRT @projo: Journal Opinion: Recall indicted city Councilman Kevin Jackson https://t.co/BtSrfbG3IQ @RandyEdgar1 @Ed_Achorn https://t.co/AOdf\u2026
p179
aVhttps://t.co/AWQVgkEINf
p180
aV@JohnMarionjr thank you for being there!
p181
aVRT @JohnMarionjr: Why not? I\u2019m at the @RI_BOE meeting on the Jackson recall. https://t.co/HFA1JbV9s1
p182
aVRT @JohnMarionjr: Voting in the May 2nd recall for Ward 3 in Providence? If so, today\u2019s the deadline to apply for a mail ballot. https://t.\u2026
p183
aVIt's nice to see that cooler heads prevail on the Council. https://t.co/5FL1LiljFg
p184
aVRT @DanMcGowan: Councilwoman Matos tells me she won\u2019t be at special meeting tonight.  If everything councilors told me over weekend holds t\u2026
p185
aVRT @DanMcGowan: Councilman Hassett emails to say he also won\u2019t be in attendance tomorrow. That means Matos and Igliozzi need to show up for\u2026
p186
aVRT @DanMcGowan: In a break from council leadership, Councilwoman Ryan tells me she won\u2019t attend tomorrow\u2019s special council meeting on the J\u2026
p187
aV@DanMcGowan I admit to being a quorum watcher in the past, and now again.
p188
aV@DanMcGowan isn't it 2 of the remaining 4?
p189
aVRT @atHomeinProv: Deadline to REGISTER to vote in Ward 3 recall "election" of Kevin Jackson is TOMORROW, Sunday, 4/2. In-person @325 Washin\u2026
p190
aVNeed to find your polling place for the Ward 3 recall election on May 2nd? @RecallJackson https://t.co/SRMEJDGHEs
p191
aVRT @emilyslist: The women at today's #RunToWin training in Phoenix are practicing writing their fundraising plans -- putting words into act\u2026
p192
aVThis Bad Actors Bill would prevent those with fines from running for office. Thank you Gov! https://t.co/h7roAZCv0Y
p193
aVRT @projo: Recall supporters collect enough signatures to force vote on ousting Councilman Kevin Jackson. https://t.co/l9GiM853vg via @jghi\u2026
p194
aVRT @jennaruddock: Someone should probably tell him he's already in court https://t.co/77BCS5OSi3
p195
aVRT @SenJackReed: Tonight, I voted to #LetLizSpeak. https://t.co/JmzoUQ9YCs
p196
aVRT @KatyTurNBC: "I checked w Parliamentarian and they don't allow 'Hell No', so I'll be voting, 'No.'" - Sen Whitehouse on Tillerson https:\u2026
p197
aVRT @karinahwood: Sick of #RI pols who don't play by the rules? Grab a clipboard &amp; get some signatures! @RecallJackson #recall https://t.co/\u2026
p198
aVRT @TeamPelosi: We can't let @realDonaldTrump ignore the attacks on our elections. RT if you want an independent investigation of the 2016\u2026
p199
aVRT @davidcicilline: Already missing the days when American Presidents didn't team up with Russian dictators to attack American citizens...\u2026
p200
aVRT @HuffPostPol: With Donald Trump's win, teachers worry about 4 more years of emboldened classroom bullies https://t.co/FR65MXVOmX https:/\u2026
p201
aVRT @DanMcGowan: They haven't turned in signatures yet, but the Recall Jackson folks say they collected 1,800 signatures yesterday.
p202
aVRT @katecoynemccoy: It's Early ppl. Take a breath #imwithher
p203
aVRT @DanMcGowan: Providence Board of Canvassers has ruled that the Councilman Jackson recall can proceed. Signatures can be collected on Ele\u2026
p204
aVRT @karinahwood: PVD Councilman Salvatore calls on Councilman Jackson to resign @RecallJackson \u000ahttps://t.co/448YrD45S4
p205
aVRT @DanMcGowan: Councilman Jackson has filed suit in superior court to attempt to block the recall effort in Ward 3.
p206
aVNow he's bullying Lester.
p207
aVRT @HuffPostPol: Protesters gather outside U.S. Capitol to push for vote on guns #NoBillNoBreak https://t.co/cIF8BUggbA https://t.co/H2WuLP\u2026
p208
aVRT @NBCNews: Unprecedented U.S. House sit-in by Democrats to demand gun control votes hits 12 hours https://t.co/vylZspX5Px https://t.co/r3\u2026
p209
aVRT @kathyprojo: \u201cWell Josephine raised me to believe I could do anything&amp;it worked,\u2019\u2019said the 1st woman elected gov in RI,\u000aholding her moth\u2026
p210
aVRT @katecoynemccoy: 20 years later we have a woman Gov! http://t.co/gqIlDddxWD
p211
aV@tednesi wpri feed is very slow. Any advice?
p212
aVRT @dawnlaguens: Comment of the night from @maddow: "Scott Brown is the 1st person ever to lose senate races to women in 2 separate states\u2014\u2026
p213
aVRT @FitzProv: Phil West, ex US Atty Robert Corrente and Sen Sheldon Whitehouse ready at presser re Plunder Dome/Cianci http://t.co/KmkMucTo\u2026
p214
aVRT @danmcgowan: Interesting: Ward 3 Councilman Kevin Jackson will have a write-in opponent. Marcus Mitchell from the Providence Community L\u2026
p215
aVRT @phileil: Man, elections would be so much cleaner if we were all multimillionaires.
p216
aVRT @phileil: If you're mega-rich and running for office, I really don't want to hear you use the word "grassroots" to describe your campaig\u2026
p217
aV@ClayPell @MichelleWKwan @RobertAWalshJr I am comPELLed to tell you to join ME in correcting your grammar.
p218
aVRT @SenSanders: Clearly the winners are the millionaires and billionaires in this country. #McCutcheon
p219
aVRT @Suzy4Smithfield: Celebrating Women's History Month at @embolden 4 an event 2 support @NellieGorbea  4 Sec. of State! #WomensHistoryMont\u2026
p220
aVRT @IanDon: @LtGovRoberts Endorses @NellieGorbea for Secretary of State http://t.co/s361ssDEyp via @RINPR
p221
aVRT @LauraPisaturo: ICYMI. MT: \u201c@Schriock1: proud to announce that @emilyslist is endorsing @NellieGorbea for Rhode Island Secretary of State
p222
aVRT @EJDionne: Pete Seeger retained his capacity for outrage without ever losing his ability to sing love songs. In memory: http://t.co/PT3J\u2026
p223
aVRT @NesisNotes_WPRI: Watch Newsmakers: Nellie Gorbea; Quonset\u2019s Steven King http://t.co/2XWsnPbpWw
p224
aVThanks, David! @DavidPreston_
p225
a.