(lp0
VRT @juliussharpe: When you read those news stories about a customer leaving a $50,000 tip, the waiter is never bald.
p1
aVRT @CNBCTV18News: 'India looks a lot like China did in 2004', that is the word coming in from Joel Werner, CIO of Solitude Cap Mgmt in a #C\u2026
p2
aV@metraBNSF Why would you tweet this an hour after the scheduled departure?  Makes no sense. There is no meaningful\u2026 https://t.co/QqnLl3UhJM
p3
aV@Dameshek Dave - the cameo at the end makes no sense.  Darth Maul dies when Vader (Luke\u2019s, y\u2019know, father) is ~6 ye\u2026 https://t.co/w8zEPb3HFW
p4
aVRT @nytimes: An ever-growing body of research consistently reaches the same conclusion: The only variable that can explain the high rate of\u2026
p5
aVRT @markleggett: Birthdays are great, but if you have too many of them, you die.
p6
aVRT @TimfromDa70s: Chris Kyle the greatest american sniper in military history was shot and killed when confronted by a "crazy guy" with a g\u2026
p7
aVRT @DanielleMuscato: This headline writer deserves a Pulitzer.\u000a\u000a#Trump #FakeNewsAwards @realDonaldTrump https://t.co/XYX2ayi4PO
p8
aVRT @juliussharpe: Home Depot feels like walking into a giant, disappointed dad.
p9
aVRT @daveweigel: "What a crowd, what a turnout!" https://t.co/I3X5RHqECY
p10
aVRT @jk_rowling: Close your eyes. Open a telephone directory. Point at the page. Open your eyes. That's the name of the person who could do\u2026
p11
aVRT @DPRK_News: Some people call Marshal Kim Jong-Un the space cowboy. Some call him "the gangster of love." Some people call him Maurice.\u2026
p12
aVRT @robdelaney: From an ER doctor, this is staggering. And if you're American, you'll recognize it as true. https://t.co/imfZNg0Vpz https:/\u2026
p13
aVRT @richroll: A high tolerance for monotony is a decidedly underrated superpower. https://t.co/4yVlPR1fOI
p14
aVRT @GovPenceIN: Calls to ban Muslims from entering the U.S. are offensive and unconstitutional.
p15
aVRT @DannyZuker: .@realDonaldTrump Already seeing an increase in government waist. https://t.co/d4KVBODo6G
p16
aVRT @justinjm1: They said if America voted for Hillary, Goldman Sachs would run the government\u2014and they were right!
p17
aVRT @KenJennings: Like 95% of my personality can be traced directly to my parents never letting me ride the coin-op horse in front of the su\u2026
p18
aV@Pottsie77 it gets better day 31
p19
aVRT @KagroX: The Republicans haven't got a single candidate who could survive a Willie Wonka factory tour.
p20
aVRT @patkearnan: The United States banned lawn darts on December 19 1998 after they were responsible for three child deaths in 28 years.
p21
aVRT @nytimes: End the gun epidemic in America https://t.co/sMqGmmc0mS via @NYTOpinion https://t.co/FwAEPLwqNj
p22
aVRT @meganamram: Couscous is the blind man's alphabet soup
p23
aVRT @juliussharpe: I'm the Garfunkel of my marriage.
p24
aVRT @juliussharpe: I have a feeling my wife is going to be one of those women who "really thrives" when her husband is dead.
p25
aVRT @hodgman: .@pattonoswalt says the right words re Boston, humanity http://t.co/WAFqXZ67j4
p26
a.