(lp0
VRT @ananavarro: This @BBC interview is tough and an example of journalistic excellence, holding people accountable for what they\u2019ve done an\u2026
p1
aVRT @TheRickWilson: I don't think this "poll" is working out the way Lou thought# https://t.co/rdxF5GfvCG
p2
aVRT @JohnBrennan: I served 6 Presidents, 3 Rs &amp; 3Ds. I directly supported Clinton, Bush 43, and Obama. While I didn't agree with all their p\u2026
p3
aVRT @davidaxelrod: The whole Stormy deal is a squalid side show.  But watching her very sharp, audacious, media-savvy hot dog of a lawyer jo\u2026
p4
aVRT @JohnBrennan: When the full extent of your venality, moral turpitude, and political corruption becomes known, you will take your rightfu\u2026
p5
aVRT @vhutaliii: For us to be Successful we go through difficult things or challenges \U0001f494\u2665\U0001f60a https://t.co/VcHf8dRoCE
p6
aVRT @TeamPelosi: RT if you agree: Jared Kushner should be removed from the White House immediately. It's preposterous that he's even there t\u2026
p7
aVRT @Scout_Finch: I will remember you. Will you remember me? In memoriam ... the best of the worst Trump pundits https://t.co/J04tJ28yfG
p8
aV@angela_rye \u000aJust saw you on CNN.I admire your restraint.While listening to that Betsy woman prattling away nonsense. Love listening to you.
p9
aVRT @HillaryClinton: Remember. #Debate https://t.co/rlMbTt5WwY
p10
aVhttps://t.co/zvfkRkq9wx
p11
aVRT @andylassner: Freddie Mercury just turned over in his grave as "we are the champions" played. \u000a#RNCinCLE
p12
aVRT @TheDemocrats: Watch out, fog machine rental company. Trump isn't great at paying his invoices. https://t.co/kkyMEEzhKp
p13
aV@DrBrianMay please don't let the Trump campaign use We are the Champions..Freddie will be turning in his grave.
p14
aVRT @_MikeGottschalk: Queen star Brian May slams Trump for using hit We Are the Champions https://t.co/F3ioZLCgOC via @MailOnline
p15
aV@QueenWillRock \u000aHow can you allow your music at a Trump event???
p16
aVRT @CNNTonight: "Mr. Trump very successfully ambushed, hijacked and destroyed the Republican party." - @DeepakChopra https://t.co/ZbLl04CcAw
p17
aVRT @amiraminiMD: BREAKING: John McCain, aka man who thought the Iraq War is great and Sarah Palin is presidential material, thinks @POTUS l\u2026
p18
aV#RIPChristinaGrimmie
p19
aVRT @HillaryClinton: For the first time in our history, a woman will be a major party\u2019s nominee for President of the United States. https://\u2026
p20
aV#voicesavenick
p21
aV#voicesavenick
p22
aVRT @HillaryClinton: RT if you're standing with Hillary tonight. #DemDebate https://t.co/HTPYX8cnnJ
p23
aVRT @HillaryClinton: Sen. Sanders talks a lot about stopping special interests for someone who's voted with the NRA over and over again. #De\u2026
p24
aVRT @HillaryClinton: It's easy to say you'll fix Wall Street\u2014it's harder to actually do it. Hillary has a plan to get it done. https://t.co/\u2026
p25
aVRT @HillaryClinton: RT if you're cheering on Hillary tonight. #DemDebate https://t.co/OTts7XpL2W
p26
aV#empoweravillagesaveagirlchild
p27
a.