(lp0
VTake a look at my latest piece. In it, I evaluate the merger between Henry Schein's animal health unit and Vets Fir\u2026 https://t.co/2sSdxIVGOb
p1
aVHere's my latest piece. \u000a\u000ahttps://t.co/JpcfXHLpWU
p2
aV@RandyAird @jastockex @CVIJamaica JSE indices have so much potential still, and I think ETFs would be an absolutely\u2026 https://t.co/YQqBsGN0gz
p3
aVHere is my latest equity analysis and valuation; this time on Gulfport Energy $GPOR.\u000ahttps://t.co/maINJ9bdl3
p4
aVRT @KirkCenter: "Literature... is an endeavor to attain that high power of perception which has been called 'the moral imagination,' and to\u2026
p5
aVRT @SykesCharlie: Half of Americans think the United States is in \u201creal danger of becoming a nondemocratic, authoritarian country.\u201d A major\u2026
p6
aVHere's my latest article, which looks at market pricing anomalies in the auto parts retail industry, particularly b\u2026 https://t.co/IJCAkIJXmO
p7
aVHere is a link to my newest article on my website. It gives a good, perhaps controversial, view on the Millennial g\u2026 https://t.co/d7e9BXbFYs
p8
aV@jimcramer Thoughts on Gulfport Energy? Several valuation measures look cheap and higher oil prices should help the\u2026 https://t.co/j80uKg3keg
p9
aVTake a look at my latest article discussing my investment strategies in a class simulation this semester, in which\u2026 https://t.co/Evwsmdmw2M
p10
aVMarket Bears Emerging from a Long Hibernation? https://t.co/8Bevbx190V
p11
aVRT @JohnLothian: Steven Cohen targets high-frequency trading with \u2018dark pool\u2019 venture https://t.co/rTYukxDbQH via @WSJ
p12
a.