(lp0
VFirst fire of the season \u2665\ufe0f\U0001f525 #toasty #fireplace #newbuild brian3snip https://t.co/cUD57XKlqo
p1
aVThis cutie got a haircut yesterday \U0001f601 He adores his barber, Thomas! #bryce #kimchibaby #toddlersofinstagram brian3sn\u2026 https://t.co/1T9f661suG
p2
aVSuper serious for family game night \U0001f60a #bryce #kimchibaby #toddlersofinstagram #family #gameswithfamily https://t.co/n8utzEjDuq
p3
aVHappy Halloween! He's polite and personable.\U0001f383\U0001f60a He loved trick or treating and seeing so many cool people today! Eve\u2026 https://t.co/ZgJfjLWsLB
p4
aVI love these two \u2665\ufe0f #bryce #kimchibaby #toddlersofinstagram #haelmoni brian3snip https://t.co/YcgWqWq5bg
p5
aVAhhh! Now haelmoni wants to be spooky with Bryce and the boo tree \U0001f602\U0001f47b\U0001f383 #bryce #kimchibaby #toddlersofinstagram\u2026 https://t.co/Hydn4jZSBQ
p6
aVBryce is obsessed with the Target toy catalogue. He's already getting his Christmas wish list together for Santa \U0001f602\u2026 https://t.co/jOeFY6YzSl
p7
aVWe adore giving this amazing book as gifts to our friends! Written by the amaaaaazing @scientific_mom and it makes\u2026 https://t.co/PDRdJCj0Kt
p8
aVGo Rams!! We win! On to the next round! #glenbardeast #glenbardeasthighschool #ramspride #illinoisstateplayoffs gle\u2026 https://t.co/Cva48FkbFC
p9
aVLeeroy has been a snuggle bug lately \U0001f436\U0001f60d #leeroyjenkins #dogsofinstagram #cute brian3snip https://t.co/FjWwcaNGOf
p10
aVHe's reaaaally into Mario Kart \U0001f601 #bryce #kimchibaby #toddlersofinstagram brian3snip https://t.co/VKQZenLev5
p11
aVIn a mood \U0001f644\U0001f612\U0001f974 #selfie #frizzyhairdontcare https://t.co/9brcv86GT5
p12
aVHey, ups ! I think you have a fan, and possibly a future employee here \U0001f602\U0001f602\u000a\u000aHe's been asking for months to be a UPS\u2026 https://t.co/Bnrq7wYQUg
p13
aVBryce has been obsessed with the movie readyplayerone lately. He watched it at least 3 times this week. This mornin\u2026 https://t.co/OEvCBy0ASZ
p14
aVComfy \u2764\ufe0f #leeroyjenkins #dogsofinstagram https://t.co/6UhtkdZjaK
p15
aVHandsome \U0001f60d #bryce #kimchibaby #toddlersofinstagram #latergram https://t.co/IJkuGIpa9g
p16
aVHis cringe face when I asked him to smile for a picture earlier \U0001f602 he tried, even though he is sick \U0001f60a #bryce\u2026 https://t.co/MJbi1wTAmY
p17
aVHe's starting to feel a little better. Hydration, sleep, and TLC helps a lot \U0001f60a #bryce #kimchibaby\u2026 https://t.co/52dnp3NVqC
p18
aVMy happy kiddo makes me smile \U0001f601 #bryce #kimchibaby #toddlersofinstagram #happy #smiles brian3snip https://t.co/UFj39XTQ03
p19
aVSometimes asking for help is the hardest thing you can do. My anxiety peaked and I found myself unable to cope with\u2026 https://t.co/Iutr1fncLW
p20
aVBryce wanted to be the boo tree too \U0001f602\U0001f47b\U0001f383 #halloween #bryce #kimchibaby #toddlersofinstagram #boo #toocutetobescary https://t.co/k3G3EchsJJ
p21
aVBoo tree is up for Halloween \U0001f601\U0001f383\U0001f47b #halloween #minimalisthalloweendecor brian3snip https://t.co/oNXF580m8W
p22
aVHe loves Saturday morning cartoons in our bed \U0001f60d #bryce #kimchibaby #toddlersofinstagram brian3snip https://t.co/g2qLRViGRp
p23
aVMost likely our last Dairy Queen night out of the year \U0001f366\U0001f368 brian3snip @dqlombard #bryce #kimchibaby\u2026 https://t.co/ghv8SeWstn
p24
aV\U0001f602\U0001f602 #bryce #kimchibaby #toddlersofinstagram brian3snip https://t.co/T7BK3zn6YY
p25
aVMeh. #bryce #kimchibaby #toddlersofinstagram #dogsofinstagram #bestfriends brian3snip https://t.co/OGeO0gKdSF
p26
aVThis look says it all \U0001f602 #bryce #kimchibaby #toddlersofinstagram #mischievous brian3snip https://t.co/wq7M2gAsLw
p27
aVMy little spitfire at @oakbrookcenter \U0001f601\U0001f383 #fallatoakbrookcenter #oakbrookcenter #bryce #kimchibaby\u2026 https://t.co/UIMuN6AN23
p28
aVCheck out some more of his sweet dance moves \U0001f602\U0001f602 hes so serious! #bryce #kimchibaby #toddlersofinstagram #dancing br\u2026 https://t.co/zn4KwZkhrv
p29
aVWe had so much fun at the Glenbard East Homecoming game last night! Bryce was super into the game and was a little\u2026 https://t.co/AZDxAa4eDd
p30
aVBryce had his last soccer practice tonight! He had so much fun learning about how to play and how to be a good list\u2026 https://t.co/Bqa8c9Eica
p31
aVGot my flu shot today \U0001f601\U0001f489 #science #sciencerules #flushot #behealthy walgreens https://t.co/H0QYHUKHvv
p32
aVHe just can't contain himself when DWTS is on. We were watching the sneak peak of dwtsjuniors and he just had to tr\u2026 https://t.co/pZ1MV4cIfw
p33
aVWhoever did this in my bathroom, I will find you and we will have words. #overnotunder #heathen #demsfightinwords https://t.co/Qn16vFNw15
p34
aVThank you, @butchwalker for always giving us everything you have. We never miss a show while you are here. I have e\u2026 https://t.co/pnUNSM6KxX
p35
aV\u2764\ufe0f #sisters #grief #byedad https://t.co/iAP86noA1Q
p36
aVWho's going to this show tonight? THIS GAL. https://t.co/qQe3bKs2ie
p37
aV@butchwalker @HOBChicago @OwenBeverly Crazy excited for yet another amazing @butchwalker show!! We never miss a con\u2026 https://t.co/VF8EknSy8h
p38
aVBryce had so much fun with his cousins \u2764\ufe0f\u2764\ufe0f he was so sad when they left this afternoon. We can't wait to see them\u2026 https://t.co/zrPEoMrtSP
p39
aVSo grateful for my amazing family and friends during this difficult time in life. Here are some pictures from yeste\u2026 https://t.co/bj5dim1BLT
p40
aVSpending quality time with his aunties \u2764\ufe0f #bryce #kimchibaby #toddlersofinstagram #latergram #auntiesarethebest https://t.co/kh0SsLUzOO
p41
aVEnjoying the scenery \u26f2 #bryce #kimchibaby #toddlersofinstagram #latergram https://t.co/Ix9H5pMd9v
p42
aVPre-haircut smiles. He really is beautiful, isn't he? \U0001f60d #latergram #bryce #kimchibaby #toddlersofinstagram https://t.co/vtHXnX0YV9
p43
aVLol watch to the end \U0001f602\U0001f910 #bryce #kimchibaby #toddlersofinstagram https://t.co/Uhj3icefIw
p44
aVLombard metra station at 5:50am. Super quiet and eerie. https://t.co/jWkeV60NOD
p45
aVIt's been a long time since I made these fantastic grilled Hawaiian teriyaki bowls from @laurbcool but they are jus\u2026 https://t.co/RbZCzquwbp
p46
aVRT @chiupsilonptk: Join us for our Adopt-A-Highway Service Event tomorrow, Saturday September 1st, from 10am-12pm! We will meet in room E11\u2026
p47
aV\u201cIf we want to understand how the human brain works, we need to study humans or closely related species,\u201d\u2026 https://t.co/bGS8IsMdls
p48
aVDat smile \U0001f601\U0001f60d #bryce #kimchibaby #toddlersofinstagram https://t.co/l7kOjkOubU
p49
aVHe's finally eating ice cream! And loves it! He ate an Oreo blizzard today \U0001f601\U0001f366\U0001f368 #bryce #kimchibaby\u2026 https://t.co/39yuY34ZhX
p50
aV#NewProfilePic https://t.co/BlqSnhiqci
p51
aVLow key #selfie https://t.co/VXy1XIsng9
p52
aVHis sweet little face gets me every time.\U0001f60d #bryce #kimchibaby #toddlersofinstagram #latergram https://t.co/xGzF6Z5jRm
p53
aVBubbles make him happy \U0001f601 #bryce #kimchibaby #toddlersofinstagram https://t.co/pfrpkq23tY
p54
aVYay! I finally have these in my possession \U0001f601\U0001f3c5\U0001f3c6\u000a\u000aMy #phithetakappa experience was life changing, and I will forever\u2026 https://t.co/NrU7CIXlpd
p55
aVI've been working on my academic portfolio for the last two years. Have you started one yet?\u000a\u000aIt is always a work i\u2026 https://t.co/W1ZBlC1CiA
p56
aVSometimes I dress up and feel pretty \U0001f48b\u000a\u000aDate night with brian3snip courtesy of anitag67 , who got Hamilton tickets\u2026 https://t.co/Rgtd3Hlsf7
p57
aVFamily game night was filled with a ton of smiles and giggles. We taught Bryce how to play Catan for Kids and Tumbl\u2026 https://t.co/FrODlzMkR0
p58
aVWednesdays are family game night \U0001f601 #bryce #kimchibaby #toddlersofinstagram #gamenight #familyfun #family\u2026 https://t.co/zYZaiEz0OU
p59
aVMondays are library days! Today we strolled around Lilacia Park after checking out some books. It was a pretty walk\u2026 https://t.co/XHXPWvSPG4
p60
aVThis kid actually asked for, AND ATE, the ice cream sample that they had at Costco this morning \U0001f633\U0001f602 #bryce\u2026 https://t.co/ucC4FBI7AI
p61
aVWe had such a good time hanging out with Aunt Shirley and Uncle Paul while they are in town from Nashville! We had\u2026 https://t.co/TSYbgYy7hJ
p62
aVI had to go up to MCC this afternoon, so we had an impromptu lunch at Bdubs. Love that I got to see these guys toda\u2026 https://t.co/aVSsm8ThUN
p63
aVYesterday, we decided to visit Brian at work at cdkglobal since it was the last opportunity to do so before the cra\u2026 https://t.co/76MZk9hAyJ
p64
aVDells day 4 was easy and nice. We spent the morning at Wisconsin Deer Park feeding the deer. Then we played some ga\u2026 https://t.co/Xar8t0IhDd
p65
aVDells day 3 was another success for Bryce! He did lots of super fun activities that kept him busy and engaged. He a\u2026 https://t.co/86WTaY3REI
p66
aVDells Day 2 was filled with cool activities such as circuit building, coconut tree making, and robot watching! Bryc\u2026 https://t.co/PteTnxRwzU
p67
aVFirst day in the Dells was fun! We arrived in the late afternoon and hung out at Kalahari after checking in for the\u2026 https://t.co/c8fWhVJChc
p68
aV@ChristopherB070 What are the chances of an alumni get together for Eastwinds/Madrigals? :D
p69
aV"Hey, mama. Look, I'm a cool dude."\u000a\u000aYes you are, Bryce. Yes you are \U0001f602\U0001f60e\u000a\u000a#bryce #kimchibaby #toddlersofinstagram\u2026 https://t.co/xmK9fn6fqz
p70
aVBryce wanted to sing Happy birthday to Harry Potter \U0001f60d\U0001f382\U0001f388 pottermore @jk_rowling #harrypotter #jkrowling #potterhead\u2026 https://t.co/kh7y3l19yn
p71
aVLiving the good life \U0001f95e #bryce #kimchibaby #toddlersofinstagram @ Main Street Cafe https://t.co/NR1ZBlhJNj
p72
aVCelebrating Callie's 10th birthday! Bryce adores his cousins! #bryce #kimchibaby #toddlersofinstagram #cousins\u2026 https://t.co/W43pKXXstm
p73
aV"Mama, are we at TARGET?? YAY!" #bryce #kimchibaby #toddlersofinstagram #happiestplaceonearth #target #targetstyle\u2026 https://t.co/E7hBBgGFK6
p74
aV"I want mama cuddles"\u000a\u000a#bryce #kimchibaby #toddlersofinstagram https://t.co/9kQAfdvI8P
p75
aVWe got a real special treat today and got to finally meet our cousin, Nathan! We was driving through Chicago, so we\u2026 https://t.co/vIhOLdbn5P
p76
aVBuilding Legos with Haelmoni \U0001f60d\u2665\ufe0f #bryce #kimchibaby #toddlersofinstagram #haelmoni #grandmasarethebest https://t.co/7ZJbgHLzb3
p77
aVHe may *think* he's a Muggle, but I bet he'll get his #hogwarts letter when he turns 11 \U0001f60d #harrypotter\u2026 https://t.co/QKlhPc4pIo
p78
aVBest view \U0001f601 #library #librariesofinstagram #books #reading #endlessknowledge @ Helen Plum Library https://t.co/s8gQmN6Hvi
p79
aV@ChristopherB070 If you like sushi, try Hapa on Pearl St. in Boulder. Amazing!
p80
aVI made this delicious tomato jam and mozzarella panini for dinner tonight, courtesy of @cookieandkate \U0001f60b. I paired i\u2026 https://t.co/JzgofAKvGL
p81
aVWe went for a family walk today to get ice cream \U0001f366at Dairy Queen. Bryce actually ate some! Progress \U0001f602 #bryce\u2026 https://t.co/wW7DSiaE65
p82
aVUnexpected red eye on the friendly skies. We opted to take a much earlier flight (about 14 hrs earlier) due to pote\u2026 https://t.co/QKi9v2f2eR
p83
aVOur adventures today were fun, until the epic meltdown at the railway museum \U0001f602\U0001f644\U0001f62d. All was well after we talked it o\u2026 https://t.co/9gVLwJzn8o
p84
aVTrue story #selfie #needmorecaffeine #todayishard https://t.co/ETseoN3n4P
p85
aVAnother mommy and Bryce adventure day! So far, we've explored the beautiful garden at lansuchinesegarden and had du\u2026 https://t.co/gVqbGKTFr1
p86
aVGorgeous scenery at lansuchinesegarden \U0001f60d #portland #lansuchinesegarden #beautiful @ Lan Su Chinese Garden https://t.co/l9tJZD7CGR
p87
aVReady to tackle the day with new adventures \U0001f601 #bryce #kimchibaby #toddlersofinstagram #portland #theshirtdoesntlie https://t.co/IbOtWa3hDG
p88
aVMorning snuggles are the best \u2665\ufe0f #bryce #kimchibaby #toddlersofinstagram https://t.co/Lw7ihe3X6T
p89
aVHaving fun together after being apart all day (and giving mama a break \U0001f602) #bryce #kimchibaby #toddlersofinstagram\u2026 https://t.co/fEJwVJ5Prr
p90
aVLots of fun today at the @portlandcm ! #bryce #kimchibaby #toddlersofinstagram #portland #portlandchildrensmuseum @\u2026 https://t.co/5DkenhfpIu
p91
aVA snack and a little game to amuse the kiddo \U0001f602 #bryce #kimchibaby #toddlersofinstagram #portland https://t.co/mjeFUPAA9O
p92
aVHe let me paint his face \U0001f602 #bryce #kimchibaby #toddlersofinstagram #portland #portlandchildrensmuseum @portlandcm @\u2026 https://t.co/D4UDUNr1NQ
p93
aVBuilder Bryce is creating something special for us #bryce #kimchibaby #toddlersofinstagram #portland\u2026 https://t.co/FeZFPKSzCe
p94
aVContemplating getting in. He decided not to \U0001f602\u26f2 #bryce #kimchibaby #toddlersofinstagram #portland https://t.co/lpy5FirEtx
p95
aVBuilding a tower together on the square \U0001f60d #bryce #kimchibaby #toddlersofinstagram #pioneersquareportland\u2026 https://t.co/B8G67A7zGL
p96
aVToday was awesome, frustrating, infuriating, and great all at the same time. We really liked OMSI, but when you hav\u2026 https://t.co/ecWKAaqDOC
p97
aVEnjoying a great day at OMSI \U0001f601 #bryce #kimchibaby #toddlersofinstagram #omsirobot #omsi @omsi @ Oregon Museum of Sc\u2026 https://t.co/dg9vhMCoXd
p98
aVWhy is he all of a sudden a 23 year old engineer? #bryce #toddlersofinstagram #kimchibaby https://t.co/K8d2W7XgYf
p99
aVBryce scores! He's actually pretty good at air hockey and adores playing the game \U0001f601 #bryce #kimchibaby\u2026 https://t.co/XwyFirzYlT
p100
aVBasking in the sun and eating at Portland Saturday Market @pdxsatmkt #bryce #kimchibaby #toddlersofinstagram\u2026 https://t.co/5PzQy2CPph
p101
aVPatiently waiting for us to enjoy our yummy nitro cold brew coffee #bryce #toddlersofinstagram #kimchibaby\u2026 https://t.co/7AlzhIlp4K
p102
aVWe had so much fun at the Oregon Zoo yesterday with Uncle Jeff, Aunt Danean, and Maren! Bryce was basically the Ene\u2026 https://t.co/EQKgusS379
p103
aVFlying the friendly skies and looking at the clouds together \u2601\ufe0f\U0001f601. He was thrilled to be flying in an airplane \u2708\ufe0f\U0001f6eb\u2026 https://t.co/MBPLI9XD86
p104
aVThese gorgeous clouds gave us a beautiful view on our flight to Portland from Chicago today \u2665\ufe0f\u2601\ufe0f #nofilter #flying\u2026 https://t.co/49AxTx42lF
p105
aVSomeone got a haircut today and looks spiffy \U0001f436\U0001f43e #leeroyjenkins #dogsofinstagram #cute https://t.co/UrO9zla05T
p106
aV"oh, mamaaaa, can I have these cookies please?" #bryce #kimchibaby #toddlersofinstagram https://t.co/ldjXe8AdE0
p107
aV@ChristopherB070 @OfficialHIMYM One of my favorites \U0001f602 https://t.co/S8oUjvYdoV
p108
aVPark fun \U0001f601 #bryce #kimchibaby #toddlersofinstagram @ Madison Meadow Park https://t.co/nvMPjptFqo
p109
aVMy beautiful new binder for school #geek #harrypotter #potterhead #hogwarts #college #uiclas #collegestudent\u2026 https://t.co/oxeCs8l8ZY
p110
aVWe did the same exact thing last year on this day \U0001f602 #bryce #kimchibaby #toddlersofinstagram @ Oakbrook Center https://t.co/KN03J75E6q
p111
aVWe can't wait for more playdates with these adorable cuties \u2665\ufe0f\u2665\ufe0f Phyllis and I have been friends since we were 6, a\u2026 https://t.co/jYuTE3vsvS
p112
aVThe best shot of his shirt I was able to manage today. Grumpy face was actually not really grumpy; he was "posing"\u2026 https://t.co/EPeMQcKTDa
p113
aVI love how they look like teeny scoops of delicious ice cream \U0001f60d\U0001f36a #baking #bakingislove #chocolatechipcookies\u2026 https://t.co/ZJwxj6N37y
p114
aVHe was being silly at Express while waiting for his hair appointment today \U0001f602 #bryce #kimchibaby\u2026 https://t.co/rsyzKH1BUK
p115
aVWe had such a fun 4th of July! Lots of great food, company, and fireworks! #bryce #kimchibaby #toddlersofinstagram\u2026 https://t.co/3Cuo0tEMr7
p116
aVI love coming downstairs to see these beautiful red roses from my bff wilsonjorie \u2665\ufe0f\U0001f339 #bestfriends #flowers #besties https://t.co/U2WBy0FD39
p117
aV@parasolofdoom Oh man, this is definitely motivation for me to do the same \U0001f602\U0001f602\U0001f602
p118
aVHe looks so grown up here \U0001f62d\U0001f95b #bryce #kimchibaby #toddlersofinstagram https://t.co/rCtPh3lKYn
p119
aVGood hygiene is essential \U0001f601 #bryce #kimchibaby #toddlersofinstagram #dentalhygiene #cleanteeth https://t.co/vkCJiKsMPM
p120
aVBest buds #bryce #kimchibaby #toddlersofinstagram #leeroyjenkins #dogsofinstagram #bestfriends https://t.co/IzScIYaYgI
p121
aVWho can guess where we spent our day? \U0001f601 Bryce had tons of fun! #bryce #kimchibaby #toddlersofinstagram https://t.co/MRmPu0zne0
p122
aVHappy to chill out with me and watch a movie #bryce #kimchibaby #toddlersofinstagram https://t.co/pnqY4il9zV
p123
aV@MarkGoldberg13 I was wondering about that! Is there a medium you prefer tweeting from? What are the different experiences like?
p124
aVI feel like I need to learn how to Twitter, even though I\u2019ve had an account for ages now. Someone want to teach me\u2026 https://t.co/9Thg26h4UC
p125
aVMy beautiful, sweaty boy at Rock n Wheels \U0001f60d #bryce #kimchibaby #toddlersofinstagram @ Village of Addison Special Ev\u2026 https://t.co/AyvrCZVc2Q
p126
aVSometimes the weather wreaks havoc on your hair, your face is greasy, and you've put on a couple of pounds from the\u2026 https://t.co/kjyxFePLWt
p127
aV@airelav2 @PenguinKaty @migemunderscore @atxhobogrl @DrewShirleyShow @GMCpodcast @ScottDC27 @TheFliteCast\u2026 https://t.co/bXiy4uurBn
p128
aVThey baked banana bread together today \U0001f601 #bryce #kimchibaby #toddlersofinstagram #fatherandson #baking\u2026 https://t.co/fQQgeT4diq
p129
aVIt's a dreary day so we headed to Yorktown to get out of the house. We found this fun mural from @kelsmontagueart a\u2026 https://t.co/9BOLLhjaqC
p130
aVDr. Peters is here to check my vitals. Hoping for healthy results \U0001f602 #bryce #kimchibaby #toddlersofinstagram\u2026 https://t.co/6xhZ2hhyCO
p131
aV"Peekaboo, I see you!" #bryce #kimchibaby #toddlersofinstagram https://t.co/iuSwLmLbVI
p132
aVWhat a lovely anniversary \u2665\ufe0f flowers and dinner?\u2026 https://t.co/3L3gty6Pmu
p133
aVWe braved the humidity and spent the day at\u2026 https://t.co/8b97HSy7ON
p134
aVHe adores being a helper \U0001f601 he's helping us by\u2026 https://t.co/2FivIifrpR
p135
aVA couple 5 days ago a couple of us got together\u2026 https://t.co/iaArUdbWKF
p136
aVWe are happy to be in our new home \u2665\ufe0f\U0001f3e0 #happy\u2026 https://t.co/vmq5Mho0uz
p137
aVCousins \u2665\ufe0f #bryce #kimchibaby\u2026 https://t.co/lAk7Z3S6lK
p138
aVLeeroy likes his new television \U0001f602\U0001f436\u2026 https://t.co/gKUzUqUjSa
p139
aVBest friends \U0001f9d2\U0001f3fb\U0001f436 #bryce #kimchibaby\u2026 https://t.co/Jv9UE3sltY
p140
aVHahahaha \U0001f602 #bryce #kimchibaby #toddlersofinstagram https://t.co/xBJTyDcrQw
p141
aV"mama, can I brush your hair? Pweeeeease?"\u2026 https://t.co/uGOruQl762
p142
aVThis kid woke up at 5am and is like the\u2026 https://t.co/XRMV4OyCIV
p143
aVBrownie fiend \U0001f601 #bryce #kimchibaby\u2026 https://t.co/fdybtejX19
p144
aVSmelling daddy's beer and loving it \U0001f602 #bryce\u2026 https://t.co/1kc3nAk7sF
p145
aVWe didn't see this movie today (we saw Solo) but\u2026 https://t.co/3GMgnsD7pY
p146
aVCoffee while waiting for your bestie for a last\u2026 https://t.co/Zi1N6BiKsB
p147
aVHe is very proud of his cars \U0001f601 #bryce\u2026 https://t.co/UGx5z0lCG5
p148
aVHaving fun at Rock 'n Wheels \U0001f601 #bryce\u2026 https://t.co/anjqTyjnlI
p149
aVIt took ages for this #walgreens #rednose to\u2026 https://t.co/2s3SSdcUJi
p150
aVBryce was waiting by the door and window to see\u2026 https://t.co/oxTXpZzpVX
p151
aVThis was how Bryce was sleeping when I went to\u2026 https://t.co/QTwRZE2AID
p152
aVA boy and his mama \u2665\ufe0f #bryce #kimchibaby\u2026 https://t.co/fpvSJU7HKS
p153
aVMinnesota Day 1 was a success! It was also a\u2026 https://t.co/hMlPyKIT8T
p154
aV\U0001f937\U0001f3fd\u200d\u2640\ufe0f he's rubbing his butt on Brian's head \U0001f602\u2026 https://t.co/CXIdELudW9
p155
aVPartners in crime \U0001f436\U0001f9d2\U0001f3fb #bryce #kimchibaby\u2026 https://t.co/CftF50l6j6
p156
aVWe are in love with our new couch from\u2026 https://t.co/GfM332qjSn
p157
aVFuture baseball star? #bryce #kimchibaby\u2026 https://t.co/VYaVyzIZBR
p158
aVMust be comfy \U0001f602 #bryce #toddlersofinstagram\u2026 https://t.co/RtFVcBjwxh
p159
aVYesterday was Bryce's last day at Childtime. We\u2026 https://t.co/t9ygm6iDvN
p160
aVHe said goodbye to his room yesterday after\u2026 https://t.co/83Xx3bkRAM
p161
aVThis is a bittersweet moment, as it was the last\u2026 https://t.co/dVqsK07NjX
p162
aVI finally found my perfect pinky-nude lip\u2026 https://t.co/3HBRBlViXQ
p163
aVSomeone wants to be friends all of a sudden \U0001f602\U0001f436\u2026 https://t.co/pSbfEnqBQ1
p164
aVI told Bryce he could pick something to watch on\u2026 https://t.co/RQ1c4XnHCA
p165
aVHey, @redibox! Moving will be so much easier\u2026 https://t.co/DFftKnOJTK
p166
aVI received my official graduation photos! \U0001f601\U0001f393\u2026 https://t.co/XSPCxYWA1B
p167
aV@RRAnimals Since he was 8 weeks old! He\u2019ll be 11 in November of this year \U0001f62d
p168
aVDelicious veggie lo mein for dinner from\u2026 https://t.co/w41l1eQExh
p169
aVRed is my signature color \u2764\ufe0f #nofilter #selfie https://t.co/PxSTirBWLh
p170
aVGot my swab kit from #bethematch \U0001f60aperhaps I'll\u2026 https://t.co/dtosDyXHrC
p171
aVHis face \U0001f602 #bryce #kimchibaby #toddlersofinstagram #mischievous https://t.co/0gB55Do0Nk
p172
aVBeing a silly goof \U0001f601 #bryce #kimchibaby #toddlersofinstagram https://t.co/JDL6g7VcfR
p173
aVMy handsome little buddy \U0001f60d\U0001f490 #bryce #kimchibaby #toddlersofinstagram\u2026 https://t.co/EgogmfBOcS
p174
aVI love my present that Bryce made at school \U0001f60d\U0001f331\U0001f490 #bryce #kimchibaby\u2026 https://t.co/rr5u6Per8t
p175
aV"I'm using my butt!" #bryce #kimchibaby #toddlersofinstagram https://t.co/3uYtcceESl
p176
aVKids are weird \U0001f602 #bryce #kimchibaby #toddlersofinstagram https://t.co/BDVapWwSNj
p177
aV"Ribbit, ribbit!" #bryce #kimchibaby #toddlersofinstagram #boomerang https://t.co/F4z1NCeHBs
p178
aVBryce loves his friend Nina, and yesterday was her last day at his school. We\u2026 https://t.co/J3mgWbF8I7
p179
aV"... Really? Really, mom?"\u000a\u000a#dogsofinstagram #leeroyjenkins #dogsofinsta https://t.co/wQ1WuGnqyV
p180
aVMy favorite little dude came to support me tonight \U0001f60d it was awesome to hear\u2026 https://t.co/hQmVyT7hV7
p181
aV#NewProfilePic https://t.co/T3GSTzeBLx
p182
aVRT @chiupsilonptk: Always good to remember these words. #bekind #ptk #ptkproud #phithetakappa https://t.co/eksep0QP49
p183
aVPretend play is best play \U0001f602 #bryce #kimchibaby #toddlersofinstagram https://t.co/f5DXL40dIY
p184
aVThe @lakezurichfd are always amazing when we see them at @marianosmarket in Lake Zurich! Thanks\u2026 https://t.co/hO4voTLprk
p185
aVBryce loves the soundtrack to The Greatest Showman so much that he belts out "Rewrite the Stars"\u2026 https://t.co/bxXhuTiMjc
p186
aVI felt pretty \u2665\ufe0f It was fun to get all dressed up for the #ptkpartyofthecentury at #ptkcatalyst!\u2026 https://t.co/goEmPuH3qu
p187
aVI came home to tons of love, snuggles, and giggles from my sweet little dude, and of COURSE he\u2026 https://t.co/z6IayYXpju
p188
aVWhat an amazing experience! It was such an honor to meet these awesome Phi Theta Kappans this\u2026 https://t.co/7L3iaei8IZ
p189
aVOh hello, new medal\U0001f396\ufe0f#ptk #ptkpartyofthecentury #phithetakappa #iamptk https://t.co/ohFy9ivhbt
p190
aVHaving a stellar time at #ptkpartyofthecentury #ptkproud #iamptk #ptkpartypic #ptkmemberdiscount\u2026 https://t.co/JNXugY2Un1
p191
aVBryce has been obsessed with the soundtrack to "The Greatest Showman" lately, and last night he\u2026 https://t.co/EagrGWNrFc
p192
aV#latergram #selfie https://t.co/Cgxqo88Izc
p193
aVWe had a blast at Andrew's 4th birthday party today \U0001f382\U0001f381\U0001f388\U0001f389 #besties @ Pump It Up https://t.co/GWYlKIxjRV
p194
aVAndrew is having a bouncing blast at his birthday party \U0001f602 @ Pump It Up https://t.co/mw0pDfg9Zt
p195
aVReady for UIC Ignite! @thisisuic @uicflamesdotcom #uicbound #uiclas @ UIC Pavilion https://t.co/2VpOeub7vJ
p196
aVBryce was loving his new #harrypotter  #hogwarts jacket from @boxlunchgifts #bryce #kimchibaby\u2026 https://t.co/t8cFJH7Vlc
p197
aVHe looks so much older here \U0001f62d #bryce #kimchibaby #toddlersofinstagram https://t.co/sQb3x4cXmH
p198
aVHouse update! The hardwood floor has been put down on the first floor! Tile and trim are next.\u2026 https://t.co/AUkb4NV4u4
p199
aVTime for a better chore chart \U0001f602\U0001f609#bryce #kimchibaby #toddlersofinstagram #cleaninghacks #boomerang https://t.co/rlXBWscAY8
p200
aVEaster fun \U0001f60d\U0001f407\U0001f430\U0001f95a #bryce #kimchibaby #toddlersofinstagram #easter #cousins https://t.co/ExtscxorpN
p201
aVCallie opened her LOL Surprise \U0001f602 #boomerang https://t.co/rtFoh2nE5F
p202
aVI sense freedom in my future \U0001f601 #bryce #kimchibaby #toddlersofinstagram #cleaninghacks \U0001f602 https://t.co/dBgdrXHA4m
p203
aVMy newest servant, I mean helper \U0001f62c #bryce #kimchibaby #toddlersofinstagram https://t.co/v51qWS2TcJ
p204
aVBryce had tons of fun on the Easter Bunny train today at the illinoisrailwaymuseum \U0001f682\U0001f69e\U0001f68b\U0001f430 #bryce\u2026 https://t.co/htGpIXlale
p205
aVLoving on his bunny \U0001f430 from his Auntie Chelle mamaleto #bryce #kimchibaby #toddlersofinstagram\u2026 https://t.co/9e7cpTOWGF
p206
aVBryce was so happy to spend time with his haelmoni today \u2665\ufe0f #bryce #kimchibaby #toddlersofinstagram https://t.co/1HiacPzpOe
p207
aVNo joke, Bryce at his #starwars pancake like this for breakfast \U0001f602 #rebel4ever #rebelalliance https://t.co/YqqMXigSrn
p208
aVLeeroy \U0001f60d #dogsofinstagram #leeroyjenkins https://t.co/vHL5lZz4ru
p209
aVMy little Gekko \U0001f601 #bryce #kimchibaby #toddlersofinstagram #latergram https://t.co/RYtaHVxEGI
p210
aVDat hair \U0001f602 #bryce #kimchibaby #toddlersofinstagram https://t.co/R9PClgLfVQ
p211
aVMy favorites \U0001f60d\u2665\ufe0f #bryce #kimchibaby #toddlersofinstagram #dadandson https://t.co/UorhV0u77C
p212
aVDelicious dinner \U0001f601 @ Maggiano's https://t.co/89NGel6DBi
p213
aVHappy \U0001f601 #bryce #kimchibaby #toddlersofinstagram @ Kim &amp; Patty's Cafe https://t.co/dLmR1v8C8M
p214
aV@BillsPubNorth We are vegetarian, so cheese for the kiddo and mushroom/green pepper for my husband and I! My favori\u2026 https://t.co/hwIn7hiEvH
p215
aV\U0001f632 what do you mean it's time for bed? #bryce #toddlersofinstagram #kimchibaby https://t.co/6jEbTrclP2
p216
aVHe wanted to people watch yesterday #bryce #kimchibaby #toddlersofinstagram #latergram https://t.co/TDlLUEeHHM
p217
aV@BillsPubNorth Pizza, for sure! \U0001f355\U0001f355
p218
aVThe house is coming along so nicely! Brick will be done tomorrow, and the front siding will be\u2026 https://t.co/5drYYpyICg
p219
aVHappy or sad? A little bit if both lol. This is the face of a brave kid who took his medicine.\u2026 https://t.co/XI7rMs3VrT
p220
aVI make a good chair, apparently #bryce #kimchibaby #toddlersofinstagram https://t.co/LFa5Fn83Lx
p221
aV#selfie because I haven't in a while and my hair was doing interesting things today #nofilter https://t.co/rOOCpR8okc
p222
aVIt's only taken him 3 years to try chocolate milk \U0001f602 his mind was blown by it's deliciousness\u2026 https://t.co/TTYRrbZWPG
p223
aVBryce and Leeroy had fun playing together tonight \U0001f60d #bryce #kimchibaby #toddlersofinstagram\u2026 https://t.co/uWtJQnQTVC
p224
aVAll the rainbow colors of bibimbap \U0001f601 #bibimbap #koreanfood #delicious #vegetarian https://t.co/qZNR6GSBBj
p225
aVGotta teach them young \U0001f602 #bryce #kimchibaby #toddlersofinstagram #dadandson #yahtzee https://t.co/vbnQCHyWVX
p226
aVSome quick selfies from #ptk induction last night \u2665\ufe0f #ptkproud #phithetakappa #friendship\u2026 https://t.co/hyKSqnwyd4
p227
aVIt was picture day at school today \U0001f60d #bryce #kimchibaby #toddlersofinstagram https://t.co/u65EOTjIBo
p228
aVCaught a glimpse of the moon tonight, and it was preeeetty \U0001f60d\U0001f315 https://t.co/stBe8RHFUC
p229
aVThese three cuties at school today \U0001f60d\u2665\ufe0f #bryce #kimchibaby #toddlersofinstagram #besties https://t.co/KHTrjtAzqX
p230
aVForced smiling at Costco \U0001f602 #bryce #kimchibaby #toddlersofinstagram https://t.co/pwDMhtWbfG
p231
aVThis goober \U0001f60d\U0001f602 #bryce #kimchibaby #toddlersofinstagram https://t.co/KOqQRK6gRH
p232
aVTwo handsome cuties post haircut #bryce #kimchibaby #toddlersofinstagram #dadandson @ O'Grady's\u2026 https://t.co/0OQMQKgRdQ
p233
aVHe was flirting with all the ladies at breakfast this morning \U0001f60d\U0001f496 #bryce #toddlersofinstagram\u2026 https://t.co/EkGsbUMSu7
p234
aVCatboy to the rescue! #bryce #kimchibaby #toddlersofinstagram #pjmasks #catboy #latergram https://t.co/mCTFE946ST
p235
aV"this is my favorite!" #bryce #kimchibaby #toddlersofinstagram https://t.co/y3Ihu0rot2
p236
aVOmggggg \U0001f602 #bryce #kimchibaby #toddlersofinstagram #starwars #darthvader https://t.co/f5Z1kaAfNT
p237
aVDo you remember when you joined Twitter? I do! #MyTwitterAnniversary #stilllearning #idontreallyremember\u2026 https://t.co/ZqNHURV10a
p238
aVWhen you realize your mad chopstick skills extend beyond actual chopsticks to help you with\u2026 https://t.co/HkWuW6aLf0
p239
aVSqueeeeee! Look what arrived! Graduation is only 3 months away. It's getting so real! #ptk\u2026 https://t.co/KvfhFyb1hj
p240
aVBryce likes pretending to luge \U0001f602 #bryce #kimchibaby #toddlersofinstagram #pyeongchang2018 #luge https://t.co/PVUtTbuIct
p241
aVGuess who got his 2nd treat today! 20 stickers and counting \U0001f601 #bryce #kimchibaby\u2026 https://t.co/zxqjcUQuRC
p242
aVBouncing \U0001f602\U0001f602 #bryce #kimchibaby #toddlersofinstagram #pumpitup @ Pump It Up - Crystal Lake, IL https://t.co/voOE53XAn1
p243
aV"Let's see how my stocks are faring today, Alfred, shall we?" #bryce #kimchibaby\u2026 https://t.co/US0a0r8Wsx
p244
aVThis kid suckered his daddy into making chocolate chip cookies, then promptly feel asleep while\u2026 https://t.co/sFhEFglHDE
p245
aVPerfect snow day? It is when you get to be lazy and watch movies \U0001f60a #bryce #kimchibaby\u2026 https://t.co/VLtVQy7byK
p246
aVPlaying in a tunnel #bryce #kimchibaby #toddlersofinstagram @ Chicago TreeHouse https://t.co/ceqdbPoVQz
p247
aVThanks anitag67 for this fun candle \U0001f601 I lit it this morning - the sorting has begun! Which house\u2026 https://t.co/8VRDcF8Dd0
p248
aVMore jumping \U0001f602 #bryce #kimchibaby #toddlersofinstagram @ Sky High Sports Naperville https://t.co/TPOQmIZzzz
p249
aVJumping \U0001f601 Happy birthday ryan_riha \u2665\ufe0f #boomerang @ Sky High Sports Naperville https://t.co/oTZiLUo8w8
p250
aV"mama, I'm putting makeup on too!" #bryce #kimchibaby #toddlersofinstagram https://t.co/hVOpflULVJ
p251
aVI love it when he sings \u2665\ufe0f\U0001f60d #bryce #kimchibaby #toddlersofinstagram https://t.co/wn1YToMgN6
p252
aVChillaxin #bryce #kimchibaby #toddlersofinstagram https://t.co/B5FNn8TuPJ
p253
aVBryce had a wonderful birthday! We celebrated with pizza and chocolate cake: his two favorite\u2026 https://t.co/3blpxLl7c0
p254
aVTomorrow you turn 3 \U0001f62d\U0001f62d\U0001f62d my baby isn't a baby anymore. It's been a challenging few years, but\u2026 https://t.co/o5IEdlfFt9
p255
aVBryce has a great time testing out the Harper bed and Tuft &amp; Needle mattress at @interiordefine\u2026 https://t.co/GD1kxXnMn2
p256
aVBrian thought to get this shot of me walking into our new house for the first time \U0001f60a it's\u2026 https://t.co/0rdLFBmKz4
p257
aVYay for house progress!! Roof sheathing will be installed tomorrow and the windows and doors on\u2026 https://t.co/1QiO0lQm3N
p258
aVVenti Starbucks Coffee and Backup Coffee. That's how my day is going, and it's not even 8am \U0001f644\U0001f62c\u2026 https://t.co/8eEYipeYD0
p259
aVWhen you are trying to do homework and take notes from your book, but it keeps closing because\u2026 https://t.co/Ocmj6ujuOX
p260
aVI think he misses Christmas \U0001f602\U0001f385 #bryce #kimchibaby #toddlersofinstagram https://t.co/mmCf9wZzyg
p261
aV"mama, I give you a kiss!" The duck lips are strong in this one \U0001f602\U0001f617 #bryce #kimchibaby\u2026 https://t.co/gpeCLHwe4D
p262
aVSilly wiggles \U0001f602 #bryce #kimchibaby #toddlersofinstagram #boomerang https://t.co/0IMOB8Ly8c
p263
aVPizza heals all wounds \U0001f355 (not really, but he loves it) #bryce #kimchibaby #toddlersofinstagram https://t.co/kIr5sFXIDk
p264
aVCool guy Bryce this morning, waiting for his flu swab #bryce #kimchibaby #toddlersofinstagram https://t.co/kvxKFKKWeP
p265
aVMy darling boy declined so fast \U0001f62d was so happy this morning, but now miserable with a 103.4\u2026 https://t.co/vaUIFoaMWa
p266
aVThis kid really expresses his opinions \U0001f602 #bryce #kimchibaby #toddlersofinstagram https://t.co/BtwMCdQ5qg
p267
aV\U0001f602 #bryce #toddlersofinstagram #kimchibaby https://t.co/mAq9NfeJd2
p268
aVI'm not even a psych major \U0001f602 https://t.co/RP8sd2fgdd
p269
aVHe was so proud of his coloring \U0001f60d #bryce #toddlersofinstagram #kimchibaby @ Egg Harbor Cafe\u2026 https://t.co/WNeiOV3Gvi
p270
aVLovely \U0001f60d https://t.co/dOMPlK5xhp
p271
aVThe handsomest date \u2665\ufe0f #bryce #kimchibaby #toddlersofinstagram https://t.co/WMQIGhQ6Dn
p272
aVMommy and Bryce movie date to celebrate the last day off before school starts \u2665\ufe0f #bryce\u2026 https://t.co/1qCBElxuqN
p273
aV"hey mama, I wanna be a monkey on your back"\u000a\u000a#bryce #kimchibaby #toddlersofinstagram https://t.co/m9gfWwSd40
p274
aVI have my own servant now \U0001f608\U0001f602\u000a\u000aActually, he insists on helping me out my shoes on every morning\u2026 https://t.co/lgJUjGFjae
p275
aVThe spring semester, my final one, at @mcc_edu starts in a week. Getting my tools ready \U0001f60d\u2026 https://t.co/dppkSptK7o
p276
aVHe wanted to do some yoga this morning after breakfast \U0001f602 #bryce #kimchibaby #toddlersofinstagram\u2026 https://t.co/2ZxMb3M0M7
p277
aVHappy at Mariano's \U0001f601 #bryce #kimchibaby #toddlersofinstagram @ Mariano's https://t.co/1OreVdU5ar
p278
aVRT @PatrickDempsey: Plot twists are great. Teaming with @Cigna to get you to your annual check-up? Even better. #GoKnowTakeControl #ad http\u2026
p279
aVLove him \u2665\ufe0f #bryce #kimchibaby #toddlersofinstagram https://t.co/gQwPXfz0Ea
p280
aVWhat an #imagination on this kid \u2665\ufe0f #bryce #kimchibaby #toddlersofinstagram https://t.co/hxdJhGVXsw
p281
aVThis kid was rocking out. He loves "Psych" and calls it the Gus Show \U0001f602 @dulehill @jamesroday\u2026 https://t.co/DIjlTFfVWG
p282
aVCompleting applications for transfer to a 4-year university. Never thought I'd be doing this almost 20 years after\u2026 https://t.co/kB6ytXzTiM
p283
aV@S_S_AUTO I haven't yet, but my husband and kiddo have! I can't wait to get my chance to go!
p284
aVMaking silly faces this morning \U0001f601 #bryce #kimchibaby #toddlersofinstagram https://t.co/c7lBmh6JmQ
p285
aVIt was incredibly hard to choose the best 9 of 2017. I wish I could add at least 20 more \U0001f602\u000a\u000a2017\u2026 https://t.co/lWTdklDHiq
p286
aVHe was ready to go back to school after a long two weeks off \U0001f601 #bryce #kimchibaby\u2026 https://t.co/noyzkEQDjA
p287
aV@S_S_AUTO Yes! My almost 3-year-old is especially! Jedi in training! https://t.co/xQIDuRXiQN
p288
aV@ReuschJewelers Wish we could go more! Usually take a trip up to Boyne once a year. We love going up and like to ve\u2026 https://t.co/ooczmMx3dD
p289
aVWhen you realize your kid is dressed like KFed \U0001f602 #bryce #kimchibaby #toddlersofinstagram https://t.co/r63VroYqtG
p290
aVkimberlillly I'm in loooove with my new necklace! Thank you! #harrypotter #necklace #goldensnitch https://t.co/oYFUOe1GS4
p291
aV@butchwalker kid has taste \U0001f602\U0001f601\U0001f3b8#butchwalker #guitar #startthemyoung https://t.co/CYmHGATLLp
p292
aV@ReuschJewelers This was taken with my Google Pixel XL!
p293
aV@S_S_AUTO LOL sure did. We realized very quickly what it was going to end up being.
p294
aV#selfie https://t.co/zK6XZiiXuG
p295
aV"... Are you effing kidding me, human?" #dogsofinstagram #donuthead https://t.co/LOgd623me3
p296
aV"... What, mom?" #bryce #kimchibaby #toddlersofinstagram #albundystyle https://t.co/O7TsnhlBED
p297
aVThe snow is too powdery to make a good snowman, so we opted for a Jabba the Hut-esque version\u2026 https://t.co/7MdTAw8Oy9
p298
aVWinter wonderland #boyne #skiing @ Boyne Mountain Resort https://t.co/HlBtZ4J7Yy
p299
aVThe worst is when your kiddo has a fever on Christmas \U0001f622 #bryce #kimchibaby #toddlersofinstagram https://t.co/mpMQZVBMmS
p300
aV"Look at my Spiderman hat!" #bryce #kimchibaby #toddlersofinstagram https://t.co/R8MFQXAXuH
p301
aV"mama, I made some cookies!" #bryce #kimchibaby #toddlersofinstagram @ Boyne Mountain Resort https://t.co/aaFW8UoHlP
p302
aVRT @BarackObama: On behalf of the Obama family, Merry Christmas! We wish you joy and peace this holiday season. https://t.co/CNFUZrhrBj
p303
aVChristmas morning mimosas #boyne #christmas #yum @ Boyne Mountain Resort https://t.co/G8QrpQfXtT
p304
aVWhat a beautiful Christmas morning \U0001f384\u2744\ufe0f\U0001f385 #christmas #beautiful #snow #boyne @ Boyne Mountain Resort https://t.co/EBMKHZp7xj
p305
aVOpening some gifts from family who couldn't join us at the cabin. Bryce got an amazing\u2026 https://t.co/bXJ67Sd168
p306
aVUnexpected #twinning \U0001f602\U0001f602 we seriously did not plan this at all #sisterinlaws #greatminds @ Boyne\u2026 https://t.co/qACrwOLCqm
p307
aV@ChristopherB070 Seriously so good. I need to figure out how to get it here. My friend goes back to Italy to visit\u2026 https://t.co/XJVuFEgNcF
p308
aV@ChristopherB070 I wish I could get it here, but Monte carlo bianco from Tuscany is incredible. Best wine I've ever\u2026 https://t.co/pGk3JU177Z
p309
aVChristmas Eve selfie #selfiesunday https://t.co/GdAQSyRcZX
p310
aVProud of their handiwork \U0001f601 #gingerbreadhouse #cousins #christmas #bryce #kimchibaby\u2026 https://t.co/apdof0rYwd
p311
aVHe's so happy building his gingerbread house \U0001f601 #bryce #kimchibaby #toddlersofinstagram\u2026 https://t.co/2vmYW9rQ33
p312
aVHot tub time! #boyne #skiing @ Boyne Mountain Resort https://t.co/uFlVmK34Cx
p313
aVPlaying in the snow \U0001f601\u2744\ufe0f\u2603\ufe0f #bryce #kimchibaby #toddlersofinstagram #funinthesnow @ Boyne Mountain\u2026 https://t.co/Xkn2H5kxwv
p314
aVSilly on the lifts. Sad because most of the runs we like were closed today \U0001f62d #skiing #boyne @\u2026 https://t.co/MD9IeeeXam
p315
aVEnjoying pizza at the cabin \U0001f601\U0001f355#kimchibaby #toddlersofinstagram #bryce @ Boyne Mountain Resort https://t.co/SkCAFnBGDK
p316
aVFamily Pit Selfie \U0001f602 #bryce #kimchibaby #toddlersofinstagram #family https://t.co/kzyr0v52En
p317
aV@butchwalker @hobchicago #butchwalker #butchwalkerconcert #hobchicago  #boomerang @ House of\u2026 https://t.co/QvXUoT7kj0
p318
aV@butchwalker @hobchicago Butch, you were amazing as always. What a spectacular show! #hobchicago\u2026 https://t.co/cNtopoRVrI
p319
aV"Mama, smiley! Say cheese! Smiley!" \U0001f601\U0001f4f8 #bryce #toddlersofinstagram #kimchibaby #thetideshaveturned https://t.co/6BEXIgLQZS
p320
aVThe big guy wasn't home, but we had to stop and knock anyway \U0001f384\U0001f385\U0001f936 #bryce #kimchibaby\u2026 https://t.co/HdSCq05eSg
p321
aVEnjoying dada's chocolate chip cookies while watching Psych \U0001f601\U0001f36a #bryce #toddlersofinstagram\u2026 https://t.co/VI6SRuDlxt
p322
aVI'm officially on winter break, hooray! #done #atleasttiljanuary #morebeerplease https://t.co/BRPzjMh6P8
p323
aVBryce was so lucky and spoiled today! Thank you so much to Michie and madison_schweitzer7 for\u2026 https://t.co/9SA2m6QWO4
p324
aV@ChristopherB070 @DisasterArtist I'm planning on seeing it next week. I cannot WAIT!
p325
aVThe Vocal Stylings of Bryce \U0001f602\U0001f3b6\U0001f3bc\U0001f3b5 #bryce #kimchibaby #toddlersofinstagram https://t.co/h2LeJXF6Io
p326
aVThis new grin he has been doing lately kills me \U0001f602\U0001f601 #bryce #kimchibaby #toddlersofinstagram https://t.co/LQZNVhlZ3y
p327
aVHe looks like he belongs in a boy band \U0001f602\U0001f62c #bryce #kimchibaby #toddlersofinstagram\u2026 https://t.co/kZ6opcruc3
p328
aVMessy hair, don't care \U0001f601 #bryce #kimchibaby #toddlersofinstagram @ Target Store Mundelein https://t.co/yK9bKRoNFM
p329
aVDancing to Mario kart music \U0001f602\U0001f60d #bryce #kimchibaby #toddlersofinstagram #dancing #mariokart https://t.co/j7jQprwRPz
p330
aV@Starbucks WHYYYY? Worst charging spot ever \U0001f602\U0001f62d. #justno #starbucks #awkward https://t.co/FLG5ua5tXR
p331
aVThe world ended this morning because he threw a piece of his pancake on the floor and then\u2026 https://t.co/K1SnMNvyTM
p332
aV"Hi Santa!" #bryce #kimchibaby #toddlersofinstagram illinoisrailwaymuseum #santa @ Illinois\u2026 https://t.co/nduz4uudXf
p333
aVTrains! illinoisrailwaymuseum #train #railway #familyfun @ Illinois Railway Museum https://t.co/8OU1LS9dGo
p334
aVHoliday Train fun \u2665\ufe0f \U0001f682\U0001f384 #bryce #toddlersofinstagram #kimchibaby @ Illinois Railway Museum https://t.co/DU9WKmLGne
p335
aVCheesin' #bryce #kimchibaby #toddlersofinstagram @ Egg Harbor Cafe Libertyville https://t.co/8ckhlpVhjK
p336
aVNerding it up with #cytosisboardgame \U0001f60d #biology #boardgamegeek #boardgames @gotgeniusgames https://t.co/5xqLPpgEXX
p337
aV#happybirthday to our silly, feisty, and crabby (sometimes \U0001f602) little Leeroy. 10 looks good on\u2026 https://t.co/Csb5lGvRwL
p338
aVSimple. Pretty. Thanks to therealowengorsuch and his boy scouts troop for the decoration. https://t.co/CkNQQxEVlD
p339
aVHe ended up falling asleep like this \U0001f634 #bryce #kimchibaby #toddlersofinstagram https://t.co/vhteGvX1k7
p340
aVAsked him to smile, and he cheesed me hard #bryce #kimchibaby #toddlersofinstagram https://t.co/meJ5YBr9WT
p341
aVMy cuddle bug #bryce #kimchibaby #toddlersofinstagram https://t.co/MVrxBxCKQ9
p342
aVBryce finally gets to cuddle with Wrigley #bryce #kimchibaby #toddlersofinstagram #catsofinstagram https://t.co/4OhG07FFu7
p343
aVBryce and Owen on the sleigh at #meijergardens #bryce #kimchibaby #toddlersofinstagram #cousins\u2026 https://t.co/XC5FNNPH4z
p344
aVNot only did this kiddo wake up at 6:30, but he skipped his nap and didn't get to bed until\u2026 https://t.co/UE4V6ZUklH
p345
aVBryce is having a blast playing with Darwin #bryce #toddlersofinstagram #catsofinstagram\u2026 https://t.co/osREBLwlQ3
p346
aV"Hi, Bryce! It's me!" #bryce #toddlersofinstagram #kimchibaby https://t.co/wHop3STBTx
p347
aVBryce and Darwin had a good time chasing the laser pointer \U0001f602 #bryce #kimchibaby\u2026 https://t.co/cXhRH1Kglr
p348
aVHe insisted on shopping by himself. He got some gnocchi, baking powder, cookies, and edamame \U0001f602\u2026 https://t.co/n9egMTktFh
p349
aV"I'm gonna sleep here, ok?" \u000a\u000aSure, kid \U0001f602 #bryce #kimchibaby #toddlersofinstagram https://t.co/2UJZ2tXU7p
p350
aVNothing soothes the soul quite like a night with the besties \u2764\ufe0f #besties #girlsnight @ Pinot's\u2026 https://t.co/x0rsxncOEC
p351
aVGirl's night out! @ Pinot's Palette https://t.co/NdD9jsfbQn
p352
aVWhat's a Saturday morning unless watching cartoons? #bryce #kimchibaby #toddlersofinstagram https://t.co/fLzr1TZPW0
p353
aVBath time singing. He's only heard jingle bells like once \U0001f602 #bryce #kimchibaby #toddlersofinstagram https://t.co/LzPH0iC2He
p354
aV\u2764\ufe0f\u2764\ufe0f\u2764\ufe0f my handsome kiddo #bryce #kimchibaby #toddlersofinstagram https://t.co/YnjPZgCu4F
p355
aVMe and my mommy #momdaughter #momsarethebest https://t.co/eAxSiBnRIE
p356
aVSpaghetti fiend! #bryce #kimchibaby #toddlersofinstagram @ Bimbos Italian Kitchen https://t.co/jIjRZ6BRXj
p357
aVHe was waiting all afternoon for spaghetti, and when he finally got it, he totally dug in \U0001f35d\u2026 https://t.co/ybJ6IMFoRn
p358
aVHe looks like a little elf \U0001f601 #bryce #kimchibaby #toddlersofinstagram https://t.co/8Ce5BG6PHj
p359
aVHe was doing his morning yoga in peace and yelled at me when I took his picture \U0001f602 #bryce\u2026 https://t.co/jIz6GIfLQ5
p360
aVShenanigans at the MCC Gala \U0001f601 We had fun sharing our stories and journeys with the donors,\u2026 https://t.co/birbJ0wvIY
p361
aVWorking that lip to get his way \U0001f609 (he didn't, he still had to get up and get ready for school \U0001f602)\u2026 https://t.co/zHyGTLCNel
p362
aVBryce's teachers sent some super cute pics today of him playing in the leaves \u2764\ufe0f #bryce\u2026 https://t.co/230z2U5qUI
p363
aV"... really, dad?"\u000a\u000aI can't really see it under that mophead, but I'm sure he's rolling his eyes\u2026 https://t.co/nS6XTyVT63
p364
aVIt's not often that we get to cuddle and nap together. Time goes by fast, and it's hard to\u2026 https://t.co/K6zQQEv7Es
p365
aVWe are watching "Elf" and this is his reaction when seeing Santa. "Look, mama, it's Christmas!\u2026 https://t.co/TtUaclF6hc
p366
aVGood morning \U0001f60a #bryce #kimchibaby #toddlersofinstagram https://t.co/Sdx8QytEvo
p367
aVSleep well, my little sidekick \u2764\ufe0f #bryce #kimchibaby #toddlersofinstagram https://t.co/QmPjg32RIL
p368
aVHe's in much better spirits \u2764\ufe0f hoping for another uneventful night. #bryce #kimchibaby\u2026 https://t.co/LuCGGtOex4
p369
aVBoo! #bryce #kimchibaby #toddlersofinstagram #halloween https://t.co/HIAdlO5Zyv
p370
aVI can't even with this kid! Thanks to princess_jocyy317 for this fantastic shot she got of him\u2026 https://t.co/amX16CL3N6
p371
aVChip off the old block \U0001f601 he's only seen a marching band once, but it apparently stuck with him \U0001f602\u2026 https://t.co/Vg6N9aWRdR
p372
aVRT @chiupsilonptk: We are excited for the new generation of Phi Theta Kappans! #ptkproud #ptkstrong #ptk #chiupsilon @PHITHETAKAPPA \u000ahttps:\u2026
p373
aVNever too young to learn \U0001f602\U0001f601\U0001f60d #bryce #kimchibaby #toddlersofinstagram #queen @queenwillrock https://t.co/f9Cr5cY44w
p374
aV#bryce wanted to put makeup on like me, so I gave him his own brush \U0001f60a #kimchibaby\u2026 https://t.co/WvNUNC8dba
p375
aVAfter waiting a month for them to disconnect the gas line, Nicor **finally** came out to the\u2026 https://t.co/iqtG2SEIjc
p376
aVMy favorite little dude. He wanted to take selfies with me last night.\u2764\ufe0f #bryce #kimchibaby\u2026 https://t.co/n92IpTSUHq
p377
aVI adore this chick \u2764\ufe0f madison_schweitzer7 is such a ray of sunshine, and brightens up my school\u2026 https://t.co/8x3UPIclmF
p378
aVIn honor of my nieces and nephews who are in love with Pokemon, I painted this pumpkin because\u2026 https://t.co/Bw5D1KUlB7
p379
aVI snapped this pic the other day. I went to wake him up for the morning, and he was already up\u2026 https://t.co/xBNuP7JdpU
p380
aVWondering where Goose went.. \U0001f62c\U0001f602\U0001f910 #toosoon #bryce #toddlersofinstagram #kimchibaby https://t.co/3ERPnnBEYn
p381
aVLove his face \U0001f60d #bryce #kimchibaby #toddlersofinstagram https://t.co/zTky63Hdaw
p382
aVHugs for Mr. Koala \U0001f60a #bryce #kimchibaby #toddlersofinstagram https://t.co/cmDucXodnH
p383
aVAs much fun as this kiddo is, it's not always smiles and laughter. He's never been the best\u2026 https://t.co/lvw6hckSjb
p384
aVI had the "day off" from school today, because MCC was closed for professional development day.\u2026 https://t.co/xPwTdhBhnj
p385
aVAs this kid gets older, we are doing more things with him that Brian and I enjoy doing, like\u2026 https://t.co/vvB7j6Tbkp
p386
aVDJ Bryce getting ready to spin #bryce #kimchibaby #toddlersofinstagram https://t.co/LCrOdD1pT1
p387
aVHe fell asleep during the Cubs game last night and looked so peaceful \u2764\ufe0f #bryce #kimchibaby\u2026 https://t.co/V1Mzzwo6dY
p388
aVHe was all smiles this morning \U0001f60a #bryce #toddlersofinstagram #kimchibaby https://t.co/VbLOoVHGYG
p389
aVSometimes you just need to escape for a while. #myhappyplace #starbucks #homework @ Starbucks https://t.co/l6vEXWGWNP
p390
aVAll I've heard since getting home is "Hey, mama! Hey, mama!" #bryce #kimchibaby\u2026 https://t.co/NES7fX3WU0
p391
aVInsert caption here \U0001f602 #ptk #ptkproud #chiupsilonmchenry @ Lewis and Clark Community College https://t.co/leDaKX7yQs
p392
aVHe really wants daddy to wear his shoes \U0001f602 #bryce #kimchibaby #toddlersofinstagram https://t.co/SyLlddhTnb
p393
aVThis is how he fell asleep last night \U0001f602\U0001f4d6 #bryce #kimchibaby #toddlersofinstagram #reading https://t.co/3TYYcFWmVp
p394
aVHis lips \U0001f602\U0001f602 #bryce #kimchibaby #toddlersofinstagram https://t.co/EUJqknhK8K
p395
aVAs stressed as I am about getting my outline completed tonight, I have to say, this kind of\u2026 https://t.co/JZzaqpZ3wi
p396
aVThis is one stylish cutie pie \U0001f60d #bryce #kimchibaby #toddlersofinstagram https://t.co/nPQpvd2eLa
p397
aV@DMVoth Thanks! This one is being torn down though. We start building the new one in a couple weeks!
p398
aVSOON. It's happening! https://t.co/3PotdyvudL
p399
aV@theredia and I helping to honor the late, great Ross Kellan! #glenbardeast #marchingband\u2026 https://t.co/BXQqjeZT3q
p400
aVDear Coffee,\u000a\u000aMy love for you will forever be true,\u000aI wake up and say "I love you"\u000aI lovingly\u2026 https://t.co/GupwpZwDIR
p401
aVGiggle party! Being silly and having fun \u2764\ufe0f #bryce #toddlersofinstagram #kimchibaby #happy #smiles https://t.co/bNIyenG1b8
p402
aVMy notes are cooler than yours \U0001f609 #homework #notes #studying #organization #chemistry https://t.co/dH1GLFw9Vk
p403
aV@butchwalker! I've chosen u as my fav performer for a speech I need to give, and I need to know - which piano do you typically tour with?!
p404
aVOur little assistant didn't really care much for brick shopping, but he definitely wanted to\u2026 https://t.co/JFyhsktg9w
p405
aVLove my little snuggle bug \u2764\ufe0f #bryce #kimchibaby #toddlersofinstagram https://t.co/w8QTV6nSyW
p406
aVBryce is thrilled that @dancingabc is back! #bryce #kimchibaby #toddlersofinstagram #dwts https://t.co/5UDgGDKPPT
p407
aVThe numbers matter. To me. https://t.co/ekW2YrJH5Q via @weebly
p408
aVThis little dude was quite comfortable during naptime with Sparky @uicflamesdotcom @thisisuic\u2026 https://t.co/fz22lWQ15k
p409
aVCool Guy Bryce #bryce #kimchibaby #toddlersofinstagram https://t.co/w7fe5cTTJS
p410
aVCutie pie \U0001f60a #bryce #kimchibaby #toddlersofinstagram https://t.co/w0DOhTm4WD
p411
aVRed is my signature color #selfie https://t.co/CprOUKRlKu
p412
aVBoy, is this kiddo lucky! Look at the awesome #nypd cars he was sent by his Auntie @sandee967\u2026 https://t.co/tWLYfE9dSZ
p413
aVTeenager in training \U0001f644\U0001f602 too bad he didn't wanna sleep the first 2.5 years of his life \U0001f602 #bryce\u2026 https://t.co/9z2OmGYxsE
p414
aVA quick update to my blog! Look for more posts soon! https://t.co/AmREbUEICG via @weebly
p415
aVThis kid loves books and is well on his way to being an early reader \u2764\ufe0f\U0001f4d6 #bryce #kimchibaby\u2026 https://t.co/XEVtACVATw
p416
aVJedi in training #bryce #kimchibaby #toddlersofinstagram #starwars #jedi #maytheforcebewithyou https://t.co/OMFm54sPhB
p417
aVSTOP THE PRESSES, MY KID IS EATING AN EGG SANDWICH \U0001f601 Getting protein that isn't cheese into this\u2026 https://t.co/YMmJa1jaaO
p418
aV"look, mama, strawberries!" #bryce #kimchibaby #toddlersofinstagram https://t.co/hJUORP12Ac
p419
aVHe loves bubble baths \U0001f601 \U0001f6c0 #bryce #kimchibaby #toddlersofinstagram #happy #smiles https://t.co/9q36JxtznJ
p420
aVRT @chiupsilonptk: We had our first Prospective New Member Information meeting this afternoon, and it was a packed\u2026 https://t.co/3Du7kVY7AC
p421
aVIt's done! I helped put one of the engines together \U0001f602 #starwars #legos https://t.co/N4Z2OpSnRE
p422
aVThis kiddo was in heaven because he got to ride a school bus to Schaumburg September Fest \U0001f60a\U0001f683\u2026 https://t.co/wZuXryyn2K
p423
aVI have been feeling a bit.. off-center lately. Normally, I can find my stride, get into my\u2026 https://t.co/2HdDMm4LG9
p424
aVNo rest for the weary \U0001f634\U0001f62c #homework #chemistry #weekendsareforhomework https://t.co/hr78R0KQWo
p425
aVGood morning, friends \u2764\ufe0f #bryce #kimchibaby #toddlersofinstagram https://t.co/UoCGqGHG7Q
p426
aVWhen I look at him, it still amazes me how much he has grown up \u2764\ufe0f #bryce #kimchibaby\u2026 https://t.co/trTbyDobk3
p427
aVThese two cuties are having fun hanging out and watching Star Wars. I think Leeroy is in need of\u2026 https://t.co/i82p9kQIHW
p428
aVToday was the first day of my fall term, so naturally I had to take a first day of school\u2026 https://t.co/2wRpX5iy0G
p429
aVBrotherly love \u2764\ufe0f #bryce #toddlersofinstagram #kimchibaby #dogsofinstagram #brothers #cuddles #hugs https://t.co/kjOhqGQsv2
p430
aVHe's working that lip pretty hard. He was scolded for ripping his book (which I later fixed),\u2026 https://t.co/z4oPEgP1Ma
p431
aVI found my spirit dragon \U0001f602 @ Brookfield Zoo https://t.co/CGK86KRWhG
p432
aVHe was absolutely delighted at the dolphin show \U0001f60a\U0001f42c #bryce #kimchibaby #toddlersofinstagram\u2026 https://t.co/KxVUEIzHPQ
p433
aV#fbf post from 2014! Don't mind the caption on the pic, as it was posted on a Tuesday \u263a\ufe0f.\u000a\u000aThis\u2026 https://t.co/mU4onpKQmv
p434
aVThis is the way he wanted to chill out last night \U0001f602 #bryce #kimchibaby #toddlersofinstagram\u2026 https://t.co/QpqwEeNsZc
p435
aVFeeling good and fresh #selfie #nofilter #happy https://t.co/5n1yyVIsy1
p436
aVHe's obsessed with Moana #bryce #kimchibaby #toddlersofinstagram  #movienight \U0001f3ac\U0001f39e\ufe0f\U0001f4fa https://t.co/yFJAE5wXnu
p437
aVThis kiddo came home to surprises from his Auntie Bur, who found some adorable Trolls Itty\u2026 https://t.co/xjqpwXjyrh
p438
aVTaking a snack break \U0001f36a #bryce #kimchibaby #toddlersofinstagram #bestfriends #besties #cookies @\u2026 https://t.co/m0EIZ3bB3O
p439
aVThree Musketeers at the Children's Museum \U0001f60d\u2764\ufe0f #bryce  #kimchibaby #toddlersofinstagram\u2026 https://t.co/ttx5IW91tM
p440
aVBest friends \U0001f60d #bryce #kimchibaby #toddlersofinstagram #bestfriends #besties #iker @ Minnesota\u2026 https://t.co/ii5fv8ymiE
p441
aVHaving so much fun! #bryce #kimchibaby #toddlersofinstagram #bestfriends #besties @ The Howe\u2026 https://t.co/rlBzuP97oc
p442
aVBryce and Ike are playing so well \u2764\ufe0f #bryce #kimchibaby #toddlersofinstagram #besties #bestfriends https://t.co/KnrcsTUGJM
p443
aVHaving fun at the Science Museum of Minnesota \U0001f60a #bryce #toddlersofinstagram #kimchibaby\u2026 https://t.co/1dcKVMg5KJ
p444
aVI think this dude may be ready for a big boy bed \U0001f62d #bryce #kimchibaby #toddlersofinstagram https://t.co/2tGtfcoCuQ
p445
aVYour employees are the best dellspizzalab \U0001f60d thanks for being so sweet! #bryce #kimchibaby\u2026 https://t.co/dQpJUxq1EF
p446
aV"aww, so sweet!" #bryce #kimchibaby #toddlersofinstagram #wisconsindells @ Wisconsin Deer Park https://t.co/DmTtIcjhur
p447
aVDessert \U0001f60d #yum #dessert #smores @ HuHot Mongolian Grill https://t.co/FhSWbbbiBk
p448
aV"Mama, take a picture! Cheese!" #bryce #kimchibaby #toddlersofinstagram #greatmoments @ Kalahari\u2026 https://t.co/4xrKKkC4cv
p449
aV"I'm goin' on a bear hunt!" milkcanllc #thatpostcard #thatconference @thatconference #bryce\u2026 https://t.co/5YlQPFsh0i
p450
aV\u2764\ufe0f\u2764\ufe0f this face \u2764\ufe0f\u2764\ufe0f #bryce #kimchibaby #toddlersofinstagram https://t.co/fjbNkp0EXw
p451
aVSo yeah. looking at FB memories is mostly good because it reminds me of how far I really have\u2026 https://t.co/Gnt5p1ulr4
p452
aVThe face I make when all I want is for the summer semester to be over with, and there are still\u2026 https://t.co/LmjH6zRWn1
p453
aVI just earned a free play by playing #StarbucksSummerGame #ad\u000a https://t.co/e6YldCan5f
p454
aVSnuggle time \U0001f60a #toddlersofinstagram #bryce #kimchibaby #dogsofinstagram #bestfriends https://t.co/4kRVBj5AKL
p455
aV#selfiesunday with low key makeup. But gotta keep #dembrows looking good \U0001f602 #selfie https://t.co/PE82qawp8r
p456
aV"one, two, three boats!" #bryce #toddlersofinstagram #kimchibaby #chicago #navypier @ Navy Pier https://t.co/ErvIXhCuGR
p457
aV@ThomasTails1 It's from a game called World of Warcraft!
p458
aVBryce's first metra ride \U0001f60a #bryce #kimchibaby #toddlersofinstagram #chicago https://t.co/dTxH6CzMDV
p459
aVLoves his Cubbies.. and is opinionated \U0001f602\U0001f602 @cubs #chicagocubs #gocubsgo #cubs #bryce #kimchibaby\u2026 https://t.co/RKvHQ7ojow
p460
aV@ThomasTails1 9 1/2 years now! He turns 10 in November \u2764\ufe0f\u2764\ufe0f His name is Leeroy Jenkins \U0001f602
p461
aV@mcc_edu I pass this wall every day to my classes and I always have one thought: Life Goals.\u2026 https://t.co/tm2F6cNGZl
p462
aV"no mama, I'm still sleeping!" #bryce #kimchibaby #toddlersofinstagram #wordsineverthoughtidhear https://t.co/v9JSaYDqON
p463
aVWeeeeeeeee! #bryce #kimchibaby ##toddlersofinstagram @ Recreation Park https://t.co/eu3QA0yLXm
p464
aVHe absolutely adores his cousin Callie \u2764\ufe0f #bryce #kimchibaby #toddlersofinstagram #cousins https://t.co/6Wro9g1dgN
p465
aV@NBCWorldofDance my son was inspired to dance after watching @ItsDianaPombo and @evaigo \U0001f601\u2764\ufe0f he loves your show, and\u2026 https://t.co/yotTTOGZ7Y
p466
aVBesties having a cuddle \u2764\ufe0f #bryce #toddlersofinstagram #kimchibaby #dogsofinstagram #bestfriends https://t.co/ppuv97Gw5D
p467
aVHe was getting comfy on Bailey's bed at Doug and Yolanda's housewarming party \U0001f60d #bryce\u2026 https://t.co/9FK8Ie7n08
p468
aVThis face \U0001f60d\U0001f60d #bryce #kimchibaby #toddlersofinstagram https://t.co/AIMfbRI7kS
p469
aVThese two are only 9 months apart \u2764\ufe0f\u2764\ufe0f #bryce #toddlersofinstagram #kimchibaby #friends #playdate https://t.co/spV6q6Y0bI
p470
aV@MrsBoxerG I do the same \U0001f62c do you sing it just randomly as well? I'll be cooking, or reading, or whatever, and then singing the songs lol!
p471
aV@MrsBoxerG We've watched it about 5 times this week already \U0001f602\U0001f602 SO good!
p472
aVWatching "Moana" together \u2764\ufe0f.. for about 5 seconds \U0001f62c\U0001f602 #bryce #kimchibaby #toddlersofinstagram\u2026 https://t.co/2t5KLmkvuu
p473
aV@marialfc Thank you, sweets. With friends like you lifting me up, it's easy to keep motivated and inspired \u2764\ufe0f
p474
aVFeeling melancholy and faded #selfie #ineedmorecoffee https://t.co/61KauFRKJn
p475
aVFinished listening to The Name of the Wind: Kingkiller Chronicles, Day 1 (U... by .... Try #Audible and get it free: https://t.co/OQcijexdBL
p476
aVOur big boy is all of a sudden potty training, eating loads of food, putting floor puzzles\u2026 https://t.co/AOMbesxt0Z
p477
aVI've been giving my lips a rest from heavy or dry lipsticks unless I am out and about. Using a\u2026 https://t.co/WdOZdanVHu
p478
aVThe sass is strong in this one \U0001f60a #bryce #kimchibaby #toddlersofinstagram https://t.co/mC2RamfgOw
p479
aV"What do you mean there are NO MORE chocolate chip pancakes??" \U0001f602\U0001f602\U0001f602 #bryce #kimchibaby\u2026 https://t.co/H954jckdMH
p480
aVBryce walks over to Leeroy this morning, puts his arms around him and says, "This is my friend."\u2026 https://t.co/5gqFUaRDU5
p481
aVSuch a beautiful day \U0001f60a #bryce #kimchibaby #toddlersofinstagram @ Oakbrook Center https://t.co/0aGNhSUJzC
p482
aVPart of being a good student is knowing when to ask for help, right @PHITHETAKAPPA? Take charge of your education #ptk #phithetakappa #study
p483
aVDon't you wish you took notes like me? \U0001f602\u000a\u000aSuccess in the classroom is partially aided by\u2026 https://t.co/blqoefezDX
p484
aVA hilarious representation of Bryce seeing fireworks for the first time.. from mounting\u2026 https://t.co/RH6SrrZsZE
p485
aVCousin hugs \u2764\ufe0f#bryce #kimchibaby #toddlersofinstagram #cousins #hugs https://t.co/0GxOuwnK7R
p486
aVHis first ever bite of milky way chocolate and his mind was blown \U0001f602 \U0001f36b #bryce #kimchibaby\u2026 https://t.co/7WDJzFxglV
p487
aVFamily selfie at the Lakemoor 4th of July parade \U0001f1fa\U0001f1f8\U0001f46a #happy4th #murica #family https://t.co/n4O0ze1Tzy
p488
aV#bestfriends for 23 years \u2764\ufe0f #friendship #friends #iloveher #nsl @ Valentino Vineyards &amp; Winery https://t.co/blyKBecF5g
p489
aVThis kiddo loves to color. He's also making deliberate shapes and marks, calling them letters,\u2026 https://t.co/w5tcoKSUcH
p490
aVBest photo bomb \U0001f602 #friends #friendship @ Valentino Vineyards &amp; Winery https://t.co/KX5jjalafJ
p491
aVLove my girls \u2764\ufe0f\u2764\ufe0f #friends #friendship #wineisdelicious @ Valentino Vineyards &amp; Winery https://t.co/S2YzkdhwdA
p492
aVBreakfast with a view. He's eating breakfast, while wearing breakfast pajamas and breakfast\u2026 https://t.co/zj9nTVdt3j
p493
aVSo serious. I only asked if he pooped (he did)  \U0001f602\U0001f937\u200d\u2640\ufe0f\U0001f4a9 #bryce #kimchibaby #toddlersofinstagram https://t.co/wwXBjDPRp8
p494
aVContemplating the toddler life \U0001f602 #bryce #kimchibaby #toddlersofinstagram https://t.co/Dx4TmrnxC6
p495
aVMy little Korean boy \u2764\ufe0f he even asked to try the kimchi and wanted more! #kimchibaby #bryce\u2026 https://t.co/Q2Fae8kC4Q
p496
aVYour future leaders. We are a force. \u000a\u000a#ptk #phithetakappa #ilregionalconference #leadership\u2026 https://t.co/qdiFVmsGQv
p497
aVSeeing these two together make my heart soar \u2764\ufe0f\u2764\ufe0f mamaleto #bryce #kimchibaby\u2026 https://t.co/drwegOGonJ
p498
aVJust a few moments ago, Bryce came up to me, patted me on the arm and said,\u000a\u000a"Mama, follow\u2026 https://t.co/Tx1D8RnVgl
p499
aVThese two were hanging out under the table. Bryce was giggling and Leeroy was licking \U0001f602 #bryce\u2026 https://t.co/aHLrc6xk6u
p500
aV"I like your face, mama" #bryce #kimchibaby #toddlersofinstagram https://t.co/yPKqC0HcGb
p501
aVBryce saw a scratch on my knee and asked if it hurt. I said yes and now he keeps kissing it to\u2026 https://t.co/HQmO85SmjM
p502
aVIt's heeeeeeere!! So proud of my amazing friend Amy, aka The Scientific Mom @scientific_mom, for\u2026 https://t.co/5u5Dl9L5Jn
p503
aVWe were supposed to go to the Cubs game this afternoon, but we had to cancel due to sudden\u2026 https://t.co/a86P5h6AeW
p504
aVHis imagination is amazing to witness \U0001f60a he likes to pretend to talk on the phone, this time with\u2026 https://t.co/BWuPriljDM
p505
aVMy angel toddler #bryce #kimchibaby #toddlersofinstagram  \u2764\ufe0f\u2764\ufe0f https://t.co/mvNJWxkaIz
p506
aV"Mama, Dada, I'm jumping!" #bryce #kimchibaby #toddlersofinstagram https://t.co/bLJq3K5cjj
p507
aVTrying super hard to get out of naptime \U0001f601 this face gets him a lot of passes, but not for naps \U0001f602\u2026 https://t.co/nShDnk38sx
p508
aVGood morning! #bryce #kimchibaby #toddlersofinstagram https://t.co/pZcAz2LgTQ
p509
aVMe and my mama \u2764\ufe0f #mom #momdaughter #lovemymom https://t.co/ySwDM2o4ox
p510
aVFound a gorgeous nest of robin eggs at the Lombard house #nest #robineggs #nature #nofilter @\u2026 https://t.co/EWcY9qWzOD
p511
aVAll smiles this morning \U0001f601 #bryce #kimchibaby #toddlersofinstagram https://t.co/MDvBZhmNTw
p512
aVMy baby isn't much of a baby anymore \U0001f60d #bryce #kimchibaby #toddlersofinstagram https://t.co/3goe91hb5O
p513
aVSilly breakfast shenanigans \U0001f601 This is how he wanted to eat this morning. #bryce #kimchibaby\u2026 https://t.co/ThP5RVntHV
p514
aVHe's too cool even when he sleeps \U0001f60e #bryce #kimchibaby #toddlersofinstagram https://t.co/B4quwmcNu8
p515
aVHe was trying to dress himself this morning \U0001f602 #bryce #kimchibaby #toddlersofinstagram https://t.co/1EPaztGN56
p516
aVFeeling pretty, confident, and powerful lately \U0001f60e #selfie https://t.co/oze29TrMgX
p517
aVHe doesn't hesitate when I ask him if he will hold my hand \U0001f60a #bryce #kimchibaby\u2026 https://t.co/l9L9j21nvl
p518
aVMy super handsome little dude \U0001f60d #bryce #kimchibaby #toddlersofinstagram https://t.co/4vKhS6Oyfz
p519
aVThis little rascal makes life so fun and interesting \u2764\ufe0f\u2764\ufe0f #bryce #kimchibaby\u2026 https://t.co/PRWlldtk4S
p520
aVOh hi Mama \U0001f601 #bryce #kimchibaby #toddlersofinstagram https://t.co/uD2v843IrE
p521
aVWhat better way to end the semester than to play my new Harry Potter board game? #boardgames\u2026 https://t.co/VyKf4JLTAl
p522
aVWeeeeeeeee! #bryce #kimchibaby #toddlersofinstagram @ Veteran Acres Park https://t.co/eucYInEDtS
p523
aVSuch a good listener.. I asked him to cover his eyes during a scene in a movie and he\u2026 https://t.co/fxHRXMGi8B
p524
aVHe is very proud that he counted all his cars! He counted to 12! #bryce #kimchibaby\u2026 https://t.co/yfXa9LM6C7
p525
aVThat's some impressive bedhead \U0001f602 #bryce #kimchibaby #toddlersofinstagram #bedhead https://t.co/ytWYyL6TtC
p526
aVBryce got a special treat today! Not only did he get to meet a lot of the Lakemoor police\u2026 https://t.co/2TaQeRFDtC
p527
aVGetting older means embracing laugh lines, gray hair, weird skin, and wrinkles \U0001f60a #selfie\u2026 https://t.co/qgFiRZ8v49
p528
aVCousins \u2764\ufe0f Callie and Bryce adore each other! #bryce #kimchibaby #toddlersofinstagram #cousins https://t.co/YegQsKotyH
p529
aVMy sleeping bunny \u2764\ufe0f #bryce #kimchibaby #toddlersofinstagram https://t.co/MG39Vy8UaY
p530
aVI can't get enough of his laugh and smile \u2764\ufe0f #bryce #kimchibaby #toddlersofinstagram https://t.co/8XRJh759fL
p531
aV"Beatbo, do do do doooo, beatbo, do do do. Wiggle wiggle!" #bryce #kimchibaby #toddlersofinstagram https://t.co/0dQ6rSYqek
p532
aV"airplane! Look at the airplane!" #bryce #kimchibaby #toddlersofinstagram https://t.co/CZTYpyBZM2
p533
aVLook at that form \U0001f602 #bryce #kimchibaby #toddlersofinstagram https://t.co/GKWdzGFXTX
p534
aVLike father, like son \u2764\ufe0f\u2764\ufe0f two cool cats \U0001f601 #bryce #kimchibaby #toddlersofinstagram #dadandson https://t.co/vll2lIReV9
p535
aVPretty sure he is plotting something \U0001f602 #bryce #kimchibaby #toddlersofinstagram https://t.co/cxfxX7opCn
p536
aVHe loves his new helmet so much, he insisted on went it while having a snack \U0001f602 #bryce\u2026 https://t.co/CUkZDRgGH7
p537
aVFuture soccer star? He lined up all of these balls on his own to kick them into a "goal# \U0001f601\u2026 https://t.co/4aLm8ZPt8E
p538
aVSo suave while out grocery shopping this morning \U0001f60a #bryce #kimchibaby #toddlersofinstagram https://t.co/biVU38iUR2
p539
aVShall I make this my motto in life? \U0001f609 #firefly #fireflyboardgame #browncoat https://t.co/DgWw9qvKiu
p540
aVThese cupcakes are so delicious \U0001f60b #cupcakes #delicious #yummy https://t.co/Aa5WMR3nIq
p541
aVBest spring break ever \U0001f601 #boardgames #springbreak #kidfreeday #firefly #fireflyboardgame https://t.co/Val5jLr3pD
p542
aV@Uber @SRA74 abandoned by an Uber driver b/c of her 2 year old's carseat? esponse from Uber was shameful! Not cool!\u2026 https://t.co/KVUAsA6TBW
p543
aVHe pulled every trick in the book to delay bedtime, but my favorite was the "more tickles! more\u2026 https://t.co/AagPBrUtWZ
p544
aVI feel pretty today \U0001f60a #selfiesunday #selfie #nofilter https://t.co/MVH3YshmHx
p545
aVBrave little dude getting another haircut. He should be used to these by now lol. #bryce\u2026 https://t.co/xhXNICGulr
p546
aVHoly delicious! Thanks to ohmyveggies for the recipe for this amazing baked gnocchi with tomato\u2026 https://t.co/gzdc7ot2rI
p547
aVBrotherly love. Which means Leeroy was waiting for Bryce to drop food \U0001f602 #bryce #kimchibaby\u2026 https://t.co/hS2OMiEQDH
p548
aVHis smile \U0001f602\U0001f602 #bryce #kimchibaby #toddlersofinstagram #smile https://t.co/1DLCCXtG6w
p549
aVI smothered him in kisses today \U0001f60d\U0001f60d\U0001f340\U0001f340\u000a\u000aAlso, we found out he actually IS part Irish lol. #bryce\u2026 https://t.co/CROQgd7vIt
p550
aVCoolest kid on the block \U0001f601\U0001f60e #bryce #kimchibaby #toddlersofinstagram #toocoolforschool https://t.co/v4MdhRW3lK
p551
aVSaranghaeyo, haelmoni! \u2764\ufe0f\u2764\ufe0f \uc0ac\ub791 \ud574\uc694 \ud560\uba38\ub2c8! #bryce #kimchibaby #toddlersofinstagram #learningkorean https://t.co/TcirBJZXmi
p552
aVThis kid just slays with cuteness \U0001f60d #bryce #kimchibaby #toddlersofinstagram #futuredoctor https://t.co/8o2iLdNhfi
p553
aVHad Leeroy with me today when I went through the Starbucks drive thru. The Barista gave him a\u2026 https://t.co/16he6Nqxq1
p554
aVBryce got a treat today and watched Harry Potter and the Chamber of Secrets, in its entirety!\u2026 https://t.co/FgEHu45vNC
p555
aVHe is fabulous \u2764\ufe0f #bryce #kimchibaby #toddlersofinstagram https://t.co/0GmAahQK5f
p556
aVHe loves coloring \U0001f60a #bryce #kimchibaby #toddlersofinstagram https://t.co/RHfBtKhhi0
p557
aVToo bad my time turner from mamaleto doesn't really work \U0001f602 #timeturner #iwouldgetmoresleep https://t.co/uTkmsUrTVB
p558
aVRec'd my official @PHITHETAKAPPA cert &amp; pin. What an honor to be part of this amazing society! Working hard, and wi\u2026 https://t.co/HuHMNfgLCB
p559
aVSome geeky tools to help me understand chemistry better \U0001f601\u269b\ufe0f\U0001f5dc\ufe0f #chemistry #science #scienceisfun https://t.co/oeMkpozZen
p560
aVI have the best SILs ever \U0001f601\u2764\ufe0f happy birthday Anita!! #happybirthday #bestsilsever @ Cygnus 27 https://t.co/nkzkBg2RzS
p561
aV@mcc_edu loving the logo for the 50th anniversary year \U0001f60a #mchenrycountycollege #scotpride @\u2026 https://t.co/tWRvRTHibx
p562
aV#selfiesunday #nofilter #icantsee \U0001f602 https://t.co/hekgmMZKE0
p563
aV@beaukatcopeland lol! How strange \U0001f602
p564
aV"Wooooow! Hockey! Mama, hockey!" #bryce #kimchibaby #toddlersofinstagram @ Total Hockey https://t.co/Yp8XSFSPzK
p565
aVRT @BeckyMegan2: I hope all the  #BoycottStarbucks people actually do it. Then this coming winter we won't have to hear their complaints ab\u2026
p566
aV@StoneParkTacos it was my son's birthday! He turned 2 on the 29th \U0001f60d\U0001f60d
p567
aVBirthday dinner with haelmoni \u2764\ufe0f loving on some Korean food. Bryce's favorite is bibimbap \U0001f601\u2026 https://t.co/eEQ0svC7GD
p568
aVOur amazing little family unit \U0001f60d\u2764\ufe0f #bryce #kimchibaby #toddlersofinstagram #family https://t.co/gTCdyyiEBa
p569
aV"Mama, dance!" \U0001f60d #bryce #kimchibaby #toddlersofinstagram https://t.co/fr5CA3K9wr
p570
aVPaper chromatography experiment today \U0001f600 #science #chemistry #scienceisfun https://t.co/tzhwpwo0ZN
p571
aVBeing super friendly and kind with the couple next to us at breakfast this morning \U0001f601 #bryce\u2026 https://t.co/qxMgGV5uko
p572
aVWelcome to the Spring Semester! https://t.co/141nMQaAa7 via @weebly
p573
aVHe presented his foot, put my hand to his toes and said "mama, tickle!" \U0001f602\U0001f60d #bryce #kimchibaby\u2026 https://t.co/lZQW6nEDtX
p574
aVHe must think he is 3 months old instead of almost 2 years old. The chair is getting a bit small\u2026 https://t.co/aEpLQaUNCU
p575
aVLet\u2019s go, I\u2019m unlocking prizes and earning Rewards with #StarbucksforLife https://t.co/M2DGRFaER6
p576
aV@starbucks iced caramel macchiato is my go to and all-time favorite drink. Thank you for\u2026 https://t.co/uRQTULsp6R
p577
aVMy poor, sick baby. Today is filled with snuggles and Disney movies \u2764\ufe0f #bryce #kimchibaby\u2026 https://t.co/h89Npr75ZX
p578
aVMy two happy dudes this morning before school \U0001f601 #bryce #kimchibaby #toddlersofinstagram\u2026 https://t.co/EGmQj3pKeF
p579
aVLow key evening #selfie https://t.co/PAEKlJ7SS4
p580
aVHe's beautiful even when he sleeps \u2764\ufe0f\U0001f60d #bryce #kimchibaby #toddlersofinstagram #demlashes https://t.co/dBtsuQfZ58
p581
aVAll the sass and tantrums are worth it just to see this smile and hear his giggles \U0001f601 #bryce\u2026 https://t.co/OC37np6y2p
p582
aVHappy almost 2017! \U0001f601\U0001f389\U0001f386 #happynewyear #2017 #newyear @ Boyne Mountain https://t.co/US0J9wtvAZ
p583
aVTook a waffle break during skiing and it was divine \U0001f604 #boyne #waffles #skiing @ Boyne Mountain\u2026 https://t.co/AjpFmsKyWB
p584
aVBecoming friends \U0001f604\U0001f63b #bryce #kimchibaby #toddlersofinstagram #catsofinstagram https://t.co/Sua1PRFAKN
p585
aVMay the force be with you \U0001f601 #bryce #kimchibaby #toddlersofinstagram #maytheforcebewithyou https://t.co/ss3YEMuO0W
p586
aVHe charmed the bakery employee at Mariano's into giving him a delicious Christmas cookie \U0001f602\U0001f36a\u2026 https://t.co/VtSRacew09
p587
aV"Hi Yayo! I lub booo!\u000a\u000aHe can't say Leeroy so he calls him Yayo \U0001f60d\U0001f60d\u000a\u000a#bryce #kimchibaby\u2026 https://t.co/i4nUsOUY39
p588
aVSometimes they are really sweet together \u2764\ufe0f #bryce #kimchibaby #toddlersofinstagram\u2026 https://t.co/9pPzaVBvXT
p589
aVBryce loves his new Santa hat \U0001f601\U0001f385 #bryce #kimchibaby #toddlersofinstagram https://t.co/2IHUVZWuRQ
p590
aVFeelin' mighty good lately #selfie https://t.co/kKDmsofhQW
p591
aVFeelin' mighty good lately #selfie https://t.co/kKDmsowSIu
p592
aVGorgeous art at Meijer Gardens #art #meijergardens #beautiful https://t.co/YI6acvl3TS
p593
aVBartender, my dad here will have a cold brewski, and I'll have a whole milk on the rocks  \U0001f601\u2026 https://t.co/FDIKjYpqfV
p594
aVMy sweet boys \U0001f60d #bryce #kimchibaby #toddlersofinstagram #dogsofinsta #brothers https://t.co/fV6wWq5auO
p595
aVI may be doing massive amounts of homework, but at least I feel pretty doing it \U0001f602 #selfie https://t.co/MjxB8PGLHO
p596
aVHis smile lights my whole world up #bryce #kimchibaby #toddlersofinstagram #smile #happy https://t.co/27wXQgffKm
p597
aVSleeping peacefully in his own bed #bryce #kimchibaby #toddlersofinstagram https://t.co/YK4YP34klY
p598
aVMy beautiful child earlier today before the hospital craziness #bryce #kimchibaby\u2026 https://t.co/ypu7bgjA2p
p599
aVProud to have supported her. Hillary Clinton\u2019s Full Concession Speech https://t.co/EemmpdfKSw
p600
aVI want so badly to drink tonight. But with mounds of homework, 2 exams tomorrow and an upset tum, it ain't happening \U0001f612
p601
aVI voted on 10/29! mccmulti #vote #election2016 #imwithher https://t.co/CdC6Pc2lrd
p602
aVMessage from Katy:\u000a\u000aThe memorial service for Benjamin Hynie will now take place at **PIONE... https://t.co/CBGBT22xuA
p603
aVHoly wow, friends! I'm completely blown away by the incredible love that has been given to K... https://t.co/CBGBT22xuA
p604
aVGlad to have my long hair back \U0001f60a #selfiesunday https://t.co/IhcaDZefCm
p605
aVLove my kiddo \U0001f60d #bryce #kimchibaby #toddlersofinstagram https://t.co/FMOCUEGVoG
p606
aVAfter nap cuddles \u2764\ufe0f #bryce #kimchibaby #toddlersofinstagram #cuddles https://t.co/AVeJ7BuPO6
p607
aV@danamichelle94 you got it dude! \U0001f602 #bryce #kimchibaby #toddlersofinstagram #yougotitdude https://t.co/m6770TEtER
p608
aVThis warm November weather is insane. What a gorgeous day #fall #beautiful https://t.co/ApYlWpkVqm
p609
aVI can't believe that we've hit $7,000 in such a short amount of time!!! You all are amazing... https://t.co/CBGBT2k8m8
p610
aVWhat an amazing support system here!! Thank you SO MUCh to every single person who shared, d... https://t.co/CBGBT2k8m8
p611
aVCheck it out! I donated to The Hynie Family https://t.co/YcYLSWI5g4 via @gofundme
p612
aVMy friend Amy said it best, and I echo her word for word. Please help Katy and her family. If you are unable to... https://t.co/SjhvdjwkOG
p613
aVHappy Halloween \U0001f47b\U0001f600 #bryce #kimchibaby #toddlersofinstagram #halloween #cousins #trickortreat https://t.co/ro6cT1ScBP
p614
aVWe voted today and he got a sticker \U0001f601 #bryce #kimchibaby #toddlersofinstagram https://t.co/NNVvAkH6XM
p615
aVBeing silly at @marianosmarket \U0001f601 #bryce #kimchibaby #toddlersofinstagram #brycegoesshopping https://t.co/DlBJhHxvZh
p616
aVI wish Snapchat filters were a real life face filter \U0001f602 hiding wrinkles are hard to do \U0001f606 https://t.co/65NaI44bBv
p617
aVHe is so perfect #bryce #kimchibaby #toddlersofinstagram https://t.co/FgtUy7gNlA
p618
aVWhile stopped at a light this morning, I looked over and saw this beautiful sunrise It's a\u2026 https://t.co/eXayaxa0P4
p619
aVHe was entranced and amazed at everything! @msichicago #museumofscienceandindustry #msi #bryce\u2026 https://t.co/TZw2Rrn2KA
p620
aVThis amazing #teslacoil put on quite a (loud!) show at @msichicago #museumofscienceandindustry\u2026 https://t.co/trRgKZrJmq
p621
aVIt always makes me so happy to see this in person. Seeing something that has made such an impact\u2026 https://t.co/8hrNiZ4bOF
p622
aVHe loves apples \U0001f34e #bryce #kimchibaby #toddlersofinstagram #apples #applepicking @ Royal Oak Farm\u2026 https://t.co/OIABaoUG2I
p623
aVMy little spaceman \U0001f60d #bryce #kimchibaby #toddlersofinstagram https://t.co/p0VBaciSJQ
p624
aV@airelav2 There's still hope! (who am I kidding, we're talking about the Bears here. As beloved as they are.. they're still the bears \U0001f602)
p625
aVHe loves being outside and exploring nature \u2764\ufe0f #bryce #kimchibaby #toddlersofinstagram #nature https://t.co/kuYU77D87r
p626
aVRT @butchwalker: One for the books, Chicago.
p627
aV@butchwalker come out, come out, wherever you are!
p628
aVRT @butchwalker: Ok, Chicago!! This place is packed and ready for fire tonight. Let's do this. See you after the support band is done.
p629
aVRT @butchwalker: I love Chicago. Can't wait to bulldoze the fuck out of @hobchicago tonight. Show is pretty much\u2026 https://t.co/Zxty9VuoUf
p630
aV@MrsBoxerG @butchwalker @HOBChicago yasss! We go to all his Chicago concerts!! He's our all time favorite ever \u2764\ufe0f
p631
aV@MrsBoxerG @butchwalker @HOBChicago we are going to this concert!!
p632
aVWhy can't cool things like this happen to us! Amazing! This is ultimate bucket list item 2 jam w/ @butchwalker &lt;3 https://t.co/RivPiUwzmn
p633
aVHe has discovered the power of Elmo #bryce #kimchibaby #toddlersofinstagram https://t.co/gmzqYh573x
p634
aVWhat a gorgeous sunset. Here's an awesome balloon we saw at the Harvard Balloon Fest today\u2026 https://t.co/NJxgmoFG7P
p635
aVcdkglobal here is the newest intern \U0001f602 ##bryce #kimchibaby #toddlersofinstagram #futureprogrammer\u2026 https://t.co/3NivVhPupF
p636
aVI love his face so hard \U0001f601\U0001f60d #bryce #kimchibaby #toddlersofinstagram #smile #happy #latergram @\u2026 https://t.co/ljAEvJr2JM
p637
aVWe have some pretty awesome murals on campus @mcc_edu #mchenrycountycollege #murals #college\u2026 https://t.co/2LFdE7l7ch
p638
aVSneaky looks #bryce #kimchibaby #toddlersofinstagram #peekaboo @ Brunch Cafe McHenry https://t.co/vL5ZjEG7Tw
p639
aVSunday morning snuggles #bryce #kimchibaby #toddlersofinstagram #dogsofinstagram #leeroyjenkins\u2026 https://t.co/LA4MTSXI1n
p640
aVThis makes my heart so happy! Bryce helped harvest carrots today at daycare, and each kid got to\u2026 https://t.co/iVaXqh4X0W
p641
aVAn after school snack of fresh peaches makes any kiddo happy \u263a\ufe0f\U0001f351 #bryce #kimchibaby\u2026 https://t.co/HNHcRswmLH
p642
aVSomeone had a very good first day at school \U0001f602\U0001f634 #bryce #kimchibaby #toddlersofinstagram\u2026 https://t.co/q3fHRx5xoF
p643
aVOh man. #vegan #herbivorousbutcher #drool #plantbased @ The Herbivorous Butcher https://t.co/oTthY6fWlb
p644
aVThis Japanese garden is so gorgeous \U0001f60d #beautiful #minneapolis #stpaul #comoparkconservatory\u2026 https://t.co/goHkMhgeDT
p645
aVWhat a gorgeous day at the lake. This lovely couple is out there enjoying the day too. This is\u2026 https://t.co/YgOihAVcua
p646
aVNature at it's finest \U0001f60d #beautiful #minnehahafalls #minneapolis #waterfall #vacation @ Minihaha\u2026 https://t.co/BEL3lcI7Ia
p647
aVThis kid \u2764\ufe0f\U0001f60d #bryce #kimchibaby #toddlersofinstagram #sleeping #thisisthelife https://t.co/hoENFysiys
p648
aVThe Mill City Museum was really cool! Stunning views of the river at the top \u263a\ufe0f #minneapolis\u2026 https://t.co/5zLK2irsIb
p649
aVFound this adorable farmer's market outside of the Children's Museum in St. Paul #farmersmarket\u2026 https://t.co/4lMzEDgEhS
p650
aVSee you again next year, @thatconference! Looking forward to when my little one will finally be\u2026 https://t.co/u6gv2agzmK
p651
aVFinally conked out.. Naps during vacation are hard to come by with this little dude \U0001f634 #bryce\u2026 https://t.co/CKznReRTbW
p652
aVIt's so cool 2 see such bright kids speaking @ThatConference #ThatConference #geeklings #futurestars #familykeynote https://t.co/uuI5go4NMZ
p653
aVA hotel room full of toys. Kiddo just wants to play with the garbage &amp; drawers \U0001f602 #shouldhaveknown #whydoievenbother https://t.co/O5GztCPDO9
p654
aV@milkcanllc Sunday Funday at #ThatConference! Jr. Geekling Bryce checking in! #ThatPostCard #bryce #kimchibaby https://t.co/Go3kekStta
p655
aVBrian with his interns, Sagar, Lauren and Raji (who's holding Bryce). Excited to see what the\u2026 https://t.co/yyXutocpae
p656
aVHmmm, which side shall I choose? #bryce #kimchibaby #toddlersofinstagram #playing #hepickedtheleft https://t.co/tpYIpUIL0w
p657
aVAll smiles because he slept past 6am! I also have a huge smile on my face \U0001f602\U0001f601 #bryce #kimchibaby\u2026 https://t.co/bNOgpmJeuD
p658
aV@butchwalker my 18 month old Bryce loves you \u2764 he even tries to head bang! \U0001f602 See you in September! #StayGold https://t.co/PQM5ZOt2nY
p659
aVSleeping Prince \U0001f634 #bryce #kimchibaby #toddlersofinstagram #sleepyhead https://t.co/nl2kiaKTMy
p660
aVWeeeeee! #bryce #kimchibaby #toddlersofinstagram #playing #parks #slidesarefun https://t.co/rxf6Lugf4M
p661
aVWe are so excited about these little cherry tomatoes \U0001f60d We grew these babies from seed back in\u2026 https://t.co/4Xte1LtBy9
p662
aVBryce loves his new Chewbacca tsum tsum. He gives it hugs \U0001f60d #bryce #kimchibaby\u2026 https://t.co/s52FnpxRWs
p663
aV"Oh, wow!!" #bryce #kimchibaby #toddlersofinstagram https://t.co/SxI1xZY9wf
p664
aVSo serious about @FitzAndTantrums #kimchibaby #bryce #toddlersofinstagram #fitzandthetantrums https://t.co/1dRMCXOvl3
p665
aVFinally ripening! Soon, you shall be in my belly \U0001f60d\U0001f345 #gardening #vegetables #tomatoes https://t.co/hSxYuHTYRD
p666
aVMy dapper man \U0001f60d #kimchibaby #bryce #toddlersofinstagram #dapper https://t.co/xvlZz4MLKg
p667
aV@JaneGreen my son is so obsessed with your books (like me). He climbs just to get them, specifically "Dune Road" \U0001f60d https://t.co/9Bs9bpgTnU
p668
aV@DukesAlehouse man, we love your place. Your battered green beans are to die for. Time to find a babysitter!
p669
aVOh, Hi mom! #bryce #kimchibaby #toddlersofinstagram https://t.co/y9bRX2BI35
p670
aV@DukesAlehouse we loooove beer! Especially craft beer. I like fruit beers more, and hubs loves anything!
p671
aVToo cool for the rest of us #bryce #kimchibaby #toddlersofinstagram #chicago #architecturetour\u2026 https://t.co/XEvgviVK8C
p672
aVHoly. Moly. #brunch #grandluxcafe #churrofrenchtoast #getinmybelly #delicious @ Grand Lux Chicago https://t.co/rJkvALqOkE
p673
aV\U0001f60d #bryce #kimchibaby #toddlersofinstagram #happy #smiles https://t.co/qFbSgkxBl6
p674
aVNature hard at work #gardening #tomatoes #nature #bumblebee https://t.co/A4EIcn4unI
p675
aV@DukesAlehouse absolutely! Lots of bruschetta \U0001f602 also pastas, pesto and perhaps some gimlets may be had \U0001f609 https://t.co/KDc3Y8zHpc
p676
aV@DukesAlehouse we have a teeny potted garden! Cherry tomatoes, peppers, basil and green onion. Already harvested our spinach! Yum!
p677
aVHello, little pepper friend.. So good to finally meet you \U0001f60d\U0001f336 #gardening #vegetables\u2026 https://t.co/eofLKxO1Nx
p678
aVJust taking a little reading break at our play date #Bryce #kimchibaby #toddlersofinstagram\u2026 https://t.co/pbHoExqoIo
p679
aVSo happy! The muppet mouth makes an appearance \U0001f60d\U0001f60d #Bryce #kimchibaby #toddlersofinstagram\u2026 https://t.co/Hn1VW5oPcH
p680
aVHe just couldn't help himself \U0001f602 sometimes you gotta just shake it \U0001f3a7\U0001f483\U0001f3fd#Bryce #kimchibaby\u2026 https://t.co/51szZzXBOy
p681
aVThe sky tonight looks like a Bob Ross painting. Or cotton candy! \U0001f60d\U0001f3a8 #mchenryoutdoortheater\u2026 https://t.co/17pN3U8pKv
p682
aV#Bryce #kimchibaby #toddlersofinstagram #cutiepatootie #17months https://t.co/UYTQ00lw4c
p683
aVSorry, kiddo. You're a little young for your first credit card \U0001f4b3 #bryce #kimchibaby\u2026 https://t.co/JngMzSAMSH
p684
aVMy babby looks so grown up here \U0001f62d #bryce #kimchibaby #toddlersofinstagram https://t.co/vOjyrR0xye
p685
aVMe and my handsome nephew, Owen after a dinner tonight at terragrrestaurant therealowengorsuch\u2026 https://t.co/eHnplzljR3
p686
aV"Stop! Put your hands in the air!! You're being arrested for being too cute!" #bryce #kimchibaby\u2026 https://t.co/NtqsZu2Jmw
p687
aVApparently, Bryces's butt makes a good pillow #bryce #kimchibaby #toddlersofinstagram\u2026 https://t.co/SsIE3o0YEb
p688
aVBryces's first art masterpiece #bryce #kimchibaby #toddlersofinstagram #art #toddlerart\u2026 https://t.co/C6tXUv52km
p689
aVThis sleeping face makes my heart melt #bryce #kimchibaby #toddlersofinstagram #demcheeks https://t.co/1QN3est1VZ
p690
aVHe just wants cuddles #leeroyjenkins #dogsofinstagram #cuddles https://t.co/h6fzM77AWF
p691
aVOne of his favorite spots to play. He adores putting his cars or trains there and making them go\u2026 https://t.co/w2aVonFetR
p692
aVHappy Father's Day to my amazing husband. In mine and Bryce's eyes, the world has never known a\u2026 https://t.co/ALi6RUw6Rj
p693
aV"Let's see. What book shall I read next?" #bryce #kimchibaby #toddlersofinstagram #books #reading https://t.co/klFW18vpvV
p694
aVOur tomato plants that we grew from seed finally got flowers! That means our tomatoes will\u2026 https://t.co/kevcz86NFD
p695
aVMorning snuggles \u2764\ufe0f #besties #Bryce #kimchibaby #leeroyjenkins #brothers #toddlersofinstagram\u2026 https://t.co/bF6b6gvbMA
p696
aVThanks to the Lake Zurich Fire Department for being so kind to #Bryce today and "making" him a\u2026 https://t.co/JwT8yzFwa6
p697
aVFuture gamer #bryce #kimchibaby #level257 @ Level 257 https://t.co/J8thML5xsr
p698
aVWhat a gorgeous day to spend at #navypier #centennialwheel #beautifulday @ Navy Pier https://t.co/qt2BTiKYAj
p699
aVDelicious beer #newglarus #beer #brewing @ New Glarus Brewing Co https://t.co/ibyso0lZ9c
p700
aV#infinityroom #houseontherock #illstaybackhere @ House on the Rock https://t.co/EmOlAHBO1Y
p701
aV@mypartyprincess we had a fantastic time.. It was gorgeous outside &lt;3
p702
aVCooling off at the splash pad #bryce #kimchibaby #toddlersofinstagram #brookfieldzoo @\u2026 https://t.co/jOHdOr0eT6
p703
aVThe carousel never stops turning #brookfieldzoo #carousel @ Brookfield Zoo, Chicago https://t.co/SPlQMy8riu
p704
aVPlaying with the goats at @brookfield_zoo #bryce #kimchibaby #toddlersofinstagram #goats\u2026 https://t.co/mIb0TDQfYa
p705
aV#playing with #grandpa on the old school rocking horse \u2764\ufe0f #bryce #kimchibaby\u2026 https://t.co/LXsElvxGAB
p706
aV#selfiesunday #stillneedmorecoffee https://t.co/CjoTGdZI56
p707
aV#bryce #kimchibaby #toddlersofinstagram #playing #waterbaby https://t.co/uRdNSQj75t
p708
aV@ABC7Chicago look at this beautiful double rainbow, over Lakemoor! https://t.co/9DavoAPTzI
p709
aVTimber?! #bryce #kimchibaby #toddlersofinstagram #playing #blocks https://t.co/o8JJ7596GA
p710
aVHis hair \U0001f602\U0001f60d #bryce #kimchibaby #toddlersofinstagram #bedhead #fauxhawk https://t.co/gId2Ia1hPC
p711
aV"Oh hello, cafe people." #bryce #kimchibaby #toddlersofinstagram #hello @ Simple Cafe Lake Geneva https://t.co/LZeIJXw0JH
p712
aVJust finished week 1 day 3 of #C25K with @c25kfree! @zenlabsfitness! #everymomentcounts #run #running #health #fitness
p713
aVI have a friend who wants to cuddle \U0001f601\U0001f436 #leeroyjenkins #dogsofinstagram #cuddles #woof https://t.co/uhFbEmFLHs
p714
aV"Whaaaatcha doin?" #bryce #kimchibaby #toddlersofinstagram https://t.co/uwlh5vKvER
p715
aVHe woke up from his nap giggling \U0001f601\U0001f602 #bryce #kimchibaby #happybaby #toddlersofinstagram https://t.co/c84lePJUIs
p716
aVHad this amazing bread pudding French toast today at Bryn Mawr Breakfast Club \U0001f60d #checkpleasepics\u2026 https://t.co/jvNFsbWe4O
p717
aVHe loves baseball \u263a\ufe0f\u26be\ufe0f #gocubsgo #bryce #kimchibaby #toddlersofinstagram #chicagocubs https://t.co/CTSsGvH2me
p718
aVBryce went to his shopping cart and brought me each of these items one at a time. He took my\u2026 https://t.co/9IiNSMvcbz
p719
aVTrying to hide \U0001f601 #bryce #kimchibaby #toddlersofinstagram https://t.co/AalZRJUEXU
p720
aVMy heart (and lap) is full \u2764\ufe0f\U0001f60d\U0001f476\U0001f3fd\U0001f436 #happymothersday #bryce #kimchibaby #toddlersofinstagram\u2026 https://t.co/jqOEePjxoj
p721
aVOur spinach is thriving :) #gardening #spinach #greenthumb https://t.co/rY1ukdtLJx
p722
aVWaiting for the show to start. It's such a gorgeous night! #mchenryoutdoortheater\u2026 https://t.co/byncDuxW0Q
p723
aVSomeone is sleepy \U0001f4a4 #Bryce #kimchibaby #toddlersofinstagram #sleepy https://t.co/4TfEP7yKXt
p724
aVJust finished week 1 day 2 of #C25K with @c25kfree! @zenlabsfitness! #everymomentcounts #run #running #health #fitness
p725
aVJust finished week 1 day 1 of #C25K with @c25kfree! @zenlabsfitness! #everymomentcounts #run #running #health #fitness
p726
aVThanks for letting me finish my coffee in peace \u263a\ufe0f\u2615\ufe0f #Bryce #kimchibaby #toddlersofinstagram https://t.co/OzxW8risXV
p727
aVmichaelbuble would be proud \U0001f602\U0001f601\U0001f33d #Bryce #kimchibaby #toddlersofinstagram #corn https://t.co/CDIuypCM9h
p728
aVThree generations \U0001f60d #Bryce #kimchibaby #toddlersofinstagram #threegenerations #family https://t.co/XEGZeXGWOb
p729
aVCompletely mesmerized by the Octonauts \U0001f60a #Bryce #kimchibaby #toddlersofinstagram https://t.co/IYJIazloWa
p730
aVTheir favorite pastime #Bryce #kimchibaby #toddlersofinstagram #dogsofinstagram #brothers https://t.co/pBDbIqj9tT
p731
aVWat. I don't even know! \U0001f602\U0001f602 #Bryce #kimchibaby #sillyboy #toddlersofinstagram https://t.co/XBchnZHOLV
p732
aVSaw an adorable thing today \U0001f601 #followtheleader #adorable #geeseofinstagram https://t.co/uYSQC9Un0f
p733
aVTomato transplant part 1 \U0001f60d\U0001f345 #gardening #hellospring #tomatoes #greenthumb https://t.co/FEcVY6afsQ
p734
aV#happy #kimchibaby #Bryce #toddlersofinstagram #smile #cheeseysmile https://t.co/DwzSeoLOio
p735
aVHey, what's going on out there? #Bryce #kimchibaby #toddlersofinstagram https://t.co/c94yGzbg9u
p736
aVThis kid went crazy for kim (roasted seaweed) \U0001f60d #Bryce #kimchibaby #bryceeats\u2026 https://t.co/YFXOSkQBQz
p737
aVJust downloaded the Oh She Glows recipe app! #osgrecipeapp Check it out here:  https://t.co/XpWbx6JRoZ
p738
aVA million toys and he just wants to play with the box ;) thanks for the free diaper caddy\u2026 https://t.co/zknVlpsB3s
p739
aVHe gets super excited about his daily FaceTime with his haelmoni \u2764\ufe0f#Bryce #kimchibaby\u2026 https://t.co/UOzcSw06i4
p740
aVBrain Stuff, Entry 1 https://t.co/5L6TxtGqw0 via @weebly
p741
aVHe loves samples at Costco #Bryce #kimchibaby #toddlersofinstagram https://t.co/R5E8K882Ok
p742
aVHe's going nuts over the #kashi island vanilla shredded wheat cereal \U0001f601 #Bryce #kimchibaby\u2026 https://t.co/UMcDndVQ6x
p743
aVHe made a new friend \U0001f602 hello, shadow Bryce! #kimchibaby #Bryce #toddlersofinstagram #hellospring\u2026 https://t.co/KJGeaqAasy
p744
aV#Bryce #kimchibaby #bryceeats #toddlersofinstagram https://t.co/FcaIOCN0D1
p745
aVLearning about gardening #Bryce #kimchibaby #toddlersofinstagram #gardening #hellospring @\u2026 https://t.co/liS0kBJ8dB
p746
aVHaving fun at Andrew's birthday party #Bryce #kimchibaby #playing #toddlersofinstagram #hellospring https://t.co/XWFiZb4nA5
p747
aVHello, park people #toddlersofinstagram #Bryce #kimchibaby #playing #hellospring https://t.co/oBnI8coFbu
p748
aVThis kid \U0001f60d\U0001f60d #Bryce #kimchibaby #toddlersofinstagram #datsmile https://t.co/PsJ5VIGqAN
p749
aV#Bryce #kimchibaby #toddlersofinstagram https://t.co/PnHZ156d79
p750
aVI feel pretty today :) #selfie #nofilter #happy https://t.co/Lpv52umavm
p751
aVMinestrone for dinner and totally yummy! Tons of veggies and super filling \U0001f372 #dinner #plantbased\u2026 https://t.co/ggWFeviyY5
p752
aVHe loves the sample cups and spoons #Bryce #kimchibaby #toddlersofinstagram #brycegoesshopping https://t.co/TdKxvS8rnz
p753
aVHe looks so different here! But look at #demlashes #toddlersofinstagram #kimchibaby #Bryce https://t.co/wkMfvhYTFa
p754
aVSome exciting news to share :) https://t.co/8ImTnEsQV1 via @weebly
p755
aVLeeroy really wants Bryces's apple slice \U0001f601\U0001f602\U0001f34f #Bryce #kimchibaby #leeroyjenkins\u2026 https://t.co/ePc4PlaRRc
p756
aVLoving on some apple chips #Bryce #kimchibaby #bryceeats #toddlersofinstagram https://t.co/4pUuI9SOrx
p757
aVHello, little tomatoes \U0001f60d\U0001f345 #gardening #vegetables #vegetablegarden https://t.co/4y2mmN7pBF
p758
aVThese two goofballs \U0001f60d #Bryce #kimchibaby #toddlersofinstagram #daddyandson #besties https://t.co/SELbnYxSik
p759
aVGabi reading "Pout Pout Fish" to him :) #Bryce #kimchibaby #toddlersofinstagram #reading https://t.co/4DbSq6hj8t
p760
aVJust sittin in my chair, holding my ball and watching Star Wars #Bryce #kimchibaby\u2026 https://t.co/P5w9QOC8B2
p761
aV*someone* does not wanna take a nap today \U0001f61c #Bryce #kimchibaby #toddlersofinstagram\u2026 https://t.co/blmoIyFoOB
p762
aV#bedhog #Bryce #kimchibaby #toddlersofinstagram https://t.co/mPmOlnSkuS
p763
aVSo close, yet so far... #Bryce #kimchibaby #leeroyjenkins #brothers #toddlersofinstagram\u2026 https://t.co/PIVegYsfAS
p764
aVThe kid really loves to shop \U0001f602\U0001f6cd #Bryce #kimchibaby #brycegoesshopping #toddlersofinstagram https://t.co/M500abL8pm
p765
aV@SamsClub Wow, this is ridiculous on all levels. Who the heck would want this disaster of a cake?! https://t.co/6Siiss7rc3
p766
aV"Whachoo lookin at?" #Bryce #kimchibaby #toddlersofinstagram #hishairtho https://t.co/ptOhsfDxrM
p767
aVBryce just adores his "gogi" #Bryce #kimchibaby #leeroyjenkins #brothers #toddlersofinstagram\u2026 https://t.co/ye4mNA8ARm
p768
aVHe clearly has no desire to be a fireman \U0001f602 #Bryce #kimchibaby #dressup #toddlersofinstagram @\u2026 https://t.co/RNEE09p3Hc
p769
aVMaking friends and looking spiffy #Bryce #kimchibaby #toddlersofinstagram @ Kinfork at Woodfield\u2026 https://t.co/0RVYEg7vmk
p770
aVHad an early birthday cupcake for Brian's birthday tonight. Mint chocolate chip \U0001f601 yes, I made\u2026 https://t.co/Ba94h3O42f
p771
aV#Bryce #kimchibaby #datsquat #playing https://t.co/u3gZcCrLVF
p772
aVThe wonder of the bubbles didn't last long \U0001f602\U0001f601 #bubbles #Bryce #kimchibaby https://t.co/5C0GuqY0TZ
p773
aVLunch at Cinnamon Bistro in Lake Zurich was delicious \U0001f60d @ Cinnamon Bistro https://t.co/VQTHugE6kT
p774
aVSpent the afternoon hanging out with this guy :) #lovehisface #16yearsandcounting #beautifulday https://t.co/dN3zclf7G8
p775
aVPancake fiend #Bryce #kimchibaby #bryceeats #toddlersofinstagram https://t.co/fXEQJ2S2Hd
p776
aVIf it fits, I sits #Bryce #kimchibaby #babiesareweird #toddlersofinstagram https://t.co/OUbI7s47gS
p777
aVHomemade brown sugar lip scrub #homemade #lipscrub #smellsdelicious https://t.co/ZmGPjdGpl4
p778
aVWatching Leeroy eat breakfast is fascinating #Bryce #kimchibaby #leeroyjenkins #brothers\u2026 https://t.co/5PT7OEQfpa
p779
aV#dwts #season22 #lenisback https://t.co/nyFRy84H1T
p780
aVDespite having his first real diaper rash, he's all smiles and happiness today :) #Bryce\u2026 https://t.co/mXSYIavPjb
p781
aVEnter to win a @melissaanddoug Prize Pack from @BigCityMoms.  https://t.co/YXtgZwpWii
p782
aVDon't let this sweet face fool you. He's a party animal at 4am. He only napped about 20 minutes\u2026 https://t.co/q7RZtypEFA
p783
aVHubs spoiled me by making his own ratatouille toast. Delicious! #plantbased #plantstrong\u2026 https://t.co/0fBjmjgsbT
p784
aVConstantly waiting for food... #leeroyjenkins #dogsofinstagram https://t.co/QsgbPhZEbD
p785
aV#selfie #feelingtired #filtershidethebags https://t.co/vXjE5J5Meg
p786
aV#Bryce #kimchibaby #toddlersofinstagram https://t.co/vtOFYUpeeN
p787
aVFulfilling my civic duty \U0001f1fa\U0001f1f8 \U0001f44d\U0001f3fc\U0001f64c\U0001f3fc #feelthebern #vote https://t.co/6mcuA1N8N9
p788
aVHis little feet make me smile \u263a\ufe0f #Bryce #kimchibaby https://t.co/YOkCWaChi5
p789
aVHe's so peaceful \u263a\ufe0f #Bryce #kimchibaby #toddlersofinstagram #futuregriffyndor https://t.co/pdifcGexnj
p790
aVThis kid \U0001f60d #Bryce #kimchibaby #chilldude #handsome #toddlersofinstagram https://t.co/w10hi15LMy
p791
aVHe looks like he should be retired and living in Florida \U0001f602 #Bryce #kimchibaby #brycegoesshopping https://t.co/eboWqzX6bN
p792
aVChillin like a villain #Bryce #kimchibaby #brycegoesshopping #chilldude #hecracksmeup https://t.co/hhZrzoz691
p793
aVThis is what happens when you party at 4am. #Bryce #kimchibaby #sleepybaby #4amisnotplaytime https://t.co/McexYPTzcl
p794
aVLearning Korean \U0001f1f0\U0001f1f7\u263a\ufe0f #Bryce #kimchibaby #playing #blocks #unclegoose #unclegooseblocks https://t.co/IravXiTrB9
p795
aVBryce loves to be silly, especially after a cold, refreshing sip of water \U0001f602 #Bryce #silly\u2026 https://t.co/hXjSdQHAnA
p796
aVHe absolutely adores his new Fozzie Bear from Chelsea \u2764\ufe0f #Bryce #kimchibaby #cuddles\u2026 https://t.co/zz6Dc3SRV7
p797
aVCan't wait for my March #ipsy #glambag! https://t.co/xVW992UG9y
p798
aVOur lives are overflowing with love and gratitude from so many beautiful friends and family in\u2026 https://t.co/hj9l4hp4ti
p799
aVTwo peas in a pod #Bryce #kimchibaby #leeroyjenkins #dogsofinstagram #twins #brothers https://t.co/hQT5vyXwaX
p800
aVPre surgery cutie :) #Bryce #kimchibaby #aintnothang #luriechildrens #luriechildrenshospital @\u2026 https://t.co/rT8yGXx2Iu
p801
aVHere is my #browtransformation that is 5 years in the making. Still learning a lot but I'm\u2026 https://t.co/J9pcHXhqZd
p802
aVI made homemade maple graham crackers for Bryce this morning. A much healthier alternative than\u2026 https://t.co/RWSfb4P3P9
p803
aVLovin on some avocados \U0001f60d #Bryce #kimchibaby #bryceeats #toddlersofinstagram #babiesofinstagram\u2026 https://t.co/EZGOgzqwao
p804
aV@IslandLakeVet yes, it is Leeroy Jenkins!
p805
aVThanks to @ohsheglows for another amazing dinner :) Vegan enchiladas with cilantro-lime-garlic\u2026 https://t.co/JM2L0SBbZq
p806
aVBryce loves to cuddle \U0001f60d #Bryce #kimchibaby #leeroyjenkins #brothers #dogsmakelifebetter\u2026 https://t.co/yQeykimGPN
p807
aVHelping his brother feel better #leeroyjenkins #Bryce #kimchibaby #brothers #sickbaby\u2026 https://t.co/9YsrltrOIv
p808
aVHandsome little fella #Bryce #kimchibaby #handsome #babiesofinstagram https://t.co/UAU0WSkXDy
p809
aVAsked him to take a selfie, and he obliged \U0001f60d #Bryce #kimchibaby #happybaby #smile #selfie\u2026 https://t.co/3uHGUPi38s
p810
aV#dinner was amazing \u2764\ufe0f veggies with dumplings - a #plantbased version of chicken and dumplings!\u2026 https://t.co/ONRdbmwfMa
p811
aVDoggie kisses #Bryce #kimchibaby #leeroyjenkins #brothers #brotherlylove #dogsofinstagram https://t.co/LJSieic4kJ
p812
aVI have missed this smile \U0001f60d\U0001f601 #Bryce #kimchibaby #happybaby #smile #onthemend https://t.co/2GY9xQiIwg
p813
aVMy two littles \U0001f60d #valentines #hugs #Bryce #kimchibaby #leeroyjenkins #brothers #brotherlylove https://t.co/gBclOigHyT
p814
aVHe is finally starting to feel better \U0001f60d having fun bouncing on daddy's legs \u263a\ufe0f #Bryce\u2026 https://t.co/mIXBjTtLYL
p815
aVA boy and his dog #Bryce #kimchibaby #leeroyjenkins #brothers #snuggle #sickbaby https://t.co/KLDqXVUWIV
p816
aVPoor sick baby just wants to cuddle with his remote #Bryce #kimchibaby #sickbaby https://t.co/JodQkXfS0j
p817
aVI always wanna raspberry his little tummy \U0001f602 #Bryce #kimchibaby #sickwho #tummy https://t.co/VfDQG82G5n
p818
aVYou'd never think this kiddo was sick #Bryce #kimchibaby #happybaby #happy #sickwho https://t.co/vfd0o1g96X
p819
aVWhat a delicious afternoon \U0001f60d\U0001f36b\U0001f36d\U0001f36c #kilwins #kilwinspetoskey #delicious #chocolate\u2026 https://t.co/kze2NjEHRT
p820
aVHis new look of disapproval \U0001f602\U0001f612 #Bryce #kimchibaby #sillybaby #sillyfaces #babiesofinstagram https://t.co/0aJzw8BkhA
p821
aV#sillybaby #Bryce #kimchibaby #latergram #lovesicecream https://t.co/c4lx9batVX
p822
aVHeaven \U0001f60d #Boyne #vacation #skiing #snow https://t.co/T8yzm1FqW5
p823
aVThis kid loves pears \U0001f350 #Bryce #kimchibaby #bryceeats #blw #babyledweaning https://t.co/mWku4tey3b
p824
aVHe likes to pull all his toys out of the bins and sit on the dog bed while playing with them \U0001f602\u2026 https://t.co/0ApPiiVHPE
p825
aVHis eyes look like teardrops.. And his cheeks are so pinchable \U0001f60d #Bryce #kimchibaby\u2026 https://t.co/ls7BBWyjvo
p826
aVLoving my new glasses from @warbyparker \U0001f453 #selfie #selfiesunday #glasses #warbyparker https://t.co/e6yAQKn0F9
p827
aVIt's never too early to start practicing good dental hygiene \U0001f601 #kimchibaby #Bryce\u2026 https://t.co/UtyyDLtQeH
p828
aVTwinsies \U0001f602 #kimchibaby #Bryce #muppetmouth #kermit #babiesofinstagram https://t.co/S9a1OzjQjt
p829
aVCuddling \u2764\ufe0f #Bryce #kimchibaby #babiesofinstagram #cuddles #happybaby #thisisthelife https://t.co/VBBSA8ZTq2
p830
aVHe's definitely digging the sweet shoes made by the amazing saltwaterandclay \u2764\ufe0f #Bryce\u2026 https://t.co/yDOvawegLY
p831
aV#toocooltositnormally #Bryce #kimchibaby #adorable #babiesofinstagram https://t.co/aU4rSh2BIC
p832
aVNot exactly sure what he wants. He's been like this for a full minute \U0001f602\U0001f436 #leeroyjenkins #beggar\u2026 https://t.co/lBH54uA6uj
p833
aVThe two loves of my life #Bryce #kimchibaby #likefatherlikeson #besties #heartmelts https://t.co/lBDO28ThpE
p834
aVPretty sure my heart will melt every time he wants to cling go my hands like this #Bryce\u2026 https://t.co/pOo0A9OsV7
p835
aVPlaying nicely :) #Bryce #kimchibaby #leeroyjenkins #brothers #playing https://t.co/EwB7zvUZiM
p836
aVBest. Hat. EVER. Thank you Jenn girllilikoi for the amazing hat!! #Bryce #brycegoesshopping\u2026 https://t.co/3hq19oD144
p837
aVStop and put your hands up! #Bryce #kimchibaby #itscriminaltobethiscute https://t.co/oGkN6UHdco
p838
aV#selfie https://t.co/PdDpZ5nOdn
p839
aVOh dear #Bryce #kimchibaby #datface #iminsomuchtrouble https://t.co/oUIhIa6Xi5
p840
aVThis is the look he gave me when I told him to stop feeding the dog \U0001f602#Bryce #bryceeats #kimchibaby https://t.co/Snb8mimLSx
p841
aVBaby kisses are the best \U0001f60d\u2764\ufe0f #Bryce #kimchibaby #babykisses #heartmelts https://t.co/LpMBKYwnEL
p842
aVHe rode around in the cart like this for about 5 minutes. #Bryce #kimchibaby #brycegoesshopping\u2026 https://t.co/zobxO3htbx
p843
aVYogurt face \U0001f601 #Bryce #kimchibaby #happybaby #smile https://t.co/shD9AbAdSh
p844
aVThe face he gave when I told him he couldn't chew on his crib \U0001f602 #teethingsucks #Bryce\u2026 https://t.co/Q3Le6NY4k2
p845
aVYessss.. New loot arrived \U0001f60d #makeup #makeupaddict #toofaced #smellssogood https://t.co/0ewDMHuFvV
p846
aVThis quinoa veggie soup was so delicious and filling! #plantbased #plantstrong #veganfood\u2026 https://t.co/WPP9LbKWu6
p847
aVOh, Hello there. #Bryce #kimchibaby #peekaboo #iseeyou https://t.co/Aj2F9wAkRD
p848
aVI asked for a hug and he obliged.. #Bryce #kimchibaby #heartmelts #cuddles #babyhugsarethebest https://t.co/Bl8EptA7SV
p849
aVWatching daddy bake.. His hair is killing me \U0001f602 #Bryce #kimchibaby #messyhairdontcare https://t.co/8XoOqwtv3V
p850
aVGorgeous snow #snowing #winterispossiblycoming #beautiful https://t.co/f7rNBiN0Lb
p851
aVAwww yisss.. Come to mama \U0001f60d\u2764\ufe0f#makeup #makeupaddict #urbandecay https://t.co/dYHiQvviyS
p852
aVMarch of the Little People. They're coming after me! #theyhauntmydreams #saveme https://t.co/5c2u1p6yxi
p853
aVChef in Training.. Making me some veggie soup \U0001f372#Bryce #kimchibaby #latergram #playing https://t.co/TGTUNbv2YL
p854
aVJust me and my Dino, out for a leisurely stroll \U0001f602#Bryce #kimchibaby #dino #howmuchcutercanyouget https://t.co/tVc5PrwXA8
p855
aVHe is absolutely destroying these pear slices.. He loves them so much \U0001f350 #Bryce #bryceeats\u2026 https://t.co/n851y3KqSL
p856
aVTaking over Bryce's spot #leeroyjenkins #cozy https://t.co/F5oaAzpoI7
p857
aVSomeone #ptfo while grocery shopping today #Bryce #kimchibaby #brycegoesshopping #sleepybaby https://t.co/UubvQ0yUq3
p858
aVTroublemaker #Bryce #kimchibaby #getsintoeverything #lifeisfun https://t.co/ZGOlTRZ1L1
p859
aVHappy to start the day \u263a\ufe0f #kimchibaby #Bryce #happybaby #happy https://t.co/KzpVxq8wIF
p860
aV#selfie #filtersarefun #iseeyou https://t.co/h06R6YGQGd
p861
aVCool kid #Bryce \U0001f602 what side will he join?? #starwars #darthvader #babysocks #doesntmatter\u2026 https://t.co/WRxAEahpyd
p862
aVHavin fun smooshing banana #Bryce #blw #babyledweaning #texturesarefun #bryceeats https://t.co/m2KV3N15mD
p863
aVAlways captivated by the grocery store #Bryce #brycegoesshopping #marianosisbest https://t.co/d2cehbUgXV
p864
aV"Garson, I shall dine on French toast sticks with a side of fruit this morning." https://t.co/LARCRojQlE
p865
aVHappy New Years to my tummy! Brian made homemade crepes with fresh strawberries and whipped\u2026 https://t.co/SFT0SaOTQ9
p866
aVLoving his new tool set from his Auntie Sandy @sandee967. He learned very quickly how it works \U0001f602\u2026 https://t.co/Vhekf2fSmM
p867
aVHappy new year, to all my awesome friends and family! Love, Bryce \u2764\ufe0f\U0001f60d #happybaby #Bryce\u2026 https://t.co/HzHWlXRSen
p868
aVMy mantra for 2016.. I hope to inspire people to be the change they want to see. Here's to\u2026 https://t.co/rqhaEv222O
p869
aV#2015best9 #whatayear #lifeisgood https://t.co/Cq3tydoduX
p870
aVMy little #kimchibaby makes my heart soar \u2764\ufe0f #Bryce #happybaby #smile #howmuchcutercanyouget https://t.co/ZEQ1I60Cpf
p871
aVMy little Korean squatting baby \U0001f602#kimchibaby #Bryce #koreanbaby #playing https://t.co/IHXlGKEX0t
p872
aVExploring broccoli texture \U0001f60b#Bryce #kimchibaby #blw #babyledweaning #broccoli #broccoliisdelicious https://t.co/n8mHlb0pc8
p873
aVThe best we could do \U0001f602 Merry Christmas Eve! #christmas2015 #Bryce #kimchibaby #leeroyjenkins\u2026 https://t.co/0D9LCAbN7g
p874
aVPretty presents \U0001f384\U0001f385\U0001f3fc  #Bryce #kimchibaby #christmas2015 #christmas #presents #christmastree https://t.co/HxaXqvfyy7
p875
aVHis preferred sleep position \U0001f602 #Bryce #kimchibaby #babiesareweird #comfy https://t.co/MRZt6JNcvm
p876
aVBaby socks get me every time \U0001f60d #Bryce #kimchibaby #babysocks #babyfeet #howmuchcutercanyouget\u2026 https://t.co/UcAbSfyd3f
p877
aV#Bryce and #santa are having a serious conversation \U0001f385\U0001f3fc\U0001f476\U0001f3fd #kimchibaby #christmas2015\u2026 https://t.co/bIOQjncUbi
p878
aVNot super excited about the zoo \U0001f602 #bryce #kimchibaby #babyitscoldoutside #brookfieldzoo https://t.co/kXuatY8DEU
p879
aVThis kid's hair kills me every time \U0001f602 #bryce #kimchibaby #messyhairdontcare #ilovehimsomuch https://t.co/CpJUW2rrJS
p880
aVCassie's Homemade Spaghetti Sauce https://t.co/Ickn763YC6 via @weebly
p881
aVMmmmm beer.. \U0001f37b delicious beer flight at Slyce paired great with our pizza \U0001f355 #prost #beer #slyce\u2026 https://t.co/8pwx7VuD7z
p882
aVBryce "wrote" his first letter to Santa \U0001f385\U0001f3fc love starting new traditions! #bryce #kimchibaby\u2026 https://t.co/LLCBcuyaQg
p883
aVA boy and his dog \U0001f436\U0001f476\U0001f3fd they are becoming buddies \u2764\ufe0f #bryce #kimchibaby #leeroyjenkins #buddies\u2026 https://t.co/ohRG3Ma0uV
p884
aVHomemade spaghetti sauce.. So filling and delicious! \U0001f35d #vegan #veganfood #veganfoodshare #pasta\u2026 https://t.co/HnZ151bGwz
p885
aVHe's totally loving his veggie burger bib \U0001f602 meagorillacreations @meagorilla #bryce #kimchibaby\u2026 https://t.co/OCPo7jv0Yh
p886
aVWeirdo. #bryce #kimchibaby #bryceeats #babiesareweird #yogurtface https://t.co/kJq5bF6KDW
p887
aVI'm Baaaaack! https://t.co/ezvOOT0qEo via @weebly
p888
aVLining up his Little People is very serious business #bryce #kimchibaby #playing #latergram\u2026 https://t.co/wyptDPRfGJ
p889
aVFirst time eating bibimbap \U0001f60d my little #kimchibaby is loving it so much! #bryce #bryceeats\u2026 https://t.co/KA4WIGEpV1
p890
aVLoving on some pancakes #bryceeats #bryce #kimchibaby #blw #babyledweaning #breakfastisbest https://t.co/EKrBToZ7Wg
p891
aVDelicious homemade #vegan "chicken" noodle soup, packed with veggies. Perfect for a dreary winter\u2026 https://t.co/XNYMl6IMCm
p892
aV#selfie #fresh #feelingpretty https://t.co/vcJYNTH6pj
p893
aVHe makes me so happy :) #happy #kimchibaby #bryce #smile https://t.co/3gBPlZY0Kq
p894
aVThese slipper socks are making me squee, they're so cute! #bryce #cutie #kimchibaby\u2026 https://t.co/pKqq9QmzGT
p895
aVDelighted by Elmo :) #bryce #happybaby #cutie #smile #elmo https://t.co/mmBeZAiwvN
p896
aVThis little cutie pie got lots of attention while out today. He's so cute in his hat!\u2026 https://t.co/whUpmsRhqH
p897
aVThis kid was being very silly while eating his yogurt earlier \U0001f602 #bryce #bryceeats #kimchibaby\u2026 https://t.co/VALbGQaiUl
p898
aVIt's a classic that all babies love - including mine :) @cheerios #delicious #kimchibaby #bryce\u2026 https://t.co/1N41PPFvQ8
p899
aVLunch for the week is this amazingly delicious chickpea and dumpling soup from #ohmyveggies .. Do\u2026 https://t.co/aK8wLNfNAF
p900
aVLoving my new MacBook decal #potterhead #dementor #patronus #expectopatronum #harrypotter https://t.co/XrlZ087ZHC
p901
aVHe really does enjoy doing this \U0001f602 #aperfectfit #ifitfits #kimchibaby #bryce #babiesareweird\u2026 https://t.co/JJqnjTPW3r
p902
aVMessy hair #dontcare and loving @nyxcosmetics #buttergloss that make my lips look fuller #nyx https://t.co/liaCuVuGGo
p903
aVTeeth! #bryce #kimchibaby #smile #happybaby https://t.co/5slF8XV1yH
p904
aVFinally trying to make our own almond milk #plantbased #plantstrong #veganfood #veganfoodshare https://t.co/vrG93ldM5T
p905
aVTrying to stay ahead of the game.. Christmas cards are done! \U0001f384\U0001f385\U0001f3fc #christmas #organized #happy\u2026 https://t.co/yqNHHauvMS
p906
aVPlaying :) they're very gentle with each other! #furrycousins #bryce #kimchibaby #thanksgiving #kitty https://t.co/zASsVWQApc
p907
aVGenuine Russian vodka shots in ice shot glasses? Yes please! #its5oclock #russianvodka #belugavodka\u2026 https://t.co/fv4jzC8D0y
p908
aVDelicious Moscow Mules mmmmm #yummy #moscowmule https://t.co/pNvSEZQZe2
p909
aVFirefly Yahtzee! #youcanttaketheskyfromme #iaimtomisbehave #firefly#browncoat #serenity https://t.co/47yE8VxKkI
p910
aVMy heart is melting :) \U0001f3b9\U0001f3bc #cousins #piano #bryce #kimchibaby #holidays #music https://t.co/QePipcHZpN
p911
aVAlready ready for \U0001f385\U0001f3fc #santa #holidays #cutefeet #kimchibaby #bryce https://t.co/cUtqCJcSIe
p912
aVAhhhhh!! Best SIL ever :) awesome birthday gift! #birthday #harrypotter #potterhead #deathlyhallows https://t.co/HCcGXZW7TA
p913
aVDear Baklava Cheesecake, oh how I have missed you.... #thisiswhyimfat #dessert #thanksgiving\u2026 https://t.co/p5q01n2t3w
p914
aVPre dinner nap by the fire.. Lazy baby\U0001f602 #thanksgiving #bryce #holidays #kimchibaby #happythanksgiving https://t.co/EsUJb8Z5z5
p915
aVMy handsome little zombie loving baby wishes everyone a #happythankgiving \u263a\ufe0f\U0001f983 #bryce #kimchibaby\u2026 https://t.co/rpWNhNR9Kx
p916
aVWe are having a blast tonight :) #kimchibaby #bryce #happybaby #giggles #smile https://t.co/xsvuMtEOIq
p917
aVThis kid found his way into dev tools \U0001f602 01101100 01101111 01101100 #futuredeveloper #bryce\u2026 https://t.co/LEgaVZ5jng
p918
aVLast night, I rocked #unicornblood for my #birthdaydinner with the girls.. And, my eyebrows were\u2026 https://t.co/QeoweyYtW2
p919
aV#snugglebuddy #leeroyjenkins #warmandtoasty #sleepy https://t.co/s1ypflrA3e
p920
aVHis face \u2764\ufe0f\U0001f60d #bryce #firstsnow #playing #snow #staypuffbryce #winteriscoming https://t.co/YK1vmBtBz6
p921
aVFirst time playing in the snow \u2744\ufe0f\U0001f60d #bryce #playing #winteriscoming #staypuffbryce #snow #firstsnow https://t.co/lHeEwQvB7y
p922
aV\u2744\ufe0f\u2603 #firstsnow #winteriscoming #beautiful https://t.co/VHgGMaBibN
p923
aVLoving them apples \U0001f603\U0001f34e #bryce #bryceeats #babyledweaning #blw #kimchibaby https://t.co/OvBJQM4h5S
p924
aVHe 25 minute line at Meijer doesn't bother him apparently... #bryce #brycegoesshopping\u2026 https://t.co/7At0js9Bm6
p925
aVHe did it!! He pulled up on his own! #bryce #kimchibaby #proud #itsthelittlethings https://t.co/pNAmAPzOnh
p926
aVHo Ho Ho.. It's never too early for Christmas \U0001f600\U0001f385\U0001f3fc #kimchibaby #bryce #onthenicelist #christmas #santa https://t.co/i5xK4k5Qlx
p927
aV#bryce #kimchibaby #cuddles #sickbaby https://t.co/pWDdwxEDxS
p928
aVHe may be sick, but he's still my smiley happy baby :) #bryce #kimchibaby #smile #happybaby https://t.co/XH8Hn1TywX
p929
aV#bathtime #cleanbaby #kimchibaby #bryce https://t.co/jW7uufiK4b
p930
aVHappy birthday to me!! Wooooo! #birthday #besthusbandever #applegeek https://t.co/bxsH5MoM6c
p931
aVNow what kind of #selfiesunday would it be without a #birthdayselfie? \U0001f602 this for you, @scientific_mom\u2026 https://t.co/O1grh4tTrH
p932
aVHappy 1st birthday, Damien! https://t.co/7xkdIJgc9k
p933
aVDon't look behind you, Bryce! #bryce #brycegoesshopping #costco #dontbescared #teddyjustwantsahug\u2026 https://t.co/9MbnkTvl3D
p934
aVYesterday, I came home to a surprise in my mailbox... This beautiful card and little gift was waiting\u2026 https://t.co/zz4eVhL6np
p935
aVVegan posole is what's for dinner tonight. This is packing some serious heat! #plantbased\u2026 https://t.co/dv58NSv7wH
p936
aV#demcheeks #kimchibaby #bryce #icankissthemalldaylong https://t.co/BDvzRr0Sl3
p937
aVThis little dude melts my heart every time he smiles :) #kimchibaby #happybaby #bryce\u2026 https://t.co/sOg0VtyJVb
p938
aVVote for my baby\u2019s pic in the Gerber Baby 2015 Photo Search contest. His entry is #21470!\u000ahttps://t.co/xbE0EYMIUZ
p939
aVFirst page done :) #harrypotter #coloring #coloringbookforadults #potterhead #gryffindorpride https://t.co/Alvfe2NEoC
p940
aV#brothers #playing #leeroyjenkins #bryce #kimchibaby #rolling https://t.co/DsrNdtWWft
p941
aVI don't even need to say it ;) #starbucks #saltedcaramelmocha #delicious #coffeesavedmetoday @ Starbucks https://t.co/rgCyoLtRf7
p942
aVI've been lazy and meaning to bake these up this week, and then came home to PB&amp;J muffins, made by\u2026 https://t.co/ykaCrKC6KB
p943
aVFreshly groomed \u263a\ufe0f #leeroyjenkins #lovemypup #cleandoggie https://t.co/iXVu33eY8c
p944
aVThis kid loves shopping, as long as it's not Walmart \U0001f602 #bryce #brycegoesshopping #kimchibaby\u2026 https://t.co/BMNFGPPiB3
p945
aVThanks to ohsheglows for another stellar dinner.. Superfood crunch salad with homemade balsamic apple\u2026 https://t.co/V3vnW5Revq
p946
aVYessss.. Look @airelav2 .. twinsies! #harrypotter #coloring #gryffindorpride https://t.co/4tIFEtBAtW
p947
aVCatching up on #thevoice and this is his reaction when @keithsemple performs :) so proud!\u2026 https://t.co/ZTIlvi3XCB
p948
aVHe's upset that I wouldn't allow him to chew on my phone cord #theworldisending #kimchibaby #bryce\u2026 https://t.co/6XR4Vl6ftD
p949
aV#playfulbear #kimchibaby #bryce #meltsmyheart https://t.co/kFqpW9B2z0
p950
aV#thisismylifenow #kimchibaby #sillybaby #bryce #honkhonk https://t.co/KDvOnuoyOt
p951
aVThank you to girllilikoi for sharing this amazing vegetarian chili and cornbread dumplings recipe.\u2026 https://t.co/BFCwovWsfY
p952
aV#RICSkyRise #searstower #willistower #skyrisechicago2015 #fatherandson #proud @ Willis Tower https://t.co/XqbZajLrqb
p953
aV@babiesrus having fun at your #bruchristmas event sponsored by pampersus :) #bryce #happybaby\u2026 https://t.co/DhUHp0qfpK
p954
aVMaster Class: Stairs. #Bryce with his tutor \U0001f602 #sillybaby #kimchibaby #daddyknowseverything #happybaby https://t.co/B6itZkJqcz
p955
aVMexican quinoa skillet is what's for #dinner tonight.. #delicious #veganfood #plantbased #plantstrong https://t.co/kbZ9JFRnwT
p956
aVMy happy little eater #bryce #bryceeats #kimchibaby #smile #happybaby https://t.co/9da10XwPof
p957
aVBryce's favorite activity right now \U0001f602\U0001f61c #kimchibaby #bryce #sillybaby #raspberries #babiesareweird https://t.co/psy9ZDOgZH
p958
aVWas able to score jeffreestarcosmetics #unicornblood from beautylish and it's just as perfect as I\u2026 https://t.co/3b7i9eJjAg
p959
aVThis #buddhabowl from ohsheglows was so delicious! I'm already thinking about the leftovers for\u2026 https://t.co/8F5Ljmpk5f
p960
aVVote for my baby\u2019s pic in the Gerber Baby 2015 Photo Search contest. https://t.co/xbE0EYMIUZ
p961
aVVote for Bryce! His entry # is 21470 :) You can vote daily! https://t.co/ExYYMRcY31
p962
aVVote for my baby\u2019s pic in the Gerber Baby 2015 Photo Search contest. https://t.co/xbE0EYMIUZ
p963
aVVote for Bryce! https://t.co/foqwJ0ipLL
p964
aVBaby's first haul \U0001f61c\U0001f47b #brycesfirsthalloween #halloween #yummy https://t.co/26s8BviHif
p965
aVWho needs costumes when you have your own vampire baby?? \U0001f602 #bryce #happybaby #muppetmouth #giggles\u2026 https://t.co/dJHLXlkzsp
p966
aVVote for my baby\u2019s pic in the Gerber Baby 2015 Photo Search contest. https://t.co/xbE0EZ4jMx
p967
aVThese two \u2764\ufe0f\U0001f436\U0001f476\U0001f3fc #kimchibaby #bryce #leeroyjenkins #brothers https://t.co/wHIMq09fld
p968
aVReally mom? A lemon? I trusted you.. #bryce #bryceeats #blw #babyledweaning #sourface #sillyfaces\u2026 https://t.co/PU0Ya4KddM
p969
aVIt doesn't take much to get this dude to smile :) #happybaby #kimchibaby #sillyfaces #sillybaby #bryce https://t.co/AMn4T8jGcC
p970
aVEnter to win one of TWO @Baby_TULA NEW Daydreamer Carriers from @BigCityMoms. #BCMatABC https://t.co/z8kw01u3oo
p971
aVThis kid seriously adores this place lol #bryce #brycegoesshopping #target #happybaby #kimchibaby https://t.co/YDp4lgThkA
p972
aVDespite what his smirk may show, he really didn't care for eggs the first time around. We shall keep\u2026 https://t.co/yELL4rMGB2
p973
aVMy little Freddie Krueger \U0001f602 happy while shopping \u263a\ufe0f #bryce #brycegoesshopping #happybaby #kimchibaby https://t.co/UQr43jw76o
p974
aV#filtersfordays #selfiesunday https://t.co/xhcbOypeIG
p975
aVLumberjack Bryce loves #Costco #bryce #brycegoesshopping #sillyfaces #sillybaby https://t.co/dbktkTjats
p976
aVHe's been laying here like this for the last 10 minutes #kimchibaby #sillybaby #hangingout #bryce https://t.co/Si9CKGdxXz
p977
aV#selfie #smile #happy https://t.co/jtPu6fbnMY
p978
aVAll CSA veggies! Roasted potatoes, Brussels sprouts, carrots, celery root, shallots, and garlic with\u2026 https://t.co/OmkakmRNN1
p979
aVThis is how he feels about Walmart #kimchibaby #bryce #brycegoesshopping #getmeouttahere https://t.co/VyyvbFX1B4
p980
aVI use @Trello for chores, groceries and planning parties! http://t.co/sTrPza5Cov #Trello10m
p981
aVHere mommy, have some of my banana :) #bryce #bryceeats #blw #babyledweaning #sharingiscaring\u2026 https://t.co/6ysW4gSeRY
p982
aVHow dare you give me this peasant cheese.. I demand a fromage with class.. Camembert on a toasted\u2026 https://t.co/GqzFb1QWIL
p983
aVStill diggin the new 'do https://t.co/yReBjklLuq
p984
aVThank you @honest for the super adorable Halloween tote with my bundle this month! Use code TREAT to\u2026 https://t.co/4HaMP9CJcE
p985
aV#bryce #purejoy #kimchibaby https://t.co/TN0ls7r7og
p986
aVAdventures in #blw #babyledweaning #veggie #itsreallydelicious. He actually loved it! Thanks to\u2026 https://t.co/joSqoNd5y3
p987
aVHomemade cabbage rolls for dinner. So delicious! #veganfood #plantbased #delicious #veganfoodporn\u2026 https://t.co/7NEs7UeOaU
p988
aVGood morning :) #bryce #kimchibaby #sillybaby https://t.co/aUVfw5yPGt
p989
aVBathing cutie #kimchibaby #bathtime #bryce #datface https://t.co/aLr4qaiU4U
p990
aVHe's perfectly content in his box #kimchibaby #happybaby #bryce https://t.co/taeFRQycoc
p991
aVWant to win Tula 200 Carrier Giveaway ? I just entered to win and you can too. http://t.co/aag1Ocri2y
p992
aV#bryce loves grocery shopping.. He's always mesmerized by everything! #brycegoesshopping #kimchibaby\u2026 https://t.co/0JIbddpsyp
p993
aVLove the new @honest diaper prints :)#bryce #kimchibaby #honestdiapers #thehonestcompany https://t.co/8dIaabpBoM
p994
aVGave Bryce a clementine slice. This is how he feels about it.. #bryceeats #kimchibaby #pfffft #sillybaby https://t.co/6G9pooNhST
p995
aVJust posted a photo https://t.co/gpcSQ8GXDQ
p996
aVItching to #zumbastep like his mommy :) #zumba #kimchibaby #bryce https://t.co/p7fKSmQBgm
p997
aV@happyfamily he is loving his #teethingbiscuits! #bryce #kimchibaby #happybaby https://t.co/5D7TjqGGve
p998
aVMy little dinosaur #kimchibaby #bryce #pajamasunday #dinosaurs https://t.co/YxDXgNmfTw
p999
aV#prost #oktoberfest #beer @ Chain O'Lakes Brewing Company https://t.co/morAV94ilq
p1000
aV#applepicking #royaloakorchard #fall #apples #brycegoespicking #kimchibaby @ Royal Oak Farm Orchard https://t.co/wVD9GrXqIX
p1001
aVAt the happiest place on earth :) #brycegoesshopping #happybaby #kimchibaby #target #sillyfaces @\u2026 https://t.co/7EXXEKEI26
p1002
aV#happybaby #bryce #kimchibaby #heartmelts #muppetmouth https://t.co/fTN1TTUsLe
p1003
aVDelicious dinner thanks to ohsheglows :) Glowing Green "Pasta" Primavera #veganfood #plantbased\u2026 https://t.co/PwldwLUTPf
p1004
aVDon't let his sourpuss face deceive you.. He loved this kiwi :) #blw #babyledweaning #kimchibaby\u2026 https://t.co/XLyVQYTVpt
p1005
aV#pensivebaby #babyfashion #kimchibaby #bryce https://t.co/e7hTE6XoOx
p1006
aVThanks to @juliaippolito olive.eats  for this awesome #blw tip :) he loves it! #kimchibaby #bryceeats\u2026 https://t.co/sBh7TPxt1D
p1007
aV#nomakeupmakeup https://t.co/gRaoL72Uik
p1008
aVHomemade minestrone for dinner #delicious #dinner #fall #veganfood #plantstrong #plantbaseddiet https://t.co/CNFYsEunWh
p1009
aV#sillyfaces #happybaby #kimchibaby https://t.co/QOZTtrRc0T
p1010
aV#homedepot cutie! #brycegoesshopping #kimchibaby #sillyfaces @ The Home Depot https://t.co/8lVhBXGT4k
p1011
aVPerfected chickpea salad on toasted S. Rosen bed and fresh spinach really is #perfection. We eat this\u2026 https://t.co/AEHPTbi4V9
p1012
aVHe can't contain his excitement about #pitchperfect2 \U0001f602 #futuremusician #sillyfaces #kimchibaby https://t.co/Um6PppfI72
p1013
aV#brothers #leeroyjenkins #kimchibaby #playingtogether #heartmelts https://t.co/RUDPgeCKdc
p1014
aVThinking its time for a hair change.. #afraidtocutit #timeforachange #longlocks https://t.co/pSUMrBdCV8
p1015
aVCauliflower steaks with corn relish for dinner #yummyinmytummy #delicious #vegan #veganfood https://t.co/LJQUqdsEcV
p1016
aV#mesmerized #brycegoesshopping #woaheverything #kimchibaby # @ Mariano's https://t.co/5ajq9QvX5v
p1017
aVThe lighting makes me look like a ghost. And.. Where is my nose?? Also need to get my hair did.\u2026 https://t.co/LET3d4UVjn
p1018
aVI can't stop staring at him #kimchibaby #sweetbaby #happy https://t.co/xXJhSPaxRP
p1019
aV#kimchibaby #derp #smile #happybaby https://t.co/roYU6mubjD
p1020
aVSome of my favorite foods ever... Moroccan Rice and Jerusalem Salad #delicious #moroccanfood\u2026 https://t.co/aWphPfPG9t
p1021
aVPondering breakfast options.. Just kidding. We always get the same thing at Millie's :) #selfiesunday https://t.co/WODziJbh1p
p1022
aVSqueee!! Bryce's first pair of real Italian leather shoes :) Thank you Sandro and Marcia!! #spoiled\u2026 https://t.co/VR3ictaVeS
p1023
aVMessy hair, don't care. Trapped under a sleeping baby! https://t.co/pyXYT9goky
p1024
aVHis look of concentration gets me every time. The way his lips look.. Squee! #kimchibaby #playing\u2026 https://t.co/kyJRCkm85c
p1025
aVFinally got my tank top! #firefly #nathanfillion #ishootfirst #browncoats #browncoatforlife #kusewera https://t.co/oBv8lm6ONy
p1026
aVGood morning! #kimchibaby #toysfordays #happybaby https://t.co/sGr34AWfxd
p1027
aVHe's loving his new toy from rhealanaswc #rhealanaswc https://t.co/ICATP8dsfa
p1028
aVDem lashes.. Is it bad that I am jealous? :) #kimchibaby #killerlashes https://t.co/Q0TMoOAhH9
p1029
aV@BrunoMars @MarkRonson My 7 month old adores Uptown Funk! Immediately calms him :) https://t.co/bng1g5w32V via @YouTube
p1030
aVhttps://t.co/Gm7e8S5APH http://t.co/hjSj5BfYOW
p1031
aV#veganpho #delicious #homemadefood https://t.co/v2abw8z3Oy
p1032
aV#thejourneycontinues #zumba #treatyoself https://t.co/LVH4RL4kuB
p1033
aVJust happy playing on the floor :) #simplepleasures #kimchibaby #happybaby https://t.co/rZtDLQUU7u
p1034
aVDelicious sauted veggies in teriyaki sauce https://t.co/8DlJKrmINw
p1035
aVDear #starbucks, this #strawberryshortcakefrappuccino makes my mouth and belly very happy. Yummmmm @\u2026 https://t.co/z00oDEefBn
p1036
aVHappy #nationaldogday to my sweet Leeroy Jenkins :) #bestfriend #leeroyjenkins https://t.co/LiAa0iwx51
p1037
aVI have been sick, so taking some time to tune out this evening #coloringforadults\u2026 https://t.co/uSVgiwZH9o
p1038
aVCheers! #drivein #goldenagecinemas #80snight @ McHenry Outdoor Theater - Golden Age Cinemas https://t.co/Fr7jKI419r
p1039
aVParking lot selfie https://t.co/RwjM7bZaQh
p1040
aVI have many things I want and need to accomplish. The ideas are going down, and they shall be\u2026 https://t.co/8ObdOauQkc
p1041
aV#kimchibaby #datsmile https://t.co/NTB4PAjmps
p1042
aVExploring NYC with my little man :) https://t.co/1JgX88AHOo
p1043
aVBeautiful https://t.co/nS80nvITJc
p1044
aV@chewylewis: Bryce claiming his (mommy's) prize @RedArrowLabs at #ThatConference :) so needed, thx! Future developer? http://t.co/EAJINMtMZo
p1045
aV@RedArrowLabs Hooray! Thanks!!
p1046
aVRecruiting for @RedArrowLabs #ThatConference http://t.co/LCIZClSsOA
p1047
aVGeek in training @ThatConference :) #ThatConference http://t.co/8VILekcVBG
p1048
aVHe loves Greek yogurt :) #kimchibaby #foodie #datsmile https://t.co/fMpoZOld7p
p1049
aVMom! grass! It's so pretty! #kimchibaby #purejoy https://t.co/7Z9c9mRc3c
p1050
aVDat face.. Kills me every time :) #dembrows #kimchibaby https://t.co/jqY3u4ErRD
p1051
aVWeeeeeeeee! #purejoy #kimchibaby https://t.co/f9qkhlIiZy
p1052
aVLazy eater #kimchibaby https://t.co/gBIXHyiaIm
p1053
aVHappy baby loves his Flat Fox from Auntie Lindsey \u2764\ufe0f\U0001f60d flatfox @kimchibabybtq https://t.co/8IDRlPbRWL
p1054
aVHmmmm... Avocado? A bit unsure ;) https://t.co/m0SvwPlNVN
p1055
aV@MilliesPancakes @swarmapp grats @Louie_Kapoohy Oh man, I guess I need to go back more.. as if I need another excuse ;)
p1056
aVOur favorite place for brunch :) #eggharborcafe #brunch https://t.co/CXF171dbmA
p1057
aVSleepy smiles. Melts my heart every time \U0001f60d\u2764\ufe0f https://t.co/PgPM6mLkah
p1058
aVReally, mom? https://t.co/7zGtaVAAki
p1059
aV#brothers #kimchibaby #muppetmouth #leeroyjenkins https://t.co/r0dyphHJWL
p1060
aVLooooves his new #wubbanub from his Auntie Shell :) https://t.co/Q8BES2dk6Z
p1061
aVDem tasty toes #kimchibaby #snacktime #babyfeet #demtoes https://t.co/ys60hv4kKP
p1062
aVBen Affleck ain't got nuthin on me! #cutiepie #kimchibaby #babybatman https://t.co/HavR45ytfO
p1063
aVLeeroy "helping" me with the laundry \U0001f604 https://t.co/1HkOI8elzM
p1064
aVOld timey #seeyouatthemovies #drivein https://t.co/7hbWgswgBa
p1065
aVDaddy and baby's first drive in :) #drivein #seeyouatthemovies https://t.co/w3fQGSYCa0
p1066
aVWhy so serious, Bryce? https://t.co/Sj0RsHT6oR
p1067
aVSuch a hard life.. And I must resist pinching his cheeks #kimchibaby #cheeksfordays #mamasboy https://t.co/ilkAKQH7o8
p1068
aVOne of my weaknesses.. #kimchibaby #demtoes #babyfeet https://t.co/3JaW6f0Poc
p1069
aV#demlashes... https://t.co/65qEo400aP
p1070
aVIt's so gorgeous today out in Lake Geneva \U0001f60e https://t.co/Hw8pOBGiGW
p1071
aVBrian made homemade garlic naan :) naan for days! https://t.co/qJBBXpULXz
p1072
aVTaking Brian and Bryce to a Cubs game in June for Father's Day :) found this adorable romper for $9! https://t.co/3ralDQ4JWc
p1073
aVPlaying with daddy :) #daddysboy #kimchibaby #datsmile https://t.co/US30k2BBAL
p1074
aV@butchwalker had a baby almost 4 months ago, &amp; our 1st date night was to see u. We love u and see u every Chicago show. YOU'RE AMAZING!!!
p1075
aVRT @butchwalker: I love you Chicago. Always heart and passion. Love love love you.
p1076
aVRT @butchwalker: Fuck the weather. Just come have a cozy night inside with me by the fire. Well, I won't have a fire. But the songs will be\u2026
p1077
aVSilly daddy, diapers are for butts! #dadfashion https://t.co/BLlb5TfUoX
p1078
aVHappy Father's Day to my amazing hubby and daddy of the year :) don't worry, he already knows lol! https://t.co/9ESYbN9hbS
p1079
aVExactly one year ago today, in one hour from now, was the moment I found out Brian and I were going\u2026 https://t.co/RHCB36E8zd
p1080
aV#toupeebryce https://t.co/0a3PmAUVeb
p1081
aVMy kid is funny :) #crazyeyes https://t.co/M5u2floHlt
p1082
aVHolding daddy's thumb #daddysboy #heartmelts https://t.co/bsy8lilSE3
p1083
aVMy #genius baby did a 360 on his piano mat, so of course I document it ;) he's pretty pleased with\u2026 https://t.co/KaOxygORfP
p1084
aVJust posted a photo https://t.co/j9toFu3QPc
p1085
aV#mamasboy https://t.co/eXHsXmxA6n
p1086
aVCatching up with #dwts on Hulu :) he loves it as much on the outside as he did on the inside! He is\u2026 https://t.co/ETROw0v9oK
p1087
aVHe can't let go... https://t.co/G1fz4kieoL
p1088
aVWoooo! My new toy arrived ;) #zumba #feeltheburn https://t.co/94EpR86ZYj
p1089
aVDem feet!! https://t.co/j8Ghe3S43o
p1090
aVSome new books for Bryce's collection :) #korean #proudkorean https://t.co/F6P9Ct0v8F
p1091
aV#cuddles with his elephant https://t.co/rTjFeAae7E
p1092
aVHe's obsessed!  #gonnagitya https://t.co/R0BuKSs1k0
p1093
aVGot his haircut.. Ready for summer :) https://t.co/GAEUeOdSFn
p1094
aVGive peas a chance \U0001f60d thanks Maggie for the adorable outfit! https://t.co/OGxFiL3WTe
p1095
aVPffffft mommy https://t.co/NgPvsa3V9v
p1096
aVTrying out my newest lipstick #loracdominatrix https://t.co/rtlXfojeTs
p1097
aV#muppetmouth #happybaby https://t.co/yctVQ32kVE
p1098
aV#imbackbitches #zumba https://t.co/5yE78WRWAK
p1099
aVThis face makes my heart explode with love #happybaby #mamasboy #grateful https://t.co/SFZ11XTJED
p1100
aVPlaying while mama does the laundry :) https://t.co/TnJj7QGAAR
p1101
aVMy music and dance loving kimchi.. He's entranced whenever music is playing and people dance on TV..\u2026 https://t.co/nlZTeGDWQH
p1102
aVHe just wants cuddles tonight \u2764\ufe0f\U0001f476\u2764\ufe0f https://t.co/o6T8A5mCrz
p1103
aV#happybaby #gummysmile https://t.co/m077InZZ1U
p1104
aVCompletely #milkdrunk https://t.co/UGOR6q1wrS
p1105
aVMy favorite consignment find! #rhealanaswc #milkdrunk https://t.co/HMFZ7ImFBL
p1106
aV#milkdrunk #dattongue #wherearetheoreos https://t.co/MBUtBHHLhu
p1107
aVWhat are you up to, froggie? #skeptical #donttrustthefrog https://t.co/CAWkNSRQEA
p1108
aVMy fuzzy headed little bear, not quite ready to go out \U0001f61c https://t.co/EvHO6Da9zw
p1109
aVGoofball :) #dattongue #smiles https://t.co/cmNRlafhkA
p1110
aVThese guys, such jokesters \U0001f61c #daddysboy #whatssofunny #bestdaddyever https://t.co/fqldoNuBei
p1111
aVMust be a nice dream :) #myarmshurt #mamasboy https://t.co/xIzVPfk9Bi
p1112
aVAnother pic ma?! Just me luv on my wubbanub! #wubbanub #nomorepics #toocute https://t.co/8DAOgBMLLR
p1113
aVI'm not Irish, but kiss me anyway :) #kissmeanyway #muppetmouth https://t.co/mn3Y1p7adz
p1114
aV\u201cInsist on yourself; never imitate.\u201d - Ralph Waldo Emerson #trelloyourway http://t.co/C7LjTRuAMI
p1115
aV.@Zumba is giving away a free trip to Miami for two plus thousands of rewards sometime soon. https://t.co/TBKZ4cMATf #ZumbaQuikly
p1116
aV#Giveaway \u2728 Win @KeepinitKind 'But I Could Never Go Vegan' cookbook via @veganmiam \u2728 US + Canada http://t.co/PLqJ4cmfnR
p1117
aVFor those who are interested, here is Bryce's birth story :)  Enjoy! http://t.co/trYNvXw0DD via @weebly
p1118
aVThe Lonely Road http://t.co/B8krBEhBCk via @weebly
p1119
aV40 Weeks! http://t.co/8xeTZAQjk8 via @weebly
p1120
aV39 Weeks! http://t.co/cHu00CBc71 via @weebly
p1121
aVFreezer Meals! http://t.co/90jgXDRhVk via @weebly
p1122
aV38 Weeks! http://t.co/C5rKciu5xk via @weebly
p1123
aVVegan Veggies &amp; Dumplings http://t.co/U3LJW0ZbzN via @weebly
p1124
aVQuickie Kimchi baby update! http://t.co/iukETfv8Wh via @weebly
p1125
aVOne Pan Mexican Quinoa http://t.co/k8jYGXI8QF via @weebly
p1126
aVFormula Galore?! http://t.co/1PB0MMKq2M via @weebly
p1127
aVItalian Wonderpot http://t.co/pngdYR5KpL via @weebly
p1128
aV37 Weeks! http://t.co/8Tx6T9XJ93 via @weebly
p1129
aVI just entered the @OhSheGlows Holiday Giveaway!  Enter Here:  http://t.co/SLQgKG8GbH
p1130
aV@butchwalker @jlindenb amazing, and I want one too! :)
p1131
aVRT @butchwalker: \u201c@jlindenb: Our @butchwalker art forthe nursery is nearly done! Hope the baby enjoys the lyrics as much as we do! http://t\u2026
p1132
aVI am so confused while watching @DancingABC .. Where is @pitbull pulling those paddles out of?!  #dwts #pitbull
p1133
aVPre-ultrasound selfie.. Happy :) http://t.co/5hmjaDxRRU
p1134
aV#asianselfie Prepping for a night of grilling in my Korean hanbok apron lol #peaceout http://t.co/5BtWILklKn
p1135
aV@TipsOfTheScale Sam, thank u so much for inviting me to chat w/ u. I love ur mission 2 motivate others into living a healthier lifestyle!
p1136
aVRT @noblecrawford: @TipsOfTheScale I'm getting to know Sam personally in our Mastermind Group and he is the REAL deal! Motivating others in\u2026
p1137
aVRT @TipsOfTheScale: "I felt worthless. I felt unattractive... undesired." How Cassie took control of life: her 100-lb #weightloss story @ h\u2026
p1138
aVCheck out my interview!  79: Cassie Peters Conquered Stress Eating and Learned to Treat Herself Right (F/34) http://t.co/4np0afKYcz
p1139
aVPlease check out https://t.co/LtIReYgaQE on @weilosapp, the place for #healthy #fitness #motivation http://t.co/Qzx7OdfbFU
p1140
aVPhotoset: Today, 4/27/14, is my first 5K. I know it\u2019s not a big deal to most, but it\u2019s a big deal for me.... http://t.co/I9momwT9Yu
p1141
aV@ohsheglows Hi Angela!  Do you have any good recommendations for recipes that feature collard greens??
p1142
aVAlmond Joys #recipe &amp; Rawsome Vegan Baking Review and Giveaway via @veganricha http://t.co/vhCLtRN4nc
p1143
aV@ohsheglows I asked hubby for "the book" &amp; he carries it 2 me singing "Pie Jesu Domine" (Monty Python)  It is now sacred in our home LOL!
p1144
aV@ohsheglows made your tomato soup tonight, as well as ur kale salad.  SO IN LOVE. http://t.co/PUzcP1LZb7
p1145
aV@mosesism not as much as you, my sweet :)
p1146
aVWind blown after a run http://t.co/jIlBEP67x9
p1147
aV@mosesism I found your latin doppelganger in my Zumba fitness game. I will have to get a screenie for you so you can giggle :)
p1148
aVin case ur wondering who now owns the rights to #starwars, just watch @DancingABC.  Made it pretty clear..
p1149
aVYes!! #DWTS is back on!  Best part.. #MaksIsBack!!!
p1150
aV@ohsheglows cookbook &amp; A Week of Delicious Food :) #vegan #osgcookbook #delicious http://t.co/xF7ZRIAs3K
p1151
aV@MedicChicklet @ohsheglows It is not gluten free :/ maybe Angela has an alternative option for u?
p1152
aV@ohsheglows Look how beautiful your double layer chocolate cake turned out!  Was SO DELISH. #osgcookbook #vegan http://t.co/WfBRb1F16V
p1153
aV@ohsheglows it's here, it's here, it's here!! And it's beautiful! #osgcookbook http://t.co/7pgzUKQsgP
p1154
aVRT @joeymcintyre: The only way #JohnTravolta can save himself is by joining twitter and tweeting "let it go".
p1155
aVWant to win a copy of The Oh She Glows Cookbook? Now's your chance! http://t.co/Gkksq9lMzy http://t.co/XuehoB2GB6 via @PunchTab
p1156
aVLoving the fashion on the red carpet tonight! #Oscars
p1157
aVRT @ohsheglows: {new recipe} One-Bowl Double Chocolate Chunk Cookies! http://t.co/PCkJtZuJCL #vegan #glutenfree #nutfree http://t.co/G4RXtv\u2026
p1158
aV@ohsheglows Anxiously waiting for #osgcookbook to arrive!  In the meantime, I made your delicious chili! YUM! http://t.co/6uqZT9ACMf
p1159
aVPhoto: Man, I really needed this tonight.. http://t.co/LMJ4Kd2Evh
p1160
aVPhoto: Yay! Happy Valentine\u2019s Day to me! Thanks to the best hubby ever :) http://t.co/NC20a1qk8W
p1161
aVJoined the 100 Club today ;) - OH MY GOD. I did it. I finally did it - I achieved a big, big goal today. I fi\u2026 http://t.co/58qwec9CZb
p1162
aVWeight Loss Battle Scars - When I gained a bunch of weight, I noticed I had gotten a ton of stretch marks..... http://t.co/jxsBlYpOsM
p1163
aVPhoto: Tower bridge comes down. Fingers are raw! http://t.co/SSjO1JIkEJ
p1164
aVPhoto: Elephant dreams http://t.co/2mX88qa3ab
p1165
aVPhoto: Mmmm.. Dessert ;) http://t.co/djh3P7Q9h0
p1166
aVCheck out the giveaway that Angela from Oh She Glows is sponsoring! http://t.co/cMybieCn4A
p1167
aVRT @butchwalker: God, Chicago... How do you do that on a Tuesday night? You will always have the Midwest's heart. I love you...
p1168
aVRT @butchwalker: Chicago... Coming for you tonight at the House Of Blues. Gonna be FUN FUN FUN.\u000aGet there by 8!
p1169
aV@butchwalker YES.  Chicago loves you so much!  So happy you're back :)
p1170
aVSorry folks, looks like my twitter got hacked!
p1171
aVI just unlocked the \u201cFlame Broiled\u201d badge on @foursquare for checking in to burger joints! Cheeseburgers all around! http://t.co/61Zezff2PS
p1172
aVI'm at H Mart (Niles, IL) w/ 2 others http://t.co/pXwQmve
p1173
aVAuto show :) (@ McCormick Place North Building w/ 11 others) http://t.co/9Lf9IB8
p1174
aV@butchwalker @CCkeys @butchwalker IT WAS FUCKING AMAZING, both nights.  APPRECIATE.
p1175
aVRT @butchwalker: Ok Chicago. Last night at Double Door was fun, but we saved up some tiger blood for you tonight at Bottom Lounge. New Y ...
p1176
aVYES!!!!!!!  Got our @butchwalker tickets for his NYE show at the Bottom Lounge in Chitown.  SO HAPPY!!
p1177
aVI can't resist this face http://t.co/mZE5ulm
p1178
aVBut mom... I want a treat!  http://t.co/i0ZdcCA
p1179
aV@WALKTHEMOONband @petricholas  please come back to Chicago asap :-) love! http://t.co/hxFnala
p1180
aV@wtmkevin can u get any cuter? :) i have a thing for bass players.. Chitown show at lincoln hall was amazing :-) http://t.co/1KjL9Ed
p1181
aVStarted playing around with Tumblr. Anyone else play on there?
p1182
aV@ZacEfron would love to win a poster! Love that u r finally getting the recognition u deserve!
p1183
aVRT @ZacEfron: Giving away #TheLuckyOne SIGNED novels &amp; posters to fans around the world all weekend!RT for a chance to win! http://t ...
p1184
aVTaking a nap http://t.co/9FHbjVD
p1185
aVWatching us play a board game :) http://t.co/g9jXiWW
p1186
aVComfy dog http://t.co/BDyELJ4
p1187
aVLazy dog.. http://t.co/bCROlLv
p1188
aVDessert. Strawberries soaked in moscato. http://t.co/sgwxGJE
p1189
aV@butchwalker one of the better pics from the Chicago gig.. love this face :P http://t.co/67v3S8e
p1190
aV@butchwalker Still in awe over your Chicago concert this past Thurs - my 4th time seeing you live and this was my favorite one.  Come back!!
p1191
aVTotally loves @markbrunetz .. such genius!
p1192
aV*cry*.. 3 mosquito bites on my face from this morning alone... I just wanna scratch my face off :(
p1193
aV@brian3snip EPIC farts!
p1194
aVI love me some kimchi. I love me some hot dogs. But kimchi hot dogs?  When I go to San Fran, I might have to try some. Maybe.  #Kimchidogs
p1195
aVI'm surrounded by asshats.  Seriously.
p1196
aVreally?  I hate when guys call me Chick, Broad, Babe, etc.. ESPECIALLY at the office.  Time to call HR, me thinks.  Pig.
p1197
aVif ur in sales, shouldn't u be making more than 20 phone calls/day?  Sales people - what is your avg time on phones per 8 hr day? Discuss.
p1198
aV@brian3snip, you should post your funny ideas!  luv em :)
p1199
aV@hausofPT how did I miss that?  I luv u too :)
p1200
aVreally wish I had another day off. Got a lot done this weekend, but there's never enough time to do all the things you wanna do.
p1201
aV@brian3snip Love your profile pic.  Totally hot ;)
p1202
aVis having a really relaxing holiday weekend.  Love creating stuff :)  Cracking up at my hubby's twitter pic.
p1203
aV@brian3snip yeah, so what's it to you? #WHACK
p1204
aVsuper chill now. I love being on vaca! Butch Walker concert last nite.. fuckin incredible..! Leave in a.m. for NYC.. Can't wait!
p1205
aV@butchwalker I love you Butch Walker.  You killed it in Chicago last night.  Best.  Show.  Ever.
p1206
aVstill not feeling very good today *sigh*..
p1207
aVdid 50 crunches last night and am now feeling the effects of it...
p1208
aVjust linked her Facebook and Twitter accounts.  What's so great about Twitter anyway??
p1209
aVis checking out this site
p1210
a.