(lp0
VYes. https://t.co/hLhY3gxJYF
p1
aVRT @DriXander: In \u201814 I thought Rauner was awful b/c of his hatred of unions, but I couldn\u2019t know just how damaging the combo of disgust of\u2026
p2
aV@CarissaCasbon \U0001f917\U0001f917\U0001f917\U0001f917
p3
aVHi come hang with me, Obama, @JBPritzker, @JulianaforLG, @KwameRaoul , and all the other cool \U0001f60eIllinois Democrats t\u2026 https://t.co/41IC345sff
p4
aV@Plindstrom5 @JBPritzker @LUnderwood630 Omg amazing!!!
p5
aVRT @JulianaforLG: Later, JB and I were joined by State Sen. @KwameRaoul, Rep. @Schneider4IL10, State Sen. @Melinda4Senate, and State Rep. @\u2026
p6
aVRT @JulianaforLG: I started my day by greeting early voters at Zion City Hall with candidate for State Rep. @VoteJoyceMason, before heading\u2026
p7
aVRT @samjcharles: Rainbow over the Vienna Beef Factory https://t.co/yDXCGtiR66
p8
aVRT @ourmaninchicago: It\u2019s coming. #Christkindlmarket https://t.co/DF26pE09CR
p9
aVI would like to think I'm bold enough to try a McRib
p10
aV#bluepage #lakeisblue https://t.co/432lVKDssW
p11
aVRT @CBSNews: WARNING: This video of Congressman John Lewis dancing may make you @Pharrell -level "Happy." \U0001f3b5 \u000a\u000ahttps://t.co/dCkruFhERd https\u2026
p12
aVRT @EBONYMag: Juliana @JulianaforLG Stratton tells EBONY that if elected, she will work to grant access to health care to every Illinoisan\u2026
p13
aVIn case you were worried his friend also dropped a mixtape that I also get the pleasure to listen to !!!
p14
aVjk it wasn't a real question because we are going to listen to it anyway
p15
aVDo you ever just find yourself in a Lyft and being asked to listen to the driver's new mixtape?
p16
aVtfw the sun is setting on republicans. Happy to be on #teambluewave @hanpanmancan #teamJB #lovetheburbs https://t.co/pSpX702DWS
p17
aVWore a Browns sweatshirt to work today and got a lot of smack talk... \u000a\u000aHello yes I am from Ohio and grew up not re\u2026 https://t.co/SkYcCFJMWM
p18
aV4 years ago today I dressed up as @JoeBiden for Halloween. Yesterday he came out for Illinois Democrats like\u2026 https://t.co/9QhFCUy6KC
p19
aVRT @Browns: Coach Bob Wylie's granddaughter went as her grandpa for Halloween this year \U0001f602\u000a\u000a#sethut https://t.co/NNFB7Uc19r
p20
aVRT @kevinhwiley: How to get the vote out for @ChiPartyAunt https://t.co/Hsf285Qinh
p21
aVRT @JBPritzker: #HappyHalloween! What is the spookiest thing @BruceRauner has done as governor?
p22
aVOpened Spotify this morning to a playlist *specifically* made for Illinois voters. It's cool but if you aren't list\u2026 https://t.co/bZLwFhIikw
p23
aVHappy Halloween!! \u000a\u000aThe only thing scarier than occasional irregularity is not voting !! \u000a\u000aHave you made your votin\u2026 https://t.co/8y3CNqNKwU
p24
aVRT @WNCN: UPDATE: It was a Journey cassette tape. https://t.co/3YhCu1jLs9
p25
aVRT @ChiPartyAunt: Goodnight sweet prince. https://t.co/m1lcjX0tfj
p26
aVIf CTA pigeons are "government surveillance drones" then the government needs to get better drones. https://t.co/ZUvwwaYGyG
p27
aVI already voted on October 8th because I am a psycho and wanted to make sure my vote would count no matter where I am on Election Day.
p28
aVHi Illinois makes it incredibly easy to vote. There's no excuse to not to vote this year. There are seven days to\u2026 https://t.co/ylVtQeUaNo
p29
aVRT @JBPritzker: This morning, I greeted some commuters at the Western L Stop to remind them: there is only one week until Election Day! Are\u2026
p30
aVRT @JulianaforLG: As my amazing daughter Cassidy said, voting is a way that we\u2019re able to hold elected officials accountable, participate i\u2026
p31
aVRT @JordanAbudayyeh: While shaking hands at the L stop this morning a woman comes up to @JBPritzker and tells him she just became a citizen\u2026
p32
aVSometimes I'm not sure how many days are left until Election Day but my body starts to shut down around 8pm so I know we're close!
p33
aVRT @adamjohnsonNYC: guy worth $500 million wearing a biker jacket to a Trump rally after initially distancing himself from Trump is modern\u2026
p34
aVRT @cljmitchell: This is a big deal. @ErikaHarold admits she won't fight to protect health coverage for people with pre-existing conditions\u2026
p35
aVRT @JBPritzker: We\u2019re honored to have your support, Vice President @JoeBiden! Vice President Biden knows the importance of getting out the\u2026
p36
aVRT @billyeichner: IF YOU\u2019RE 18 OR OVER AND YOU HAVE TIME TO DRESS UP FOR HALLOWEEN, YOU HAVE TIME TO VOTE.
p37
aVRT @shannonrwatts: This is a photo of Illinois Governor Bruce Rauner, who repeatedly vetoes all commonsense gun legislation passed by his s\u2026
p38
aVA nice perk of working on Sundays is that I don't have to watch the Browns lose \U0001f917 https://t.co/lr6clagyMv
p39
aV@HueRepetowski @ChiPartyAunt Omg Annie !!!
p40
aVRT @TravisTruitt: Gov. Rauner dressed as a clown for Halloween. https://t.co/gBZs3BjjP0
p41
aVRT @alexhanns: What are the #ILGov candidates up to 10 days before Election Day? #twill https://t.co/3ouYof6DNw
p42
aVRT @ParkerMolloy: tfw you\u2019re worth several hundred millions of dollars and don\u2019t understand how normal human beings act, but you need to bl\u2026
p43
aVRT @Rachel__Nichols: LeBron James sporting a @BetoORourke hat in San Antonio tonight. Beto is running for the Senate seat in Texas that Ted\u2026
p44
aVRT @marydifino: Gotta give it to him, when Bruce Rauner panders, he PANDERS, dammit. https://t.co/BeOSKSmats
p45
aVRT @IllinoisWorking: rock bottom.\u000a\u000a#twill #ilgov https://t.co/RiAzGykkDz
p46
aV11 days to #GOTV and I am loving the mix of signs in the burbs !! https://t.co/Keje1GWBOo
p47
aVRT @ChicagoElection: Today Chicago broke the 100,000 mark for mailing out Vote By Mail ballots ahead of Nov. 6. Well on the way to breaking\u2026
p48
aVready to tweet and get fully into this election season twitter!!! 12 days left to survive off of pure caffeine\u000a\u000a@Starbucks pls sponsor me!
p49
aVRT @JBPritzker: A year ago today, @BruceRauner announced that he was seeking re-election. What can we expect from four more years of Rauner\u2026
p50
aVRT @JBPritzker: We have had so much fun on the campaign, and now there are only 13 days left. Look up your polling place and get ready for\u2026
p51
a.