(lp0
V@Amy_Siskind @TeaPainUSA I\u2019m curious what Obama thinks of waiting until after the election to indict Trump associat\u2026 https://t.co/1mbioaTIMz
p1
aV@NatashaBertrand Additional indictments, if any , should be made as soon as there is clear clear and convincing evi\u2026 https://t.co/TPehr9u3Pk
p2
aV@SenWarren @realDonaldTrump Counteroffer Don the Con double or nothing on his wager:  if the Don releases his tax r\u2026 https://t.co/10XLpeWqPc
p3
aV@JoshLeitson Human development has not kept up with technological development
p4
aV@MichaelAvenatti @ChuckGrassley @LindseyGrahamSC The letter from Mr. Ketterer does not impeach Ms. Swetnick\u2019s state\u2026 https://t.co/ddOIeBagDH
p5
aV@MichaelAvenatti Is joint representation with an \u201cestablishment\u201d attorney an option?  This strategy was utilized by\u2026 https://t.co/e8re5RYf7l
p6
aV@MichaelAvenatti @realDonaldTrump @ChuckGrassley @LindseyGrahamSC Senator Flake:\u000a\u201cI think it would be proper to del\u2026 https://t.co/yJjkl8KH5a
p7
aV@BetoORourke Cruz and the.Senate Republicans are trying their best to have it both ways. They are embracing both Ka\u2026 https://t.co/yh1jd5E89R
p8
aV@TeaPainUSA It appears Senate Judiciary Republicans believe Ford; however, it doesn\u2019t seem to matter.
p9
aV@WillieGeist Well, \u201cif they can\u2019t choose then they shouldn\u2019t approve\u201d.   Would you hire a judge for life to help ru\u2026 https://t.co/r62JA6C6on
p10
aV@renato_mariotti Shouldn\u2019t Democrats be asking the Senate Judiciary Committee to also set aside a few hours to hear\u2026 https://t.co/F0wTZSb7zV
p11
aV@JuddLegum It\u2019s also worth noting that Mike Pence, Ron Paul and other Trump advisers recently advocated administeri\u2026 https://t.co/7OxdBkKZf8
p12
aV@brianbeutler @nycsouthpaw Kavanaugh appears to agree with you:  \u201cCherish your friends. Look out for your friends.\u2026 https://t.co/qINo2gNZ5Y
p13
aV@brianbeutler @nycsouthpaw Kavanaugh appears to agree with you:  \u201cCherish your friends. Look out for your friends.\u2026 https://t.co/EhFroTwdH3
p14
aV@SethAbramson Any chance Mueller has concluded Flynn has not been fully cooperating, perhaps based on recent statem\u2026 https://t.co/JYzWgOS5MH
p15
aV@TheViewFromLL2 My first read tweet of the day.  Today is off to a good start.
p16
aV@nycsouthpaw Listen again to the portion of Kavanaugh\u2019s opening confirmation statement when he discusses \u201cfriends\u201d.\u2026 https://t.co/HTpXt8qeC0
p17
aV@kylegriffin1 Grandpa Fred would be so proud
p18
aV@nycsouthpaw Kavanaugh stumbled mightily by grasping on to \u201cjudges\u201d when Harris clearly asked about a lawyer with a\u2026 https://t.co/kePEeEEmsX
p19
aV@SethAbramson If Manafort is pardoned of all federal charges he would be a free man and I presume able to leave the\u2026 https://t.co/qaoFYunpON
p20
aV@JamesFallows @vermontgmg Yes, it is remarkable that after all the dishonesty, 51 Senators will vote to confirm Trump picking his own jury.
p21
aV@SethAbramson Not sure about that rainbow, but take a break to enjoy a hot fudge sundae...
p22
aV@TheViewFromLL2 Not a \u201crat\u201d?
p23
aV@Redistrict maybe we (blue seniors) need to relocate, migrating to one red state until it flips and then others mig\u2026 https://t.co/rcPwd9rK9s
p24
aV@davidsirota @emptywheel We clearly need a movement that protects our voting rights and processes and takes on both\u2026 https://t.co/3RkktCyjSt
p25
aV@SethAbramson Yes, attorneys must speak out.  The mass demonstrations of the Pakistani Lawyers Movement of 2007 should be an inspiration.
p26
aV@JohnKasich @realDonaldTrump \u201cThe supreme quality of a leader is his integrity\u201d. - Dwight Eisenhower \u000aThank you, Governor.
p27
aV@MichaelAvenatti @benjaminwittes Well said, Michael.  The lawyers who shaped civil rights law in the mid twentieth\u2026 https://t.co/sqjuV7X4ku
p28
aV@JuliaDavisNews @JWGOP Is this the first Republican primary debate for 2020?
p29
aV@putinsgay @TeaPainUSA @Domdalom Who can file that suit?  Someone must be able to show they are harmed by incomplete review process.
p30
aV@SethAbramson Hope has capitalized on her White House experience and formed Slack Steamers, LLC - a service that is\u2026 https://t.co/sNBhMY983c
p31
aV@SethAbramson Hope has formed a new com
p32
aV@SethAbramson Trump should agree to be thoroughly stripped searched immediately before meeting alone with Putin.
p33
aV@JoeNBC @SethAbramson Just canvassed in the Illinois 6th Congressional District with this narrative in the back of\u2026 https://t.co/jED4iBkfag
p34
aV@WalshFreedom Hillary, or America (and the world)?
p35
aV@MichaelAvenatti Mark Twain: "If you tell the truth, you don't need to remember anything."
p36
aV@SethAbramson @MichaelAvenatti Last year Mark Zuckerberg received an honorary degree from Harvard and gave its comm\u2026 https://t.co/agfRLZ1Ntk
p37
aV@SethAbramson Last year Mark Zuckerberg received an honorary degree from Harvard and gave its commencement speech.\u2026 https://t.co/lKJVEV6gDa
p38
aV@kylegriffin1 stephanopolis is characterizing these payments as if they are for one apparently legitimate transacti\u2026 https://t.co/En8Wef8mJF
p39
aV@maggieNYT Now is not the time to"maintain confidentiality" at the expense of sharing what you know to be true. Bor\u2026 https://t.co/iXEh1h0tuI
p40
aV@SethAbramson Can you envision circumstances in which it is unethical to represent a client or maintain attorney cl\u2026 https://t.co/l7kbRC4Lf7
p41
aV@SethAbramson May there be circumstances in which it is unethical to represent a client or maintain attorney client\u2026 https://t.co/g9Emwcq1KW
p42
aV@SethAbramson An acceptable negotiated result:\u000a\u000a1) Full and complete public transparency \u000a2) Removal from office of\u2026 https://t.co/OLh9VY8Ze6
p43
aV@AMarch4OurLives Please share your chants for all to use....
p44
aV@TimothyDSnyder The phrase "lost a cyberwar" is helpful, but not fully explained.  Was this also a war the US contr\u2026 https://t.co/vaiABnhMwm
p45
aV@SethAbramson What about the possibility Trump or his attorneys are trying to delay the interview - for reasons we may not know?
p46
a.