(lp0
VPelosi- 'San Francisco values, That's what we're about' \u2066@NancyPelosi\u2069 \u2066@DNC \u2066@FoxNews\u2069 Sanctuary City, highest tax\u2026 https://t.co/iHbqllo3IS
p1
aVVeteran Dan Crenshaw appeals to comics to lay off politics after 'SNL' outrage: 'Give the American people a break'\u2026 https://t.co/TJLLhHZq2m
p2
aVLet us not become weary in doing good, for at the proper time we will reap a harvest if we do not give up.
p3
aVArmed With Assault Rifles, Black Panthers March For Stacey Abrams - The Daily Caller ... ummmmm is everyone OK with\u2026 https://t.co/BVoSP5hzMH
p4
aV@JFNYC1 I like this one Joel!
p5
aVRT @JFNYC1: Let's do the math!\u000a\u000aHillary Clinton made a racist comment on black people. = \u2705\u000a\u000aDon Lemon made a racist comment on white people\u2026
p6
aV@SaraCarterDC Ah wait a minute, alien non citizens get protection under US citizen\u2019s rights? That\u2019s crazy right? Th\u2026 https://t.co/tRU4d0qzcC
p7
aV@MichaelAvenatti Last week, Grassley referred attorney Michael Avenatti and client Julie Swetnick -- who'd accused\u2026 https://t.co/kK4uLdRFLg
p8
aVLast week,Grassley referred attorney Michael Avenatti and client Julie Swetnick-who'd accused Kavanaugh of sexual m\u2026 https://t.co/fD6kGGOsDC
p9
aV\u201cNew applications for U.S. unemployment aid fell last week and the number of Americans receiving benefits was the l\u2026 https://t.co/M4ffTm7JEx
p10
aVRealClearPolitics,Leetaru writes media coverage of political violence reveals Trump is right: There is a clear doub\u2026 https://t.co/1e8SN9VoRZ
p11
aV\u201cLet\u2019s be clear: The economy is booming because President Trump reversed President Obama\u2019s economic policies \u2013 not\u2026 https://t.co/YfWunnB9HI
p12
aV\u201cFour months after executive order for the National Council for the American Worker, 160 companies/orgs have pledge\u2026 https://t.co/hWb3wPvS6z
p13
aVRT @SouthernVOID: @RealJamesWoods This too I figure? \U0001f60d\u000ahttps://t.co/60FQvN3Bwk
p14
aVRT @RealJamesWoods: Me, heading into the TwitterSphere each morning... https://t.co/nAYcjJ7VeV
p15
aVRT @HeyTammyBruce: Good News: Streisand \u2018Might\u2019 Move To Canada If GOP Wins House  https://t.co/LwoH52SaiS via @NYJooo
p16
aV@DonaldJTrumpJr @Trump_World The truth is, allowing the differences we see in one another to define the love we giv\u2026 https://t.co/bfnze2HB36
p17
aV\u2018God Is Going to Have to Forgive Me\u2019 The truth is, allowing the differences we see in one another to define the lov\u2026 https://t.co/EJIXwxbXXU
p18
aV@DNC People are benefitting across demographics regardless of race, sex or level of education. Unemployment rates a\u2026 https://t.co/pMru7ZC80S
p19
aV@dnc There are currently more job openings than people unemployed, the first time that had happened since the Burea\u2026 https://t.co/AllV5szjqF
p20
aV@dnc The unemployment rate in September stood at 3.7 percent, the lowest rate since 1969. Not coincidentally, for t\u2026 https://t.co/7HAgtscj6N
p21
aV@dnc It was Hillary Clinton - not Donald Trump - who committed to continue the Obama's economic policies. Had Clint\u2026 https://t.co/3ZWAASCYbn
p22
aV@dnc The economy is now booming because President Trump took the opposite course. President Trump has dramatically\u2026 https://t.co/auZw4JOfQS
p23
aVPresident Obama aka @dnc discouraged domestic energy production - for example, refusing to authorize the Keystone X\u2026 https://t.co/lTpB7GkQ5T
p24
aVPresident Obama aka @dnc expanded the federal government's size and power through dramatic increases in the number\u2026 https://t.co/Ibf4EYueDZ
p25
aVPresident Obama aka @dnc raised taxes on businesses and individuals.
p26
aVPelosi predicts Dems 'will win' the House, as Colbert pleads not to jinx it - Fox News \u2066\u2066@NancyPelosi\u2069 \u2066\u2026 https://t.co/Di0xavfTtU
p27
aVWhy a Helium Leak Disabled Every iPhone in a Medical Facility - VICE So that\u2019s why there\u2019s no balloon helium hits t\u2026 https://t.co/HWDt7SsFG4
p28
aVHillary Clinton Jokes After Interviewer Confuses Eric Holder and Cory Booker: \u2018They All Look Alike\u2019 - Newsweek ...\u2026 https://t.co/YWLJ2g0aVG
p29
aV12-year-old boy gets birthday surprise after classmates decline to come to party - awesome people can rally around\u2026 https://t.co/WL3zusMXY0
p30
aVCNN slammed as 'disgraceful' after Jake Tapper silent when guest says Trump radicalized more people than ISIS - Fox\u2026 https://t.co/9wS45iEIsG
p31
aVU.S. troops drink Iceland capital's entire beer supply in one weekend - Fox News https://t.co/tf4UksRUPW
p32
aV@HillaryClinton @liloblueorchid @gretchenwhitmer \U0001f922\U0001f92e she had her chance to DO SOMETHING! And her record speaks for i\u2026 https://t.co/K7Dw4NaPT0
p33
aVRT @xamgran5315: @BigRubeHarley @sixers Bold move but sorry, if she is not a cheerleader the outfit is not appropriate at a basketball game\u2026
p34
aVRT @Italionaire: @BigRubeHarley @sixers Really?  The fact that you really thought this was okay to wear to a public event with children is\u2026
p35
aV@JokerTomWest @mstearne @BigRubeHarley @sixers Excluding the F word I have to agree, who knows what you\u2019re seeing f\u2026 https://t.co/SjL9JrDMSG
p36
aVObama Slams Trump and Republican Party: #voteonresults and track record not promises, simple Wisc n Mich \u2066\u2026 https://t.co/Akz6Uh2lN3
p37
aVObama Slams Trump/Republican Party: 'They Are Robbing You Blind' \u2066@BarackObama\u2069 \u2066@POTUS\u2069   Here we goooooo, think l\u2026 https://t.co/weRpt2q4wn
p38
aVRT @bennyjohnson: Trump\u2019s entrance to the Young Black Leaders Summit.\u000a\u000aWow. https://t.co/DSs6k4MVjZ
p39
aV@bennyjohnson People know he cares!
p40
aV@debbie419 @mitchellvii Window stickers look pretty new as well, and seem to require some graphic art capabilities,\u2026 https://t.co/anbkaR5KbJ
p41
aVRT @mitchellvii: The Democrats are looking at these early voting numbers and asking, "How is this possible?!"\u000a\u000aIt's possible because you be\u2026
p42
aV@mitchellvii Trumpers don\u2019t Poll, is anyone listening?
p43
aV@matticuss_1 @Daniel_Sweeney \U0001f44d\U0001f44c\u261d\ufe0f
p44
aVRT @matticuss_1: @Daniel_Sweeney Republican or Democrat. It does not matter. This a deranged person that is threatening the lives of indivi\u2026
p45
aVRT @Cali_Tracii: \U0001f447\U0001f447\U0001f447\U0001f447\U0001f447\U0001f447\U0001f447\U0001f447\U0001f447\U0001f447\U0001f447\u000a\u000aTHINK ABOUT IT. \u000a\u000aThere's plenty more to see in\u000a\u000a#California, too. \u000a\u000a\U0001f449How about your state? \u000a\u000aNOW IS NOT THE\u2026
p46
aV@Cali_Tracii @Can2geterdone These are the people that deserve support and attention @RonWyden what do ya think Ronn\u2026 https://t.co/6a6gEbdFbq
p47
aV@NancyRHM @Shep_deschain @Rover49393339 @leahmcelrath @co_rapunzel4 @BetoORourke Riiiiggghhht!\U0001f923
p48
aV@ZarelaMartinez @Forbes Great, there\u2019s a whole caravan of them headed this way, he should start there @georgesoros
p49
aV@FoxNews @SecNielsen Democratic silence on migrant caravan is deafening
p50
aV@TheRickWilson Democratic silence on migrant caravan is deafening
p51
aV@JFNYC1 @1NatOne @RepMaxineWaters Democratic silence on migrant caravan is deafening
p52
aV@kwilli1046 @ReignOfApril Love comes in all shapes and sizes, Love has no color, love has no boundaries, Love has no fear...
p53
aVRT @kwilli1046: These men noticed a lady paying for her gas with pennies and decided to give her some money. Little did they know, she had\u2026
p54
aV@kayleighmcenany @SebGorka @realDonaldTrump Democratic silence on migrant caravan is deafening
p55
aVRT @kayleighmcenany: CNN\u2019s parent company, Time Warner, \u000asponsored a play in Central Park depicting the stabbing death of a @realDonaldTrum\u2026
p56
aV@brycetache @TrinityResists Democratic silence on migrant caravan is deafening
p57
aV@CuomoPrimeTime @VanJones68 @ChrisCuomo Democratic silence on migrant caravan is deafening
p58
aVRT @sgbuggs: omg best part about this are all the people in the replies who have videos with Riley because they used to live near him. http\u2026
p59
aVRT @Solmemes1: Red wave Rising! Keep up the pressure!\u000a\u000aVote Red or Yeti will find you......\u000a\u000aVote Red, Save the world! https://t.co/8qPa4Y3\u2026
p60
aV@CBSNews Democratic silence on migrant caravan is deafening
p61
aV@Can2geterdone Democratic silence on migrant caravan is deafening
p62
aV@MichaelAvenatti Democratic silence on migrant caravan is deafening
p63
aV@BijouxBKB @Toffyhammer2112 @78Foofan @MichaelAvenatti @cnnbrk @CNN Democratic silence on migrant caravan is deafening
p64
aV@BijouxBKB @Toffyhammer2112 @78Foofan @MichaelAvenatti @cnnbrk @CNN Got your interest so what is that saying?
p65
aV@RonWyden Democratic silence on migrant caravan is deafening
p66
aV@RonWyden Democratic silence on migrant caravan is deafening
p67
aV@RonWyden Democratic silence on migrant caravan is deafening
p68
aV@RonWyden @KasieDC Democratic silence on migrant caravan is deafening
p69
aV@RonWyden @realDonaldTrump Democratic silence on migrant caravan is deafening
p70
aV@RonWyden @senatemajldr Democratic silence on migrant caravan is deafening
p71
aV@RonWyden @SR_RunsDeep Democratic silence on migrant caravan is deafening
p72
aV@RonWyden @realDonaldTrump Democratic silence on migrant caravan is deafening
p73
aV@RonWyden @realDonaldTrump Democratic silence on migrant caravan is deafening
p74
aV@RonWyden @stevenmnuchin1 Democratic silence on migrant caravan is deafening
p75
aV@RonWyden @OregonGovBrown Democratic silence on migrant caravan is deafening
p76
aV@RonWyden @realDonaldTrump I don\u2019t know about you but my taxes went down, let\u2019s compare yours from last year and th\u2026 https://t.co/ZSH5rJMW1t
p77
aV@RonWyden @SenKamalaHarris @MartinHeinrich @realDonaldTrump Democratic silence on migrant caravan is deafening
p78
aV@RonWyden @LaGrandeHigh Democratic silence on migrant caravan is deafening
p79
aV@RonWyden Ronnie packing the house!!! You got game now boooooy! @greggutfeld
p80
aV@RonWyden @realDonaldTrump It\u2019s probably from all the pot smoke from your state! @greggutfeld
p81
aV@RonWyden I love you Ronnie, throw caution to the wind and revert to the sixties with process and make everyone use\u2026 https://t.co/GOW7SgUzxV
p82
aV@RonWyden Oh so Trump does have intelligent calls, swear I just read a thread where you said he didn\u2019t know anythin\u2026 https://t.co/JXpIglpQgV
p83
aV@RonWyden @realDonaldTrump Ok so what\u2019s your solution because talking about it with cute words like \u201cact now\u201d simpl\u2026 https://t.co/FqwEtdtCxc
p84
aV@RonWyden Oh look Ronnie has legislation... not a complete whiner after all, hey Mo!
p85
aV@RonWyden @realDonaldTrump Great what\u2019s your solution?
p86
aV@RonWyden Ronnie babe, If you\u2019re politically ranking the @POTUS as a used car salesman that must put your rank some\u2026 https://t.co/xddx75WJMt
p87
aV@RonWyden @realDonaldTrump Wait a minute, Airforce One isn\u2019t for political purposes? It\u2019s commercial? Where can I get a ticket?
p88
aV@leahmcelrath @co_rapunzel4 @BetoORourke Leah, chances are this was a Picnic.... Problem In Chair Not In Computer....
p89
aV@BijouxBKB @Toffyhammer2112 @78Foofan @MichaelAvenatti @cnnbrk @CNN You\u2019re focused on a typo?
p90
aVRT @CaptainsLogAz: #SaturdayThoughts #FlipTheSenate\u000a\u000aWhen your Congress votes all wrong\u000a\u000aYou must flip it\u000a\u000aBefore our healthcare is all gon\u2026
p91
aVRT @maddow: Kindness and civility outbreak in North Carolina election -- nation flabbergasted! https://t.co/27IqhlbRO4
p92
aV@AriMelber @JillWineBanks Oh that\u2019s not a stretch by any means.... how the heck do you know who he calls..... oh be\u2026 https://t.co/cg8zmmK8vv
p93
aV@politicususa No no no, send all the Governors who are sanctuary states so they can fight over how many they get to\u2026 https://t.co/exffK3SiX5
p94
aVHey @TexasSanctuaryS rumor has it an immigrant caravan is coming your way, what a perfect opportunity to open your\u2026 https://t.co/0uzZpypW4i
p95
aVHow do you people get to thousands of followers? Man this is hard work!
p96
aV@pdabrosca @LauraLoomer @chucktodd Has anyone questioned the Oompa Loompas? I\u2019ve never trusted their green hair, it\u2019s fake!!!
p97
aVRT @ChatByCC: The media and democrats ran with the word BOMB.\u000a\u000aIt\u2019s important to note:\u000a\u000aThe FBI calls them \u201cSuspicious Packages.\u201d\u000a\u000aThe FBI\u2026
p98
aV@SManolesco @LauraLoomer @AndrewGillum @RonDeSantisFL Laura rocks! Jewish women rock!
p99
aVRT @SManolesco: .@LauraLoomer was forcibly removed from Jewish temple where she was attending anti-Semite @AndrewGillum event held by the s\u2026
p100
aVRT @DawnDavis64: Gillum is a liar over and over again! FL will be destroyed if he gets elected.  He will not work with Trump, he wants open\u2026
p101
aV@BillKristol Wait.... all these people are smoking joints?
p102
aV@JayMiles68 @shirl63383 @MichaelAvenatti Aqua Velva is the only blue you\u2019ll see win a vote my friend
p103
aV@ellenc53 @POzzur @MichaelAvenatti Wake up, it ain\u2019t
p104
aV@POzzur @MichaelAvenatti Pleeeease already with the color, vote for initiatives and results not the color of red or\u2026 https://t.co/0p3yqMXirn
p105
aV@Toffyhammer2112 @78Foofan @BijouxBKB @MichaelAvenatti @cnnbrk @CNN And that\u2019s what large quantities of cocaine wil\u2026 https://t.co/MLBugBJtU1
p106
aVRT @78Foofan: @Toffyhammer2112 @BijouxBKB @MichaelAvenatti @cnnbrk @CNN To say he is directly responsible is absurd.  You believe what you\u2026
p107
aV@Toffyhammer2112 @78Foofan @BijouxBKB @MichaelAvenatti @cnnbrk @CNN You\u2019re talking about the @DNC right?
p108
aV@BijouxBKB @MichaelAvenatti @cnnbrk @CNN Please backnaway from the crack pipe....
p109
aV@MichaelAvenatti Ya know there MA I\u2019m pretty sure he knows how to email but prefers a more effective means of commu\u2026 https://t.co/gARLU654sC
p110
aV@SDZ42020 @MichaelAvenatti Because a person needs to be convicted of a crime before they are a criminal.... read sl\u2026 https://t.co/9XhK5IsFtk
p111
aVRT @Stonewall_77: This Is Whom You Disrespect When You Dishonor Our Flag.\u000aPlease Retweet\u000a#MAGA #WeThePeople\u000a@CarmineZozzora @bfraser747 htt\u2026
p112
aV\u201cIf there was one idea that you could say dominates today's Democratic Party, it could be summed up in one word: So\u2026 https://t.co/I8vaXcHApB
p113
aVWashington Times,Mackowiak writes Democrats\u2019 complete silence on the approaching migrant caravan is deafening, we c\u2026 https://t.co/DpoQ4IT6x3
p114
aVRT @MikeTokes: EXPLICIT WARNING:\u000a\u000aA deranged leftist just sent me this email saying "Hopefully someone sends you a bomb in the mail" becaus\u2026
p115
aVRT @LauraLoomer: MUST WATCH: @MichaelAvenatti otherwise known as #CreepyPornLawyer got #LOOMERED! \u000a\u000aI asked him about the fake \u201cgang rape\u201d\u2026
p116
aV@greggutfeld Let\u2019s add a Miss America style beauty pageant component to the election process, get these candidates\u2026 https://t.co/JjVRE7OXeP
p117
aV@GuinnBonnie @peterdaou When did it become OK to hit someone because of their opinion? Freedom of speech is exactly\u2026 https://t.co/rhFJaVvVF9
p118
aVRT @GuinnBonnie: @peterdaou https://t.co/1NZofc7q7t
p119
aVRT @PotwaO: The difference between voting for Democrats and Republicans.... which way appeals to you!
p120
aVThe difference between voting for Democrats and Republicans.... which way appeals to you!
p121
aV@tedcruz You GO Teddy C!!
p122
aVRT @tedcruz: Violence is never OK. Reports of bombs sent to the homes of Obama, Clinton, and Soros are deeply, deeply disturbing. America i\u2026
p123
aVRT @RealJamesWoods: The sending of bombs is a threat to the very foundation of our Republic. That people would seriously suggest such an ac\u2026
p124
aVRT @LauraLoomer: Smile for the fake news glamour shots!
p125
aV@LauraLoomer Oh now it\u2019s bring the country together, last week it was not being civil towards the opposing party, s\u2026 https://t.co/OKnrFVuXcM
p126
aV@SoSofieFatale C\u2019mon think of the entertainment value... you can\u2019t make that stuff up!
p127
aVIBD-Obama has trouble with facts these days, as he\u2019s \u201ctrying to take credit for the economic boom.\u201dAs soon as Trump\u2026 https://t.co/YCwzLzixwo
p128
aV@MichaelAvenatti @SoSofieFatale This is Webster\u2019s Dictionary new definition of narcissist, me,me,me,me, I,I,I,I  Tr\u2026 https://t.co/nMFM8n5ihC
p129
aV@dcexaminer I see a Go Fund Me starting... who has more Native American Indian heritage
p130
aVRT @TheRealHublife: The new Lindsey Graham is a political Terminator. \u2620\U0001f631\U0001f602\U0001f602\U0001f602\U0001f923\U0001f44d https://t.co/PmgOMh7DmV
p131
aVRT @RealJamesWoods: Now that\u2019s funny https://t.co/asuAsED6zy
p132
aV@RealJamesWoods @Hisladydiana Hooooooowwwwwllllling!
p133
aV@Harvard first motto was Veritas Christo et Ecclesiae - Truth for Christ and the Church .... what year did that change?
p134
aV@Harvard adopted \u201cRules and Precepts\u201d in 1646 Let every student be plainly instructed, and earnestly pressed to con\u2026 https://t.co/5zSFeC3Qhr
p135
aV@DukeU est. 1924 founding bylaws stated- \u201cThe aim of Duke University are to assert a faith in the eternal union of\u2026 https://t.co/ncWCKU5HON
p136
aV@didikins4life @ListenToEzra Sorry you must have cut and pasted a response to the @DNC here by mistake..
p137
aV@business Oh here we go again, already setting the ground work.... sheeple wake up to the manipulation!
p138
aV@axidentaliberal @StormResist Overreaching would be a compliment https://t.co/jLbouYjhw6
p139
aVRT @ChrisMurphyCT: Need a ride to the polls on election day? Uber and Lyft will take you there for free. https://t.co/kmBIQU9cjZ
p140
aV@ChrisMurphyCT @LunaLuvgood2017 This is awesome!
p141
aV@MichaelAvenatti Don\u2019t want no Short Short Man sorry @20fingers couldn\u2019t help it, https://t.co/jLbouYjhw6
p142
aV@nowthisnews @LunaLuvgood2017 Does Aqua Velva qualify as a blue wave? Because it does a great job of masking the st\u2026 https://t.co/4XAQM3uKY0
p143
aVRT @DaddyFiles: This is my son, Sam. He\u2019s 5. And today he learned how shitty and harmful #ToxicMasculinity is. My rage meter is spiking rig\u2026
p144
aV@TheSource Well you\u2019re both beautiful so I\u2019m sure the baby will be stunning as well....
p145
aV@MichaelAvenatti There\u2019s to much at stake allowing attorneys to manipulate the legal system... #legalreform
p146
aV@ConanOBrien Go back to sleep, the unemployment rate is the lowest in decades and plenty of Americans willing to wo\u2026 https://t.co/x3O4pZlsCf
p147
aVKellyanne Conway Under Investigation for Violating Federal Law Again\u2014This Time Over Midterm Elections - \u2066@Newsweek\u2069\u2026 https://t.co/BIpT26Hzym
p148
aVNate Silver boldly predicts Dems have 86 percent chance of retaking House - Fox News \u2066@NateSilver538\u2069 what was your\u2026 https://t.co/QsfdpSmMIS
p149
aV@JoyceWhiteVance Oh here we go the stretch.... all things lead to Trump (that aren\u2019t positive) please already he\u2019s\u2026 https://t.co/8ycJszq13g
p150
aV@kathygriffin Kathy Kathy Kathy, who needs a hug, can you go a week with only positive tweets? Can anyone #positvetweetweek
p151
aV@MatthewWolfff But wait...... he\u2019s a leader! In his own mind
p152
aVRT @MatthewWolfff: Already owing millions to the IRS, Michael Avenatti has been court ordered to pay $4.85 million to a former colleague. H\u2026
p153
aV@MichaelAvenatti @realDonaldTrump At if anyone knows a thing or two about fabricating (and I\u2019m not talking about sh\u2026 https://t.co/AkWcB1RgQx
p154
aVSometimes what a majority means is that all the morons are on one side.... @DNC @seanhannity @FoxNews @IngrahamAngle
p155
aV@tedcruz You can doooooooo it!
p156
aVParty Line Voting Differentiators: \u000aDemocrats = Vote Yes on No......\u000aRepublicans = Vote No on Yes....\u000aEither way sh\u2026 https://t.co/ZiDYTEozIV
p157
aVSeek first to understand before being understood.
p158
aV@Eugene_Scott Yea seriously, if a discussion is about a specific race or culture it\u2019s only natural to have a conver\u2026 https://t.co/5sJwkQHTex
p159
aV@seanhannity Seriously delusional... I think he meant racked up the most debt of any president right?
p160
aVRT @seanhannity: Seriously? https://t.co/Te0KZfQMKs
p161
aVHouse Democrats opposed the Criminal Alien Gang Member Removal Act, designed to help law enforcement keep criminal\u2026 https://t.co/EKvtY7ZGwK
p162
aVWhat\u2019s more important:\u000a- To know God is mine ... or - That God is yours
p163
aV@_SadTrump @kylegriffin1 Good to know you\u2019re coming from a place of peace and justice not party or color, we need t\u2026 https://t.co/WYCeeNec49
p164
aV@JohnJHarwood Yea SOP for the oil cartel, and everyone is surprised? Sheeple wake up they just got caught this time\u2026 https://t.co/OndBmiNLFY
p165
aV@seungminkim @laraseligman And now they are available at Starbucks! @Starbucks
p166
aV@davidfrum @JohnJHarwood Ahhhh hello, Trumpers don\u2019t poll, did you miss that one last time because we know how the\u2026 https://t.co/AchhATIHdR
p167
aV@cakeamonga @realDonaldTrump Booooooooooooooo c\u2019mon now keep it positive, love \u2764\ufe0f prevails
p168
aVRT @KMiracle: Yes! This chaos, designed to kill, steal &amp; destroy won\u2019t survive! People will stand in solidarity for every Americans\u2019 rights\u2026
p169
aVRT @PotwaO: Companies Once Owned by Michael Avenatti Owe Millions in Unpaid Taxes... bump bump bump, and another bites the dust, bump bump\u2026
p170
aV@MichaelAvenatti The activity is off the charts because you\u2019re a total tool, you\u2019re quoting bots as indicators of i\u2026 https://t.co/wnD6dLkxme
p171
aVAir Force's $326G hot cup tab draws senator's ire - Fox News \u2066@StateDept\u2069 \u2066@LegalServicesUS\u2069 ... can we get these a\u2026 https://t.co/5ZGno8oHMV
p172
aVAmandla Stenberg Proudly Shows Off Unshaved Armpits on the Red Carpet - People ....YOU GO GIRL!!!\u2066@amandlastenberg\u2069\u2026 https://t.co/vdLqLpxHlM
p173
aVMichael Avenatti Must Pay $4.85M to Ex-Employee, Judge Rules -... loooooooser! \u2066@MichaelAvenatti\u2069 , dude you didn\u2019t\u2026 https://t.co/BkMgmXJt4w
p174
aVAdministration eyes defining \u2018transgender\u2019 out of existence- \u2066@nytimes\u2069 - this is a little dramatic, no one is tryi\u2026 https://t.co/zKD5dAbwW6
p175
aVCompanies Once Owned by Michael Avenatti Owe Millions in Unpaid Taxes... bump bump bump, and another bites the dust\u2026 https://t.co/d5sGGLMqpS
p176
aVA Highly Addictive new Opioid, Stronger Than Fentanyl and Morphine, is Poised to be Approved by the FDA - Newsweek\u2026 https://t.co/zzVWURMsle
p177
aVTrump Is in \u2018Worst Physical Shape of Any Modern President\u2019 and Shows Signs of Dementia, Michael Avenatti Claims \u2066\u2026 https://t.co/sxDArjZwJN
p178
aVDems may need intervention to contain Hillary Clinton, NYT \u201cFools find no pleasure in understanding but delight in\u2026 https://t.co/vkI6LTi2Na
p179
aVState Department provided 'clearly false' statements to derail requests for Clinton docs, 'shocked' federal judge s\u2026 https://t.co/0bDGkoRf3o
p180
aVNow, 21 months into his Presidency, regulatory reform has saved American families and business owners $33 billion.\u2026 https://t.co/M9mBbHEqqz
p181
aVIn his first 21 months in office, President Obama imposed $245 billion in regulatory costs on the American people..\u2026 https://t.co/qlyh7U2fYc
p182
aVPelosi boasts Dems could see 'tsunami' in midterms, despite party warnings .. uh Oh someone\u2019s not in the realm of r\u2026 https://t.co/LJfbPwqpJI
p183
aVRain Falls on Prince Harry and Meghan Markle...... NEVER they will endure the test of time and be our continued ins\u2026 https://t.co/HCKswY5vro
p184
aVWhat We Can Learn From Elizabeth Warren\u2019s DNA Test \u2066@DNC\u2069 if this one is the 2020 hope, I\u2019d have a backup plan...  https://t.co/3VW0wAFa1s
p185
aV\u201cThe Obama administration released thousands of unaccompanied alien children to criminal sponsors,\u201d Dr. Piccolo, a\u2026 https://t.co/F8QLAUEMHK
p186
aV\u201cPride goes before destruction, a haughty spirit before a fall. Better to be lowly in spirit along with the oppress\u2026 https://t.co/RFZm4lsRlR
p187
aVRT @RealJamesWoods: \u201cThe money now owed by Ms. Clifford to compensate Mr. Trump\u2019s team of lawyers for their work on the case over nearly si\u2026
p188
aVRT @realDonaldTrump: For the record, I have no financial interests in Saudi Arabia (or Russia, for that matter). Any suggestion that I have\u2026
p189
aV@MichaelAvenatti @LA_Karma1 OK delusion has now set in, if you\u2019re in the gutter it\u2019s because you\u2019re living there al\u2026 https://t.co/O2Pq0CrWgD
p190
aV@MichaelAvenatti Wait... your case gets thrown out because it lacks substance yet you still hold on to these claims\u2026 https://t.co/V4R2jK4n1K
p191
aV@VH1 @SnoopDogg @MarthaStewart And after getting baked you get hungry so perfect host to be hangin with the best go\u2026 https://t.co/DRXa00Rthr
p192
aVRT @MailOnline: There's no such thing as too many balls \U0001f3be https://t.co/8hCL2RDf4u
p193
aV@MonicaLewinsky Trust in your passion in providing a better path for others... it is worthy
p194
aVRT @PotwaO: @MonicaLewinsky I can do all things through Christ who strengthens me! Even in grammatical warfare! \U0001f923
p195
aV@claytonpope @business @bopinion https://t.co/T9oWhp7DG6
p196
aVLets not love with words or speech but with actions and in truth...\u000aLove opens us up to others truth and breaks dow\u2026 https://t.co/k7STOZZMU4
p197
aVTrust is not a what, it\u2019s a who...\u000aTrust is not built with hate, it\u2019s with love...\u000aTrust in love to lead the way...
p198
aV\u201cFile this one under \u2018why wasn\u2019t it already illegal?\u2019: President Trump last week signed two bills banning gag order\u2026 https://t.co/MTKgTA9WmF
p199
aV\u201cA gentle answer turns away wrath, but a harsh word stirs up anger. The tongue of the wise adorns knowledge, but th\u2026 https://t.co/fX1rwrsTo4
p200
aV@emilysumiko @jedshug They avoid them
p201
aV@khloekardashian Great cause KK! Keep it up and continue to be a positive force to those in need! \U0001f618
p202
aVRT @khloekardashian: For everyone who helped with the Watts Community Center, God bless you all!!!!! #KUWTK
p203
aV@Laurie_David @peterdaou Sooo sad \U0001f614 I think I literally threw up in my mouth, a majestic creature like that being k\u2026 https://t.co/NnlO6OdzqH
p204
aVRT @JoeNBC: \u201cFaith without works is dead.\u201d\u000a~James 2:26 https://t.co/MXhyzFTB20
p205
aV@Benioff @SRuhle @WSJ @AlejandroLazo @OurHomeSF Horribly worse is an understatement, I\u2019d be furious at my Mayor and\u2026 https://t.co/fEj3jWb7ys
p206
aV@kharyp This isn\u2019t a conservative, anyone making those claims is a nut job, kookoo bird and needs a visit by some o\u2026 https://t.co/2YXAoPdLpx
p207
aV@McFaul Yes and boy oh boy 20 months is just plenty of time to determine that, shucks you got him there, well hope\u2026 https://t.co/bPZHOxg56o
p208
aV@jaketapper @DianeHessan You just keep Polling the Blues and you\u2019ll be singing the blues, again... you\u2019ve seen that\u2026 https://t.co/Qy1Vt427fa
p209
aV@StJohnSterling @davidfrum You\u2019re kidding right... this is what you\u2019re worried about, so results don\u2019t equate into anything tangible then ?
p210
aV@MichaelAvenatti Ah the first part kills your platform of path to success, the second is just socialism but hey way to go Stalin.
p211
aV@MonicaLewinsky I can do all things through Christ who strengthens me! Even in grammatical warfare! \U0001f923
p212
aVRT @MonicaLewinsky: \U0001f4a5\U0001f608 https://t.co/L6RstZ4W3y
p213
aV@kylegriffin1 Wait better check with Hillary first, because if they do it\u2019ll just come out that it\u2019s a front hired\u2026 https://t.co/03pY00Z0B7
p214
aVRT @RobertMaguire_: Nature's most fearsome predator https://t.co/4AT4qRa5mk
p215
aV@jedshug Ah yea, news alert, Trumpers don\u2019t Poll man, you get a 20 point lead and you\u2019re still 10 behind, feel me?
p216
aV@shakira Im speechless \U0001f636 .... but wait, where do I get one!
p217
aV@psychdr100 I see a #FLOTUS making a statement is vindictive.... wow you got so much out of the interview, a real deep thinker are ya now?
p218
aV@BillKristol #GoFundMe just launched the fundraiser!
p219
aVRT @BillKristol: Perhaps the DNC could buy the Clintons complimentary tickets on a nice, relaxing, month-long round-the-world cruise to rem\u2026
p220
aV@Sen_JoeManchin Sooo cool man, chuck was the original rocket man we all aspired to as kids.... wish they still made men that way!
p221
aVRT @Sen_JoeManchin: I spent the morning honoring West Virginia legend Chuck Yeager at the Yeager Airport air show. Today is the anniversary\u2026
p222
aVRT @yashar: The Saudi and UAE trolls really don\u2019t like this tweet! https://t.co/IQnfSrIo3A
p223
aV@MichaelAvenatti Dudeman if you run you\u2019ll be the laughing brunt of the country and all your dirt will be exposed,\u2026 https://t.co/0I3cb9iPil
p224
aV@ChristianPisco Hilarious!
p225
aVThe Associated Press \u201cThe U.S. is stepping up fight against human trafficking until it can be stamped out \u2018once and\u2026 https://t.co/mrS5kyEUWT
p226
aVWashington Examiner\u000a\u201cPresident Trump signed two bills into law to block insurers from enforcing \u2018gag clauses\u2019 that\u2026 https://t.co/89FGdKzMZo
p227
aVPresident Donald Trump signed the \u2018Save Our Seas Act\u2019 on Thursday, green-lighting an initiative to clean up eight m\u2026 https://t.co/9oABvlIFDL
p228
aVRolling Stone\u000a\u201cPresident Trump signed the eagerly anticipated Music Modernization Act into law at a ceremony at the\u2026 https://t.co/A58CE3M2rQ
p229
aVAs the President nears the two-year mark of his first term, \u201cthe administration has counted up 289 accomplishments\u2026 https://t.co/17GnEHYnIb
p230
aVHillary Clinton says husband's affair not an abuse of power. Further confirmation of how completely out of touch sh\u2026 https://t.co/7TiE9TDeeQ
p231
aV@khloekardashian Don\u2019t minimize their hardships, it\u2019s so important they are happy and satisfied because it\u2019s all ab\u2026 https://t.co/JfyYN4eNUg
p232
aV@_SadTrump @kylegriffin1 And BTW \u201cthe source is irrelevant\u201d statement is really really scary, the source should be\u2026 https://t.co/8uHHkfpav2
p233
aV@_SadTrump @kylegriffin1 When you say \u201cif there are independent facts to back it up\u201d you\u2019re stating there are none\u2026 https://t.co/Yg8oguWNnE
p234
aV@ryanstruyk @jaketapper @CNN Easy to get the statistics you want when you\u2019re polling your own base... Trumpers don\u2019\u2026 https://t.co/BktMJ7AZmb
p235
aV@ddale8 Results matter, every Senator, Congressman and Governor should show us their district/state balance sheet,\u2026 https://t.co/RQ9WcCqaby
p236
aV@ddale8 Hey Daniel thanks for illustration of last 30 yrs in decline, but ya see in the far right hand corner where\u2026 https://t.co/vzNW3RguZP
p237
aV@PopularPups Please if this doesn\u2019t make you laugh out loud go immediately to the nearest hug center and get one!
p238
aVRT @PopularPups: Slippery floor race https://t.co/NPF7heeH33
p239
aV@GeorgeWill Love more - hate less, if your goal everyday is to have a positive impact on those you encounter and sh\u2026 https://t.co/JrxBGU46MP
p240
aV@kylegriffin1 Kyle babe please Buzzfeed, really? Come on you can\u2019t take them as a serious resource... they are so o\u2026 https://t.co/54xd3fmcGr
p241
aV@chelseahandler \u201cDo not be anxious about anything, but in every situation, by prayer and petition, with thanksgivin\u2026 https://t.co/WZOsUUlY7S
p242
aV@waltshaub @renato_mariotti What\u2019s disgusting is you and Renato whining like babies when the man is within his righ\u2026 https://t.co/pS3exeQ2gb
p243
aVRT @amyklobuchar: Watching @snl  Hey negative ad people...I don\u2019t think Saturday Night Live is the best place to run your unhip negative ad\u2026
p244
aVRT @ABC: Melania Trump tells @TomLlamasABC she wore the \u2018I really don\u2019t care\u2019 jacket \u201cfor the people and for the left-wing media who are cr\u2026
p245
aVOh CREW so glad you caught this one, I\u2019ll rest better under the blanket of your protectionism.... oooops, Sanders B\u2026 https://t.co/B8aRzqQi9b
p246
aVOoooh knoooow now I have to get a real one!-  Call of Duty's Blackout mode is already consuming lives  https://t.co/ctBlh6b9Iw
p247
aVYeeeeeeeesssss please stop using it!!!!  Prince's estate wants Trump to stop using Purple Rain at rallies  https://t.co/Y3UZsq5zBV
p248
aVSorry but \U0001f602\U0001f923 #morehumor #lesshate Someone put 'googly eyes' on a Revolutionary War monument in Savannah  https://t.co/djfehRMlmA
p249
aV@ShinobiNinja @TheEllenShow @EdGlavin Whoa Getting ready to be the new Michael Jackson with those moves!
p250
aV@ShinobiNinja Duuuuuuude so old school, even has a cassette player...LUV IT! Brother!!!!
p251
aVRT @richeisen: Grandal. I got autocorrected. Damnit.
p252
aVRT @PotwaO: Why do you think it\u2019s harder to show love to the ones you hate and easier to show hate to the ones you love?
p253
aVWhy do you think it\u2019s harder to show love to the ones you hate and easier to show hate to the ones you love?
p254
a.