(lp0
V@DrDavidDuke And pray tell what the fuck you've done with your life, you disgusting piece of shit. You deserve expulsion from life.
p1
aV@legressive_reft I love the subtle racism seeping through in the facial/head shape differences of the black guy. I\u2026 https://t.co/uTPbqP8kYu
p2
aV@carterforva Our parents taught us the importance of honesty... And then are shocked when we are.
p3
aV@charliekirk11 Sorry, fuckwad, but this makes you look like a stupid piece of shit who doesn't know what the fuck h\u2026 https://t.co/gxJSCcWMZJ
p4
aV@johniadarola Starship Troopers
p5
aV@10MinutesaDay4U @davidhogg111 David's post had NOTHING to do with Bernie Sanders. The democratic primary happened\u2026 https://t.co/CRHVBHBQoc
p6
aV@VicBergerIV I wonder how many intelligence points he has...
p7
aV@DrMagnolias @hitherehaidar @ParkerMolloy Nah dude, the cool part is you get to do whatever you want
p8
aV@DrMagnolias @hitherehaidar @ParkerMolloy Just because children's opinions are easily influenced by their parents,\u2026 https://t.co/c1JzXv0Z55
p9
aV@slickbandit88 @Baciandrio @SenSanders "I always wonder why I have so many Canadian friends living here instead of\u2026 https://t.co/6SLUDgWBYj
p10
aV@artbymh @ZJemptv She said she was advocating for it. Heath care for trans people, based on evidence. Sounds good to me?
p11
aVSkyrim cone-tree glows in the darkness of the night http://t.co/cB6OKytd
p12
aV@Bethblog Check out my Skyrim themed college Christmas tree! http://t.co/AyG6fEDn
p13
a.