(lp0
VWe may owe him an open mind and a chance to lead.  We also owe each other respect and security. https://t.co/sEfvwAO4Uk
p1
aV@emilybazelon \u201cI feel we have moved beyond some moment of polite discourse in which false equivalency by the press is helpful." Thank you.
p2
aVRT @nycsouthpaw: North Carolina said this IN OPEN COURT and thought it was okay. https://t.co/qonanLiep1
p3
aVRT @nycsouthpaw: "Winning an election does not empower anyone in any party to engage in purposeful racial discrimination." https://t.co/Coi\u2026
p4
aVRT @nycsouthpaw: The core factual finding the Fourth Circuit is insisting on. https://t.co/klipBRQwPs https://t.co/DweEuDHdzn
p5
aVRT @nycsouthpaw: tfw a federal court recognizing obvious truths makes you want to jump up and cheer https://t.co/kKHnOcMAG4
p6
aVRT @nycsouthpaw: Even as she follows it, Judge Motz's hostility to Shelby Cty. is weaved through the text. https://t.co/klipBRQwPs https://\u2026
p7
aVRT @nycsouthpaw: I wonder what it feels like to be a NC legislator, do this, and show your face in church the next Sunday. https://t.co/iRY\u2026
p8
aVRT @nycsouthpaw: remarkably direct. https://t.co/Gyk7QQEETq
p9
aVRT @nycsouthpaw: This Fourth Circuit decision is a remarkable document. https://t.co/klipBRQwPs https://t.co/WnO4uwUmiL
p10
aV"Only we can prove that we have the grace, character, &amp; common humanity to end this..That\u2019s who we...always have the capacity to be."
p11
aV"...Please don't let hate infect your heart.  This city MUST and WILL get better..."  - Montrell L. Jackson
p12
aVBill Johnson says that police feel "unfairly painted with a broad brush."  There's a painful amount of irony there, no? #blacklivesmatter
p13
aV@yayitsrob I just want to point out that, 2 years after getting this account, I have actually tweeted. Twice
p14
aV"Even BONO doesn't get it. What are we gonna do if Bono doesn't even get it?" - @jordopc on the American effort to curb poverty worldwide
p15
a.