(lp0
VRT @JamesJams76: 20. Right to Vote Taken from many North Dakota Indians.\u000a \u000aBecause of P.O. Boxes being used as addresses on IDs for those o\u2026
p1
aVRT @1IronMan2017: #TrumpBudget cuts Social Security 4 people with disabilities. The part of Social Security called Disability Insurance. #S\u2026
p2
aVRT @RonWyden: It cuts $33 BILLION from #Medicare. Which Trump promised not to touch. https://t.co/Z4UJonDYQN
p3
aVRT @SenSchumer: The #CBOScore makes it perfectly clear: unless you\u2019re a healthy millionaire, #Trumpcare is a nightmare.
p4
aVRT @Pappiness: Under the AHCA, 23 million people will lose their health insurance.\u000a\u000aThe GOP will kill more people than terrorists ever coul\u2026
p5
aVRT @SenJeffMerkley: Social Security and #Medicaid are what stand btwn 1000s of Americans and abject poverty or devastating illness. RT to s\u2026
p6
a.