(lp0
V@RevDaddyLove Great CD, it's still in my iTunes playlist!!
p1
aV@RevDaddyLove READY!!!
p2
aV#RIPPrince!!\u000a#Heavenisaawesomeplace\u000aOur world is a different place today!
p3
aV@TefPoe
p4
aVPRINCE-#alwaysoutofthisworld
p5
a.