(lp0
VU.S. Law Enforcement Failed to See the Threat of White Nationalism. Now They Don\u2019t Know How to Stop It.   via\u2026 https://t.co/8AVPwXaAnj
p1
aVFirst of all, law and order and common sense are all sorely missing in this administration.
p2
aVCNN's Kate Bolduan SHOCKED by GOP's David Jolly DESTROY Donald Trump on ... https://t.co/Wa5TfmIPQo via @YouTube
p3
aV\U0001f534 Obama FIERY Speech Against President Trump &amp; GOP at Rally in Milwaukee... https://t.co/FQdCIF0EVo via @YouTube
p4
aV#BorderlineRACIST Tucker Fox News gets #ShutDown by Latino Host on Hondu... https://t.co/MY8hta9aiD via @YouTube
p5
aVAir Force General Gives A POWERFUL Speech Against Trump-Supporting Cadet... https://t.co/amPiA1gJx9 via @YouTube
p6
aVBernie DESTROYS Trump Voters at Town Hall, They Don't Even Realize It https://t.co/iSu3eG216q via @YouTube
p7
aV@BestRandomPolls Can you prove it to me
p8
aV@Ocasio2018 @MMFlint I wish all democratic candidates stop the money they getting from corporate profits and ask th\u2026 https://t.co/l7cTYqYNIx
p9
a.