(lp0
V@renato_mariotti It\u2019s reported that the indictments of Manafort included forfeiture of ill-gotten gains should he b\u2026 https://t.co/i2U6oc0rnO
p1
aVRT @chelllssseeea: why is this so funny to me https://t.co/fUDik7CTF5
p2
aV@realDonaldTrump Ask Mitch.
p3
aVRT @SteveSchmidtSES: This is amazing. Beyond amazing. Please watch. Amazing. Biggest. Best.  https://t.co/Sot8wg5sZ9
p4
aVDaily Cartoon 032917 Natasha and Boris https://t.co/GWuYZPRJrO
p5
aVRT @AdamMGrant: For proof of how easily your eyes can deceive you, check out this picture.\u000aAs hard as it is to believe, the blue horizontal\u2026
p6
aVhttps://t.co/kLuWXNnmBN
p7
aVRT @SaysHummingbird: CAN'T. RETWEET. THIS. ENOUGH. \U0001f525\U0001f525 https://t.co/JoVWv6gOqL
p8
aVHelpful information about activities you can participate in when Trump fires Mueller:\u000a\u000ahttps://t.co/bmqSQVOcwE
p9
aV@EsotericCD @jbarro @brd_polling G
p10
aVRT @TheRickWilson: 1/ Here's why Paul Manafort doesn't flip and squeal: there's a tiny % chance Trump pardons him for the Federal crimes. (\u2026
p11
aV@realDonaldTrump It is not what goes in that defiles a man, but what comes out.
p12
aVRT @JoyAnnReid: Now that I\u2019ve read the entire transcript of @nytmike\u2019s Trump interview, a few observations: \u000a1. Trump speaks a lot like a c\u2026
p13
aVRT @JillDLawrence: New legal analysis from @NoahBookbinder, @NormEisen &amp; @crfredrickson: Firing #RobertMueller wouldn't be easy. The risks\u2026
p14
aVRT @jon_rauch: Why aren't Dems making protection of Mueller's investigation a demand for funding the government? It's important and has bip\u2026
p15
aV@SethAbramson @PreetBharara seems to suggest otherwise in his latest podcast on the Flynn plea deal. He seems to in\u2026 https://t.co/qB9PcMWNUW
p16
aVRT @MattGlassman312: The biggest understated issue swirling around all of this is not that members of Trump World have committed illegal ac\u2026
p17
aVRT @Comey: \u201cBut justice roll down like waters and righteousness like an ever-flowing stream\u201d Amos 5:24 https://t.co/o89PSY1YBd
p18
aV@CillizzaCNN I guess Mexico will have to "reimburse us" for the wall.
p19
aVRT @jbarro: I spent five days around Yellowstone, where my phone barely worked. I haven't felt so relaxed in years. https://t.co/bX5Z7TyhKn
p20
aVThe President of Blank Sucking Nullity https://t.co/Xo9AtMv1B1
p21
aVRT @jonathanchait: This is a fantastic 1:19 video breakdown of a historic moment. Must-watch. https://t.co/PsCftGKf7S
p22
aVRT @DobreLucas: Super Hero Probs \U0001f602 Post a @Wendys Frosty selfie with #50CentFrostyFilms + #sweepstakes to try &amp; win \U0001f4fd\ufe0f tix! Rls: https://t.\u2026
p23
aVRT @chrislhayes: So here is what we are currently being asked to believe. 1/x
p24
aVOpinion | A Conspiracy of Dunces https://t.co/ZqZrQlh5qt
p25
aV@jonwalczak Ick.
p26
aV@CathrynSteeves I may have missed it--what?
p27
aVIglesias's bullshit dynamic at work: Trump\u2019s aides are starting to rival their boss when it comes to praising him https://t.co/Y8nKnOCE8i
p28
aVAn interesting and incisive piece.  The Bullshitter-in-Chief https://t.co/pwFNlEU0Xb
p29
aVInvestigators Are Right To Be Looking at Michael Cohen https://t.co/K31XZWJZZ5 via @TPM
p30
aVTrump Enraged as Mexican President Meets with Meryl Streep Instead https://t.co/OsKVxvR2Li via @BorowitzReport
p31
a.