(lp0
VAmen. When we\u2019re walking for candidates in a cold downpour, the least you could do is respectfully decline and not\u2026 https://t.co/75xpcO5JSV
p1
aV@jamietworkowski @AndrewGillum Glad they\u2019re using a well-targeted list \U0001f62c
p2
aVWhen you\u2019re out canvassing and announce which candidate you\u2019re walking for but the person mentions they\u2019re not inte\u2026 https://t.co/fvkxRhnex3
p3
aVRT @BenChapmanMagic: Y\u2019all are gonna be amazed how not dangerous these refugees suddenly become on November 7th.
p4
aV@kylehillman Pam might be a good fit...
p5
aV@Starbucks: why market a reusable cup giveaway when the drinks were served in a disposable cup? \U0001f937\u200d\u2642\ufe0f\u000a\u000aI love the co\u2026 https://t.co/ONKoojlWyJ
p6
aVEarly voted today! Sadly, I didn\u2019t receive an \u201cI voted\u201d sticker so the sign will have to do \U0001f602\u000a.\u000aFirst time voting w\u2026 https://t.co/PONMuYXKNV
p7
aVGreat day canvassing with Joel for our friend, @Karina4D49! If a guy as busy as Joel can get out to canvass, what\u2019s\u2026 https://t.co/R2T7ry6LzO
p8
aVTrick-or-treating with the little (bat)man. https://t.co/WELXgWwPKS
p9
aV@jamietworkowski @TWLOHA Anytime man. Let\u2019s hope when we wake up a week from now all of our thoughts, conversations\u2026 https://t.co/GOAIcm8LTl
p10
aVProud of my friend, @jamietworkowski.  I appreciate your willingness to engage, all while promoting the compassion\u2026 https://t.co/WgoMwcchai
p11
aV@VDunayska watch pt. 3: @JoeBiden apparently took a selfie on her phone?? What a day she\u2019s having. https://t.co/FlwcIueS1j
p12
aVUpdate: @VDunayska got even closer. Wishing I was there for this rally! https://t.co/yYxcshq4jT
p13
aV@JohnAmdor @PostMalone \U0001f926\u200d\u2642\ufe0f\U0001f926\u200d\u2642\ufe0f\U0001f926\u200d\u2642\ufe0f
p14
aV@JohnAmdor No @PostMalone? \U0001f633\U0001f633\U0001f602\U0001f602
p15
aVWhen you\u2019ve turned @VDunayska into a political junkie and now she\u2019s going to be feet away from @JoeBiden,\u2026 https://t.co/QrVhjuIyY6
p16
aV@ashley_claire22 Me too! It\u2019ll be interesting to see how they adapt it from the book.
p17
aVDang! So excited for this series. Loved Looking for Alaska from the moment I first read it early on in high school.\u2026 https://t.co/TJ35ybtIyz
p18
aV7 days.\u000a.\u000aWe have 7 days left to determine our own fate. To decide if we want the next 2 years to look like the las\u2026 https://t.co/MYMf3XBTnd
p19
aVRT @Acosta: The founders set up the constitution so the president can\u2019t do what he\u2019s proposing to do with birthright citizenship. It\u2019s a st\u2026
p20
aVCorrect. https://t.co/LRV9mtpMto
p21
aVLive from the Urgent Care in NW Indiana, where my waiting room tv is showing NBC Chicago. So far I have seen a lot\u2026 https://t.co/DfAvwFg8cr
p22
aVRT @Acosta: We are not the enemy of the people. I am not your enemy. You are not my enemy. It is wrong to call your fellow Americans the en\u2026
p23
aVRT @ChrisEvans: \u2018Help! I\u2019ve never done anything wrong in my entire life, but somehow hostility is at an all time high. Just because I kick\u2026
p24
aVFavorite excerpt:\u000a\u000a\u201cAt the moment, our alternative to Pritzker in November's election is neither Daiber nor Biss. I\u2026 https://t.co/R2IZA7ZvF8
p25
aVThis entire op-ed is spot on. Please do not let your lofty standards keep you at home this Nov 6. We get to be pick\u2026 https://t.co/zEmlMlIM9E
p26
aVOverflow in Schaumburg for an early vote rally! @NASWILPAC is here supporting @senatorcastro @StateRepCrespo, and S\u2026 https://t.co/NSap9IAKuj
p27
aVRT @Timodc: I like that he does the rallies because it forces the Trump enablers to be reminded what an an unequivocal piece of human garba\u2026
p28
aVSolid canvassing group right there \U0001f44c\U0001f3fb\U0001f44c\U0001f3fb\U0001f44c\U0001f3fb https://t.co/bU4asXG8S4
p29
aVRT @UofISocialWork: #ILLINOISsocialwork Professor Chris Larrison weighs in on ways to navigate delayed mental health care appointments. Rea\u2026
p30
aVRT @DickDurbin: You and I know how important this election is, but with stakes this high we can\u2019t take anything for granted. Talk to your f\u2026
p31
aVExciting day today! Went to a rally for fellow social worker and friend, @Karina4D49, who is running for State Repr\u2026 https://t.co/XfV1xGzQ53
p32
aVFirst time having the privilege to meet @SenatorDurbin! Despite the craziness taking place in D.C., I always know I\u2026 https://t.co/qeDAONWLOe
p33
aV@NASWILPAC endorsed candidate, former school social worker, and @NASWIL member, @Karina4D49, standing alongside\u2026 https://t.co/1bwCcsyBH9
p34
aVWith a fantastic introduction by Carol\u2019s former student, Billy Dwyer. If I do say so myself \U0001f609 https://t.co/gUawzqZwaZ
p35
aVRT @KwameRaoul: November 6th is an emotional day for me. It's the day 15 years ago I lost my father to cancer. 14 years ago, it was the day\u2026
p36
aV@NASWIL Business of Social Work Conference keynote presentation focused on addressing sexual harassment in the work\u2026 https://t.co/nZyoIlP0p5
p37
aVThose dang emails, though. How could we have possibly survived? https://t.co/48QUOEUKUr
p38
aVRT @NASWIL: #naswil 2018 Business of Social Work conference now underway in Lisle,IL with Sarah Buino from Head/Heart Therapy on Shame in t\u2026
p39
aVPumpkin patches are surprisingly low key at 3PM on a Wednesday. Still a fun day with @vdunayska though \U0001f618 @ Abbey Fa\u2026 https://t.co/ovveisRlIm
p40
aVS/O to @VDunayska for being the most reliable volunteer I have! \U0001f602\U0001f602 https://t.co/5PafdgvlS3
p41
aVPhone banking for @EllmanForIL and Kathy Carrier when special guest @JulianaforLG showed up! #twill #ilgov https://t.co/Ka9sTvYrWx
p42
aVWhy is this so accurate https://t.co/tud5KTScfH
p43
aV@jamietworkowski Wanna start a group focused on creating political change and electing compassionate legislators? \U0001f9d0\u2026 https://t.co/oOiUJMRo69
p44
aV@DavidOrmsby @washingtonpost This is one thing that has always frustrated me. I don\u2019t get folks having some strange\u2026 https://t.co/0mRyMJT3nx
p45
aVRT @DanielBiss: THREAD: On the civility police.
p46
aVRT @KwameRaoul: While my opponent says fighting back against the Trump administration is "purely political," I think protecting the human r\u2026
p47
aVRT @RobinLynneKelly: .@JBPritzker it was a pleasure seeing you today! https://t.co/wtKOoYjxCI
p48
aV@alexhanns @Frank_Avino @robertmartwick @JBPritzker \U0001f44c\U0001f3fb\U0001f44c\U0001f3fb we\u2019ll be out canvassing for @robertmartwick tomorrow!
p49
aVRT @mcrallie: I am nervous about voter turnout. Shaming millennial voters won't work. Talking to people from behind a screen won't cut it e\u2026
p50
aVGreat seeing @JBPritzker so close to home today. He was joined by our great Congresswoman, @RepRobinKelly, as well\u2026 https://t.co/ZVCJFBEZBv
p51
aV@rhsmith_ is that guy. https://t.co/MHN5Ctg8O0
p52
aV@RohlederWill That\u2019s what I\u2019ve heard
p53
aV@RohlederWill I\u2019m not in the hip crowd \U0001f602
p54
aVWeird brag? https://t.co/oMWFhcpfCV
p55
aVIllinois voters\u2014please read this. Then read it again. \u000a\u000aWe must elect @KwameRaoul as our next Attorney General. Con\u2026 https://t.co/l8vXPgd9jD
p56
aVRT @JulianaforLG: Thank you to everyone who joined us at the Women\u2019s March to the polls this weekend. Women will not be silent. We are marc\u2026
p57
aVPSA: This is still not normal. https://t.co/fVUPpQ2Si3
p58
aV@jamietworkowski @levithepoet Favorite coffee &amp; brewing method \U0001f606
p59
aV\U0001f923\U0001f923\U0001f923 https://t.co/mH3klGwTWH
p60
aVLove getting to try new coffee from roasters located all over the U.S. courtesy of tradecoffeeco. Most recent choic\u2026 https://t.co/B5AhKHWPLv
p61
aVRT @kylehillman: And he is. By a country mile.\u000a\u000aI have seen a lot of posts lately saying these two men are the same - they are not...\u000a\u000a#Twi\u2026
p62
aVAccurate. https://t.co/rUL1tOvJ76
p63
aVQuite the day for @vdunayska and I at the Women\u2019s March to the Polls. We were proud to walk alongside State Senator\u2026 https://t.co/Bm82Z53cEz
p64
aVJust as, if not more important! Love seeing folks get out the word about @Karina4D49! https://t.co/rqEqVbNuPK
p65
aVAll @NASWILPAC endorsed candidates who deserve your vote in this election. Let\u2019s make sure we elect the folks who a\u2026 https://t.co/HOETXPBPLm
p66
aV@KwameRaoul sharing his story about how access to healthcare helped him fight cancer. #womensmarchchi #twill https://t.co/N9INxvRL3T
p67
aV@JBPritzker addressing @womensmarchchi attendees before we all hit the streets! #twill #MarchtothePolls\u2026 https://t.co/3bqsvizpni
p68
aVThis \U0001f447. \u000a\u000aWe have to get out there and ensure voters will show up. We cannot afford to sit on the sidelines this el\u2026 https://t.co/cmFnTDvXLX
p69
aVLoved my time working with this project while I was at @Illinois_Alma. Check out their new video explaining the imp\u2026 https://t.co/zHQ6uwxrNc
p70
aV@karenzgoda I would add that we must also build relationships with elected officials who will support our policy pr\u2026 https://t.co/bZuulFRhPF
p71
aVRT @jamietworkowski: i wish Kanye West wasn\u2019t famous and i wish Donald Trump wasn\u2019t President. They\u2019re both self-obsessed. Good leaders val\u2026
p72
aV@ashley_claire22 So jealous, have fun!
p73
aV@hannahmeisel Wowza.
p74
aV@CharlesELewisJr @suzannepritzker @CRISPontheHill @AlanDettlaff @newsocialworker @JillMil23734743 @MikeGent7\u2026 https://t.co/YTczIQCWYS
p75
aV@erezcohen Happy birthday!
p76
aVGlad to see my Congresswoman, @RepRobinKelly, on the @nasw PACE endorsement list for the 2018 cycle. \u000a\u000aNo surprise,\u2026 https://t.co/VfwotiX2p3
p77
aVSome solid Will County Dems and friends! https://t.co/5CRRHfskDv
p78
aV@jamietworkowski Been waiting too long for this!
p79
aVCalling Chicagoland social workers-@NASWILPAC will be marching alongside @KwameRaoul at the Women\u2019s March this Satu\u2026 https://t.co/6bSw5qLX9S
p80
aVYou would think a person with a great deal of power and a (hardworking?) staff around him, such as \u2066\u2026 https://t.co/l6WGwhojfu
p81
aVRT @RepRobinKelly: Suicide claims the lives of too many Americans. On #WorldMentalHealthDay, join me in spreading awareness that help and h\u2026
p82
aV@BruceRauner used to play hockey?! That might be the only connecting thread between us. Maybe he can join me for a\u2026 https://t.co/XwA4NYmBn9
p83
aVLoved the new @PodSaveAmerica opening which relayed the deadlines for voter registration based on your state. Nice\u2026 https://t.co/89UHRZmhQM
p84
aVThis guy \U0001f602 one of the best twitter users in the political realm. Definitely in the U.S. Senate. https://t.co/977Z68Iczy
p85
aVRT @DickDurbin: Imagine what a Democratic Senate majority will mean for the next Supreme Court vacancy, and then make a plan to vote this N\u2026
p86
aV@EpicElizabeth @HeadCountOrg You go girl
p87
aVRT @bradyfpeters: Say it with me, fellow white men:\u000a\u000a\u201cI have power, and I don\u2019t always use it responsibly. I can do better.\u201d\u000a\u000aYou don\u2019t hav\u2026
p88
aVRT @bendreyfuss: "I was hit by a car"\u000a"I believe you. Something happened"\u000a"I was hit by a car"\u000a"You have bruises. Internal injuries. You ar\u2026
p89
aVRT @AdyBarkan: 2 years ago today, @rachael_scar and I walked into the neurologist's office. She was carrying 4-month-old Baby Carl on her c\u2026
p90
aVRT @vlarendt: Today, 51 mostly white men will confirm a belligerent, partisan, accused sexual predator who publicly disrespects women to th\u2026
p91
aVRT @BrandenHarvey: If you aren't registered to vote yet, what are you doing?\u000a\u000aVoter apathy is the problem. Showing up, voting, and changing\u2026
p92
aV\U0001f447\U0001f447\U0001f447 https://t.co/59WSSiplsj
p93
aVThoroughly enjoyed the opportunity to speak about the importance of engaging in the political process with Aurora U\u2026 https://t.co/MGaG0ydKkb
p94
aVI had a great time at tonight\u2019s reception for @Laura4Illinois. It was inspiring to hear from Rep. Fine about her wo\u2026 https://t.co/BXhq2g3mkr
p95
aVRT @kylehillman: Perfect day to go walk for Democratic candidates who will help build a better Illinois. \u000a\u000aTake a couple hours out of your\u2026
p96
aVRT @ChrisMurphyCT: One copy of the FBI report. No more than an hour to review it. No ability for any follow up. Then a rushed vote.\u000a\u000aFor 2\u2026
p97
aVHaving candidates ask each other questions with the hope that it would produce meaningful dialogue was a nice idea...#twill
p98
aVWhat about a year and a half of love looks like on this wallet. Quality goods get better with age. \u000a.\u000aSwipe right f\u2026 https://t.co/wvaQouz36X
p99
aV@DrKristie Oddly enough, I didn\u2019t receive this message. Not sure how that happened but I\u2019ll consider myself lucky!
p100
aV@KwynnGonzPons This is awesome! Congratulations!
p101
aV\u201c...The hearing made clear that the smug and entitled young man of 1982 has grown into the smug and entitled middle\u2026 https://t.co/2sFJJ00KPZ
p102
aV@monaca_eaton @DrKristie I appreciate the value of specialized coursework in graduate school, but I think we could\u2026 https://t.co/guflFpLfPd
p103
aVThis is what I hope to change. \u000a\u000aIt\u2019s so frustrating that many social workers do not recognize how important their\u2026 https://t.co/gElEsYdXFb
p104
aVGood friends. Good beers. Good hockey. Good coffee.\u000a.\u000aIn other words, all the essentials. @ Chicago, Illinois https://t.co/hs8uud6bm9
p105
aVForgot to tweet this out yesterday, but knocked over 100 doors in the rain for State Representative Michelle Mussma\u2026 https://t.co/y6RuSijNXn
p106
aVThis isn\u2019t a parody account. She actually tweeted this. Disgusting. https://t.co/gyj0H7dzEK
p107
aVRT @NINDSdirector: Disturbing data. Chronic pain in 10% of those who die due to suicide. In these firearms used in over 50%.  Opioid overdo\u2026
p108
aVKnocked-on over 125 doors for Rep. @annamoeller this morning! Glad we were finally able to make our way out to Elgi\u2026 https://t.co/gkV5XpwdIW
p109
aVSo nice to meet @RepStratton5 at the Will County Democratic Central Committee dinner tonight. @NASWILPAC was proud\u2026 https://t.co/za33PeipZK
p110
aVRT @DanielBiss: I'm a white guy who's never been the victim of any assault. I'm basically witnessing the Kavanaugh nightmare from the most\u2026
p111
aVRT @bradyfpeters: When the president puts selfish, disgusting behavior on display\u2014 all while his coworkers are being put on trial for helpi\u2026
p112
aV@danpfeiffer This has been one of the most frustrating parts of this process.
p113
aVThank you, @RepRobinKelly. The lack of integrity shown by certain Senators throughout this process has been bafflin\u2026 https://t.co/j2sSmK91HF
p114
aVWow. https://t.co/P8VX6C9Ej3
p115
aVRT @danpfeiffer: The standard is not that the evidence shows that Kavanaugh is guilty beyond reasonable doubt, it should be that the Senate\u2026
p116
aVRT @KamalaHarris: Dr. Ford has passed a polygraph test and given the Committee the results. Judge Kavanaugh has not. She has called for out\u2026
p117
aVRT @PingTour: #GoUSA vs #TeamEurope\u000aHere's your chance for forged performance in #RyderCup colors.\u000a\u000aRETWEET for \U0001f1fa\U0001f1f8 \u000aLIKE for \U0001f1ea\U0001f1fa\u000a\u000aOne random\u2026
p118
aVRT @jonfavs: Just keep thinking about how today never had to happen. Republicans could\u2019ve replaced Kavanaugh with an equally conservative n\u2026
p119
aV@RelientCase Honestly. She should not be the one on trial.
p120
aVI want one person listening to Dr. Blasey Ford\u2019s testimonial to tell me that they do not believe her. The fact that\u2026 https://t.co/eLz57Pc2Gx
p121
aV@RelientCase Her opening remarks were heartbreaking.
p122
aV\U0001f447\U0001f447\U0001f447 https://t.co/vXJEHwod8O
p123
aVGood....counterpoint.....huh? Someone please explain to me how Mitch\u2019s \u201cDemocratic colleagues\u201d could possibly be at\u2026 https://t.co/3BUT2Y3vsA
p124
aVRT @DanielBiss: How can anyone suggest Kavanaugh's lies about high school drinking are no big deal?\u000a\u000aIf you're accused of being a burglar w\u2026
p125
aVRT @NateSilver538: I find Kavanaugh's extremely sweeping denials of having participated in any sort of untoward or inappropriate or illicit\u2026
p126
aVGreat time at @RepChrisWelch\u2019s fundraiser tonight. Rep. Welch is a strong advocate for the social work profession &amp;\u2026 https://t.co/6XHojFbQTX
p127
aVSadly I am not talented in either of these areas, but if you are, I would highly encourage you to apply for these o\u2026 https://t.co/axYtfwfYNF
p128
aVRT @Illinois_Alma: RT if #ILLINOISfall is life \U0001f60d\U0001f342 https://t.co/4GKVDWbZTj
p129
aV\U0001f602\U0001f602\U0001f602 https://t.co/GvUFAdGIzV
p130
aVRT @jonlovett: Garland couldn\u2019t get a hearing. Gorsuch was confirmed with Democratic votes. Are you Memento? https://t.co/lLWSsV0eDw
p131
aVUnbelievable. https://t.co/ll6CHEJt6V
p132
aVBusy weekend of canvassing for @NASWILPAC endorsed candidates. It was a great time volunteering for @BobMorganIL,\u2026 https://t.co/74jJQyHvKT
p133
aVRT @SenDuckworth: Heartbroken reading through these #WhyIDidntReport stories. To each survivor out there: you deserve better. You deserve t\u2026
p134
aVRT @ben_rosen: REPUBLICANS: who can be sure about what happened 36 years ago\u000a\u000aALSO REPUBLICANS: when the founding fathers put a comma in th\u2026
p135
aV@MatthewSoerens Wow. Talk about \u201ccivility\u201d, huh?
p136
aV@sisteringcu @UofISocialWork Great work!
p137
aVWow. https://t.co/3xG5VUck0i
p138
aVRT @jonlovett: Mistakes are for kids from prep schools. Abuse is rough housing. Boys will be boys. Try weed. Steal a car. Abort pregnancies\u2026
p139
aVRT @SenKamalaHarris: Don\u2019t be fooled. This will be the lowest ceiling for refugee admittance to the United States since the program was cre\u2026
p140
aVRT @briantylercohen: GOP: It doesn\u2019t matter if Al Franken was pretending to grope her years ago as a joke. It happened and he must resign!\u2026
p141
aVRT @TWLOHA: Day 7: Continue The Work\u000a\u000ahttps://t.co/pu1h1SQ9ty\u000a\u000a#NSPW18 #TomorrowNeedsYou https://t.co/NHupXrerDN
p142
aVSo stoked to get my first tradecoffeeco order today! It was tough to choose which coffee to order, with around 50 o\u2026 https://t.co/gpwkAQNtzF
p143
aVExample #1: I just had a conversation with a gentleman who lost a close friend to suicide a few weeks ago. I was ab\u2026 https://t.co/5HQqryEsDv
p144
aVBy donating to @TWLOHA\u2019s NSPW campaign, you can help support their efforts. You can donate here: https://t.co/k74x2KUD0d
p145
aVPeople like @rhsmith_, @themoshe, @EpicElizabeth, and @aaronbaccash (and more) continue to meet folks where they\u2019re\u2026 https://t.co/t6WCV0oEwb
p146
aVHeading to @RiotFest for the day to volunteer with my friends at the @TWLOHA booth! I love that this festival falls\u2026 https://t.co/HL191yWSYF
p147
aVThank you, @RepRobinKelly! I appreciate your willingness to fight the stigma surrounding suicide and share life-sav\u2026 https://t.co/FcpW6bj8B4
p148
aV@bradyfpeters I have the 7+, it\u2019s so weird at first but after a month, a regular iPhone feels like a miniaturized version \U0001f602
p149
aVRT @jamietworkowski: Friendly reminder that your vote matters. Puerto Rico deserves better. We deserve better. The world deserves better. W\u2026
p150
aVYes. If you care about #suicide and have taken part in #NationalSuicidePreventionWeek then you must also care about\u2026 https://t.co/UfzRU9nLUq
p151
aVWorld Suicide Prevention Day.\u000a.\u000aAs suicide loss survivors, we know that our voices have the power to cut through th\u2026 https://t.co/OVcia1nuXy
p152
aVRT @jamietworkowski: Yes. If we care about suicide, we have to also care about access to guns. If we\u2019re interested in saving lives, we have\u2026
p153
aVRT @TWLOHA: We created our #WorldSuicidePreventionDay video to say, \u201cTomorrow needs you.\u201d \u000a\u000a#TomorrowNeedsYou #WSPD18\u000a\u000ahttps://t.co/s0cQ0ma\u2026
p154
aVRT @matthaig1: Suicide isn\u2019t selfish. Suicide is normally death caused by the illness of depression. A final symptom. A collapse under unbe\u2026
p155
aVRT @bennytiche: Tomorrow needs us.
p156
aVToday is the start of National Suicide Prevention Week here in the U.S.\u000a.\u000aMy friends at @twloha are encouraging fol\u2026 https://t.co/IU1iOX5xWR
p157
aVRT @Indiana_GP: Colin Kapernick hasn\u2019t Kneeled at an NFL game in 2 years, he\u2019s just fighting racial injustice now... so what are y\u2019all real\u2026
p158
aVHad a great time canvassing for @Karina4D49 today! Karina is a @NASWIL PAC endorsed candidate, NASW-IL member and h\u2026 https://t.co/6mGoxG7Lb1
p159
aVRT @TWLOHA: Suicide is the leading cause of death among 15-29 year olds globally.\u000a\u000aMonday (9/10) is World Suicide Prevention Day. Together\u2026
p160
aV@millakat5 I literally saw the first photo with the windows and was like \u201cwhat the hell\u201d
p161
aVI lived right across the street from this coffee shop when I was at @Illinois_Alma \U0001f635 https://t.co/AzjCbFmSLE
p162
aV@youngbuckKeeg So sad man. One of my all-time favorites.
p163
aVRT @jamietworkowski: Just heard about Mac Miller. May we never get used to the news. If you\u2019re struggling, please ask for help. Sobriety is\u2026
p164
aV\u201c30 minutes of your time\u2014is democracy worth that?\u201d\u2014@BarackObama \u000a\u000aWe all have a responsibility to play our part, no\u2026 https://t.co/UDqkGSpRjE
p165
aV@ProfessorTD @UofISocialWork @DTarapowell Such a powerful speech, wish I was on campus for this moment!
p166
aVAs if I didn\u2019t miss being a student at @Illinois_Alma enough, I have to watch @BarackObama give a poignant speech o\u2026 https://t.co/S5E64eVp0q
p167
aVRT @DevanF91: A thread: reason why I chose to cut @Nike swoosh logo of my socks. https://t.co/3JFmRMgjVH
p168
aVRT @SenFeinstein: Roe v. Wade is "settled law" only until five Republican Supreme Court Justices overturn it. Brett Kavanaugh's statements\u2026
p169
aVRT @goldengateblond: Much as I enjoyed watching Marco Rubio send Alex Jones into a rage, in a fight between them, I'm rooting for a sinkhol\u2026
p170
aVRT @BrandenHarvey: WOW. Goosebumps. https://t.co/5fSLnMcUqv
p171
aVRT @CNN: Schools in the United States now have more security guards than social workers, according to a new study https://t.co/OHaRbLTTja h\u2026
p172
aVRT @CoryBooker: \u201cI am not anxious to be the loudest voice or the most popular. But I would like to think that at a crucial moment, I was an\u2026
p173
aVRT @NASWIL: #NASWIL Update: 2018 NASW-Illinois Chapter Statewide Awards https://t.co/NTkiAPET2Q
p174
aVFinally got around to taking some photos in our World Suicide Prevention Day gear from @twloha.\u000a.\u000aOne of my favorit\u2026 https://t.co/osp7OfDbxy
p175
aVRT @RyanLizza: I re-read all the speeches from McCain\u2019s funeral. Nobody attacked Trump. They *praised* honor, decency, character, bipartisa\u2026
p176
aVRT @gilbertjasono: Wow I obtained the full script of that Ryan Gosling Moon landing movie and conservatives are not gonna like this https:/\u2026
p177
aVIf anyone walks out of @SearchingMovie and proclaims that they predicted what would happen, you now know who is a liar.
p178
aVHonestly. \u000a\u000aI\u2019d rather have a candidate act like a normal teenager, having fun and chasing a dream, than to have so\u2026 https://t.co/C6OIz4bzOf
p179
aVGlad the leader of the free world skipped his middle school U.S. government class. https://t.co/GLDWi4YV5y
p180
aV@DanielBiss @jimbokosmo Do you know of any opportunities for a recent graduate with his Master\u2019s degree who is eage\u2026 https://t.co/wHKWiwTtk4
p181
aVRT @imanitrishawn_: "If I've learned anything in the last couple of years, I have learned thats it's alot easier to talk about loving peopl\u2026
p182
aVHalfway to my goal of raising $500 for @TWLOHA! Today only, each donation will be matched by the @NewportAcademy.\u2026 https://t.co/aSHLjCtZ2L
p183
aVRT @kylehillman: Sometimes you just have to ask, did you look at the client before emailing. This is one of those times.\u000a And yes, she miss\u2026
p184
aV@kylehillman Unreal response \U0001f602\U0001f602
p185
aVRT @jamietworkowski: Traded messages with a member of the LGBTQ community. They questioned my recent retweets about John McCain. i want to\u2026
p186
aVIt was great to meet my Congresswoman, @reprobinkelly, yesterday at her Beach Day Party. She was incredibly generou\u2026 https://t.co/p5HfrVCohN
p187
aVSo great. https://t.co/hXbl2cW4YB
p188
aVRT @MeghanMcCain: Please read my father's farewell letter to the country he loved so much - \u201cDo not despair of our present difficulties but\u2026
p189
aVRT @NewsAtIllinois: Many 18- to 24-year-olds lack financial literacy and money-management skills, says a new @UofISocialWork study \u2013 indica\u2026
p190
aVIt was great running into Illinois\u2019 next Attorney General, @KwameRaoul! https://t.co/CRBJSqcTaN
p191
aVBattling the heat for @RepRobinKelly\u2019s Beach Day party! https://t.co/Sz9jGjfYwZ
p192
aVRT @kylehillman: Conservatives are no doubt outraged and will be using the threat of white males with guns in their campaign ads right? ...\u2026
p193
aVRest In Peace, Senator McCain. https://t.co/MziLseERuJ
p194
aV@mae_lhe Thank you, Mae! Let your colleagues at @NAMICommunicate know! \U0001f602
p195
aVIf anyone is searching for a passionate, energetic and adaptable emerging professional, please do not hesitate to r\u2026 https://t.co/is9pe9n3nr
p196
aVOfficially completed with my Master of Social Work program and field placement with the \u2066@NASWIL\u2069. I\u2019m excited for\u2026 https://t.co/ZesDFJOrIM
p197
aVRT @NASWIL: Our signature bill this session became law today. College is now an option for at-risk foster youth in #Illinois.  Thank you to\u2026
p198
aVSuch a shame that we live in a country where this is a reality for so many. For most of us, we\u2019re one unfortunate e\u2026 https://t.co/K16yxl0XU8
p199
aVRT @Billy_DwyerIV: Let\u2019s help those struggling find the help they deserve. Consider joining me in giving up a morning\u2019s worth of coffee to\u2026
p200
aVRT @jamietworkowski: Everyone has an ache.
p201
aVOftentimes, not knowing where to look for help proves to be one of the greatest barriers for those struggling. Can\u2026 https://t.co/DFLWzRggA8
p202
aVRT @NIheartland: On the 22nd anniversary of TANF, it\u2019s clear that it\u2019s time to rethink how basic assistance and social safety net programs\u2026
p203
aV@RohlederWill Test it out on me \U0001f618
p204
aVSeems relevant? https://t.co/p3oIDthcnl
p205
aVRT @jonlovett: Manafort and Cohen share a cell. All Manafort wants is quiet. All Cohen wants is a friend.
p206
aVIs this a joke? https://t.co/K0jSx7pbxC
p207
aVAbsolutely brilliant and nuanced response. @BetoORourke respected the young man\u2019s question while firmly making his\u2026 https://t.co/9RLMy1eInL
p208
aV@rhsmith_ These are your three favorite scents?
p209
aV@EpicElizabeth @alex_n_j Stay away from those white cheddar Cheetos puffs. Dangerous.
p210
aVRT @ClintSmithIII: Today prisoners across the country are going on strike to protest for better living conditions, funding for rehabilitati\u2026
p211
aVLet\u2019s help those struggling find the help they deserve. Consider joining me in giving up a morning\u2019s worth of coffe\u2026 https://t.co/xKZGbNhuRb
p212
aVRT @natashakorecki: .@BarackObama's first video endorsement of the 2018 midterms goes to JB Pritzker in Obama's home state of Illinois. But\u2026
p213
aV\U0001f602\U0001f602\U0001f602 https://t.co/UmkrAyJZmQ
p214
aVPowerful statements in this article from @NASWILPAC endorsed @KwameRaoul.
p215
aV\u201cWe have communities that have not been invested in. We have communities where mental health services have been dep\u2026 https://t.co/E9Bud8LPLR
p216
aVRT @PodSaveAmerica: Be a voter. Save America. \u000a\u000ahttps://t.co/nVq2paZVin #votesaveamerica https://t.co/hVGtZscNYI
p217
aV@ClaireMBiggs @rhsmith_ @EpicElizabeth The sweetest. What a great family we have \U0001f64c\U0001f64c
p218
aV@ClaireMBiggs @rhsmith_ @EpicElizabeth Can I be the annoying younger sibling who asks you to drive me places so I c\u2026 https://t.co/UC48tcADCt
p219
aVJoin me as we fight to remind folks that hope and help are real. I'm attempting to raise $500 dollars that will go\u2026 https://t.co/D5vOop9LUe
p220
aVHelp if you can! https://t.co/e9VWjWl7IB
p221
aVRT @brhodes: Powerful words from Admiral Bill McRaven, a hard man for Trump to demonize: "Through your actions, you have embarrassed us in\u2026
p222
aVRT @danpfeiffer: I'm shocked to find out that on the 700th try trickle down economics still doesn't work https://t.co/CLIOp1rwnL
p223
aVRT @jamietworkowski: So sick of this man using \u201ccrazed\u201d and \u201ccrazy\u201d as insults. It is beyond offensive to the millions of people who strugg\u2026
p224
aVRT @EYPC_CPRD: Over the last 4 years, EYPC students have brought over 50 ordinances to City boards all over the state. Do you want to make\u2026
p225
aV\U0001f447\U0001f447\U0001f447 https://t.co/KaXMX056io
p226
aV\U0001f633 https://t.co/5B7D83zVRu
p227
aVRT @JamesConlon_: Being a man suffering with your mental health or mental illness doesn\u2019t make you any less of:\u000a\u000a- a man\u000a- a friend\u000a- a boy\u2026
p228
aVHad a blast at #campnortherly2018! Not much beats unlimited food and drinks while camping right next to the lake wi\u2026 https://t.co/iPf08vx5BM
p229
aVHad a blast at #campnortherly2018! Not much beats unlimited food and drinks while camping right next to the lake wi\u2026 https://t.co/ehiWtmABke
p230
aV@RelientCase Same
p231
aVRT @JBPritzker: Our mental health services have been reduced and people are going without the critical care they need \u2013 it\u2019s unacceptable.\u2026
p232
aV@RepRobinKelly He would rather criticize from a distance. That\u2019s easier than actually demonstrating empathy and att\u2026 https://t.co/ORtg0GZtn1
p233
aV@rosowski @jamietworkowski Pretty wild that it took this long for someone to develop a platform for that purpose \U0001f602.\u2026 https://t.co/XMSI80gwgw
p234
aV@SenSanders What an ingenious idea, Bernie. It\u2019s pretty wild what ideas are \u201ctoo radical\u201d \U0001f937\u200d\u2642\ufe0f
p235
aVRT @SenSanders: Maybe, just maybe, we should make sure our people are not dying because they lack health insurance before we start spending\u2026
p236
aV@jamietworkowski Not sure what a linktree is, but I like it.
p237
aV@PodSaveAmerica @danpfeiffer \U0001f602\U0001f602
p238
aV@EpicElizabeth @rebwilson_ @TWLOHA I will also be going with the long sleeve. #blessed #ILislongsleeveweatherallyear
p239
aV@briesteele Exciting times! I\u2019m still searching. What are your options?
p240
aVRT @kylehillman: This is Illinois' future. When we invest in these kids, the return is immense. Hopefully the Governor will sign #ILHB5122\u2026
p241
aV@RelientCase \U0001f914\U0001f914\U0001f914
p242
aVRT @ikebarinholtz: WHAT THE FUCK IS A SPACE FORCE JUST GIVE PEOPLE HEALTH CARE https://t.co/1O2qY8MQu2
p243
aVRT @danpfeiffer: I am would very curious see polling on borrowing billions of dollars to spend on a Space Force while cutting funding for h\u2026
p244
aVI just feel like there are easier ways to say \u201cI\u2019m not happy the United States isn\u2019t 100% white.\u201d https://t.co/qen1KYqkt2
p245
aVRT @HelenBrosnan: Heart exploding. These two are changing our country one town hall at a time, one neighborhood a time, one organizing ask\u2026
p246
aVRT @brianschatz: I\u2019m pretty sure we just go for both. https://t.co/S6pFVA0aRB
p247
aVRT @NASWILPAC: Biss bill tightening background checks on ride-share drivers becomes law https://t.co/5jrLl7QFhz
p248
aVRT @PodSaveAmerica: "The average age of a House Democrat right now is 65 years old... I don't think that they exactly see how rising income\u2026
p249
aV@marymdstanton @GregHinz Very solid points made, but the issue is kind of like the miscellaneous, unorganized drawe\u2026 https://t.co/fvPeXDvO5n
p250
aVRT @brhodes: I worked on the Obama campaign and we would never, ever, have held a meeting with a foreign power to "get information on an op\u2026
p251
aVWishing this weekend would never have to end \U0001f6e9\U0001f3a3\U0001f6e5 @ Manasota Key, Florida https://t.co/eYJaQyweg9
p252
aVIt\u2019s all downhill from here. One of the best days ever. #Redtide2018 @ White Elephant Pub https://t.co/bR4dBbGXMr
p253
aVThinking about how we are going to have to buy dinner because we didn\u2019t catch enough fish \U0001f62c\U0001f633 @ Englewood South https://t.co/RjwmvJuzPg
p254
aVOn the hunt for dinner. \U0001f988\U0001f420\U0001f41f\U0001f3a3\U0001f3a3\U0001f3a3 @ Englewood, Florida https://t.co/toz4lkj2pS
p255
aVHelp a girl out \U0001f602 https://t.co/ekJ373jYdN
p256
aVRT @greenhousenyt: Almost 80% of US workers live paycheck to paycheck\u2014As unions have gotten weaker, the share of income going to the top 10\u2026
p257
aVInteresting read. I think it\u2019s a fine line between serving for decades and becoming complacent with the status quo.\u2026 https://t.co/gpYQBgrxlE
p258
aVCasual Illinois politics \U0001f62c #twill https://t.co/LffjSBEH3p via @politico
p259
aVSuch good news! https://t.co/CwbbdKLGVn
p260
aVThe threads that bind our history as a country seem to always repeat themselves. \u000a\u000aReplace \u201cJapanese\u201d with \u201cMuslims\u2026 https://t.co/mTuCbgdtMn
p261
aVRT @VansWarpedTour: WARPED TOUR x @TWLOHA\u000aencourage, inspire, and get informed with To Write Love On Her Arms\u000a\U0001f4b5 profits go to treatment &amp; r\u2026
p262
aVRT @headachedoc: Thank you!!\u2026\u000a@RepEvanJenkins\u000a@RepBetoORourke\u000a@RepCohen\u000a@RepHuffman\u000a\u000aNewest House cosponsors of the bipartisan "#Opioids an\u2026
p263
aV@headachedoc @NIH What\u2019s the forecast look like for this legislation moving forward? Seems like  there has been an\u2026 https://t.co/Hs50qOauLf
p264
aVRT @NewsAtIllinois: According to a new study by @UofISocialWork professor Min Zhan, graduating college with student loan debt may hamper bl\u2026
p265
aVRT @HenriNouwen: Five lies of identity:\u000a1) I am what I have. 2) I am what I do. 3) I am what other people say or think of me. 4) I  am noth\u2026
p266
aVRT @MsPackyetti: RT if you can think of something worse. \u000a\u000aLike, I don\u2019t know, having to be on the receiving end of racism or something wil\u2026
p267
aVRT @PhilipRucker: Just in: Statement from NYT Publisher A.G. Sulzberger, who says he told Trump his \u201clanguage was not just divisive but inc\u2026
p268
aVRT @thedailybeast: "What we [Democrats] often lack are ideas\u2014goals\u2014with simplicity and clarity like Medicare for all or debt-free college t\u2026
p269
aVAbsolutely stupid. Let\u2019s take ten steps in the wrong direction. https://t.co/Mda73l73gV
p270
aVRT @politico: An offering of the best of this week\u2019s crop of cartoons, picked fresh off the Toonosphere https://t.co/pNzOGQfYp3 https://t.c\u2026
p271
aVRT @IMPACTHeartland: POVERTY DATA RELEASE: Our County Well-Being Index data, as well as data on indicators of poverty &amp; well-being at the c\u2026
p272
aVTrying to upload a 30 minute video on my 5-year old MacBook Pro. Add slow internet to the mix. What\u2019s going to happen?
p273
aVRT @brianschatz: In the next few weeks the Mueller probe is going to solve all of our THAT IS NOT HOW IT IS GOING TO WORK YOU GOTTA VOTE.
p274
aVIllinois Politics Becomes the Plaything of the Rich https://t.co/6f2tkhZRlp via @bettergov
p275
aVRegarding Scenario 3: How do emerging social workers articulate their unique skill set, leveraging these skills in\u2026 https://t.co/Ev5tGJvXOn
p276
aVNot only is the data fascinating, but we are also getting an lesson in Excel \U0001f64c\U0001f64c #ILPoverty
p277
aVGreat information being shared today. #ILPoverty https://t.co/1OTvVWoHWC
p278
aVRT @newsocialworker: Learn about the National Social Work Voter Mobilization Campaign and how you can get involved at this webinar on Augus\u2026
p279
aVRT @brianschatz: There is nothing extreme about wanting everyone to have health care and education, preventing the planet from warming up,\u2026
p280
aV\u201cWhile painting a broadly positive picture, the Fed\u2019s well-being survey also noted that one in four adults feared t\u2026 https://t.co/sS1IzIWtKr
p281
aVRT @MsPackyetti: My friend texted all of us to thank for being her friend and tell us she loved us. \u000a\u000aWhile she hid from a shooter in the b\u2026
p282
aV@rhsmith_ I\u2019m the same way lol and getting distracted by all of the things I find along the way
p283
aV@rhsmith_ The people who say back to back have to be lying
p284
aVOh. My. @TigerWoods. #TheOpen2018
p285
aVSurvived the last @vanswarpedtour date to ever pass through Tinley Park! Glad to see some familiar faces and thankf\u2026 https://t.co/fY6NHz0Nqh
p286
aVLast Warped Tour date with @twloha! https://t.co/KdZDnwmJIy
p287
aVNothing like 60 pounds of @twloha merch to signal the last time I\u2019ll get to volunteer at @vanswarpedtour! Hoping th\u2026 https://t.co/FU8HDTQvI6
p288
aVRT @jonfavs: Thanks to everyone who\u2019s listened and said such kind things about the first four episodes of https://t.co/t6D9XGbrcf.\u000a\u000aIf you\u2026
p289
aVRT @becreativesouls: Creative Souls is officially a registered business in Illinois! Click the link in the bio to help us reach our fundrai\u2026
p290
aVRT @AASWSWorg: This is great reasoning -- scholarly research in social work truly does lead to "policy that reflects the interests of the p\u2026
p291
aVRT @StephenAtHome: I can't believe they\u2019re just inviting Putin into the White House. At least the Trojans made the Greeks use a horse.
p292
aVRT @TIME: Sen. Jeff Flake called the Helsinki Summit an 'Orwellian moment' https://t.co/iwTmgpbH6N https://t.co/V6cbsjAu8H
p293
aVRT @brianschatz: Or we could make this available to everyone though something called public policy. Which is what the Congress does when -\u2026
p294
aVRT @elizabethforma: A powerful message from @BarackObama in celebration of what would be Nelson Mandela\u2019s 100th birthday. The fate of the w\u2026
p295
aVPowerful piece exploring the common factors that contribute to female incarceration. \u000a\u000a\u201cWhen all of your choices ar\u2026 https://t.co/VgsMsUl8ik
p296
aVRT @DanielBiss: Thread: This @dylanmatt piece has important stuff in it but he's missing the fact that most critics of @Ocasio2018 who cite\u2026
p297
aV@jdouglaslittle @politico \U0001f602
p298
aVHappy birthday to my buddy Alan (nburkhardt33) from the Hangover movie franchise \U0001f918\U0001f918 @ Turkey Run Canoe &amp; Camping https://t.co/ehyT9jONLP
p299
aVRT @DanielBiss: Serious question: is there a single human on this planet who is not a Republican member of Congress and who "accepts the pr\u2026
p300
aVRT @RepRobinKelly: Instead of sending tweets about #TrumpPutin, @HouseGOP could:\u000a 1) Protect the independent Meuller investigation,\u000a 2) Sto\u2026
p301
aVBut who am I to say. Hoping the @GOP will FINALLY stand up to their leader and put their allegiance to the U.S. fir\u2026 https://t.co/giylFrdRXQ
p302
aVIt\u2019s hard for me to come to a conclusion other than he is either a) a coward who cannot navigate conflict b) compro\u2026 https://t.co/5Nd8wpXtfd
p303
aVHe bends over backwards for foreign dictators, and literally cannot condemn the atrocious actions and behaviors of\u2026 https://t.co/gLiUezDBE7
p304
aVProcessing my thoughts about the #HelenskiSummit yesterday. First and foremost, regarding @realDonaldTrump\u2019s stance\u2026 https://t.co/LC02h6PgTF
p305
aV\U0001f447\U0001f447\U0001f447 https://t.co/AE1BkDaoqE
p306
aVRT @matthaig1: It is okay to dog ear pages. It is okay to draw in books. Doodles. Margin notes. Highlights. Books are to be interacted with\u2026
p307
aV@matthaig1 @nathanielroyroy \u201cA well-worn book is a well-loved book\u201d
p308
aVRT @Leahgreenb: Republicans on Trump's press conference: https://t.co/qQ2RhOJLVe
p309
aVRT @JBPritzker: .@BruceRauner has sat silently on the sidelines as Donald Trump has undermined us at every chance. When will he stand up fo\u2026
p310
aVRT @NathanHRubin: Cue Paul Ryan: \u201cI didn\u2019t watch the Press Conference\u201d\u000a\u000aCue Mitch McConnell: \u201cI don\u2019t read the President\u2019s tweets\u201d \u000a\u000aCue @G\u2026
p311
aVRT @DanielBiss: If you play any role in the federal government and you don't like what just happened in Helsinki and you're talking about t\u2026
p312
aVRT @danpfeiffer: Things Republicans could do instead of send sad tweets\u000a1. Pass legislation to protect the Mueller investigation\u000a2. Subpoen\u2026
p313
aVRT @CrisisTextLine: \u201cMental health and mental illness are not synonymous. Mental health should be considered as a part of your personal hea\u2026
p314
aVMakes my Monday morning train ride so much better \U0001f44c\U0001f3fb @jonfavs @crookedmedia https://t.co/nFXTG9DQpc
p315
aVRT @SaltInMyTea: There's a thread going around of people having no fucking clue who the fuck they're talking to so I'm gonna share some of\u2026
p316
aVAbsolutely great piece about my buddy, Josh. Excited to see what he can do with @IlliniBaseball! https://t.co/riijMasbMM
p317
aVSaid goodbye to UIUC today as I finally moved all of my crap out of my apartment. The last year went by way too fas\u2026 https://t.co/vAPkCLBu4Q
p318
aVRT @EpicElizabeth: Just a friendly reminder, if someone you know says they\u2019re not drinking, respect that. Don\u2019t try to challenge them or qu\u2026
p319
aVRT @KamalaHarris: It\u2019s easy to feel overwhelmed by the challenges we face. But progress does not happen overnight. It may be painful and ev\u2026
p320
aVRT @brianschatz: If you are somehow still undecided about who should run the legislative branch next year please turn on the TV right now a\u2026
p321
aV@brianschatz Could not believe the disrespect demonstrated by republicans in the hearing. Complete partisan bullshi\u2026 https://t.co/JONe7ls4qz
p322
aVRT @ScottConger: Ages of the Founding Fathers on July 4, 1776:\u000aJames Monroe, 18\u000aAaron Burr, 20\u000aAlexander Hamilton, 21\u000aJames Madison, 25\u000aTho\u2026
p323
aV@Jna_xoxo I hate people
p324
aVReminder: people are not \u201calways\u201d what they\u2019re stereotyped to be. It\u2019s important to recognize the common threads be\u2026 https://t.co/axr4XOuD5j
p325
aVRT @ezralevin: Former congressional staffer here. I'm seeing a few different tactics/strategies being thrown out to #SaveSCOTUS, and a fair\u2026
p326
aVExactly. I almost spit out my drink after hearing that line. https://t.co/O5H1L0PXRd
p327
aVRT @CNN: BREAKING: All 12 boys and their coach from the youth soccer team trapped in a flooded Thai cave for nearly three weeks have now be\u2026
p328
aV@mae_lhe Thanks friend!
p329
aVA member of my graduate cohort and all around awesome guy! https://t.co/mkAnwozxnx
p330
aV23. The year of Dad aprons.\u000a.\u000aThankful for another year and excited for the one ahead. @ Beecher, Illinois https://t.co/WqToOTb8on
p331
aVJust saw a guy rocking a tan suit, with cigar in mouth, strutting through the streets at 12PM on a Monday. Seemed l\u2026 https://t.co/eHsrixA8J2
p332
aVCouldn\u2019t ask for a better way to end the weekend and my last day of being 22. \U0001f4f8: the old lady who pointed the camer\u2026 https://t.co/OhtF9HxbrA
p333
aV@EpicElizabeth Someone should have hired you to run a parody warped account
p334
aVRegardless of what you think of @Ocasio2018, she might bring the whole damn political system down with people tryin\u2026 https://t.co/6cGCrw6vMo
p335
aVRT @ASlavitt: Poverty is a leading cause of illness; illness is a leading cause of poverty. https://t.co/VpOWb9Jz9C
p336
aV@ClaireMBiggs @rhsmith_ #thereturn?
p337
aVRT @christinaperri: i still cant believe the president of the united states is just a straight up SHITTY DUDE. like at his core, on all lev\u2026
p338
aV@ClaireMBiggs @RAINN What a piece of shit. He never fails to disgust me more than I thought was possible.
p339
aVRT @IllinoisWorking: Let\u2019s just take a moment to recognize that the most vulnerable incumbent governor had to clarify his \u201cdon\u2019t vote for t\u2026
p340
aV@kylehillman Right? Only took like 3 statements to make it clear to he doesn\u2019t approve of people voting for a literal nazi.
p341
aVNothing like spending too much time in the sun and falling asleep before the fireworks \U0001f62c\U0001f937\u200d\u2642\ufe0f\U0001f1fa\U0001f1f8 @ Beecher, Illinois https://t.co/wRHrLsCjbd
p342
aVAsleep before midnight on #NYE and asleep before fireworks on the 4th. Does this officially secure my old man status?
p343
aVRT @brhodes: This is just a big lie. It's not true. Yet I'm guessing that this context will be missing from Trump's propaganda media machin\u2026
p344
aVSocial work is booming worldwide \u2013 because it's proven to work | Rory Truell https://t.co/Ozy2AbhzdM
p345
aV@EpicElizabeth Vap lyfe bruh
p346
aVBecause every person in Iran must have been out to get us, huh? https://t.co/RgrIr0w4u0
p347
aV@MatthewSoerens @JennyYangWR Awesome! I\u2019m sure you both have some great insight into the current challenges.
p348
aV@MatthewSoerens @JennyYangWR What\u2019s new to this edition?
p349
aVRT @jonlovett: This is really good. https://t.co/aJrubAQjea
p350
aVVery decent people on all sides. https://t.co/8NSFgJdoT2
p351
aVWatched a lady struggle to back into a parking spot at the train station for approximately five minutes. She ended\u2026 https://t.co/9o1qULCisN
p352
aVA weekend filled with memorable moments. I can\u2019t wait till the next trip! \U0001f37a\U0001f37a\U0001f3d6\U0001f3d6 @ Turkey Run and Shades state parks https://t.co/9ovUu3EgDd
p353
aVRT @nowthisnews: President Obama's former speechwriter talked about what gave him hope even in the face of tragedy and cynicism \u2014 and it's\u2026
p354
aVRT @SenSchumer: In 2016, Senate Republicans said that the American people deserve an opportunity to speak on Supreme Court nominees. \u000a\u000aNow\u2026
p355
aVWow. This is how you put forward your  message. https://t.co/jDVmzqu9H7
p356
aVRT @nasw: Get involved in the @nasw policy development process. There are currently nine NASW policy statements are up for review. We invit\u2026
p357
aVRT @DanielBiss: You know how politicians and parties and pundits usually overlearn the lessons of the most recent events? Let's hope everyo\u2026
p358
aV@ashley_claire22 @Illinois_Alma 9 months wasn\u2019t either!
p359
aVRT @davidaxelrod: As one after another 5-4 rulings of this SCOTUS on voting rights, abortion rights, the travel ban and more are announced,\u2026
p360
aV@WesleyEpplin and @TiffNFord facilitated a great discussion on health equity tonight. Always important to recognize\u2026 https://t.co/Qft6D2S78E
p361
aVRT @StephenAtHome: If it walks like a Muslim ban and quacks like a Muslim ban, then this Supreme Court decision is ducked up.
p362
aV@priaribi @danpfeiffer The footnotes were some of the best I\u2019ve ever read \U0001f602
p363
aVYou know you\u2019re getting closer to adulthood when you\u2019re genuinely excited that your new, full-size umbrella gets de\u2026 https://t.co/aA6x249qXH
p364
aVRT @cameron_kasky: To the people who follow me, whether it be in support, in respectable disagreement, or in pure callousness- \u000a\u000aWake up to\u2026
p365
aVRT @natweewriter: to say "I'm not political" is a privilege revealing you haven't had your very existence politicised for you
p366
aVRT @brianschatz: I just heard about a restaurant kicking Sarah Sanders out of a restaurant and it\u2019s got me thinking that Democrats have to\u2026
p367
aVDuring prime time TV, too. Hopeful that many folks will stumble upon this special and leave with new knowledge.
p368
aVSo so glad to see @CNN having a conversation about the many aspects of suicide. They\u2019ve brought together suicide lo\u2026 https://t.co/s7amCFa8Pp
p369
aV@jamietworkowski @CNN So glad @CNN is having this conversation during prime time tv.
p370
aVWell, I wonder why anyone would possibly think that? https://t.co/H4NdDb3m2S
p371
aVRT @nasw: #NASW calls on the administration to clarify its questionable executive order and present the American people with a coherent pol\u2026
p372
aVRT @nasw: Executive order from @realDonaldTrump deeply flawed. @nasw demands more humane, coherent plan that addresses treatment of 2,300 t\u2026
p373
aVAbout halfway through @danpfeiffer\u2019s \u201cYes We (Still) Can\u201d and I love it. It is written in such a way that I imagine\u2026 https://t.co/CaAYR7IONi
p374
aV\U0001f633 https://t.co/rH195apHcB
p375
aV@vdunayska and I joining the #shadesformigraine\u2026 https://t.co/8OzptOs72U
p376
aVRT @BrandenHarvey: \u201cAmerica is great because she is good. If America ceases to be good, America will cease to be great.\u201d \u2014Alexis de Tocquev\u2026
p377
aVRT @jamietworkowski: Stumbled upon this a few hours ago. Please stay alive. Magic will find you. Life is worth living. Keep going. https://\u2026
p378
aV@EpicElizabeth Sheesh
p379
aVRT @RepRobinKelly: We can\u2019t let @realDonaldTrump off the hook just for ending his cruel and immoral program. There are still NO plans to re\u2026
p380
aVRT @EYPC_CPRD: Here at the EYPC team, we are mourning the loss of one of our beloved team members BJ Roth. BJ was a valued member of the EY\u2026
p381
aV@bradyfpeters I feel this way too much
p382
aV@BrandenHarvey \U0001f602\U0001f602\U0001f602
p383
aV@headachedoc @NIH Great news!
p384
aVRT @nasw: NASW strongly opposes the @realdonaldtrump policy of arresting immigrant adults and separating them from their children at the bo\u2026
p385
aVRT @SenatorDurbin: To my Republican colleagues: Be unafraid of what Breitbart will say tomorrow. Be unafraid what right-wingers\u2019 are going\u2026
p386
aVThank you, @RepRobinKelly! https://t.co/qeUvhyIGer
p387
aVRT @nasw: The @realDonaldTrump administration policy of separating immigrant children from their families is malicious and unconscionable.\u2026
p388
aVRT @RichStearns: I don\u2019t care where you stand on immigration America - but tearing young children out of the arms of their mothers  and the\u2026
p389
aVRT @NASWIL: Tell Governor Rauner to sign HB 5122! This bill was one of the major legislative initiatives of the #NASWIL chapter this sessio\u2026
p390
aVRT @chrislhayes: Currently, the Trump administration is arguing that its family-separation policy:\u000a\u000a- is a deterrent\u000a\u000a- is biblically compl\u2026
p391
aVRT @NPR: Pediatricians and immigrant advocates are warning that separating migrant children from their families can cause "toxic stress" th\u2026
p392
aVRT @jaketapper: The UN High Commissioner for Human Rights \u201cexpressed deep concern over recent policies adopted by the United States that le\u2026
p393
aVRT @jamietworkowski: If we care about mental health, then we have to also care about about the children crossing the border. This is trauma\u2026
p394
aVRT @espn: "I don't think any disease is gonna take this one away from him."\u000a\u000aT.J. Oshie celebrating a championship with his father who is b\u2026
p395
aVRT @SportsCenter: BACK. TO. BACK.\u000a\u000aBrooks Koepka becomes only the seventh golfer in 115 years to win consecutive U.S. Open titles. https://\u2026
p396
aV@TWLOHA These are rad.
p397
aVRT @davidaxelrod: Good for @FLOTUS!\u000aNow, if only she knew someone in a position of influence! https://t.co/6h4SsBMUUG
p398
aVHappy Father\u2019s Day to big Bill! Glad he\u2019s still\u2026 https://t.co/JddNwt1GVV
p399
aVRT @jamietworkowski: To those with no pictures to post. To those recovering from his absence. To those recovering from his presence. To tho\u2026
p400
aVSolid pool day with the fam. \U0001f4f8: @vdunayska @\u2026 https://t.co/v6k17dewir
p401
aVRT @jeremycowart: I really try to shut up about politics and keep my head down &amp; create beautiful things in response. But Trump blaming Dem\u2026
p402
aVYeah..that makes sense. https://t.co/TEjRZ0UEOk
p403
aVRT @johngreen: "For I was hungry and you gave me something to eat. I was thirsty and you gave me something to drink. I was a stranger and y\u2026
p404
aVRT @ClintSmithIII: Good morning to everyone except for those saying the World Cup is a distraction from more important issues. I sincerely\u2026
p405
aVRT @krassenstein: Note to America's free press. Once again the Playboy White House reporter @BrianKarem showed us all how the press should\u2026
p406
aVRT @JSRichman: Thrilled to announce that I'm not being honored for any reason. Also delighted to share that I've not published anything rec\u2026
p407
aVRT @jonfavs: The state of New York suing the president and his children for breaking the law deserves SO MUCH MORE attention than a DOJ Ins\u2026
p408
aVSeriously \U0001f447\U0001f447. I\u2019m not sure where I\u2019d be if I never had the opportunity to work alongside the fine folks at @TWLOHA. https://t.co/vhqVLTyZvr
p409
aVRT @davidaxelrod: I admire \u2066@SallyQYates\u2069 for sharing the story of her dad\u2019s losing battle with depression.  The more we share our stories,\u2026
p410
aVRT @CBSThisMorning: According to the CDC the rate of suicide in the U.S. rose nearly 30 percent between 1999 and 2016. @cbsthismorning spok\u2026
p411
aV\U0001f602\U0001f602 https://t.co/Dj60C5PVwG
p412
aVRT @ProudResister: 97% of America supports #UniversalBackgroundChecks.\u000a\u2014 GOP refuse to vote on it.\u000a\u000a83% of America supports #NetNeutrality.\u2026
p413
aVRT @brianschatz: There is a petition circulating in the House of Representatives to allow a floor vote to save #Netneutrality . It\u2019s got ar\u2026
p414
aVRT @danpfeiffer: SAD TWEETS ARE NOT CHECKS OR BALANCES https://t.co/lPyDK379EH
p415
aVRT @davidaxelrod: I don\u2019t say this casually:\u000aAt what point do we ask, Is the @POTUS off his rocker?\u000ahttps://t.co/rX2H78pdrU
p416
aVAbout to see Hereditary. Already scared by the hype. Updates to follow. Wish @VDunayska and I luck. \U0001f633
p417
aVRT @brianschatz: Whatever your political party or your views on the size of government or social issues or foreign policy or Roseanne or th\u2026
p418
aVRT @mae_lhe: 1. Please learn to report safely on suicide. Putting \u201ccommitted\u201d and \u201csuicide\u201d next to each other criminalizes the act. https:\u2026
p419
aVRT @anamariecox: Once in the midst of a major depression, I was crying (I thought softly) to myself on the F train; it was crowded. Someone\u2026
p420
aV@davidaxelrod As a fellow suicide loss survivor, I appreciate your continued advocacy efforts. You\u2019re a powerful voice on this issue.
p421
aVRT @davidaxelrod: Now, Anthony Bourdain.  How terribly sad!\u000aPlease, please, let us treat mental illness, depression and suicide as health i\u2026
p422
aVToday marks 5 years since we lost my sister\u2026 https://t.co/74g23sjail
p423
aV\U0001f605 https://t.co/GBhRTY9Ogj
p424
aVWe said goodbye and I mentioned that I would stop by the next time I was in the area. \u000a\u000aJust another reminder of ho\u2026 https://t.co/eLMBPFs6hD
p425
aVFound out today that a woman I worked alongside for a brief period of time passed away as the result of a severe ca\u2026 https://t.co/th56TglHYx
p426
aV@RachelKayTutor Thanks for sharing!
p427
aV@RepRobinKelly I appreciate your response Representative Kelly! Thank you for prioritizing the health of folks in I\u2026 https://t.co/UWMPZkf7dj
p428
aVRT @RepRobinKelly: Hi @Billy_DwyerIV! As a counselor, I know that our system fails too many. I'm working to expand access to care, destigma\u2026
p429
aV@stopthistrain28 Appreciate you sharing!
p430
aV@LookingAtLilacs Appreciate you reading and sharing.
p431
aV@TheChristyD Thanks for your kind words. I don\u2019t know if rationalization is the right word for me, it\u2019s more like a\u2026 https://t.co/PJZJVjx3XL
p432
aV@mollie_grace Thanks for sharing! Sorry for all of the typos \U0001f633
p433
aV@bkindngood @ashley_claire22 @SenatorDurbin @SenDuckworth @RepRobinKelly Thanks for reading them!
p434
aV@chizzzzo @jamietworkowski Thank you for your kind words.
p435
aV@lyricallyrose @jamietworkowski Appreciate your kind comment. Thanks for taking some time to read this thread.
p436
aV@TaraCheyanne Appreciate your kind words. I\u2019ve written about it before, but I\u2019ve found hope in the words of others\u2026 https://t.co/UvRoXoYBWB
p437
aV@PaulNienow @jamietworkowski Thanks Paul! Like many of the tough issues facing the U.S., we ride the swell of emoti\u2026 https://t.co/tcMqPfC7LC
p438
aV@ashley_claire22 @SenatorDurbin @SenDuckworth @RepRobinKelly Appreciate this. You\u2019re just as strong an advocate! I\u2026 https://t.co/HdoLChpxwN
p439
aVI\u2019m curious to see what my elected officials, @SenatorDurbin, @SenDuckworth, and @RepRobinKelly  are willing to do\u2026 https://t.co/nReGxcyPAc
p440
aVAll in all, this thread is to simply state: we need action. As a suicide loss survivor, I\u2019m tired of hollow words.\u2026 https://t.co/9uRowcLOXy
p441
aVThen, we should strengthen public and private social services agencies around the country who provide direct servic\u2026 https://t.co/Aa0W2L20QS
p442
aVHow can we change this cycle? I\u2019d be lying if I said I had the answers. A good start would be to pour resources int\u2026 https://t.co/jvHtUSaDzY
p443
aVWhile these words are comforting, in the end, they are just words. But until we put the necessary resources into ex\u2026 https://t.co/GabZyyFup4
p444
aVThis leaves me thinking. As people tend to be more prone to react, rather than be proactive, we are left once offer\u2026 https://t.co/QdipU5ZkBP
p445
aVWith all the talk of Kate Spade\u2019s life and death today, I\u2019ve been looking for a way to chime in. Her suicide comes\u2026 https://t.co/cByybXgl9h
p446
aVRT @ParkerMolloy: Some good people let me use their good tweets in an article about Kate Spade, mental health, and how we talk about suicid\u2026
p447
aVRT @mae_lhe: Hey @nytimes: PLEASE PLEASE PLEASE do not report the method of death. It\u2019s irresponsible reporting and harmful to those grievi\u2026
p448
aVRT @ClaireMBiggs: I know so many people relate to the idea she apparently expressed - not wanting to compromise the image she had built or\u2026
p449
aVRT @jamietworkowski: Every suicide is awful news, whether we recognize the name or not. My heart goes out to Kate Spade\u2019s family and friend\u2026
p450
aVRT @joelockhart: Official statements from the President used to be serious thoughtful expressions of national interest.  Now they are child\u2026
p451
aV\U0001f605 https://t.co/yggLEszmAQ
p452
aVRT @800273TALK: "Suicide does not define someone. My brother was a lot of things, but here is what he was not." https://t.co/0cBpq55AQy
p453
aVRT @AlisonMalmon: 15 years ago when I started AM no one was talking about mental health.The first time I heard the word suicide was when my\u2026
p454
aVRT @SenDuckworth: Glad to see Illinois lawmakers ratify the #ERA &amp; affirm that women should receive the same rights &amp; protections under the\u2026
p455
aVRT @JoeBiden: Last year, Virginians showed up to elect leaders who believe health care is a right, not a privilege. As a result, hundreds o\u2026
p456
aV@themoshe is one of the best of us! The evolution of his hair isn\u2019t too shabby either! https://t.co/zVLNOxqy2W
p457
aVRT @JBPritzker: I applaud the state legislators who took a historic stand today in support of equality for all and ratified the Equal Right\u2026
p458
aVRT @ILSenDems: Last night the House joined us in voting for the ratification of the Equal Rights Amendment. One state to go! #ERANow #ERAIl\u2026
p459
aVRT @brycetache: An open letter to all journalists everywhere:\u000a\u000aDon\u2019t let him define collusion. Or obstruction. Or bigotry. Don\u2019t let him de\u2026
p460
aVRT @faithchoyce: *Michelle Wolf tells clean, well-crafted joke at an event where she was hired to do comedy*\u000a\u000aConservatives: "FIRE HER!!!"\u2026
p461
aVRT @nasw: NASW supports Grand Challenges for Social Work. Read latest issue of Grand Challenges e-newsletter UP! Learn about updates on act\u2026
p462
aVRT @priaribi: PAY YOUR INTERNS: "Conservatives are building an army of fired-up young people. How? By offering them salaries.\u201d (via @HuffPo\u2026
p463
aVRT @kylehillman: Congrats to the bill sponsors Sen. @senatorcastro and Rep. @RepChrisWelch after HB5122 passed the Illinois Senate. \u000a\u000aTruly\u2026
p464
aV@mae_lhe Happy birthday!
p465
aVRT @davidaxelrod: Once again, he refuses to do what his post requires and condemn a nakedly racist Tweet, this from a supporter he wholehea\u2026
p466
aVRT @bcsproul: In Roseanne\u2019s defense, it\u2019s hard to know the difference between racism that gets you fired versus racism that gets you electe\u2026
p467
aVRT @headachedoc: There are so many conflicting claims about the risks of prescription #opioids.\u000aThese are the most reliable estimates that\u2026
p468
aVRT @jduffyrice: Now that we\u2019re all on twitter because of this game, I am making a public service announcement: PLEASE STOP SHARING THAT STO\u2026
p469
aVHow hard is it for him to just say \u201cthank you to active and retired military\u201d without going into his pitch like he\u2019\u2026 https://t.co/vlZl2074Bq
p470
aVRT @travishelwig: Inventing a new punctuation mark between period and exclamation mark to show excitement without seeming insane. \u000a\u000aIt look\u2026
p471
aVRT @headachedoc: .@NIH funding coded as "Migraines" rose $4M ($18 to $22M) from 2016 to 2017.\u000aGreat, right?\u000aActually, $3,540,601 of the 201\u2026
p472
aVRT @headachedoc: .@PhRMA funded study projects that #CGRP drugs in the US will save $396B indirect costs / 10 years, and avoid 374 million\u2026
p473
aVRT @StephenAtHome: South Korean official response: \u201cWe are attempting to make sense of what, precisely, President Trump means.\u201d\u000a\u000aWelcome to\u2026
p474
aVRT @RepAdamSchiff: False statements about wiretaps at Trump Tower.\u000a\u000aFalse statements about unmasking.\u000a\u000aFalse statesments about a political\u2026
p475
aVDon\u2019t think democrats are doing any of this?? https://t.co/eKqaXLVmiA
p476
aVRT @jonfavs: The new Trump policy of separating immigrant children from their parents is barbaric. It is nauseating. It is un-American. \u000a\u000aP\u2026
p477
aVRT @Weinsteinlaw: It\u2019s a sad day in America when we ban professional athletes from protesting peacefully before we ban the sale of assault\u2026
p478
aVRT @matthaig1: Mental health is not a niche subject for a few depressed people. Mental health is everyone. Mental health is what we all hav\u2026
p479
aVRT @AdyBarkan: Prediction:\u000a\u000aThis season, some creative NFL players will find a way to protest white supremacy while standing. https://t.co/\u2026
p480
aVRT @DickDurbin: It\u2019s abysmal that this Administration is admitting the fewest amount of refugees since World War II. I will never stop figh\u2026
p481
aVSo excited for the @GoldenKnights and @Capitals #StanleyCupFinal! History in the making.
p482
aVRT @alyssalimp: The airport is a lawless place. 7am? Drink a beer. Tired? Sleep on the floor. Hungry? Chips now cost $17
p483
aVHate that I can\u2019t edit tweets \U0001f644 *only one today
p484
aVRT @davidlondon: You can be pro gun AND pro gun control.\u000aYou can support Black Lives Matter AND your local police.\u000aYou can be religious AND\u2026
p485
aV@EpicElizabeth @chelseyis_ \U0001f602\U0001f602
p486
aVRT @NathanHRubin: Register every gun.\u000a\u000aConduct a background check on every gun purchase.\u000a\u000aHold gun manufacturers liable if their gun is use\u2026
p487
aVWhat a powerful presentation by @ErinMerryn today at the @NASWIL\u2019s School Social Worker Conference today. Just goes\u2026 https://t.co/BDG1MnhZnk
p488
aVRT @NASWIL: #NASWIL Photo: Erin Merryn, founder of #erinslaw, presenting the keynote presentation, Voice for the Voiceless: Becoming an Adv\u2026
p489
aVRT @TVietor08: This is crossing a massive red line. Trump is forcing DOJ to conduct a politicized investigation - something he himself conc\u2026
p490
aVRT @cameron_kasky: Feel pain, grieve, be hurt and embrace it... but never give up hope. Things will be better. The world will be better.
p491
aVRT @CoryBooker: Santa Fe High School deserves better. \u000a\u000aALL AMERICA\u2019S CHILDREN DESERVE BETTER. \u000a\u000aWe've become a nation where our kids feel\u2026
p492
aVRT @jamietworkowski: In real life, those who die by suicide do not come back to help us answer the questions that surround their death. The\u2026
p493
aVRT @jamietworkowski: If you aren\u2019t sure about watching #13ReasonsWhy, my advice would be to wait. If you decide to watch it, watch it with\u2026
p494
aVRT @ClintSmithIII: It\u2019s easy to dismiss what Trump said as nonsense &amp; it\u2019s easy to see discussion about its potential impact as hyperbolic,\u2026
p495
aVRT @ClintSmithIII: When the president uses dehumanizing language about entire groups of ppl it can\u2019t be understood only as offensive, but a\u2026
p496
aVRT @JoeBiden: Guys, if you see one of your classmates trying to take advantage of a woman who did not or could not consent, you must step i\u2026
p497
aVRT @EYPC_CPRD: This is what the EYPC program ultimately boils down to. https://t.co/luEsF8Ik8p
p498
aVRT @kbnoswag: Sweat drips from my forehead as I painstakingly edit a picture of me and my mom on the beach 4 summers ago. I exert every oun\u2026
p499
aVRT @AbdulElSayed: This #MothersDay let\u2019s remember that if we really want to support Moms, let\u2019s fight for:\u000a\u000a\u2705 Paid family leave\u000a\u2705 Paid sick\u2026
p500
aVRT @jamietworkowski: To mothers without kids.\u000aTo kids without mothers.\u000aTo those who don\u2019t speak.\u000aWe pause to say we see you. \u000aAnd we\u2019re sor\u2026
p501
aV@ashley_claire22 That\u2019s what I thought! It\u2019ll be worth the wait though. Almost weirder to walk before the field placement lol
p502
aV@ashley_claire22 Thank you! Are you walking today, or next May?
p503
aVToday is the day! Graduating with my Master of Social Work degree, with a concentration on Leadership and Social Ch\u2026 https://t.co/OWaCz8U3yF
p504
aVRT @SenatorDurbin: Every day President Trump waits to take action on Rx drugs adds to the significant financial burden facing Americans and\u2026
p505
aVRT @SenatorDurbin: Jam monster. Soft serve ice cream. Raspberry cupcake. \u000a \u000aDo those sound like flavors marketed to adults? E-cigarette com\u2026
p506
aV#golfschool https://t.co/JBeRq7GzYF
p507
aVOne of the best conversations I\u2019ve listened to. So so good. https://t.co/OFX1TMFnJL
p508
aVRT @EYPC_CPRD: Join us as we say thank you, and wish Aleia and Billy well as they move forward with their careers! Aleia graduates with her\u2026
p509
aVAlso, \u201cIn the Morning\u201d came on as a pressed send. Is it a sign?
p510
aVThanks for the follow @walternapier! Feel like I\u2019ve been lurking in the shadows after creating my new Twitter \U0001f602 #nonewfriends
p511
aVRT @dstfelix: on glover\u2019s tense relationship with entertainment https://t.co/tZCfAqFZyx
p512
aVRT @OurRevolution: If you're in\u000a\u2705 Ohio\u000a\u2705 North Carolina\u000a\u2705 Indiana or\u000a\u2705 West Virginia\u000athen you've got Our Revolution endorsed candidates who\u2026
p513
aV@jamietworkowski @ChildMindDotOrg @TWLOHA Congratulations on the award and you all looked great!
p514
aVRT @jamietworkowski: Thank You @ChildMindDotOrg. It was an honor to accept the Community Builder Award on behalf of @twloha supporters ever\u2026
p515
aVRT @SportsCenter: DOWN GO THE DEFENDING CHAMPS!! \u000a\u000aThe Capitals take down the Penguins in OT to advance to the Eastern Conference finals. h\u2026
p516
aVRT @EYPC_CPRD: At a time when it's more important than ever to hold elected officials accountable, EYPC is guiding participants through the\u2026
p517
aV@BrandenHarvey @kynnkole @ThisAmerLife Anytime! Been listening since just about the beginning! And what a coincidence \U0001f602
p518
aVRT @GoldenGraine: #Migraine #advocates need to mobilize! Last chance to share your story of living with #migrainedisease to... https://t.co\u2026
p519
aVRT @DickDurbin: The opioid epidemic kills 115 Americans every day. That\u2019s why Senators Manchin, Markey, and I are urging the FDA to remove\u2026
p520
aV@kynnkole Check out Sounds Good with @BrandenHarvey! And @ThisAmerLife. The others I would recommend are all centered around politics \U0001f602
p521
aV\U0001f602\U0001f602\U0001f602 https://t.co/wPPBfH3Izk
p522
aVRT @davidaxelrod: A powerful, poignant portrait of a lion in winter.\u000ahttps://t.co/Cu9XDxAvlF
p523
aVRT @HopeForTheDay: you are enough https://t.co/6s7Eekyf0F
p524
aVRT @legogradstudent: 1. Revise.\u000a2. Remind myself that perfect is the enemy of the good.\u000a3. Remember that rejection is the enemy of being pu\u2026
p525
aV@DickDurbin As a constituent, and suicide loss survivor, I appreciate you attending the opening ceremony. Your pres\u2026 https://t.co/BU4u6wzHKa
p526
aVRT @DickDurbin: For the longest time, mental health was an issue that was greeted with silence, then for a while, whispers. Now thanks to p\u2026
p527
aVRT @MHFirstAidUSA: Sip of Hope Coffee Bar isn\u2019t just another typical spot for caffeine in Chicago.\u000a\u000aThe coffee shop is operated by Hope for\u2026
p528
aV@TVietor08 @realDonaldTrump \U0001f602\U0001f602 really took a curve there
p529
aVRT @donaldmiller: I agree with this quote from Jordan Peterson: "If you can THINK and SPEAK and WRITE, you are absolutely deadly. Nothing c\u2026
p530
aVRT @CNNTonight: CNN's @DonLemon: "Facts matter and this administration is not giving you the facts. The question is -- do you care?" https:\u2026
p531
aVRT @legogradstudent: Incorporating every piece of feedback he received for his paper, the grad student mangles his work beyond recognition.\u2026
p532
aV@rhsmith_ Especially if it\u2019s the little baby one at the intern house
p533
aVAs a suicide loss survivor, I love the work @HopeForTheDay has been doing. To see them combine two of my passions,\u2026 https://t.co/OQKxhkoBUn
p534
aVSo awesome to see @SenatorDurbin attended the grand opening of the #sipofhope coffee shop in Chicago.\u2026 https://t.co/HF8cIbQUiI
p535
aVHonestly so concerning that we have become desensitized to the continuous lies. https://t.co/ouyweHHnAF
p536
aVRT @NASWILPAC: Biss moves to create non-profit option for worker\u2019s compensation insurance https://t.co/15MrXmS0Kb
p537
aVRT @afspnational: Male suicide is rising at such an alarming rate that it\u2019s been classified as a \u201csilent epidemic.\u201d via @menshealth https:/\u2026
p538
aVRT @EYPC_CPRD: Please support this motivated group of EYPC participants who are working to collect data on E-cigarette use before their pre\u2026
p539
aVRT @PodSaveAmerica: "If the Trump White House and Trump supporters in the media want to have this conversation about decency, I welcome the\u2026
p540
aVSuch a good one. As men, we have a lot to learn. https://t.co/cgWNhSHHTc
p541
aVRT @ClintSmithIII: A list of things people should *actually* be offended by:\u000a\u000a1) Poverty\u000a2) Racism\u000a3) Unseasoned food
p542
aVRT @ParkerMolloy: Students walk out of speech: mocks them as \u201cchildren fleeing from political speech that they disagree with,\u201d also talks a\u2026
p543
aVRT @IlliniMGolf: The #Illini are your 2018 #B1G Champions! #FourPeat #WeWillWin https://t.co/WeMEbwyBjG
p544
aVRT @danpfeiffer: This message delivered by @BarackObama 7 years ago today feels particularly prophetic as the political media culture obses\u2026
p545
aVRT @StephenAtHome: Will I understand Infinity War if I saw only 17 of the previous movies?
p546
aV@jamietworkowski One of the best collabs I\u2019ve ever heard.
p547
aVRT @headachedoc: Thank you, @RepConorLamb, @RepKenBuck, @RepArrington, @RepAndyBiggsAZ!!\u000a\u000aLatest cosponsors of bipartisan "#Opioids and STO\u2026
p548
aVRT @RepChrisWelch: HB5122, the college tuition waiver program for at-risk youth in foster care, is now on the way to the Senate.  Special t\u2026
p549
aV@SeanLowe09 @VDunayska
p550
aVS/O to @SenatorDurbin for saying what had to be said. I thought the same thing when I first saw that tweet. https://t.co/SnzkQ6dk4n
p551
aV@jamietworkowski @TWLOHA Janet is honestly the sweetest lady.
p552
aVRT @headachedoc: Thank you, @RepMcGovern!\u000a\u000aLatest cosponsor of bipartisan "#Opioids and STOP #Pain Initiative Act" (H.R.4733/S.2260).\u000a\u000aNow\u2026
p553
aVLiterally laughed out loud during @jonfavs &amp; @TVietor08\u2019s Cash app rant about @jonlovett. Not a good look when you\u2026 https://t.co/tVug4blpUG
p554
aVPlease take a second to contact your elected officials about the Opioids &amp; STOP Pain Initiative Act (S.2260/H.R. 47\u2026 https://t.co/ym1FLsf3Ic
p555
aVRT @headachedoc: Do you need and deserve safer/more effective treatments for chronic #pain and/or #opioid addiction?\u000a\u000aUrge your Members of\u2026
p556
aVRT @TWLOHA: Our founder @jamietworkowski had the opportunity to speak at the #RallyToPreventSuicide in Washington D.C. last Saturday. We we\u2026
p557
aVRT @jonlovett: Donald Trump's immovable 40 percent approval rating is low except in the sense that in the future it will be a proof point f\u2026
p558
aVRT @danpfeiffer: There was a recent and prolonged debate about someone using a personal device for government work\u000a\u000aDid Trump and his allie\u2026
p559
aVWould love to see @SenatorDurbin @SenDuckworth &amp; @RepRobinKelly cosponsor this legislation. https://t.co/PSx9OuOL30
p560
aVFor any immigrants/refugees who feel uncomfortable with this being displayed in their community, @WRDuPageAurora mi\u2026 https://t.co/cYcbuRnOLS
p561
aVDisappointed. I once had a library card here. Cannot believe it even was around long enough to be displayed. Shame\u2026 https://t.co/4oLqND23Lm
p562
aV@kennef883 Dude, I went to undergrad in aurora. That\u2019s awful that it even made its way to display before being taken down.
p563
aVRT @repjohnlewis: I believe we have a right to know what is in the water we drink, the food we eat, and the air we breathe. On this #EarthD\u2026
p564
aVRT @jonlovett: I had a deep dish pizza in Chicago and I\u2019ve basically been on a food bender ever since. I am in a Shake Shack.
p565
aVSaturday morning coffee. Finishing up @halfwitcoffee\u2019s Ethiopian Hunda Oli. @ Urbana, Illinois https://t.co/4fToXfHePI
p566
aVRT @CoryBooker: Federal marijuana policy has long overstepped the boundaries of common sense, fiscal prudence &amp; compassion. \u000a\u000aWe should leg\u2026
p567
aVAwesome event! Wish I could attend. https://t.co/Bau8aOSQ96
p568
aV\U0001f602 https://t.co/UHeiircwzV
p569
aV@kynnkole \U0001f633
p570
aV@SenSanders Thoughts on S. 2260, the Opioids and STOP Pain Initiative Act??
p571
aVRT @headachedoc: Thank you, @RepEsty!\u000a\u000aNewest cosponsor of bipartisan "#Opioids and STOP #Pain Initiative Act" (H.R.4733/S.2260).\u000a\u000aNow with\u2026
p572
aVRT @Cluster_buster: We are happy to share this letter from Rep. Harris regarding our work in attempting to get CMS to change their decision\u2026
p573
aVRT @IllinoisCivics: IL governor race 8th most likely to be decided by 2M voters 18-29, IL-6 congressional race 7th most likely, youth vote\u2026
p574
aVRT @brianschatz: In no particular order: I\u2019m 45 and people think of me as young for an elected. Our emails are sometimes garbage. We don\u2019t\u2026
p575
aV@BrandenHarvey @VDunayska now I understand your true motive
p576
aV@SenDuckworth @SenatorDurbin will you join your colleagues and cosponsor this legislation? People living with\u2026 https://t.co/MY95wjpZeu
p577
aV\U0001f602\U0001f602 https://t.co/9HPS9eY8Ph
p578
aVRT @Les_The_Great: Amber had time. https://t.co/pgiW01wYQs
p579
aVHappy my mom and I got to share a bit of our story at the Chicago @miles4migraine walk this\u2026 https://t.co/ZxTNRW9TBO
p580
aVRT @danpfeiffer: This story by @adamdavidson is so brilliantly ahead of the curve on the severity of Trump\u2019s legal and political problems\u2026
p581
aVRT @themoshe: God, have mercy on us.\u000aGod, be with Syria. \u000aHumankind, wake up. Your actions bear consequences lasting longer and drawing dee\u2026
p582
aVAlthough it was my 3rd time at the Capitol for Advocacy Day, I still managed to make about 5-10\u2026 https://t.co/kEBvDCZfuO
p583
aVRT @NASWIL: Support the social work agenda advocacy day bills by completing the action alerts: https://t.co/7Zs0qUgeJs #Twill
p584
aVLobbying* I have not been able to spell the last few days \U0001f605 https://t.co/kiMpsbXvrg
p585
aVExcited to attend my 3rd Social Work Advocacy Day and spend the afternoon lobby my elected officials.\u2026 https://t.co/0TPwRXrgXZ
p586
aVHere\u2019s a blog I wrote about life after losing my sister Melissa to suicide. #NationalSiblingsDay https://t.co/xZR4BHPfJO
p587
aV*thinking
p588
aVNot much for made up holidays, but think about my late sister, Melissa, a little extra today. #NationalSiblingsDay https://t.co/MDHoLpJLtI
p589
aV@RelientCase @jamietworkowski Agreed. Thankful for @TWLOHA allowing me to honor my sister\u2019s story over these past few years.
p590
aV1868 https://t.co/tXUTGQrUc7
p591
aVRT @EYPC_CPRD: A great article talking about "high-impact practices" for involving students in their education. One practice is to allow st\u2026
p592
aVRT @youngbuckKeeg: Rickie is getting that major this year. Save this tweet.
p593
aVRT @jamietworkowski: If you\u2019re heartbroken over the news coming from Syria, there\u2019s a way to help. @preemptivelove is there working to save\u2026
p594
aV@youngbuckKeeg Who would\u2019ve guessed it??
p595
aVRT @themoshe: Gonna want to follow this thread https://t.co/wK7PWNdbn1
p596
aVRT @washingtonpost: #HumboldtStrong: Teams from across hockey\u2019s vast landscape pay tribute to crash victims https://t.co/Kn2xSdNQdW
p597
aV@EpicElizabeth @arcampbell94 I resonate with your friend so much \U0001f602
p598
aVRT @PodSaveAmerica: In Oklahoma:\u000a\u000a- There's been a decade of state tax cuts\u000a\u000a- Teacher salaries rank 49th in the country\u000a\u000a- Teachers haven'\u2026
p599
aVRT @NHLBlackhawks: Sharpy gets an emotional send off in his final home game as a Blackhawk.\u000a\u000a#ThankYouSharpy https://t.co/zF9ftopP3t
p600
aV\U0001f622 https://t.co/Bb7SZL9uwp
p601
aVRT @SenSanders: We are not living in a poor nation. We are living in the wealthiest nation in the history of the world. How do we have one\u2026
p602
aVLiterally have chills watching some of these hype videos for #TheMasters \u26f3\ufe0f\u26f3\ufe0f
p603
aVRT @SenAlexander: After 6 bipartisan hearings on addressing the opioid crisis, @PattyMurray and I are releasing a discussion draft of the O\u2026
p604
aV@mae_lhe @lisamarie_johns @jamietworkowski This is partly why the research shows women attempt suicide more, but me\u2026 https://t.co/5pd15EKBOC
p605
aVI think we can change many of the current social issues challenging the U.S. by investing in early education. Espec\u2026 https://t.co/pcxlGd5I8m
p606
aV@jamietworkowski So proud you\u2019re taking a stand, man. Also, I hate the narrative that people with a platform can\u2019t\u2026 https://t.co/BqhaqjoDVh
p607
aVRT @rhsmith_: This is an example of great marketing and a clever response that sticks it to the Man. #TheMasters #DillyDilly https://t.co/a\u2026
p608
aVRT @SenSanders: In the richest country in the history of the world, our teachers should be the best-paid in the developed world, not among\u2026
p609
aVRT @IllinoisMom4GVP: Agreed! @RodneyDavis will you join the @CUMarchFOL students at their #TownHallForOurLives in Champaign on 4/5? @wandtv\u2026
p610
aV#golfschool https://t.co/x4f09r9wNf
p611
aVRT @davidaxelrod: Thank you, @RamblersMBB, for a wonderful, inspiring run!\u000aChicago is proud of you!! \u000a#FinalFour
p612
aV@DickDurbin So then you\u2019ll consider cosponsoring S. 2260 the Opioids and STOP Pain Initiative? That bill would incr\u2026 https://t.co/ELkSuhHYKy
p613
aVHappy 12th birthday @twloha! This organization has truly helped me find the purpose for my pain.\u2026 https://t.co/Y4a2dVqARO
p614
aVRT @jonlovett: I tried to ice Tommy and Jon but it didn't work because we're in our mid 30s. https://t.co/c6diYKntEc
p615
aV@RelientCase Happy to be here!
p616
aV@EpicElizabeth \U0001f60f\U0001f60f
p617
aV@EpicElizabeth New twitter, who this
p618
aV@DickDurbin A group of #HOH2018 advocates, myself included, visited your office in D.C. to lobby for increased HIH\u2026 https://t.co/fFAzFFTRS1
p619
aVRT @DickDurbin: 115 Americans die every single day from an opioid overdose. We need more resources and funding towards this epidemic \u2014 beca\u2026
p620
aV@DickDurbin Will you cosponsor S. 2260 then?
p621
aV@EpicElizabeth Can I come
p622
aV@rhsmith_ I feel like this has happened before?
p623
aVRT @PodSaveAmerica: "I want your generation millennials to say, 'Hey man, c'mon get out of our way'" \u2014 @JoeBiden \u000a\u000ahttps://t.co/HyPFZgQDTN\u2026
p624
aVRT @PodSaveAmerica: Let me introduce you to my friends, Hope and Change\u000a\u000ahttps://t.co/HyPFZgQDTN https://t.co/c2xl92wdlw
p625
aVRT @JBPritzker: I\u2019m honored to receive the endorsement of the @NASWIL! From protecting Medicaid and the Affordable Care Act to their staunc\u2026
p626
aVJesus. https://t.co/HonVlULo7O
p627
aV@davidaxelrod Such a good listen this week. It\u2019s so powerful to hear a prominent figure discussing his personal str\u2026 https://t.co/5mSoF3v8Nt
p628
aV@youngbuckKeeg I feel this. Always the person in front of me who has some huge concern over the price of grapes or something
p629
aVWeird. I thought people who are receiving food assistance waste all of the tax payers\u2019 money buying expensive meals\u2026 https://t.co/MQq8lVM61b
p630
aVRT @dustinkensrue: The word privilege seems to really bother some people. It doesn\u2019t need to if you understand that it\u2019s not a binary, but\u2026
p631
aVRT @SenSanders: \u201cYoung people, you have it in you to shout. It is up to you not to keep quiet. Even if others keep quiet, if we older peopl\u2026
p632
aVRT @jonfavs: This is how you know the Parkland students are winning. https://t.co/ah2HfzYv1o
p633
aVIf you run, I want to get in on that campaign \U0001f64c\U0001f64c https://t.co/jZ05sy5BP6
p634
aVRT @BarackObama: Michelle and I are so inspired by all the young people who made today\u2019s marches happen. Keep at it. You\u2019re leading us forw\u2026
p635
aVRT @EYPC_CPRD: Good luck to all of the #MarchForOurLives participants taking a stand against gun violence today. Your voices are so importa\u2026
p636
aVCold morning for an Easter egg hunt! \U0001f430\U0001f430\u2744\ufe0f\u2744\ufe0f @ Beecher, Illinois https://t.co/YGQl1GkfgW
p637
aVRT @ClintSmithIII: I\u2019m grateful to all of the people who will be marching against gun violence today, and I\u2019m also grateful for all of the\u2026
p638
aV@jamietworkowski She\u2019s the sweetest!
p639
aVRT @PodSaveAmerica: Joe Biden talks about his "fight" with Donald Trump https://t.co/8vnG38QciD
p640
aV@rhsmith_ I have to explain to my mom how to view a photo while she\u2019s talking on the phone daily \U0001f602
p641
aVRT @EYPC_CPRD: " Yet over the past month, these students have become the central organizers of what may turn out to be the most powerful gr\u2026
p642
aVObviously meaning @realDonaldTrump here.
p643
aVIt\u2019s honestly absurd how easy he lies to the American people. https://t.co/KcrCbZ0jrG
p644
aVRT @ILinnovations: @UofISocialWork Prof. Tan's research has found that only 1/2 of students engaged in "problem behaviors" graduate high sc\u2026
p645
aVRT @SenatorDurbin: Afternoon read: @nytopinion Why is President Trump so afraid of Russia? https://t.co/SVsHurkzhC
p646
aVRT @SenDuckworth: Let\u2019s go, Ramblers, you got this! Rooting for you all to continue this magical run #OnwardLU
p647
aVPlease support my classmate\u2019s Kickstarter! He\u2019s working to raise $50,000 to launch his business helping to employ p\u2026 https://t.co/CCC9jsTYtS
p648
aV@jesshaley Too funny \U0001f602
p649
aVRT @EYPC_CPRD: "It is time to look beyond just what we are held accountable for and to remember what we are responsible for: developing you\u2026
p650
aVHad a great time yesterday! https://t.co/tM8UG2PhPb
p651
aVDay 2 on Twitter: I don\u2019t know if I can keep up with these in real time... https://t.co/Nhs5zixNBo
p652
aV\u201cWaste money\u201d in the sentence not referring to the \u201cwall\u201d is an interesting take. https://t.co/YfJ3BJHFFR
p653
aVThis is what I've been missing while off Twitter. I've been looking for some light reading. https://t.co/s6BBbCsFTF
p654
aVDecided I don\u2019t spend enough time on social media. Finally created a new Twitter after a 3 year hiatus.
p655
a.