(lp0
V@realDonaldTrump Such an outright lie by the president. What\u2019s next? War is peace, freedom is slavery, ignorance is strength?
p1
aV@realDonaldTrump How about STOP INCITING AND PRAISING VIOLENCE towards journalists, protestors, and anyone you don\u2019\u2026 https://t.co/SBl2nLFN2u
p2
aV@realDonaldTrump Sad my fellow \u201cAmericans\u201d are denying it for sake for not making their political side look bad. Yo\u2026 https://t.co/cJi5rhdf2P
p3
aV@realDonaldTrump This is such a blatant lie that it depresses me that people will believe you.
p4
aV@realDonaldTrump He\u2019s stopping black people from voting so he can win. The news has been covering this, but unfortu\u2026 https://t.co/78yyQqhGYH
p5
aV@realDonaldTrump Republicans will vote for Lyin\u2019 Ted since only cuz he\u2019s a Republican. They ignore he\u2019s spineless,\u2026 https://t.co/cNgVFfg3zk
p6
aV@realDonaldTrump You cut healthcare cost, hated Obamacare, are against gun control for safety, and don\u2019t believed a\u2026 https://t.co/p4bJtrzU9f
p7
aV@MichaelAvenatti Conservatives have no issue with Trump calling women horseface, fat, ugly, and pigs, making fun of\u2026 https://t.co/FBWLDXfJDk
p8
aV@realDonaldTrump Until early next week?? I\u2019m sorry, but what do you have that\u2019s more important than Americans who\u2019v\u2026 https://t.co/dRqsLN0jIn
p9
aVRT @ava4change: Tomorrow, a \u000a\u000achild\u000apastor\u000aneighbor \u000afather\u000amother\u000acousin \u000ateacher\u000afriend\u000astudent\u000a\u000ais going to wake up without a \u000a\u000aparent\u000ac\u2026
p10
aVRT @MichaelAvenatti: @DonaldJTrumpJr You haven\u2019t been paying attention. Your dad is the man who had unprotected sex with my \u201cporn star\u201d cli\u2026
p11
aVRT @MichaelAvenatti: @realDonaldTrump \u201cFalse accusations?\u201d Like those crimes your fixer Cohen pled to? You are an habitual liar and complet\u2026
p12
aV@PeteHegseth @realDonaldTrump We watched in my college class. We laughed at him just liked the world leaders did.
p13
aV@realDonaldTrump Funny how Trump lovers spin it as if they were laughing nervously or laughing wit him. The mental\u2026 https://t.co/p6Dv8JZZR8
p14
aV@JaclynCorin @davidhogg111 @SenTedCruz Republicans only care for the 2nd amendment and 1st amendment only when it a\u2026 https://t.co/ZWrgwCCAFX
p15
aVRT @CeeLeeCee3: This really hurts... my husband, pictured in this photo with Anderson Cooper, passed away September 27, 2017, almost 1 year\u2026
p16
aV@nintendolife I will never be able to play Mario Kart again without thinking of yetis and the President.
p17
aVRT @maggieNYT: This. Is. How. Natural. Disasters. Work. https://t.co/8QKkq397lc
p18
aVRT @MichaelAvenatti: Ladies and Gentlemen - I bring you the men fighting on the front lines for working class people across America. Pls ig\u2026
p19
aVInteresting. And people say women can\u2019t control their emotions like men can. https://t.co/29O6FEG5na
p20
aV@realDonaldTrump Too bad you took money out of FEMA and give it ICE. Kinda like how you used less money to help Tex\u2026 https://t.co/dyQ0mIs9Tc
p21
aV@realDonaldTrump He did not say that... you\u2019re a senile imbecile with dementia. Only a fucking idiot would believe you.
p22
aV@thejtlewis @realDonaldTrump Nope, think again. Only like a third are with him (mostly racists, idiots, and edgy ki\u2026 https://t.co/1IHGimhkGI
p23
aV@realDonaldTrump Can this orange moron stop blaming Dems all the time? Reps control the house, senate, and the pres\u2026 https://t.co/yoTErjdSpP
p24
aV@TheGoodGodAbove \u201cI\u2019m burning my clothing cuz Nike offended me!!!1!1!!1\u201d
p25
aV@StephenAtHome If a real quote, this is the smartest thing Trump has said.
p26
a.