(lp0
VDr Daniel Schimmel speaking at Illinois / Wisconsin Chapter CVTeam Symposium https://t.co/5LPu97mxVW
p1
aVChristina Kraus speaking at Illinois/ Wisconsin Chapter CVTeam Symposium https://t.co/o9HUe82QhC
p2
aVDr Ishizawar speaking at the Illinois /Wisconsin Chapter CVTeam Symposium https://t.co/3xG35XNVzM
p3
aVDr Josh Liberman speaking at Illinois/Wisconsin Chapter CV Team Symposium https://t.co/3A0kPX2D1Q
p4
aVDr Alan Brown speaking at the Illinois/ Wisconsin Chapter CV Team Symposium https://t.co/aAKfmJIpYx
p5
aVRT @Dave_CY_Chua: \u2066@IllinoisACC\u2069 #cvteam symposium great faculty #cardio https://t.co/EjwbOrYaLp
p6
aVIllinois and Wisconsin Chapters ACC -                               CV Team Symposium 2018 https://t.co/Ok1CrdCBqK https://t.co/Eb84SCfEYw
p7
aVIllinois and Wisconsin Chapters ACC -                               CV Team Symposium 2018 https://t.co/Ok1CrdCBqK https://t.co/ahy38izhIV
p8
aVOnly 3 more days to register for the 2018 Illinois and Wisconsin Chapters ACC - CV Team Symposium!!! @WisconsinACC  #ACC
p9
aVRT @hpatel824: Huge thank you to David Applegate from Senator Duckworth\u2019s Office for visiting with us @RushMedical to learn about current i\u2026
p10
aVIllinois and Wisconsin Chapters ACC -                               CV Team Symposium 2018 https://t.co/Ok1CrdCBqK https://t.co/xT67JMkflg
p11
aVIllinois and Wisconsin Chapters ACC -                               CV Team Symposium 2018 https://t.co/Ok1CrdCBqK https://t.co/ftOhkcQzMj
p12
aVRT @avolgman: Please join us for this great event! @kewatson @KevinShahMD @hpatel824 @bcostelloMD @gina_lundberg @DrToniyaSingh @DrLaxmiMeh\u2026
p13
aVRT @avolgman: Congratulations Kathleen! So well deserved! @RigolinVera @PattiVassalloMd @NMHheartdoc @nstonedoc @AHAMeetings https://t.co/a\u2026
p14
aVIllinois and Wisconsin Chapters ACC -                               CV Team Symposium 2018 https://t.co/Ok1CrdCBqK https://t.co/gNiiH4Unfx
p15
aVIllinois FIT event in Chicago. \u2066@IllinoisACC\u2069 #ACCFIT https://t.co/Ivzd9LnOVf
p16
aVDr Alexander talking to the FIT\u2019s on Advocacy. \u2066@IllinoisACC\u2069 \u2066@WisconsinACC\u2069 #accfit https://t.co/PFDGvuLOCZ
p17
aVFall FIT event in Chicago. Dr.  Shakir speaking. https://t.co/IDEn8W8TFY
p18
aVIllinois and Wisconsin Chapters ACC -                               CV Team Symposium 2018 https://t.co/Ok1CrdCBqK https://t.co/F7coFervVv
p19
aVIllinois and Wisconsin Chapters ACC -                               CV Team Symposium 2018 https://t.co/Ok1CrdCBqK https://t.co/inpIcIYAXh
p20
aVRT @mividovich: Congrats! #ACCCVFed https://t.co/m1MP1uJftB
p21
aVRT @avolgman: Thank you @cardio10s for taking the selfie! Great day for #ACCLegConf @JayDrcard @mividovich @hpatel824 @IllinoisACC. It was\u2026
p22
aVRT @hpatel824: @IllinoisACC #ACCFIT #ACCWIC https://t.co/N6jBuhFYYu
p23
aVRush represented on the hill. \u2066@avolgman\u2069 \u2066@cardio10s\u2069 \u2066@hpatel824\u2069 \u2066@Cardiology\u2069 \u2066@mividovich\u2069 \u2066@JayDrcard\u2069\u2026 https://t.co/uN8x3k6i3W
p24
aVIllinois and Wisconsin Chapters ACC -                               CV Team Symposium 2018 https://t.co/Ok1CrdCBqK https://t.co/mk7i9t4GlL
p25
aVIllinois and Wisconsin Chapters ACC -                               CV Team Symposium 2018 https://t.co/Ok1CrdCBqK https://t.co/0BhY88YhER
p26
aVDr Jim Thomas speaking at the chapter Annual meeting. https://t.co/rAjQ5e4btu
p27
aVDr Matt Sorrentino at the chapter Annual meeting speaking on coronary revascularization. https://t.co/Hekba7ZX8X
p28
aVDr Mort Kern speaking at Illinois Wisconsin Annual meeting in Lake Geneva https://t.co/iBc0wdfYNu
p29
aVDr Amit Patel speaking at the Illinois Wisconsin Chapters ACC Annual meeting at Lake Geneva. https://t.co/5Vh2TpR4XI
p30
aVDr Andy Miller giving update on National ACC at the Illinois Wisconsin Chapters ACC Annual meeting in Lake Geneva. https://t.co/zlneo1tRxu
p31
aVDr Kim Williams speaking at Illinois Wisconsin ACC Annual meeting in Lake Geneva. https://t.co/JpmyAydLG2
p32
aVDr James Min speaking st Illinois Wisconsin ACC Annual meeting https://t.co/zlciB7PoDN
p33
aVIllinois Wisconsin ACC Annual meeting in Lake Geneva. Cathie Biga speaking. https://t.co/4wpn1c2urn
p34
aVIllinois Wisconsin Chapter ACC Annual Meeting in Lake Geneva. Cathie Biga speaking. https://t.co/qMFeOW8KRs
p35
aVIL / WI Chapters ACC Fellows-in-Training "Transition to Practice" Mini-Symposium May 2018 https://t.co/mIdPS6w1DH https://t.co/ZOhkyIcLuU
p36
aVIL / WI Chapters ACC Fellows-in-Training "Transition to Practice" Mini-Symposium May 2018 https://t.co/mIdPS6w1DH https://t.co/dW2W0nXaHi
p37
aVIL / WI Chapters ACC Fellows-in-Training "Transition to Practice" Mini-Symposium May 2018 https://t.co/mIdPS6w1DH https://t.co/QJWfSEiLnH
p38
aVIL / WI Chapters ACC Fellows-in-Training "Transition to Practice" Mini-Symposium May 2018 https://t.co/mIdPS6w1DH https://t.co/oUlQyujVUD
p39
aVIL / WI Chapters ACC Fellows-in-Training "Transition to Practice" Mini-Symposium May 2018 https://t.co/mIdPS6w1DH https://t.co/bEVGjVpmOA
p40
aVIL / WI Chapters ACC Fellows-in-Training "Transition to Practice" Mini-Symposium May 2018 https://t.co/mIdPS6w1DH https://t.co/BdDQzR4qld
p41
aVIL / WI Chapters ACC Fellows-in-Training "Transition to Practice" Mini-Symposium May 2018 https://t.co/mIdPS6w1DH https://t.co/O46c98Vp58
p42
aVIL / WI Chapters ACC Fellows-in-Training "Transition to Practice" Mini-Symposium May 2018 https://t.co/mIdPS6w1DH https://t.co/Fqp3yVKriJ
p43
aVIL / WI Chapters ACC Fellows-in-Training "Transition to Practice" Mini-Symposium May 2018 https://t.co/mIdPS6w1DH https://t.co/4dw5vSjedP
p44
aVIL / WI Chapters ACC Fellows-in-Training "Transition to Practice" Mini-Symposium May 2018 https://t.co/mIdPS6w1DH https://t.co/lSzPWHrBBK
p45
aVIL / WI Chapters ACC Cardiology FIT Poster Presentation &amp; Reception https://t.co/6KJ0m0uMlJ https://t.co/bDl6MwtB0H
p46
aVIL / WI Chapters ACC Cardiology FIT Poster Presentation &amp; Reception https://t.co/6KJ0m0uMlJ https://t.co/bueDHzBZ9O
p47
aVIL / WI Chapters ACC Cardiology FIT Poster Presentation &amp; Reception https://t.co/6KJ0m0uMlJ https://t.co/nqMAIUaQ9n
p48
aVIL / WI Chapters ACC Cardiology FIT Poster Presentation &amp; Reception https://t.co/6KJ0m0uMlJ https://t.co/tdkM16qwwD
p49
aVIL / WI Chapters ACC Cardiology FIT Poster Presentation &amp; Reception https://t.co/6KJ0m0uMlJ https://t.co/jWpPQ9RsTJ
p50
aVIL / WI Chapters ACC Cardiology FIT Poster Presentation &amp; Reception https://t.co/6KJ0m0uMlJ https://t.co/NRSagQ2HSa
p51
aVIL / WI Chapters ACC Cardiology FIT Poster Presentation &amp; Reception https://t.co/6KJ0m0uMlJ https://t.co/EwSdgvV1Pt
p52
aVIL / WI Chapters ACC Cardiology FIT Poster Presentation &amp; Reception https://t.co/6KJ0m0uMlJ https://t.co/csJps7cijO
p53
aVRT @mividovich: Full house at #ACCLegConf 2017 #ACCPAC @Cardiology @Blairerbmd https://t.co/kTTZHzMOiG
p54
aVCathie Biga at IL/WI Annual Meeting https://t.co/iDdvxwAi0L
p55
aVDr. Akhil Narang at IL/WI Annual Meeting https://t.co/IVDtCWAj1x
p56
aVhttps://t.co/0T0AxWlJYi
p57
aVIllinois and Wisconsin Chapters Annual Meeting &amp; Symposium https://t.co/n31LfhE50z https://t.co/p7P6zNJQmS
p58
aVIllinois and Wisconsin Chapters Annual Meeting &amp; Symposium https://t.co/n31LfhE50z https://t.co/eqDkXLw9Ao
p59
aVIllinois and Wisconsin Chapters Annual Meeting &amp; Symposium https://t.co/n31LfhE50z https://t.co/Ng0ZYhOQrC
p60
aVIllinois and Wisconsin Chapters Annual Meeting &amp; Symposium https://t.co/n31LfhE50z https://t.co/s08Tr4dZIw
p61
aVIllinois and Wisconsin Chapters Annual Meeting &amp; Symposium https://t.co/n31LfhE50z https://t.co/jlTXDQvlfr
p62
aVIllinois and Wisconsin Chapters Annual Meeting &amp; Symposium https://t.co/n31LfhE50z https://t.co/OxL2Te8v8D
p63
aVRT @IllinoisACC: Illinois and Wisconsin Chapters Annual Meeting &amp; Symposium https://t.co/n31LfhE50z https://t.co/lWB5uOQ0tC
p64
aVIllinois and Wisconsin Chapters Annual Meeting &amp; Symposium https://t.co/n31LfhE50z https://t.co/lWB5uOQ0tC
p65
aVRT @IllinoisACC: Illinois #ACC delegation at #CVsummit in Orlando https://t.co/MOK2Iqe3vy
p66
aVIllinois #ACC delegation at #CVsummit in Orlando https://t.co/MOK2Iqe3vy
p67
aVCV Team Symposium 2016 - Early Registration Extended https://t.co/O8ZJpldtGm https://t.co/5vr0ZvovCX
p68
aVFree webinar on October 13 at 11 am CDT  https://t.co/mSxVKHxXt1 https://t.co/wAFymYnu6x
p69
a.