(lp0
VI was proud to canvass for Sean Casten today. #swingleft https://t.co/ik9d7NVddv
p1
aVRT @MoveOn: RT &amp; remind @realdonaldtrump that even the @POTUS is not above the law. Americans demand the truth about #TrumpRussia &amp; will pr\u2026
p2
aVI\u2019m with the theater kids and high school journalists. #neveragain https://t.co/uUsuQQU0NQ
p3
aV300,000 people at the #WomensMarch2018 in #Chicago marched to the polls.  @swingleft https://t.co/zkVJoaFTCp
p4
aVRT @womensmarchchi: Announcing 'March to the Polls' on 1/20/18! https://t.co/YEyu4elfXD https://t.co/p7gBvREzwL
p5
aVI have hope again: https://t.co/847mGzQAGc
p6
aV3 cheers for Sally Yates, and for this sentence: \u201cWhat happens if we just keep eating the ball?\u201d https://t.co/arS4oPfGOq
p7
aVOlly olly oxen free! https://t.co/6eHAX6qqCO
p8
aVTry it!  You'll like it! https://t.co/dupDokpeFf
p9
aVIf you're 50yo like me, I bet you have at least 1 of these. Plus, BEING RAPED is now a reason to deny healthcare.\u2026 https://t.co/y7Mdxnt9If
p10
aVAngry that today's GOP bill will take away healthcare from ppl with preexisting conditions? Time for some rage givi\u2026 https://t.co/5cRV17LSYU
p11
aVTake action today. Add comment to support #BWCA watershed protection. Help #SavetheBWCA from sulfide mining today. https://t.co/QdqesPSf1S
p12
aVTake action to stop a constitution convention that could allow moneyed interest to take control of our democracy.\u2026 https://t.co/MK5kpC81dI
p13
aV\U0001f923 https://t.co/8J28E7rb3E
p14
aVThe only good dissertation is a done dissertation.  Congrats @legogradstudent! https://t.co/ZXHWmwzaPf
p15
aVRepublicans: If we hasten the deaths of women, they will come.  https://t.co/Zyfs1GrTdv
p16
aVJoin me at this @swingleft event: Waukegan Voter Registration. RSVP here: https://t.co/6xJPeiymza
p17
aVNicely argued, @fakedansavage https://t.co/vyccrP7FqV
p18
aVThis blockhead has a great brain. https://t.co/a4oEDIIBoM
p19
aVThe musical theater answer to our times: @RandyRainbow.  Start here and then subscribe to his YouTube channel: https://t.co/4ad6Q20vri
p20
aVLast night, I went to a crowded #SwingLeft house party in Hyde Park.  Join us to take back the House in 2018 at\u2026 https://t.co/KjyyrQwwSF
p21
a.