(lp0
VEllen DeGeneres calls PM Trudeau an 'inspiration' https://t.co/WfaSnj0E3D
p1
aV@JuddLegum So sad. I don\u2019t words to describe this
p2
aV@DearAuntCrabby That's history we have the new winner who meets all the criteria
p3
aV@Acosta They are burning the documents and evidence but guess what the government must likely they have all them. They don't need to hide
p4
aV@soledadobrien This is the most disturbing thing I've ever saw
p5
aVRT @bostonbashers09: #voicesafemark \u000aSave him
p6
a.