(lp0
VRT @treasonstickers: IMMIGRATION UPDATE:\u000a\u000aFred Trump = immigrant\u000aDonald = anchor baby\u000aMelania = immigrant \u000aBarron = anchor baby\u000aMelania\u2019s p\u2026
p1
aVRT @MrFilmkritik: Ivana Trump wasn't a US citizen until 1988. She gave birth to Don Jr in 1977, Ivanka in 1981, and Eric in 1984.\u000a\u000aLet's ca\u2026
p2
aV@MarisaAnne_21 \U0001f62d\U0001f62d
p3
aVRT @TravisAllen02: Many many people are saying that Trump is the WORST PRESIDENT IN THE HISTORY OF THE UNIVERSE!\u000a\u000aRetweet and like if you a\u2026
p4
aVRT @realDonaldTrFan: Faleing New York Times says Chinese spies are listening to recordings of ME talking on my private cell phone. WRONG! I\u2026
p5
aVRT @Ironhorse76: Midterm Party for the best Tweeps in the Twitterverse!  Only TEN days left to grow your influence and let your voices be h\u2026
p6
aVRT @robreiner: As long as Trump takes no responsibility for his part in inciting violence, which he will never do, we will see more and mor\u2026
p7
aV@kathygriffin Bought 2, will make awesome Christmas gifts!
p8
aVRT @brianbeutler: .@RealCandaceO deleted this tweet. Don't let all the conservatives who spread this dreck memory hole what they did. https\u2026
p9
aV@johncardillo And WTF JR, why would you like this you\u2019re wife was targeted by crazies I would think even you would\u2026 https://t.co/zPrlLyeAGi
p10
aV@johncardillo Dear lord, and the world wonders why we are so politically divided!
p11
aV@GOVTWINE To be clear: Someone mailed pipe bombs to 2 former Presidents, 1 former Vice President, 1 former Sec of S\u2026 https://t.co/YXaCsVbZGW
p12
aVRT @AngelaBelcamino: We didn\u2019t need the #MAGABomber Cesar Sayoc to drive us to the polls as some conspiracists are stating. We were already\u2026
p13
aV@DonaldJTrumpJr To be clear: Someone mailed pipe bombs to 2 former Presidents, 1 former Vice President, 1 former Se\u2026 https://t.co/RbQ5aqC7Nn
p14
aVRT @WalshFreedom: To be clear: Someone mailed pipe bombs to 2 former Presidents, 1 former Vice President, 1 former Sec of State, &amp; other go\u2026
p15
aV@DLoesch Her ratings also sucked so there is that too
p16
aVRT @The_UnSilent_: Meanwhile back in the land of hypocrisy @realDonaldTrump has held 14 rallies in the last 25 days, with 3 more scheduled\u2026
p17
aVRT @NumbersMuncher: A shout-out to the Trumpers that called the bombs a false flag liberal hoax:\u000aAnn Coulter\u000aJames Woods\u000aGeraldo Rivera\u000aCan\u2026
p18
aVRT @Protect_Wldlife: This 'hunter' sneaked up on a SLEEPING #Lion and killed it! \u000a\u000aHow brave, how sporting - HOW CUNTISH!!!!\u000a\u000aAccording to\u2026
p19
aVRT @TheRickWilson: Anyone want to take odds but this guy is a complete q-anon freak?
p20
aVRT @WalshFreedom: So they got a guy. Good work @FBI.\u000a\u000aWho wants to join me and wait until the authorities tell us who he is and why he did\u2026
p21
aVRT @NancySinatra: He may as well have put a target on their backs.\u000a@realDonaldTrump HAS TO GO. https://t.co/JVrrPDsF3L
p22
aVRT @RonWyden: I am demanding answers from the White House about @realDonaldTrump\u2019s use of Air Force One for political purposes. American ta\u2026
p23
aVRT @Tennesseine: Always makes me laugh when people threaten to unfollow me when they don\u2019t like my tweets. I never came here for followers.\u2026
p24
aVRT @MichaelAvenatti: .@ChuckGrassley - let\u2019s start the investigation tonight. I will make my client available for a sworn interview and you\u2026
p25
aVRT @EricBoehlert: "it's only right--we got to stick together" https://t.co/T8cTzdD5MZ
p26
aVRT @danpfeiffer: I have watched this 5 times https://t.co/hYhIm3FXcz
p27
aVRT @BeauWillimon: Sarah Sanders (@PressSec) you just accused @CNN\u2019s Jeff Zucker of trying to \u201cattack and divide\u201d while claiming that everyo\u2026
p28
aV@PressSec @realDonaldTrump https://t.co/m2Js0Mq3AZ
p29
aVRT @JohnBrennan: Stop blaming others. Look in the mirror. Your inflammatory rhetoric, insults, lies, &amp; encouragement of physical violence a\u2026
p30
aVRT @TeaPainUSA: Accordin\u2019 to Trump, the #MAGABomber ain\u2019t at fault. It\u2019s the media for upsettin\u2019 the poor feller.
p31
aVRT @freddyatton: * #TrumpPoll ( @realDonaldTrump )\u000a\u000a(retweet)\u000a-----------\u000a\u000aDonald J. Trump is a "clear and present danger" to the USA, beca\u2026
p32
aV@johncardillo https://t.co/40ujoEUe3U
p33
aVRT @realDonaldTrFan: In my breefing about the #MAGABomber- Great name BTW- I ASKED "WHO is MOTIVATING the MAGA bomber to target the Evil De\u2026
p34
aVRT @EliLake: Brief note. The fringe left and fringe right have conducted political violence throughout American history. It\u2019s not an either\u2026
p35
aVRT @krassenstein: 6:45am - Reports Emerge that Trump CRITIC, Robert De Niro, received a likely Pipe bomb in mail\u000a\u000a7:18am - Trump Attacks ma\u2026
p36
aVRT @ChuckCallesto: POLL: Who would you support for Florida governor? \u000a\u000aRepublican Ron #DeSantis or Democrat Andrew #Gillum? \u000a\u000a#FLGovDebate\u2026
p37
aVRT @PatCunnane: In 2016, Trump said Hillary Clinton\u2019s secret service should stop protecting her so we could \u201csee what happens to her.\u201d \u000a\u000aHe\u2026
p38
aV@BeckysHorseface You got me and my lowly 47 followers! FYI, im not really concerned about followers I am interested\u2026 https://t.co/ZdNkoqnktG
p39
aVRT @MeghanMcCain: "Respect for the God-given dignity of every human being, no matter their race, ethnicity or other circumstances of their\u2026
p40
aVRT @tribelaw: Every single recipient of the bomb packages \u2014 Soros, Obama, Clinton, Wasserman-Schultz, Holder, CNN \u2014 has been a target of Tr\u2026
p41
aVRT @WalshFreedom: Agreed. And any organization employing @RealCandaceO should be absolutely ashamed of itself. https://t.co/0HpJSSxvKv
p42
aVRT @madasednam: @DeanObeidallah @realDonaldTrump Bombing targets are all people regularly attacked by Trump at his rallies and on Twitter.\u2026
p43
aVRT @SteveSchmidtSES: Trump has stoked a cold civil war in this Country.  His rallies brim with menace and he has labeled journalists as ene\u2026
p44
aVRT @realDonaldTrFan: Why is everyone saying I HAVE TO say something about the bombs sent to Soros, John Brennan, CNN Warner Center, Debbie\u2026
p45
aV@BeckysHorseface You tweet, someone responds, that\u2019s kinda how it works. That\u2019s the point of tweeting. #NotABot
p46
aVRT @Mimirocah1: Every one of these bombs and threats pose a real and significant danger to hundreds of law enforcement officers from Secret\u2026
p47
aV@BeckysHorseface @trryksr63 How about nobody tweets stupid conspiratorial shit, how about nobody gets political, an\u2026 https://t.co/6RkiVDzfAz
p48
aVRT @WalshFreedom: I got a better idea John: How about you just condemn ALL acts of political violence, and how about you wait until you kno\u2026
p49
aV@alexanderbruz @RyanAFournier @SteveScalise @RandPaul How about nobody tweets stupid conspiratorial shit, how about\u2026 https://t.co/Jfwl3598Sd
p50
aVRT @WalshFreedom: These violent acts by sick people on both the Right and the Left must stop. Now.\u000a\u000aWe need a President who will say just t\u2026
p51
aVRT @HowardA_Esq: If I win the lotto, I am going to buy Fox News, then I will tweet a story from its account saying Trump committed treason,\u2026
p52
aVRT @DearAuntCrabby: Senator Lindsey Graham Is Now Under Investigation For Campaign Finance Violations And Ties To Russia https://t.co/t7PZq\u2026
p53
aVRT @brycetache: I\u2019m a Democrat\u000aI don\u2019t want open borders\u000aI\u2019m not soft on crime\u000aI don\u2019t want the middle class to pay more taxes\u000aI want famil\u2026
p54
aVRT @treasonstickers: Democrats want immigrants to be treated fairly.\u000a\u000aDemocrats do not want open borders.\u000a\u000aNo democrat has ever said they w\u2026
p55
aV@feliciasonmez @trryksr63 You know who else was a Nationalist???? Hitler
p56
aV@jaketapper How romantic
p57
aVRT @RepBobbyRush: The President of the United States does not know that Puerto Rico is a U.S. territory and Puerto Ricans are citizens of t\u2026
p58
aVRT @ProudResister: Radical hate groups like the KKK and Neo-Nazis rebranded themselves as white Nationalists. Their radical leader, @realDo\u2026
p59
aV@KimStrassel I have to much respect for myself and my daughter to ever vote for this lying pig or any of his supporters.
p60
aVRT @SnakeOilPrez: \u201cI am a Nationalist\u201d\u000a\u2014Donald Trump \u000a\u000aHis minions cheer &amp; applaud. \u000a\u000aFYI- Here are some other famous Nationalists in histo\u2026
p61
aVRT @EdKrassen: Attention:\u000aIf anyone has info in regards connections between @JacobAWohl @Jack_Burkman @SurefireIntel, the name "Mike Wilcox\u2026
p62
aVRT @HoarseWisperer: I see the Surrendering of the Testicles ceremony has begun. https://t.co/adWAFtuJcB
p63
aVRT @jaketapper: Orlando Sentinel: \u201cA Florida man is accused of groping a female passenger while on a flight Sunday from Houston to Albuquer\u2026
p64
aVRT @ProudResister: Adolf Hitler: \u201cI am a Nationalist.\u201d\u000a\u000aDonald Trump: \u201cI am a Nationalist.\u201d\u000a\u000aWake the fuck up America. This is no longer a\u2026
p65
aVRT @ShepRose: Never forget:\u000aTrump called Cruz \u201ca little bit of a maniac,\u201d \u201ca totally unstable individual,\u201d and \u201cthe single biggest liar\u201d he\u2026
p66
aVRT @WalshFreedom: 3 wks ago, Trump said that US Steel is opening 7 new plants. That's a lie. They're opening no new plants.\u000a\u000aSaturday, Trum\u2026
p67
aVRT @krassenstein: Best line of the whole #FlGovDebate :\u000a\u000a\u201cRon is being \u2018Don\u2019 neglecting all sense of reason and facts... This is CNN, not F\u2026
p68
aVRT @krassenstein: A Texas HOA is forcing a family to remove this @BetoORourke sign they painted on their lawn with their children.\u000a\u000aThey ma\u2026
p69
aVRT @ProPublica: The Trump family lied to push their deals around the world. And they profited. \u000ahttps://t.co/VCW7v9xgdY
p70
aV@charliekirk11 You should probably tell your boy @realDonaldTrump and @JaredKusher
p71
aVRT @ProudResister: 1. Trump Jr. met w/ Russia in Trump Tower and emails show it was about the Kremlin\u2019s support for his father.\u000a\u000a2. Trump J\u2026
p72
aVRT @MichaelAvenatti: .@realDonaldTrump - I saw your rally last night. Yet more big talk from a guy that can never back it up. Btw, I though\u2026
p73
aVRT @GeorgeTakei: Breaking: Trump says Saudi prince has calendar proving his innocence.
p74
aVRT @mmpadellan: President Obama visited our troops SEVEN times, his first visit after 4 months in office.\u000a\u000aOther Presidents have done so. @\u2026
p75
aVRT @DearAuntCrabby: Here Are The Facts: Right Wing Political Violence Far Outweighs Left Wing \u2018Angry Mobs\u2019 https://t.co/d6wll7zuDZ via @pol\u2026
p76
aVRT @TeaPainUSA: Don\u2019t forget these facts. Jamal Khashoggi was a permanent resident of Virginia employed by the Washington Post. An American\u2026
p77
aVRT @EdKrassen: I give a lot of credit to Heidi Cruz for being able to stand by her husband @tedcruz after he accepted the endorsement of a\u2026
p78
aV@charliekirk11 Dear lord you\u2019re an idiot!
p79
aV@DonaldJTrumpJr Umm knuckleheads.....Did you know he was asked to apply due to his 80% Hispanic constituency and ne\u2026 https://t.co/gnx5SM3qdP
p80
aVRT @realDonaldTrFan: My GREAT friend - Prince Mohammy something of Saudi Arabia says the US journalist was killed quickly - by accident! I\u2026
p81
aVRT @Bornabrit1: LET me ask you -\u000a\u000aIf KHASHOGGI was meant to be \u000a\u000aINTERROGATED ONLY \u000a\u000aWhy was there\u000a \u000aA FORENSIC SPECIALIST \u000a\u000aThere to begin\u2026
p82
aVRT @realDonaldTrFan: #Horseface Stormy Danials called me TINY! I'm NOT tiny! I'M NOT! When she saw it, it was dark! HOW COULD SHE KNOW IT W\u2026
p83
aV@mike_Zollo @trryksr63 Did she smear him or simply state that @realDonaldTrump tiny penis looked like a mushroom?
p84
aVRT @Tip: Dear 45,\u000aI ain\u2019t Kanye. \U0001f633 https://t.co/BCS8nkbn1M
p85
aVRT @funder: Whatever you do today don\u2019t retweet this report I wrote on our investigation in to Senator Lindsey Graham. It could get Graham\u2026
p86
aV@realDonaldTrump Even @foxsnews calls bullshit #DonTheCon https://t.co/bX5Do8GJRM
p87
aV@realDonaldTrump even Fox News calls bullshit! https://t.co/SAKgmjWUqC
p88
aV@realDonaldTrump @FoxNews She knows you have a really small dick... just saying #BeBest
p89
aVRT @StormyDaniels: Ladies and Gentlemen,  may I present your president. In addition to his...umm...shortcomings, he has demonstrated his in\u2026
p90
aVRT @MichaelAvenatti: .@realDonaldTrump aka #PornPresident - could you please inform @TuckerCarlson, your son @DonaldJTrumpJr, your evangeli\u2026
p91
aVRT @realDonaldTrFan: EXCITING NEWS! MY Fedral Budget Deficit went up by 17%! Highest increase in YEARS! Its UP TO $779 BILLION a year! Lose\u2026
p92
aVRT @anylaurie16: fyi Elizabeth Warren is more Native American than Donald Trump is Evangelical Christian.
p93
aV@charliekirk11 This has been proven untrue.
p94
aVRT @oliviamunn: Okay... who\u2019s gonna break it to Kanye? https://t.co/TffKWNd4uT
p95
aVRT @MarkJKremer: This is by far the saddest time of the year for me. I hate the fall.
p96
aVRT @AltUSPressSec: We must know if Jamal #Khashoggi's name was on the list @jaredkushner gave to MBS of Saudi Arabia.\u000a---------------------\u2026
p97
aVRT @MichaelAvenatti: Donald Trump Jr. will be indicted before his birthday on 12-31-18. If you doubt my prediction, please check my record\u2026
p98
aVRT @Jar_O_Cats: Hey, straight women: I hope you know my better half and I -- a couple of flaming gays who will never know pregnancy -- will\u2026
p99
aVRT @DerekCressman: Beginning to get the impression that Ted Cruz is all hat and no cattle .... https://t.co/zWv0oztuig
p100
aVRT @washingtonpost: Perspective: Can Taylor Swift inspire young nonvoters to vote? You bet. https://t.co/xcwL7VHPRc
p101
aVRT @natogreen: Someone has been killed. Her name is Heather Heyer. https://t.co/nNSnMgN0VL
p102
aVRT @TheTweetOfGod: Most people who doubt women's claims of assault do NOT doubt a 2,000-year-old book's claims that I had a son who rose fr\u2026
p103
aVRT @JBPritzker: Today, Jason Van Dyke was held accountable for his role in the tragic death of Laquan McDonald.
p104
aV@SteveKingIA And it gave the rest of the women out there the right to choose to do with their bodies whatever is be\u2026 https://t.co/3F5mWR02XV
p105
aVRT @freewimin: @foxandfriends .@foxandfriends \u000aMerrick Garland \u000aMerrick Garland\u000aMerrick Garland \u000aMerrick Garland\u000aMerrick Garland \u000aMerrick G\u2026
p106
aV@MarisaAnne_21 Are you OK do I need to call Liam Neeson to come save you
p107
aVRT @davidcicilline: Yesterday we found out @realDonaldTrump has cheated the tax system for years. Just a reminder that I\u2019ve introduced a bi\u2026
p108
aVRT @TopRopeTravis: Jim Acosta just told Sarah Sanders she is a liar.\u000a\u000aJim Acosta is a national hero.
p109
aV@SteveKingIA Except Obama was never accused of rape or any sexual misconduct and that knucklehead is the difference
p110
aV@DonaldJTrumpJr And still nobody has ever accused him of rape or sexual misconduct of any sort
p111
aVRT @MichaelAvenatti: Regardless of your politics, you should be outraged by the POTUS standing before a crowd and mocking a woman who claim\u2026
p112
aV@KurtSchlichter @DonaldJTrumpJr Or maybe she/we worry that they are being raised without a moral compass??
p113
aV@MSNBC @realDonaldTrump is the rapist in chief, just ask Jr\u2019s mom!!
p114
aV@DonaldJTrumpJr Dude you\u2019re dad paid off a porn star he banged when your little brother was an infant you have no high road, sit down JR!
p115
aV@Andy @realDonaldTrump is a piece of shit!
p116
aV@EricTrump @Georgetown @CChristineFair You\u2019re father uses his twitter account to spew vile hateful things all the t\u2026 https://t.co/xwN7WKQ2Iy
p117
aVRT @DisavowTrump20: BREAKING: Democrat Laura Kelly is in a statistical tie with Trump puppet Kris Kobach for the Governor\u2019s race in deep-re\u2026
p118
aV@bessbell He\u2019s such trash
p119
aVRT @JohnnyBlkshrt: If you worked with Mark Judge at Safeway in 1982.Please contact F.B.I.\u000a\u000aIf you have knowledge of or were sexually abused\u2026
p120
aVRT @peterdaou: MESSAGE TO THE @GOP:\u000a\u000aWe see your hypocrisy.\u000a\u000aWe see your immorality.\u000a\u000aWe see your sniveling fealty to Trump.\u000a\u000aWe see your d\u2026
p121
aVRT @SethAbramson: I told my wife last night that I'd lost hope\u000a\u000aBarring a miracle, a serial sexual assailant will both occupy the White Hou\u2026
p122
aVRT @AngrierWHStaff: Hey, @LindseyGrahamSC:\u000a\u000aJohn McCain was a hero of mine. The country lost a wonderful man, and many people lost a wonder\u2026
p123
aVRT @CNN: \u201cLook at me when I'm talking to you. You\u2019re telling me that my assault doesn\u2019t matter!": Protesters confront Sen. Jeff Flake momen\u2026
p124
aVRT @jonfavs: The Republican Party is garbage. https://t.co/yvn22gXo5j
p125
aVRT @goldengateblond: If Brett Kavanaugh were a woman, they\u2019d be calling this performance \u201chysterical.\u201d
p126
aVRT @nymoonburn1: @AuthorKimberley @LindseyGrahamSC There needs to be an investigation in @LindseyGrahamSC He is compromised, its blatantly\u2026
p127
aVRT @MichaelAvenatti: @IngrahamAngle You are a garbage journalist working for a garbage network. You just fabricated all of that. Don\u2019t you\u2026
p128
aVRT @NicolleDWallace: I suspect that the 25th amendment might be discussed more widely if there were daily press conferences.
p129
aV@ABCPolitics @WalshFreedom Clown!
p130
aV@CaroleRadziwill @Andy Ladies, ladies, you\u2019re both pretty. Calm down it\u2019s all over now.
p131
aV@mandystadt @DonaldJTrumpJr @MichaelAvenatti Maybe the same lesson that Donny John taught Ivana - she said he raped\u2026 https://t.co/sWYAJML0Qs
p132
aVRT @WalshFreedom: Trump is moving to fire the person in charge of the Russia investigation. Let that sink in.\u000a\u000aThat should be a damn red li\u2026
p133
aVRT @funder: .@realDonaldTrump-If you fire Rod Rosenstein, you will be fired as well. You are not above the law. You\u2019re the biggest traitor\u2026
p134
aVRT @CBSThisMorning: "We found classmates had been talking about this for weeks and months since July. There'd been an email chain of Yale c\u2026
p135
aVRT @michcoll: Find him https://t.co/yvXPmZGpg1
p136
aV@MarisaAnne_21 I\u2019m sorry baby
p137
aVRT @KarrieLena: .@SenatorCollins: Brett Kavanaugh would gut our constitutional rights, including abortion access. Mainers deserve better. #\u2026
p138
aVRT @adamcbest: GOP Minnesota State Rep. Jim Knoblach has ended his re-election campaign after a report emerged that he molested his daughte\u2026
p139
aV@charliekirk11 Wow, seriously?
p140
aV@MarisaAnne_21 Hahahaha
p141
aV@TomiLahren @trryksr63 Only if we can have @realDonaldTrump as well....oh and maybe his tax return...
p142
aVRT @StormyDaniels: For those interested in ordering my book, go to https://t.co/JVhdW8sKjq https://t.co/TSwOiusMis
p143
aVRT @EdKrassen: This is just disgusting.\u000aDonald Trump Jr. has absolutely no respect for women!\u000aLike Father, Like Son!\u000ahttps://t.co/NSrpVOfbp5
p144
aVRT @WalshFreedom: No matter your take on the accusations against Brett Kavanaugh, I think we all can agree that @DonaldJTrumpJr is an uncar\u2026
p145
aVRT @coleyworld: Now I need a trampoline... and a baby goat. https://t.co/O5FmvEKyIo
p146
aVRT @Bornabrit1: Ok If Kavanaugh is approved to SCOTUS.\u000a\u000aIF ROE VS.WADE is overturned\u000a\u000aThen there should be a LAW  that\u000a\u000aREGULATES MENS BODI\u2026
p147
aV@charliekirk11 @realDonaldTrump How do any of you vote for @realDonaldTrump even his first wife said he raped her??\u2026 https://t.co/tAuHl0QWjy
p148
aV@charliekirk11 Or Jim Jordan covering up sexual abuse! Oh my bad he\u2019s a republican.....or those damn democrats bitc\u2026 https://t.co/2LZvMfytXd
p149
aVRT @EdKrassen: Yesterday Don Jr. blocked me right after I tweeted this:\u000a\u000a"With Manafort flipping I guarantee you that the entire Trump fami\u2026
p150
aV@papadon762 @The_Trump_Train @trryksr63 #MuellerTime
p151
aV@wisejc21 @The_Trump_Train @trryksr63 Hahahaha #Delusional
p152
aV@The_Trump_Train @trryksr63 \u2022 Papadopoulos: Pleaded guilty. Sentenced.\u000a\u2022 Patten: Pleaded guilty.\u000a\u2022 Manafort: Pleade\u2026 https://t.co/j5r9JcvJQF
p153
aVRT @zachbraff: Man murdered in his own home by a police officer who mistakenly thought it was her apartment and that he was an intruder.\u2026
p154
aVRT @RealDonaldTrFan: MY Hurricane Maria response was TREMENDOUS! Fakenews NEVER reported that Maria had wind AND rain! CNN NEVER reported t\u2026
p155
aVRT @kenolin1: .@DonaldJTrumpJr stop trying to get @kathygriffin to pay attention. She\u2019s just not into you.
p156
aVRT @CynthiaNixon: The only way we can win is with your help! Make sure you vote and get your friends to too! #TeamCynthia https://t.co/W1cA\u2026
p157
aV@tedcruz Isn\u2019t your president a New York liberal pretending to be a conservative #VoteBeto
p158
aVRT @DonGerard: Your party is a bunch of deplorables &amp; there are Neo-Nazis in the White House. You vote with #Trump 94.4% of the time, so di\u2026
p159
aVRT @DisavowTrump20: BREAKING: Arizona Democrat Kyrsten Sinema holds a 3-point lead over Trump puppet Republican Martha McSally for the comp\u2026
p160
aVRT @EdKrassen: BOOM!\u000aStormy Daniels has a new "Tell all" Book and it's being released 1 month prior to the midterms!\u000a\u000aMake it go viral and\u2026
p161
aV@realDonaldTrump @LouDobbs Had no idea that Lou worked for mueller... #OnlyMuellerKnows
p162
aVRT @DebraMessing: @senatorCollin #BlockBrett https://t.co/G59HMFHZsI
p163
aVRT @Amy_Siskind: Keep saying folks: keep an eye on Deutsche Bank, aka the Global Laundromat for Russian money.  Their private banking group\u2026
p164
aVRT @Nicoxw1: .@senatorcollins and @lisamurkowski,\u000aThink long term.\u000aYou might lose your party's support if you reject Kavanaugh.\u000aBut soon, T\u2026
p165
aVRT @The_UnSilent_: Donald Trump pays for sex \U0001f937\U0001f3fc\u200d\u2642\ufe0f https://t.co/Y328UTU6i0
p166
aV@MarkJKremer And just a few short years later the @gop said \u201cYep, this pile of human garbage is our guy\u201d
p167
aVRT @WalshFreedom: Trump literally makes up an Obama quote to slam Obama.\u000a\u000aTrump's legacy? The death of truth. https://t.co/zUYpIdGHsX
p168
aVRT @Rschooley: When you hear Ted Cruz is campaigning against silicone and hair dye. https://t.co/ypKHWXd0jO
p169
aVRT @AdyBarkan: Kavanaugh must be removed from the Federal Judiciary. \u000a\u000aPlease RT if you want a member of the House to file Articles of Impe\u2026
p170
aVRT @AndrewGillum: Heard @realDonaldTrump went after me again tonight \u2014 in Montana \u2014 but still didn't have the courage to @ me by name. \u000a\u000aMr\u2026
p171
aVRT @freddyatton: *\u000a(After voting, please retweet to get a wide sampling - thanks.)\u000a\u000aDo you want Brett Kavanaugh on the Supreme Court?
p172
aVRT @MikeLevinCA: Retweet if you think Bob Woodward is more truthful than Sarah Huckabee Sanders.
p173
aV@KNP2BP @MarieJFortier @JaniceDean @MeghanMcCain @POTUS Again if you feel that her words were a slight on the presi\u2026 https://t.co/AGIAPfqXmu
p174
aV@MarieJFortier @JaniceDean @MeghanMcCain She was true and honest and if you think that was a jab at the president y\u2026 https://t.co/xrHjbZ8Hf3
p175
aVRT @MarkJKremer: Women shouldn't have to modify what they choose to wear because some men can't modify how they choose to behave.
p176
aVRT @RyanLizza: I re-read all the speeches from McCain\u2019s funeral. Nobody attacked Trump. They *praised* honor, decency, character, bipartisa\u2026
p177
aVRT @BBCWorld: "The America of John McCain has no need to be made great again, because America was always great" - Meghan McCain speaking at\u2026
p178
aVRT @washingtonpost: Meghan McCain, in her eulogy for her father: \u201cThe America of John McCain has no need to be made great again because Ame\u2026
p179
aVRT @AltUSPressSec: \u201cIn prison I fell in love with my country.\u000a\u000aI had loved her before then but like most young people, my affection was lit\u2026
p180
aV@AnnCoulter OMG you\u2019re Fucking trash!
p181
aV@WalshFreedom @SarahKSilverman It\u2019s easy to bash anyone\u2019s religion based on unverified books. Some may even say writings of fiction..
p182
aV@cindymccain @MeghanMcCain The carefully coordinated bipartisan service by @SenJohnMcCain was why the country loved\u2026 https://t.co/izwFUFG48v
p183
aV@tedcruz I love how you accept his support after he trashed you, your grandfather, and your wife in the election. P\u2026 https://t.co/zlfsnh5mOo
p184
aV@WalshFreedom @BetoORourke Maybe you should just delete it. I remember you getting all hurt a few months back becau\u2026 https://t.co/T6iYYaTWrq
p185
aVRT @ABC: R-E-S-P-E-C-T: In honor of Aretha Franklin's life and legacy, the Welsh Guards Band plays Aretha's hit "Respect" at the Changing o\u2026
p186
aV@WalshFreedom @BetoORourke How is this relevant? Didn\u2019t you have some legal issues surrounding missed child support payments?
p187
aVRT @GOVTWINE: TODAY AS WE CONTINUE TO HONOR JOHN MCCAIN I HOPE THE STATE OF AZ HONORS HIS DYING WISHES AND ALLOWS HIS WIFE CINDY TO SERVE O\u2026
p188
aVRT @KamalaHarris: The president is an unindicted co-conspirator in federal crimes and he has nominated someone to the Supreme Court who bel\u2026
p189
aVRT @Bornabrit1: A tearful  LINSEY GRAHAM On the senete floor:\u000aSaid that there is a little bit of John McCain in us all.\u000a\u000a"DONT delude yours\u2026
p190
aVRT @tedlieu: For folks wondering why @realDonaldTrump is obsessed with @FBI official Bruce Ohr, here is what Mr. Ohr did. He gave informati\u2026
p191
aVRT @SenKamalaHarris: Retweet if you:\u000a\u000a-Have a pre-existing condition\u000a-Love someone with a pre-existing condition\u000a\u000aThe fight over Kavanaugh\u2019\u2026
p192
aVRT @EdKrassen: @realDonaldTrump @TuckerCarlson The Steele Dossier was funded by Republicans in the beginning.  It's not illegal to pay for\u2026
p193
aV@kathygriffin @chelseahandler @DonaldJTrumpJr Lol when was the last time James Woods worked ????
p194
aV@EricTrump @TrumpChicago Except everyone that lives here complains on how it has ruined our skyline with stupid ugly lettering
p195
aVRT @DisavowTrump20: BREAKING: a new poll shows Democratic Rep. Beto O\u2019Rourke in a statistical tie with Ted Cruz for the 2018 Texas U.S. Sen\u2026
p196
aVRT @jeaniemattone: Dear @realDonaldTrump , We, the people do hereby demand your resignation, effective immediately!   We\u2019ve had enough!!! P\u2026
p197
aVRT @WalshFreedom: All the media will talk about this week is Trump's immature &amp; despicable reaction to John McCain's death. You know why?\u2026
p198
aVRT @tombrokaw: pres trump - you are commander in chief by law, duty bound to honor sen mccain\u000aignoring his death is a disgrace
p199
aVRT @Augustus709: A total trump move. He expresses his sympathy to John McCain's FAMILY, but says nothing about McCain himself. \u000a\u000aWhat a pet\u2026
p200
aVRT @RepSwalwell: What\u2019s so damn sad is the number of people who come up to me and ask \u201cNow that [insert new Trump scandal] will Republicans\u2026
p201
aVRT @itsJeffTiedrich: Jeff Sessions def didn't sign up for any of this bullshit. all he ever wanted to do was deny black people the right to\u2026
p202
aVRT @TheTweetOfGod: Retweet this and I\u2019ll clog one of his arteries.
p203
aV@Jim_Jordan This is half the truth, the dossier was started by republicans and verified as true, then stopped when\u2026 https://t.co/IOjFkjH9n2
p204
aV@LetthatSinkIn4 @_socialunrest @charliekirk11 Are you really that naive or do you chose to be blind. As a mother wi\u2026 https://t.co/ahAqaqysIK
p205
aV@realDonaldTrump @cindyhydesmith And she won\u2019t flip because I need strong criminals fighting beside me...
p206
aV@charliekirk11 Again, this is simply bullshit. Maybe sit down and talk to a Democrat
p207
aVRT @SenKamalaHarris: President Trump is an unindicted co-conspirator to a federal crime to influence an election for the office he now hold\u2026
p208
aV@realDonaldTrump Delusional!
p209
aVRT @SymoneDSanders: Mollie Tibbetts was murdered b/c she told a man to leave her alone while she was jogging. Her murderer happens to be un\u2026
p210
aV@charliekirk11 You\u2019re literally a dumbass
p211
aV@realDonaldTrump It\u2019s a god damn tragedy that trump is trying to politicize
p212
aV@charliekirk11 You piece of shit, did you not read how her family did not want this to be politicized
p213
aV@realDonaldTrump @foxandfriends @ainsleyearhardt Will you be talking about collusion????
p214
aVRT @RealDonaldTrFan: If anyone is looking for a good porn star for a DISCRETE extramarital affair, I would strongly suggest that you don\u2019t\u2026
p215
aVRT @SenSchumer: Judge Kavanaugh\u2019s refusal to say a POTUS must comply w a duly issued subpoena &amp; Mr Cohen\u2019s implication of POTUS in a federa\u2026
p216
aVRT @EdKrassen: I can\u2019t imagine how conflicted @seanhannity must feel today after his own lawyer and best-friend-for-life just implicated hi\u2026
p217
aV@IngrahamAngle It\u2019s not a setup of you\u2019re guilty! I can\u2019t believe how anyone supports Trump anymore
p218
aVRT @jaketapper: The president\u2019s first public reaction to his fixer pleading guilty to felonies to hide from the public before the 2016 elec\u2026
p219
aVRT @ChanceFrom79th: Dear CNN, please stop airing Trump's rally speech as it's a distraction from the Michael Cohen news. If Trump mentions\u2026
p220
aVRT @samlucasss: hey i\u2019m a member of mollie\u2019s family and we are not so fucking small-minded that we generalize a whole population based on s\u2026
p221
aVRT @TeamPelosi: Michael Cohen. Michael Flynn. Paul Manafort. Chris Collins. Duncan Hunter. Vern Buchanan. Scott Pruitt and the Trump Admini\u2026
p222
aV@charliekirk11 Not really the same but nice try
p223
aV@charliekirk11 Because he was busted!
p224
aV@charliekirk11 Are you fucking kidding me? Stop with the partisan bullshit, this is a tragedy not a political stomp\u2026 https://t.co/8UDylf5SqQ
p225
aV@WalshFreedom @realDonaldTrump Not yet
p226
aVRT @RonaldKlain: Charlie Brown announces that Lucy has assured him that the football absolutely, positively, will not be pulled away this t\u2026
p227
aVRT @peterdaou: Hey Charlie, let me tell you what "hating America" is: \u000a\u000aRepublicans coddling dictators, smearing the FBI, bowing to Putin,\u2026
p228
aVRT @MichaelAvenatti: .@RudyGiuliani Buckle Up Buttercup. You and your client completely misplayed this... https://t.co/peLpswrDO1
p229
aV@charliekirk11 Delusional much?
p230
aVRT @Protect_Wldlife: This is just plain wrong. How could you pull a trigger and shoot something as majestic as this animal. Trophy hunting\u2026
p231
aV@chuckwoolery @trryksr63 And yet I am here reading your tweet..
p232
aVRT @joncoopertweets: When I woke up today, @realDonaldTrump was STILL a racist, misogynistic, homophobic, xenophobic, corrupt, greedy, narc\u2026
p233
aV@cspan @jaketapper @FLOTUS I wonder if she follows @realDonaldTrump on twitter??? #BullyInChief
p234
aVRT @BillKristol: Trump tweets that Robert Mueller is "disgraced and discredited" and has working with him a "whole group of Angry Democrat\u2026
p235
aVRT @ItsMeCathi: Republican Senator Susan Collins now says she's undecided on her vote to confirm Supreme Court nominee Brett Kavanaugh. \u000a\u000aW\u2026
p236
aVRT @HuffPostPol: \u201cI called his behavior treasonous, which is to betray one\u2019s trust and to aid and abet the enemy,\u201d Brennan said. \u201cAnd I sta\u2026
p237
aVRT @Bornabrit1: IT'S VERY CLEAR :\u000aTRUMP'S A RACIST !\u000aHis ACTIONS against the BLACK COMMUNITY \u000aHave always been EVIDENCE of this.\u000a\u000aOMAROSA'S\u2026
p238
aVRT @electroboyusa: For 2 years, I've been silenced about speaking about @POTUS and his obvious #mentalhealth issues and been told it's only\u2026
p239
aVRT @BitchestheCat: I really hope that the history books remember to note that this President was so weak and so insecure that he blocked a\u2026
p240
aV@realDonaldTrump @FoxBusiness Mueller has it all asshole!
p241
aVRT @Protect_Wldlife: Once again @RickyGervais gets it spot on when it comes to his views on trophy hunters!\u000a\u000a"Well done. You managed to sho\u2026
p242
aVRT @JoeBiden: In the time I have known him, John Brennan has never been afraid to speak up and give it to you straight. Revoking his securi\u2026
p243
aVRT @spookperson: today I learned that goats who won't stop head butting have to wear pool noodles and it feels like information I should sh\u2026
p244
aVRT @eugenegu: Trump is a vindictive dictator who punishes people for speaking out against him. Revoking John Brennan\u2019s security clearance s\u2026
p245
aV@angelaglaros @_GreatBike_ @RodneyDavis He won\u2019t respond, he doesn\u2019t speak to his constituents.....
p246
aVRT @AngrierWHStaff: I don\u2019t understand how *any* woman, or parent who has daughters could possibly support this jackass. The way he speaks\u2026
p247
aVRT @jentaub: Seriously? @realDonaldTrump hired Omarosa, Mike Flynn, Carter Page, George Papdopolous, Paul Manafort, Rick Gates and Rob Port\u2026
p248
aV@realDonaldTrump You\u2019re literally a clown!
p249
aVRT @StephenKing: Space Force: I keep thinking of one of those old Saturday morning shows with puppets n shit. Retweet ONLY if you think thi\u2026
p250
aVRT @gelles: Ohio 12th District (55% reporting)\u000a\u000aO'Connor (D)  50.4%\u000aBalderson (R) 48.9%\u000a\u000aFull coverage right now live on @CNN
p251
aV@DonaldJTrumpJr @Troy_Balderson @realDonaldTrump And Donny John Jr, Danny o\u2019Conner is leading .....
p252
aVRT @EdKrassen: BREAKING: Democrat Danny O\u2019Connor is leading Republican Troy Balderson 53.2 to 46.1 in the #OH12 Special Election with 32% o\u2026
p253
aV@CaroleRadziwill How absolutely amazing you were able to work for and with him. Must be so cool
p254
aVRT @MarkJKremer: The things that make me one of Americas most pissed off activists, are the same things that will make me one of Americas h\u2026
p255
aV@MZHemingway @DonaldJTrumpJr Quick fact that keeps being lost in the weeds...fusion GPS investigation was originall\u2026 https://t.co/XbqtLKTBkL
p256
aVRT @_GreatBike_: @RodneyDavis, this is what a town hall looks like, since you've never seen one. @RodneyDavis is #TaxationWithoutRepresenta\u2026
p257
aVRT @DebraMessing: The wagons are circling. Bye bye Don Jr. https://t.co/iofptRLP2O
p258
aVRT @RepMikeQuigley: One of the most striking public reversals in presidential history. \u000a\u000aThe President's acknowledgement of his blatant lie\u2026
p259
aVRT @StephenCurry30: Keep doing you @KingJames! \U0001f4aa\U0001f3fd https://t.co/LOFVdQgyYr
p260
aV@FoxNews @Scaramucci @JudgeJeanine The @potus is a human wrecking ball period! The man is trash, trashing our country!
p261
aVRT @TalbertSwan: .\u2066@KingJames\u2069 married his high school sweetheart. He has 3 children by 1 woman. He has more morality in his pinky toe than\u2026
p262
aV@JudgeJeanine @Scaramucci #WrongSideOfHistory
p263
aVRT @TheTweetOfGod: If I didn't love LeBron James I wouldn't have named the King James Bible after him.
p264
aVRT @rndy80: @realDonaldTrump  https://t.co/GYOZXX4BQB
p265
aVRT @AngrierWHStaff: The dam is breaking. The biggest political scandal in American history is about to reach a boiling point. Trump is work\u2026
p266
aVRT @WalshFreedom: Just want to say thank you again to Robert Mueller, a true patriot, for taking this work and this investigation on.\u000a\u000aMost\u2026
p267
aVRT @DisavowTrump20: BREAKING: Supreme Court Justice Ruth Bader Ginsburg plans to stay on the Court for at least 5 more years! \u000a\u000aRETWEET if\u2026
p268
aVRT @AltUSPressSec: @Jim_Jordan You said you'd protect those young men, and instead you covered up thousands of incidents of sexual abuse. Y\u2026
p269
aVRT @GeorgeTakei: Overheard: \u201cI\u2019m starting to think that someone who paid $250K to have sex twice may not be the best at making deals.\u201d
p270
aV@MarisaAnne_21 I\u2019m going to the store on my way home...
p271
aV@SenateGOP @HouseGOP TRAITORS!! https://t.co/qnMqwwahHt
p272
aV@realDonaldTrump And FYI the Steele dossier was started by one of your republican opponents, when you won the prima\u2026 https://t.co/dYXweXCrDE
p273
aV@realDonaldTrump Because you\u2019re an ass clown and he did tell you and he told Hillary! And now you\u2019re going down for\u2026 https://t.co/dqNRCE5K4e
p274
aVRT @JanzforCongress: We all know that @DevinNunes is a liar but it has now come to our attention he specifically lied about the FISA warran\u2026
p275
aV@mike_pence @IngrahamAngle @VoteMarsha Clutch my pearls, not a liberal....but a traitor in the White House is cool
p276
aV@IngrahamAngle Legit, tell me why you support Trump? Honest question trying to understand
p277
aV@realDonaldTrump WTF YOU DON\u2019T EVEN KNOW THE WORDS!!! #TrumpTraitor
p278
aVRT @MillenPolitics: It only takes two.\u000a\u000aTwo Republican Senators with spines. \u000a\u000aTwo Republican Senators who\u2019re Patriotic.\u000a\u000aTwo Republican Se\u2026
p279
aV@inputfunction @ACTBrigitte @WalshFreedom Interesting read and perspective. Facts are facts and should be treated a\u2026 https://t.co/bWWtSGCiWL
p280
aVRT @Bornabrit1: Reguarding Trumps invitation for PUTIN to visit the WHITE HOUSE.\u000a\u000aWHAT an INSULT this invitation is.\u000a\u000aTRUMP is inviting  \u000aA\u2026
p281
aV@realDonaldTrump Dear lord your stupidity makes me so angry
p282
aV@inputfunction @ACTBrigitte @WalshFreedom And how was this racist
p283
aV@inputfunction @ACTBrigitte @WalshFreedom Not sure what team you are speaking of? I am on team America the one that\u2026 https://t.co/ZUFUxLBlfD
p284
aV@ACTBrigitte @WalshFreedom I also love how anyone can support trump after the shit show that was his joint press co\u2026 https://t.co/p6OIm0yuPh
p285
aV@ACTBrigitte @WalshFreedom People can be passionate without being called someone that suffers from trump derangemen\u2026 https://t.co/1OhgmxmwFQ
p286
aV@SteveKingIA I always love it when a god lovin Nazi congratulates me.....
p287
aVRT @McFaul: I don\u2019t consider it \u201csincerity\u201d to falsely accuse US government officials of being criminals. https://t.co/bNYRIad2Cn
p288
aVRT @tedlieu: Dear @SpeakerRyan: Can I get ethics clearance to use $15,000 from my leadership committee to pay for Cleveland @Cavs tickets?\u2026
p289
aVRT @RadioFreeTom: This is horrifying. There can be only one announcement: That Putin can go piss up a rope. The President must stand by @mc\u2026
p290
aV@VP @POTUS Complicit traitor!
p291
aVRT @McFaul: As I discuss in detail in From Cold War to Hot Peace, Putin has been harassing me for a long time. That he now wants to arrest\u2026
p292
aV@WalshFreedom God said \u201cthou shall have guns\u201d ?
p293
aVRT @RepMikeRogers: When you stand alongside a former KGB officer and disparage our Intelligence Community you undermine our global position\u2026
p294
aV@IngrahamAngle @realDonaldTrump Laura you\u2019re better than this (one hopes) it was more than s misstep it was unpatri\u2026 https://t.co/cPxIRiwBph
p295
aVRT @AltUSPressSec: No American President in the past century would have even considered for a moment a Russian request to turn over an Amer\u2026
p296
aV@realDonaldTrump And the two biggest opponents to true democracy are @potus and Putin!
p297
aV@FoxNews @DonaldJTrumpJr @RandPaul  https://t.co/mU45R6Wcj6
p298
aV@FoxNews @DonaldJTrumpJr @RandPaul Rand Paul is on the #TrumpTreason train! Who cares who the man voted for when he\u2026 https://t.co/wF6Yhlp0f2
p299
aVRT @RepDennyHeck: The @HouseGOP needs to get over its addiction to Donald Trump. The President\u2019s behavior has gone beyond defying norms. Hi\u2026
p300
aVRT @richardmarx: I misspoke. I meant to say I \u201cwouldn\u2019t\u201d be right here waiting for you.
p301
aV@realDonaldTrump  https://t.co/F1gFd9zKtG
p302
aV@KrisKobach1787 @DonaldJTrumpJr @realDonaldTrump  https://t.co/3C85xFLuzd
p303
aV@WalshFreedom Say what you will but at least we had a man that could speak and do it goodly !
p304
aVRT @TeamPelosi: Nice try. But seriously, no one believes you. https://t.co/XHjGdMx1IU
p305
aV@realDonaldTrump #bebest didn\u2019t say go fuck yourself you treasonous bastard #civility
p306
aV@realDonaldTrump Fuck off traitor!
p307
aV@realDonaldTrump #TrumpIsATraitor
p308
aV@IngrahamAngle @TuckerCarlson @realDonaldTrump What for the love of god and country is wrong with you!!! #TrumpIsATraitor
p309
aV@WhiteHouse @POTUS #SmokeyLies
p310
aVRT @MikeLevinCA: Please retweet if you DO NOT believe a word that @realDonaldTrump just said.
p311
aV@IngrahamAngle @carlbernstein @realDonaldTrump @CNN @potus is disloyal...some would say his actions were treasonous\u2026 https://t.co/rwdVzRmuv1
p312
aV@AltUSPressSec @AP_Politics Prior to entering the room @potus can be heard mumbling \u201chope Vlad isn\u2019t watching\u201d
p313
aV@tedcruz He said \u201cimpeach\u201d not \u201cgo f*ck yourself\u201d #civility #peopleoverparty
p314
aV@tedcruz @BetoORourke @realDonaldTrump @potus comments were treasonous and his actions all week were deplorable. Yo\u2026 https://t.co/Q1cJF8NnpI
p315
aVRT @davidhogg111: Russia used the NRA to give Trump $30 million \u000aRussia used the NRA to give Trump $30 million \u000aRussia used the NRA to give\u2026
p316
aVRT @SoulStealer25: @WhiteHouse If you want people DO NOT SIDE WITH A MURDEROUS DICTATOR \u000a\u000aYou don\u2019t need to be a stable genius to figure th\u2026
p317
aVRT @AltUSPressSec: Senator Corker, you have an opportunity to join the pantheon of true American heroes.\u000a\u000aPledge your vote to stop business\u2026
p318
aV@jasoninthehouse @FoxFriendsFirst @FoxNews @FoxNewsSunday Super excited someone had the guts to challenge Putin. Our @potus certainly didn\u2019t
p319
aVRT @WalshFreedom: This press conference is an absolute disgrace. Trump won't even side with America.\u000a\u000aWhat Trump did today was commit treas\u2026
p320
aV@The_Trump_Train @realDonaldTrump Hey asshole, he threw the US intelligence community under the fucking bus on nati\u2026 https://t.co/SKN6tlrRsb
p321
aV@realDonaldTrump It\u2019s not fake news when it was on LIVE TV!! #TreasonSummit
p322
aV@realDonaldTrump @RandPaul You are both traitors!
p323
aVRT @PreetBharara: Did you see any evidence of collusion today? https://t.co/tv0JvzpGKP
p324
aV@SRuhle @ursusmiratus  https://t.co/d8fJ8IOc87
p325
aV@realDonaldTrump @seanhannity @TuckerCarlson #TRAITOR
p326
aVRT @PaulDEaton52: The only explanation for today\u2019s appalling performance by @realDonaldTrump is the Russians have high value compromising i\u2026
p327
aVRT @bessbell: You blocked me because you were upset by a tweet about your fabricated bone spurs, but you should know, @realDonaldTrump , ev\u2026
p328
aVRT @AltUSPressSec: FYSA, you can actually hear loud noises from in the building. So Trump does have to hear this. https://t.co/5el72IIqyx
p329
aV@replouiegohmert @foxandfriends  https://t.co/KCbxJJlAdv
p330
aV@VP @POTUS You are a treasonous clown! #ComplicitInTreason #TreasonSummit
p331
aV@robbystarbuck @DonaldJTrumpJr Are you fucking kidding me?!?! If you\u2019re attacking John Brennan today for his (true)\u2026 https://t.co/N2Jtjcnr9E
p332
aVRT @HillaryClinton: Well, now we know. https://t.co/olQlhzQiuO
p333
aVRT @irishrygirl: I would love for Bob Mueller to be waiting on the tarmac as Air Force one lands.
p334
aVRT @WalshFreedom: You saw a man today both ill-equipped to be President, and a man clearly not loyal to this country's best interests.\u000a\u000aGan\u2026
p335
aV@realDonaldTrump #IMPEACHTRUMPNOW #TRUMPTREASON
p336
aVRT @AltUSPressSec: If they do nothing, History will remember the entire Republican Party as we now regard the Vichy Government of Nazi-occu\u2026
p337
aVRT @AltUSPressSec: The time of reckoning is now. @SpeakerRyan must file Articles of Impeachment before Trump lands in the United States, or\u2026
p338
aV@IngrahamAngle @JohnBrennan @realDonaldTrump Shame on you!!!!! You\u2019re  attacking John Brennan today for his (true)\u2026 https://t.co/3bwJF0kgQc
p339
aV@SenateGOP @HouseGOP  do not be on the wrong side of history! #IMPEACHTRUMPNOW #TrumpTreason https://t.co/LAKnWP4CxR
p340
aV@RandPaul Shame on you If you\u2019re attacking John Brennan today for his (true) comments and not upset at POTUS for hi\u2026 https://t.co/4aicjjUqAP
p341
aV@SebGorka @DonaldJTrumpJr @JohnBrennan @realDonaldTrump We just witnessed the @potus abdicate his national security\u2026 https://t.co/yfif33gjyB
p342
aV@GOP @SenateGOP @HouseGOP WHERE ARE YOU?? https://t.co/VysKQBN74V
p343
aVRT @Bornabrit1: We have CLEAR  PROOF beyond a reasonable doubt that our elections were hacked by the Russians.\u000a\u000aThe GOP wasted a whole day\u2026
p344
aVRT @robreiner: The President of the United States is committing treason in front of the whole world.
p345
aVRT @RuthMarcus: Everyone who works for Trump: quit now. Save your souls. Save your honor. Save your reputation. Russia attacked our democra\u2026
p346
aV@seanhannity @realDonaldTrump is a TRAITOR!
p347
aVRT @WalshFreedom: Trump was a traitor today. I cannot &amp; will not support a traitor. \u000a\u000aNo decent American should.
p348
aV@MarisaAnne_21 https://t.co/rRbnpbogXD
p349
aV@NPR #Traitor
p350
aV@LindseyGrahamSC @POTUS is a traitor and congress needs to hold him accountable #PeopleOverParty #SupportMueller
p351
aV@GOP @SenateGOP your @POTUS is a traitor! When will you hold him accountable?? https://t.co/1DjBIBBx1o
p352
aVRT @WalshFreedom: On the question of Russian interference in our election:\u000a\u000aAll of America's best &amp; brightest say yes.\u000a\u000aTrump &amp; Putin say n\u2026
p353
aV@WalshFreedom He is a traitor pure and simple!
p354
aV@realDonaldTrump Make no mistake DONALD TRUMP is a traitor!!
p355
aVRT @ABC: The "Trump baby" balloon takes flight in Edinburgh for Pres. Trump's arrival in Scotland, after flying above crowds of protestors\u2026
p356
aV@DonaldJTrumpJr You can be a patriot and hate @realDonaldTrump you traitor!
p357
aVRT @oliverdarcy: In light of the Mueller indictments, I called @newtgingrich to see if he would like to apologize to the Seth Rich family f\u2026
p358
aV@AnnCoulter @jasoninthehouse Please, no republican can ever talk about cheating when Donny John is in office!
p359
aV@fred_guttenberg @jaketapper I can\u2019t even imagine your pain. #MarchForOurLives #NotInVain
p360
aV@WalshFreedom I love him!!
p361
aV@DonaldJTrumpJr Treason!!
p362
aV@andylassner Dibs!
p363
aV@IngrahamAngle Are you fucking nuts?
p364
aVRT @AltUSPressSec: If Trump does not #CancelPutinSummit, he may as well be signing a guilty plea. https://t.co/ty7yDh0X8F
p365
aVRT @HouseDemocrats: Where there\u2019s smoke, there\u2019s fire. The Mueller investigation must be allowed to #FollowtheFacts. https://t.co/tCbdwDwtET
p366
aVRT @EdKrassen: Since @realDonaldTrump isn\u2019t there to see it, whatever you do, don\u2019t make this go viral.\u000a\u000aThis is what a real crowd looks li\u2026
p367
aV@DonaldJTrumpJr Nope, daddy wins the creepy contest
p368
aV@ABC .....and this too was a lie
p369
aV@WalshFreedom Destroyed how?
p370
aV@ABC It is painful to listen to this man speak
p371
aV@kaitlancollins @jaketapper He\u2019s just an ass...
p372
aV@replouiegohmert @HouseJudiciary @GOPoversight How dare you question ANYONE about lying to their wives when you sup\u2026 https://t.co/DipOaMiCWU
p373
aV@ABC The @HouseGOP and @SenateGOP should NEVER question cheating while they continue to support the @POTUS who has\u2026 https://t.co/lwhHeGvll3
p374
aVRT @ABC: LIFTOFF: Protesters raise "Trump baby" balloon over London, England, during the president's U.K. visit. https://t.co/dweWO5yiKt ht\u2026
p375
aVRT @ananavarro: Today, I just want to thank the men and women of the FBI and their families for their dedication to serving our country -wh\u2026
p376
aV@MichaelAvenatti OMG I don\u2019t know what #Basta means but how I love this man and all he does! The only person Donnie\u2026 https://t.co/SAhtRr0uUw
p377
aVWhen will the @HouseGOP @SenateGOP put people over party!!! What are you all afraid of? https://t.co/MtslMSAaPL
p378
aVRT @ABC: FBI Agent Peter Strzok: "I strongly believe today's hearing is just another victory notch in Putin's belt." https://t.co/tY1h3DcHx\u2026
p379
aV@LindseyGrahamSC @ChuckGrassley WHAT DOES TRUMP HAVE OVER YOU??
p380
aVRT @JohnKerry: My thoughts on President Trump's remarks in Brussels this morning: https://t.co/x0k3k0lOkA
p381
aVRT @BetoORourke: You just raised more than $10.4 million in 3 months. From 215,714 contributions. All people, no PACs. https://t.co/QdTcAk3\u2026
p382
aV@joshtpm @jaketapper #BatShitCrazy
p383
aVRT @AltUSPressSec: #BrettKavanaugh:\u000a\u2014 Thinks a President cannot be criminally investigated.\u000a\u2014 Wants to make abortion illegal.\u000a\u2014 Ruled that\u2026
p384
aV@DonaldJTrumpJr #FakeNews
p385
aVRT @timkaine: Projecting much? https://t.co/sRNsczSYQG
p386
aV@RodneyDavis Oh Rodney, Rodney, Rodney, you are so disconnected to the people you represent! Do you even talk to yo\u2026 https://t.co/LuL5vhycAU
p387
aVRT @GovHowardDean: He is a criminal. https://t.co/8cpf664pvy
p388
aV@WalshFreedom Don\u2019t get mad because he is responding to our madman in chief...
p389
aV@RepHultgren The fact that Kavanaugh believes that a President should not be subject to civil litigation or crimina\u2026 https://t.co/PgZ4TWRY0D
p390
aV@MB61 Umm, this is not a #BeBest moment
p391
aVRT @RepAdamSchiff: When McConnell refused to hold a confirmation hearing for Obama\u2019s Supreme Court nominee and demanded to wait until after\u2026
p392
aV@WalshFreedom You already know why....
p393
aVRT @HeatherWhaley: Kavanaugh isn\u2019t fooling anyone with talk about his female family members. He\u2019s here to take away our autonomy over our o\u2026
p394
aV@Scaramucci @POTUS The fact that Kavanaugh believes that a President should not be subject to civil litigation or c\u2026 https://t.co/OH25dJ4SAK
p395
aVRT @CoryBooker: President Trump is currently a subject of an ongoing criminal investigation\u2014there is a clear conflict of interest inherent\u2026
p396
aV@GovRauner The fact that Kavanaugh believes that a President should not be subject to civil litigation or criminal\u2026 https://t.co/tHYR5RAVSV
p397
aV@RodneyDavis That\u2019s gonna be a no from me Rodney! I wonder if you will put the people you represent over party
p398
aV@DonaldJTrumpJr @realDonaldTrump is trash!! I can\u2019t believe anyone stands behind this vile piece of human garbage!
p399
aVRT @ABC: Protesters have been given approval to fly this giant "Trump baby" blimp over London during the president's visit to Britain. http\u2026
p400
aV@EdKrassen I could not love this any more.
p401
aVRT @RogueEPAstaff: If you\u2019re happy Pruitt is gone, please RT to thank the career staff who risked their careers and reputations to make sur\u2026
p402
aVRT @litmus: hey @northropgrumman: why does this violent white supremacist still have a job with your company? are you all white nationalist\u2026
p403
aV@kylegriffin1 He sounds perfect for a job in this White House!
p404
aV@DonaldJTrumpJr @realDonaldTrump Have a seat JR. This behavior is unacceptable unfortunately your father is the one\u2026 https://t.co/Vk7MXsUCNX
p405
aV@MarisaAnne_21 you have been warned \U0001f923\U0001f923\U0001f923 https://t.co/vlcv4ltSi5
p406
aVRT @joncoopertweets: BREAKING: @MichaelAvenatti announces he will run for President in 2020 If Trump seeks re-election AND if there are no\u2026
p407
aVRT @ProPublica: New: For months, ProPublica and @frontlinepbs  have been working to identify the white supremacists at the center of violen\u2026
p408
aV@JackPosobiec Seriously presidents Dumb and Dumber??
p409
aV@realDonaldTrump Dumbest @potus EVER!!
p410
aV@realDonaldTrump #pour
p411
aV@MarkJKremer Oh crap, I overslept!! Did I miss it??
p412
aVRT @EdKrassen: Dana Loesch just claimed she never said this?  Here is proof. \u000a\u000aThis is @NRA Spokeswoman Dana Loesch (@DLoesch) saying that\u2026
p413
aV@IngrahamAngle Of course it\u2019s a staged photo-op!
p414
aVWill the @GOP ever call him out in his lies, I am guessing not! https://t.co/lf9ZoAWdui
p415
aV@RawStory Why are they \u2018scrambling\u2019 to find out? @potus is a MORON that\u2019s why!
p416
aV@DonaldJTrumpJr Why should he? It was a reasonable conclusion to jump to after everything your father has said about the press!
p417
aVRT @MichaelAvenatti: Mr. Trump is dangerous and not to be underestimated as an opponent. That is how we ended up in this mess to begin with\u2026
p418
aVRT @EdKrassen: Why is a Trump-Putin meeting even being considered right now as Russia continues to attack our Democracy and Trump is under\u2026
p419
aV@MsAshJacobs Y\u2019all gather around!! You can stop calling her a gold digger, she paid for dinner \U0001f61c
p420
aV@Pataltschul Lol #HiAshley
p421
aV@MsAshJacobs @KathrynDennis @Pataltschul #HiAshley
p422
aV@MsAshJacobs Hahahahaha
p423
aV@MsAshJacobs Petty and desperate, not a good look. T-Rav\u2019s cash is not worth the drama....
p424
aV@MsAshJacobs You need to stop, this is not a good look! #YouDontTrollObituaries
p425
aV@DonaldJTrumpJr More trump family lies
p426
aVhttps://t.co/0PtacncxPS via @LiveNation
p427
aVRT @ItsMeCathi: Melania Trump's favorability fell from 57% to 51% this week.\u000a\u000aThat's a 6% drop.\u000a\u000aI don't really care do u?\u000a\u000aRetweet if you\u2026
p428
aVRT @tedlieu: Dear @realDonaldTrump: I will support merit based immigration based on the same standards that allowed your grandfather, who s\u2026
p429
aV@realDonaldTrump Jail, jail, jail Jail, jail, jail
p430
aV@AriFleischer @jaketapper Well if bakeries don\u2019t have to make cakes for gays we can have restaurants that don\u2019t want to serve liars
p431
aV@realDonaldTrump Seriously a page out of Hitlers book. Parade the victims about so you can propagate hate and move your Nazi agenda forward.
p432
aV@VP @POTUS @WhiteHouse You do realize that Hitler did the same thing....parade the victims of crimes committed by a\u2026 https://t.co/cgMXdhQdSo
p433
aV@chrislhayes @Scholten4Iowa I\u2019m gonna say it\u2019s because he too is a Nazi Chris...
p434
aVRT @DearAuntCrabby: Dear @FLOTUS Yes...I do fucking care, you heartless bitch.
p435
aVRT @Satiristas: "Tax returns provide essential information about candidates' conflicts of interest."\u000a\u000a#RhodeIsland bill would keep Trump of\u2026
p436
aVRT @CNN: There's nearly a Nixon 1974 level of public support for impeaching President Trump | Analysis by @zbyronwolfhttps://t.co/JujLNOlG\u2026
p437
aVRT @Scholten4Iowa: We've significantly outraised @SteveKingIA in each of the last two quarters.\u000aIf we can outraise him for the third quarte\u2026
p438
aV@WVJAPpalachia @thistallawkgirl So rude!! She is very obviously a C cup! Damn liberals and your small boobs!
p439
aV@SteveKingIA How about a scintilla of Nazi. #VoteHimOut
p440
aVRT @ManInTheHoody: Number of times Hillary had to visit kids Bill was kidnapping: 0\u000a\u000aNumber of times Laura had to visit kids George was kid\u2026
p441
aV@realDonaldTrump More lies! #OrangeLiesMatter
p442
aVRT @RepMaxineWaters: Michael Cohen, save yourself. Flip, flop, do the drop.
p443
aV@RealJamesWoods Didn\u2019t you try to lure a 16 year old to Vegas? You
p444
aV@RealJamesWoods Didn\u2019t you try to take a 16 year old to Vegas????
p445
aV@IngrahamAngle @LifeZette Umm you\u2019re not mainstream media. #ConservativeLies
p446
aV@DonaldJTrumpJr #trumptrash #WompWomp
p447
aV@MatthewNussbaum @jaketapper All he does is lie!
p448
aV@realDonaldTrump #MoreTrumpLies
p449
aV@realDonaldTrump @FoxNews Fox News = Fake News  #OrangeLiesMatter
p450
aV@JackPosobiec Umm no, it wasn\u2019t because his family is conservative and you know that but nice spin
p451
aV@SteveKingIA @charliekirk11 \u201cDestructive left\u201d said the Nazi.
p452
aV@WhiteHouse @POTUS #OrangeLiesMatter
p453
aV@CNN Of course he won\u2019t he was scumbag @realDonaldTrump campaign manager
p454
aV@IngrahamAngle @realDonaldTrump Every time you open your mouth lies come out! #OrangeLiesMatter #BoycottFoxNews
p455
aV@IngrahamAngle ......more lies Laura #BoycottFoxNews
p456
aVRT @CNN: More than 600 members of Attorney General Jeff Sessions' church just issued a formal complaint against him, charging that his "zer\u2026
p457
aVRT @krassenstein: 8 Ways you can Help Fight Back Against Trump's Disgusting Child Kidnapping Policies.\u000a\u000aPlease RETWEET and Help if you can!\u2026
p458
aV@IngrahamAngle More lies Laura! #BoycottFoxNews
p459
aV@realDonaldTrump Do you ever stop lying???
p460
aV@IngrahamAngle #fakenews but way to spread some BS propaganda!
p461
aVRT @blainecapatch: don't worry trump is going to take out MS-13 as soon as his guys get done practicing on these toddlers
p462
aVRT @ASankin: Corey Lewandowski, who said "womp womp" on national TV today regarding a 10-year old immigrant girl with Down Syndrome being t\u2026
p463
aVRT @rickygervais: \u201cThe only thing necessary for the triumph of evil is for good men to do nothing.\u201d - Edmund Burke
p464
aV@ABC Weirdo!
p465
aV@MarisaAnne_21 #squatters
p466
aVRT @ChelseaClinton: I believe civility, decency &amp; politeness are important. It\u2019s not uncivil, indecent or impolite to name or call out raci\u2026
p467
aVRT @AngrierWHStaff: This is where he\u2019s wanted to go since he fired Comey. \u000a\u000aThis was always the end-game. It\u2019s a desperate Hail Mary, but i\u2026
p468
aVRT @jaketapper: The IG report doesn\u2019t remotely reach a conclusion about either of these issues. The president is lying and millions of Amer\u2026
p469
aVRT @jaketapper: Happy birthday to this tweet https://t.co/ZjAu7BFrNV
p470
aVRT @EdKrassen: BREAKING:  The NYS Attorney General has filed a lawsuit against the Trump family and Trump Foundation for illegally using ch\u2026
p471
aVRT @Scholten4Iowa: @JGreenblattADL Anyone who is tired of Steve King's "propensity to engage in inflammatory, bigoted rhetoric on &amp; off Twi\u2026
p472
aVRT @Scholten4Iowa: A lot of people are asking where they can contribute to the campaign since @SteveKingIA's latest outburst. If you'd like\u2026
p473
aVRT @washingtonpost: Opinion: Bob Corker loses it on the Senate floor \u2014 and it\u2019s about time https://t.co/YRuClndmPu
p474
aVRT @KaivanShroff: This is Otto Warmbier, an American college student jailed in North Korea for stealing a poster. \u000a\u000aHere, he begs for forgi\u2026
p475
aVRT @kurteichenwald: 1985, 1992, 1994, 2002, 2003, 2005, 2006, 2008, 2010, 2011, 2012 and 2016. And 2018. \u000a\u000aThose are all the years North Ko\u2026
p476
aVRT @AngrierWHStaff: If you *really* think North Korea is going to accept protection from the US in exchange for destroying the only things\u2026
p477
aV@kathygriffin Damn it Kathy, he was busy grabbing pussy and tweeting about a witch hunt! What more do you want from\u2026 https://t.co/BMyeJfq7Xt
p478
aVRT @ItsMeCathi: Watergate prosecutor said that what Sean Hannity did when he encouraged witnesses to destroy Russia investigation evidence\u2026
p479
aVRT @TheTweetOfGod: I will never consider a pardon for Donald Trump.
p480
aVRT @TheTweetOfGod: For the record, My personal pronouns are He/His. Or She/Hers. Or Its. Honestly I don't care what gender you use, but if\u2026
p481
aVSo shut the hell up you bag of cunts! @EricTrump @realDonaldTrump @DonaldJTrumpJr @IvankaTrump https://t.co/YnYcbUqILm
p482
aVRT @Amy_Siskind: Says the woman who works for a man who said "grab them by the pussy." https://t.co/W2bMdlK2Bd
p483
aVRT @bessbell: Lot of y'all talking about double standards today and I think that's great. https://t.co/oSTphy0pwm
p484
aVRT @SenSchumer: .@realDonaldTrump tweets he didn't fire Comey over the Russia investigation.\u000aLet's go to the videotape: https://t.co/VXIjcr\u2026
p485
aVRT @FoxNews: Daniel Goldman on Sessions Russia recusal: "The @POTUS probably should do his homework a little bit more, because this was an\u2026
p486
aVRT @michaelianblack: Can they just release a picture of Melania holding up a copy of today's newspaper so we know she's okay?
p487
aV@boomerfrisco @JackPosobiec @realDonaldTrump is Hillary? Shit just got interesting!
p488
aV@JackPosobiec Colluded with Russia gets a pass
p489
aV@JackPosobiec Has another lover have an abortion gets a pass
p490
aV@JackPosobiec Bangs a porn star shortly after your wife give birth, gets a pass
p491
aV@JackPosobiec \u201cGrab them by the pussy\u201d gets a pass
p492
aV@JackPosobiec @realDonaldTrump gets several passes
p493
aVRT @Stop_Trump20: https://t.co/aVwgS77CHb
p494
aV@Scaramucci @WhiteHouse It was a little more than just poor taste...
p495
aV@realDonaldTrump President bone spurs this is so out of line even for your draft dodging ass!
p496
aVRT @BarackObama: We can never truly repay the debt we owe our fallen heroes. But we can remember them, honor their sacrifice, and affirm in\u2026
p497
aV@realDonaldTrump @FoxNews #Moron
p498
aVRT @davidhogg111: We should all tweet \u201dWhy didn\u2019t you ban bump-stocks and raise the age to purchase firearm to 21 when you said you would?\u2026
p499
aVRT @MichaelAvenatti: Dazed &amp; Confused Giuliani and Mr. Trump\u2019s fabricated \u201cspygate\u201d will be the ruse they use to deceive the American peopl\u2026
p500
aVRT @ItsMeCathi: I hate when I wake up in the morning and Trump is still "president"\u000a\u000aRetweet if you agree
p501
aV@realDonaldTrump Oh Donny John, criminals go to jail. That\u2019s what happens....I think Stormy\u2019s lawyer\u2026 https://t.co/rP5jP5AEX4
p502
aVRT @ABC: Santa Fe student Megan McGuire to lawmakers: "My thought is that if you do not do something, you do not have a prayer of being ele\u2026
p503
aV@JKCorden So funny!
p504
aVRT @MMViverito: Let there be no doubt that Trump agenda is about racism &amp; not safety \U0001f447\U0001f3fd\u000a\u000a"Arrests by ICE of people with NO CRIMINAL CONVICT\u2026
p505
aVRT @davidaxelrod: What Alex Jones did to the Sandy Hook families and the memory of their children is sick and depraved.\u000aI hope they take hi\u2026
p506
aVRT @washingtonpost: Opinion: Surprise! Donald Trump is terrible at diplomacy. https://t.co/YrSfne3iDI
p507
aV@realDonaldTrump Next time please have someone correct your grammar and punctuation before you send a letter. It\u2019s\u2026 https://t.co/vJvqaEAIqZ
p508
aVRT @MichaelAvenatti: So we are foregoing a chance at a historic resolution to a nuclear crisis because we object to someone we know being c\u2026
p509
aVRT @JuddApatow: Bravo! https://t.co/RFO8Cd4UEu
p510
aVRT @votevets: Will everyone following us please tweet at @realdonaldtrump to follow the Constitution and unblock us, and the 550,000 vets,\u2026
p511
aVRT @andylassner: Compelling... https://t.co/oLmXzYY0G8
p512
aV@SpeakerRyan @POTUS Planned parenthood provides more than just one service! How dare you take access to healthcare\u2026 https://t.co/eox5FdSmqM
p513
aV@realDonaldTrump @foxandfriends Umm not so much, she is a horrible human being.
p514
aVRT @rosanthony3: @KenDilanianNBC Reminder:  The FBI DID inform the Trump campaign in July 2016 that the Russians would try to infiltrate th\u2026
p515
aV@ArthurSchwartz @DonaldJTrumpJr @Comey Are you saying you shouldn\u2019t secure a job before leaving your current? Well\u2026 https://t.co/MCvWHHMDtt
p516
aV@realDonaldTrump Every time he screams WITCH HUNT someone close to him gets indicted. Hahahaha
p517
aVRT @SenKamalaHarris: The domestic gag rule is an attack on our rights. The White House has no business deciding what a doctor or nurse can\u2026
p518
aV@ABC He\u2019s a racist piece of trash trying to save his business at the prompting of his partners. #UmmNo
p519
aV@DonaldJTrumpJr Maybe the briefing was a setup but the content of the dossier is accurate #PeePeeTape
p520
aVRT @brandon_r_horan: BREAKING: A new theory has just emerged regarding the horrific shooting in Santa Fe: The gunman did not act alone but\u2026
p521
aVRT @EdKrassen: PLEASE READ!\u000aH.R. 4240 is a bipartisan bill on background checks for purchasing firearms. Spineless Paul Ryan (@SpeakerRyan)\u2026
p522
aV@RealSaavedra Mueller had his hands full with the shot show that is the trump organization
p523
aVUmm dumbass, the @POTUS under no circumstances is supposed to use the DOJ or FBI to investigate his enemies \u2013 which\u2026 https://t.co/RmS7hnufrj
p524
aV@realDonaldTrump The @potus under no circumstances is supposed to use the DOJ or FBI to investigate his enemies \u2013 w\u2026 https://t.co/rOFmMOp5lz
p525
aV@WillD1am @SpeakerRyan @SenateMajLdr @HouseGOP @SenateGOP Fairly certain they will do nothing! #cowards #partyoverpeople
p526
aVRT @funder: BREAKING: DC area high school students have entered the US Capitol building, and are heading to Paul Ryan\u2019s office to demand he\u2026
p527
aV@ABC @POTUS will continue to do absolutely nothing!
p528
aVRT @kathygriffin: You are a sociopath completely devoid of any empathy. Go fuck yourself. https://t.co/NmW9nzQOXp
p529
aV@johncardillo Maybe @potus shouldn\u2019t have banged said porn star shortly after  @FLOTUS  gave birth to his child and\u2026 https://t.co/bE6RJmGbyf
p530
aVRT @Snowden: Note: Gina Haspel participated in a torture program that involved beating an (innocent) pregnant woman's stomach, anally rapin\u2026
p531
aV@seanmdav Actually, the RNC hired the firm first as they didn\u2019t want trump. Once he won the nomination they shelved\u2026 https://t.co/fjT969TSNn
p532
aVRT @shannonrwatts: You did this in Ohio, where Tamir Rice and John Crawford were fatally shot for holding fake guns. You\u2019re still alive, @k\u2026
p533
aV@IngrahamAngle Did you really believe that he would keep his word? Oh wait, you also voted trump!
p534
aV@IngrahamAngle Did anyone really think that he wouldn\u2019t move the goal post?!?!
p535
aV@MarisaAnne_21 Simmer down it\u2019s not the pot!
p536
aVRT @DisavowTrump20: SCOTUS Justice Ruth Bader Ginsburg has been a tireless fighter for women's equality for 40 years.\u000a\u000aRETWEET if you are t\u2026
p537
aV@MarisaAnne_21 You\u2019re walking the stage, don\u2019t be dramatic
p538
aV@DonaldJTrumpJr @realDonaldTrump #trump2020 from the federal pen!
p539
aVRT @JoyAnnReid: .@MaxineWaters everybody: https://t.co/bBwlCNDfvM
p540
aVRT @DisavowTrump20: BREAKING: Today, White House official Kelly Sadler said John McCain\u2019s opinions on the nomination for CIA Director becau\u2026
p541
aV@EdKrassen #CowardlyRyan
p542
aV#TrumpLiesMatter https://t.co/wMrwq0Vqq2
p543
aV@DonaldJTrumpJr @nypmetro If 4+ complaints re: Schneiderman are egregious enough for him to resign (they are.), the\u2026 https://t.co/GWWThPeyzg
p544
aVRT @tedlieu: Now that @FLOTUS has started her "Be Best" program to promote kindness and to counter cyber bullying, every now and then I wil\u2026
p545
aV@FLOTUS Are you going to muzzle @potus then or just take away his phone? Stupidest thing I have seen today!
p546
aVRT @DisavowTrump20: Ruth Bader Ginsburg has hired her law clerks through 2020 and is ready to #RESIST Trump until he is gone!\u000a\u000aRETWEET if y\u2026
p547
aV@jasoninthehouse @PressSec her job is to answer questions on behalf of the president! She was blindsided by Giulian\u2026 https://t.co/CKva25dku5
p548
aVRT @SenTinaSmith: If Republican leadership refuses to bring this bill to a full Senate vote\u2014like @SenateMajLdr has signaled\u2014it sends a terr\u2026
p549
aVRT @SenBooker: I'm now calling for Senator McConnell to bring the bipartisan Special Counsel Independence Protection Act to the floor ASAP.\u2026
p550
aVRT @ikebarinholtz: James Shaw Jr. stopped a guy from killing every person in that Waffle House and Trump has completely ignored him but of\u2026
p551
aVRT @funder: Trump will go down as the worst president ever in the history of the United States. Not mainly for his incompetence. Or his cor\u2026
p552
aV@FoxNews @Scaramucci @POTUS @foxandfriends Are you on drugs? Common decency? The man is a scumbag!
p553
aVRT @EdKrassen: At the funeral for Barbara Bush today, Melania Trump sat next to guess who...\u000aBarack Obama!\u000a\u000aAfter over a year in office, Me\u2026
p554
aVRT @WillD1am: Just overheard Tomi Lahren on Fox News say: "Average Americans don't go home at night &amp; wonder about the Mueller investigatio\u2026
p555
aV@realDonaldTrump I love it when it hits close to home and @realDonaldTrump starts freaking out!
p556
aVRT @EdKrassen: James Comey\u2019s story has remained consistent the entire time, yet Trump\u2019s supporters continue to support Trump who has change\u2026
p557
aV@kumailn It shouldn\u2019t amuse me as much as it does!
p558
aVRT @funder: .@realDonaldTrump-James Comey just called you a liar. Everyone who retweets this agrees with him. You\u2019re a liar. Liar. #TrumpRe\u2026
p559
aVRT @KaivanShroff: The narrative that liberals don\u2019t own guns is a complete myth. \u000a\u000aMany of us respect the 2nd Amendment, but agree that the\u2026
p560
aVRT @AngrierWHStaff: I have some unsolicited advice for any lawyer concerned about their offices being raided:\u000a\u000a1. Don\u2019t do illegal shit\u000a2.\u2026
p561
aVRT @SpinDr: Having litigated cases against the National Enquirer, I can assure you that AMI does not pay sources $30,000 for stories not ro\u2026
p562
aVRT @ABC: JUST IN: American public finds former FBI Dir. James Comey more believable than Pres. Trump, 48-32%, @ABC News/WaPo poll finds. ht\u2026
p563
aV@LindseyGrahamSC Sit down Lindsey! You won\u2019t even stand up to the bully that is @realDonaldTrump
p564
aV@realDonaldTrump This makes me giggle every time I scroll past it!! #TakenDownByAStripper
p565
aV@Andy Took the day to \u201cwork\u201d from home to binge
p566
aV@IngrahamAngle @BreitbartNews Fools! #boycotMyPillow
p567
aVRT @kpolantz: At 11:40 last night, Mueller\u2019s dropped a court filing that says:\u000a-How much Rosenstein is fully behind this investigation \u000a-Th\u2026
p568
aV@realDonaldTrump Whenever Mueller makes a move closer you get crazier. #MuellerInvestigation
p569
aVRT @AngrierWHStaff: Someone should really take a look at the trading moves made by POTUS\u2019 close friends and family when he makes these outl\u2026
p570
aVRT @thehill: NY Magazine cover depicts Trump as a pig https://t.co/BFNEGIouXm https://t.co/lUiXjNrJyI
p571
aV@Stallone @LoniLove Hahahaha so now we all know who Frank Stallone is....
p572
aVRT @EdKrassen: BREAKING:  Office Depot has joined a list of 10 other companies which have now officially cut ties with Laura Ingraham's sho\u2026
p573
aVRT @pattonoswalt: COME ON @hulu!!! https://t.co/eAeNusQxIY
p574
aVRT @kdeemac13: @RedTRaccoon Hey @Arbys where\u2019s the beef?! \u000aI have a beef with an adult using her public platform to harass &amp; bully a kid wh\u2026
p575
aV@shannonrwatts @DebraMessing #Truth
p576
aV@IngrahamAngle @davidhogg111 Apologies AFTER your advertisers left??? Sit down and please shut up!
p577
aVRT @Nutrish: @davidhogg111 We are in the process of removing our ads from Laura Ingraham\u2019s program.
p578
aVRT @Gaia8000: @eorlins @funder @hulu @IngrahamAngle @hulu, a satisfied customer here. I would hate to have to drop your service. But I am s\u2026
p579
aVRT @lauren_hoggs: HEY @FLOTUS MY BROTHER IS LITERALLY GETTING CYBERBULLIED BY @IngrahamAngle. \u000a\u000aANY COMMENTS? \u000a\u000a #NeverAgain #MarchForOurLi\u2026
p580
aVRT @krassenstein: Meet Minnesota Rep. Mary Franson. Mary just compared the heroic kids who took part in 'March for Our Lives' to Hitler You\u2026
p581
aVRT @krassenstein: This is yet another young man who attended DC's MarchForOurLives.\u000a\u000aThis is also Trump's Son-in-law, Jared Kusher's younge\u2026
p582
aVRT @ananavarro: Scheduling reminder: \u000aStormy Daniels\u2019 interview on @60Minutes airs tonight at 7pm EST on @CBS. \u000aMeans you need to set your\u2026
p583
aV@realDonaldTrump How much would I pay to see Joe Biden beat the shit out of this asshole!! #EveryLastDollar
p584
aV@DonaldJTrumpJr Aww every other weekend and Wednesday\u2019s
p585
aVRT @CNN: JUST IN: Special counsel Robert Mueller has subpoenaed the Trump Organization for documents, including some related to Russia, The\u2026
p586
aV@KellyannePolls Her husband had an affair, she forgave him as many woman sometimes do aka Melania Trump. You Kellyanne are a bitch!
p587
aV@tedcruz No one needs an AR-15, a ban makes sense!
p588
aVRT @krassenstein: BREAKING:  According to Reuters at least 137 Democrats in the House signed a letter today, which \u201cstrongly urges\u201d Trump t\u2026
p589
aV@realDonaldTrump #fakenews
p590
aV@RealJamesWoods @DonaldJTrumpJr @DNC He looks like a trump supporter!!
p591
aV@DonaldJTrumpJr Does your father simply \u201cidentify\u201d as a Cheeto?
p592
aV@MarisaAnne_21 And forgot to call your mother and tell her you\u2019re alive!
p593
aVRT @HoarseWisperer: For a guy who is supposedly a great deal maker, Trump sure pays a lot for sex.
p594
aVRT @TTomtex: @DonaldJTrumpJr Strange how little coverage this is getting\u000a#SaveTheElephants https://t.co/Ox8oxOvzzS
p595
aVRT @RepCheri: .@DonaldJTrumpJr-Midwesterners DO support investigating how much Russia helped your dad. It's just that they are tired of tur\u2026
p596
aV@charliekirk11 @DonaldJTrumpJr Umm you\u2019re president is a millionaire, have a seat please!
p597
aV@DonaldJTrumpJr You are just as dumb as your father. They have come to the table with a plan that Donny John shot down so have a seat JR!
p598
aVRT @NicolleDWallace: Is there really no one there to explain this to you? I will try at 4 pm (a little bird told me you\u2019re in free play the\u2026
p599
aV@marcorubio This is a whole lot of nothing!!  Stop wasting our time!
p600
aVRT @EdKrassen: BREAKING:\u000a\u000aDick's Sporting Goods (@DICKS)  just made an announcement they will be halting the sale of assault-style rifles a\u2026
p601
aVRT @AMarch4OurLives: If not our generation, then who? \u000a\u000a#neveragain\u000a\u000a\U0001f4f7: @KarenPlusTwo https://t.co/QEFaVPF0Cb
p602
aV@realDonaldTrump Moron
p603
aV@realDonaldTrump Dumbest thing you have said in a while...and you say stupid shit!!
p604
aV@MarisaAnne_21 WTf??
p605
aVRT @lauren_hoggs: Hey @FLOTUS  you say that your mission as First Lady is to stop cyber bullying, well then, don\u2019t you think it would have\u2026
p606
aV@IngrahamAngle Good for her, it\u2019s a true statement!
p607
aV@realDonaldTrump Why did you repeal it in the first place... perhaps it\u2019s because of the @nra #BloodMoney
p608
aV@realDonaldTrump @NRA #BloodMoney
p609
aV@realDonaldTrump Finally! Now let\u2019s see if your actions match your words
p610
aV@realDonaldTrump You really are a fucking moron! This isn\u2019t the answer. Ban assault rifles you weak pathetic hack!
p611
aVRT @JoyAnnReid: Dr. King was in his 20s when he started as a Civil Rights leader and was just 39 when he died -- younger than Jay Z. The id\u2026
p612
aV@realDonaldTrump #fake news
p613
aVSee, this is bullshit! Who needs an assault rifle? Perhaps someone that wants to kill a bunch of people real fast! https://t.co/GCDaNE9KXZ
p614
aV@MittRomney Way to bow down and toss your principles in the trash!
p615
aV@realDonaldTrump Everyone jump on the Trump Blame Train #UnfitForOffice
p616
aVRT @funder: .@realDonaldTrump-You\u2019re the worst president ever. Everyone who retweets this agrees. #PresidentsDay2018
p617
aV@realDonaldTrump God you\u2019re a fucking moron!
p618
aV@realDonaldTrump You are a fucking moron!!!
p619
aV@realDonaldTrump They did fucktard and you repealed it!
p620
aVRT @shannonrwatts: Watch this savage speech by Emma Gonzalez today in Fort Lauderdale. She pulled no punches and took no prisoners. \u000a\u000aNow j\u2026
p621
aV@realDonaldTrump BLOOD ON YOUR HANDS!!! https://t.co/YQc5nVIY3X
p622
aVRT @CJPatruno: https://t.co/jbJBUOG9nw
p623
aV@TuckerCarlson @FoxNews It has everything to do with letting anyone buy a gun! And jackass no one NO ONE needs an A\u2026 https://t.co/EGFQquGA6R
p624
aV@vilevillainess @Shoobah_Shabooh @TraceyA53 @samueljscott @realDonaldTrump  https://t.co/CBP5VSB2En
p625
aV@realDonaldTrump You are to blame! You have blood on your hands! https://t.co/pXqeYEPT28
p626
aV@marcorubio And you voted for this, trump signed this, you are both responsible! https://t.co/ZMBXzCoctx
p627
aV@charliekirk11 I don\u2019t think the founding fathers ever envisioned an AR-15! No one needs this unless they want to k\u2026 https://t.co/L4LRAPdNLO
p628
aVRT @bessbell: God have mercy on your NRA-kept souls:\u000a\u000aRichard Burr\u000a$6,986,620 \u000a\u000aRoy Blunt\u000a$4,551,146\u000a\u000aThom Tillis\u000a$4,418,012\u000a\u000aCory Gardner\u2026
p629
aVRT @longlivekcx: A gun has killed 17 of my fellow classmates. A gun has traumatized my friends. My entire school, traumatized from this tra\u2026
p630
aVRT @Amy_Siskind: .@realDonaldTrump says the shooter was \u201cmentally disturbed.\u201d  Good time to remind America of one of Trump\u2019s first acts!\u000aht\u2026
p631
aV@realDonaldTrump  https://t.co/c0mNCYKu3Z
p632
aV@PeterRoskam Condolences and sorrow will not bring back 17 kids. We need enhanced gun control!
p633
aV@RodneyDavis @FoxBusiness  https://t.co/ypeeU0gnIJ
p634
aV@RepAdamSchiff  https://t.co/99aMF8HQHp
p635
aVRT @secupp: Cupp: It\u2019s a dark day when the most powerful women in the White House lack the courage to do what\u2019s right for women. https://t.\u2026
p636
aVRT @SaysHummingbird: Every single person who retweets this tweet demands @SpeakerRyan #RemoveNunes from the Intelligence Committee. Now.\u000a\u000aH\u2026
p637
aVRT @speechboy71: \u201cI am not having a good week\u201d - John Kelly\u000a\u000a\u201cHold my diamond-encrusted flute filled with the tears of orphaned children do\u2026
p638
aV@RepHultgren Keep reading Randy, it\u2019s a scam and not good for Illinois #PeopleBeforeParty
p639
aVRT @krassenstein: This is Utah Republican Rep. Jon Stanard\u000a\u000aHe voted for tougher penalties for prostitution.\u000a\u000aHe has just resigned amid all\u2026
p640
aVRT @leahmcelrath: Spot the difference between them and the immigrants being targeted \U0001f9d0 https://t.co/6IXCiFR5Ig
p641
aVRT @funder: Whatever you do don\u2019t retweet this video I found of Donald Trump Jr saying he\u2019s \u201cbeen to Russia many times\u201d &amp; saying he \u201cspent\u2026
p642
aV@realDonaldTrump #Delusional
p643
aV@MarisaAnne_21 @katja_ox Live in fear!!!
p644
aVRT @keithboykin: Trump came out of his hole today and saw Robert Mueller\u2019s shadow, so we get six more weeks of defensive, paranoid behavior\u2026
p645
aV@DonaldJTrumpJr Oh sweetie, the memo is not gonna keep your family out of jail....
p646
aVRT @krassenstein: Trump:  My State of the Union Had the Most Viewers Ever!\u000a\u000aApparently he's no good at simple arithmetic:\u000a\u000a45.6 million  -\u2026
p647
aVRT @Alyssa_Milano: Hey, @realdonaldtrump! Good morning. Your ratings sucked last night. https://t.co/QvUGKHTTUM #SOTU #StateOfTheDream
p648
aVRT @WhitfordBradley: I love getting lectured about patriotism and morality by draft dodging uninformed racist reality show stars who collud\u2026
p649
aV@LindseyGrahamSC @realDonaldTrump You are a puppet!
p650
aV@SpeakerRyan @POTUS #CowardlyRyan
p651
aV@eaphill0208 @MarkDavidPalmer @tedcruz Lisa, I loved joe dirt and am highly offended lol. Joe was a small minded bu\u2026 https://t.co/CciPNzVEF9
p652
aV@MarkDavidPalmer @tedcruz Hey Mark, you shouldn\u2019t have an opinion of what a women does with her body except when yo\u2026 https://t.co/TH8TqS4Wip
p653
aV@tedcruz Keep your politics out of my healthcare.  Don\u2019t have an abortion if you don\u2019t want one but don\u2019t legislate\u2026 https://t.co/ozkO8M6VOr
p654
aV@SpeakerRyan @POTUS Russian sanctions and why @POTUS has refused to enforce them??
p655
aV@jnarls @DonaldJTrumpJr @realDonaldTrump Or perhaps he could put more people to work just securing the border. You\u2026 https://t.co/cOpopVPmly
p656
aV@DonaldJTrumpJr @realDonaldTrump #FakeNews it\u2019s easy to ride the wave of an economy that is already rebounding and\u2026 https://t.co/nT8Rut6HVx
p657
aVRT @SenGillibrand: A woman\u2019s health care decisions are between her and her doctor, not politicians in Washington.
p658
aVRT @EdKrassen: @Comey It\u2019s a disgrace what Trump is doing to the FBI and our Democracy.
p659
aV@dmartosko @nikkihaley @HillaryClinton @HillaryClinton didn\u2019t enable the serial sexual abuser @realDonaldTrump the @GOP is doing that
p660
aV@JoyAnnReid They will do nothing and don\u2019t feel awkward it\u2019s the new normal...
p661
aV@SteveKBannon You\u2019re trash!
p662
aV@BorisEP @realDonaldTrump It\u2019s pretty damn funny and highly appropriate for this #ShitHolePresidentTrump
p663
aVRT @rezaaslan: I ain\u2019t paying for no goddamn wall.
p664
aVRT @dandrezner: RT if you\u2019re a person in America who cares. https://t.co/XX0bq9GrrW
p665
aV@DonaldJTrumpJr The harder Mueller squeezes the White House and its hyper partisan allies, the louder they blast cl\u2026 https://t.co/phZOZAwLAD
p666
aVRT @funder: Trump sat on his hands during the shutdown and did absolutely nothing except watch tv, slurp down Diet Coke\u2019s, cry about missin\u2026
p667
aV@realDonaldTrump  https://t.co/U92OpoE940
p668
aV@realDonaldTrump  https://t.co/AeJSwMaPQl
p669
aV@SpeakerRyan Untrue! You forget that you work for the people and not the president!#TrumpShutdown
p670
aV@EricTrump @realDonaldTrump #TrumpShutdown #TrumpShutdown #TrumpShutdown #TrumpShutdown #TrumpShutdown\u2026 https://t.co/B2iI66OSiu
p671
aV@PeterRoskam @ElectRodney @AdamKinzinger @RepShimkus @RepHultgren @RepMikeBost @RepLaHood #TrumpShutdown\u2026 https://t.co/t6xbU7gfm7
p672
aV@realDonaldTrump #TrumpShutdown #TrumpShutdown #TrumpShutdown #TrumpShutdown #TrumpShutdown #TrumpShutdown #TrumpShutdown #TrumpShutdown
p673
aV@realDonaldTrump #TrumpShutdown #TrumpShutdown #TrumpShutdown #TrumpShutdown #TrumpShutdown #TrumpShutdown #TrumpShutdown #TrumpShutdown
p674
aV@LaraLeaTrump @EricTrump #TrumpShutdown #TrumpShutdown #TrumpShutdown #TrumpShutdown #TrumpShutdown #TrumpShutdown\u2026 https://t.co/ydqetoSsuY
p675
aV@PressSec #TrumpShutdown #TrumpShutdown #TrumpShutdown #TrumpShutdown #TrumpShutdown #TrumpShutdown #TrumpShutdown #TrumpShutdown
p676
aVPiece of trash!! #disgusted https://t.co/nBi1JBXXc5
p677
aV@CoryBooker Oh how I love you! Keep up the good fight!
p678
aV@DonaldJTrumpJr @realDonaldTrump There has to be an explanation as to why he is so bar shit crazy! I mean besides h\u2026 https://t.co/2pkvybiP6G
p679
aV@WhiteHouse @DonaldJTrumpJr #RacistInChief
p680
aV@DonaldJTrumpJr Knucklehead you should know all about spin, this was released to cover the fact they are laying off\u2026 https://t.co/KKV8Wmhq9N
p681
aV@DonaldJTrumpJr #TrumpisARacist
p682
aV@DonaldJTrumpJr #TrumpisARacist
p683
aV@DonaldJTrumpJr Donny John is a racist, let\u2019s not get that twisted
p684
aVRT @Alyssa_Milano: HEY, @GOP! DO YOU HEAR ME?! I AM SCREAMING. \u000a\u000aYOUR SILENCE IN CONDEMNING THE HATEFUL WORDS OF @realDonaldTrump IS DEAFEN\u2026
p685
aVRT @TopherSpiro: "The hottest place in Hell is reserved for those who remain neutral in times of great moral conflict." \u2014 Martin Luther Kin\u2026
p686
aV@Scaramucci @POTUS How can you defend??? He most certainly is a Racist! This isn\u2019t the only example and you know this!
p687
aV@GOP @HouseGOP once again it\u2019s party over people! Not a backbone to be found or do you share his opinion?? https://t.co/jreY0Y1sqP
p688
aV@ABC disparaging immigrants from what he calls "shithole" countries is a new low. It's disgraceful for him, the country, and every American.
p689
aV@GPIngersoll @DonaldJTrumpJr disparaging immigrants from what he calls "shithole" countries is a new low. It's disg\u2026 https://t.co/cApvvDYy72
p690
aVAnd our own @GOP will do nothing! https://t.co/xz1AZO5JBD
p691
aVRT @JuddApatow: We need to impeach this President.  He is a corrupt, racist con man.   Any politician who isn\u2019t furious should be voted out\u2026
p692
aV@DrPhilRoe @SpeakerRyan This is a lie and corporate spin, and now @gop spin to push your agenda
p693
aV@larryelder @HillaryClinton Dude, both are wrong! So instead of condemning one wrong you tweet another?  #YouAreProbablyARacistToo
p694
aV@jasoninthehouse @realDonaldTrump I love that you defend him and in doing so you\u2019re factually incorrect #morons
p695
aVRT @Comey: \u201cGive me your tired, your poor,  your huddled masses yearning to breathe free, the wretched refuse of your teeming shore. Send t\u2026
p696
aV@realDonaldTrump You sir are a racist piece of trash!
p697
aV@kumailn It can\u2019t be that he has some sort of issue with people that have rockin bronzed skin...
p698
aV@JoyAnnReid Bannon has nothing to lose, shit just got real!! #KnowsWhereTheBodiesAreBuried
p699
aV@janschakowsky I don\u2019t get it, they won\u2019t stand up to Trump is it party or fear or both??
p700
aV@DonaldJTrumpJr Knucklehead, they also didn\u2019t announce that they are laying off a \u201cbigly\u201d and or \u201c Yugh\u201d amount of\u2026 https://t.co/WATG5ulFa0
p701
aV@KellyannePolls @ChrisCuomo Your boss never stops talking and teeeting about HRC! Have a seat Kelly! #Delusional
p702
aV@TheView @LindseyGrahamSC Because once he was sworn into office he magically shed those character flaws??? #FakeNews
p703
aV@SteveKBannon Wow,  you\u2019re such a jellyfish!
p704
aV@Scaramucci @MichaelWolffNYC #25thAmemdmentNow
p705
aV@POTUS @DonaldJTrumpJr @SteveKBannon #TweetsAreForever https://t.co/etHd9rmupO
p706
aV@DonaldJTrumpJr Son of the current @potus accused of protecting father who sexually harassed women..... #GlassHouses
p707
aVRT @lasesana: #25thAmendmentNow\u000aBefore it\u2019s too late. Seriously https://t.co/t1yMIGHmU8
p708
aVRT @samsanders: Does threatening nuclear war on Twitter violate Twitter's terms of service? https://t.co/xEZJXsiRKb
p709
aVRT @ananavarro: Let me fix this for you. \u000a\u000aRetweet if you are SICK &amp; TIRED of Donald Trump. https://t.co/O0cagTgTBh
p710
aV@MarisaAnne_21 Nope!
p711
aV@PeterRoskam This bill is terrible! Way to pick your party over the people that voted for you! #YouAreSupposedToWorkForUs
p712
aV@PeterRoskam Super excited you don\u2019t listen to your constituents - this tax bill is terrible for the working class,\u2026 https://t.co/AwMdOJluLM
p713
aV@SpeakerRyan Hey Paul, this didn\u2019t work in the 80\u2019s why do you think it would work now?
p714
aVJoin an event to say Trump Is Not Above the Law! https://t.co/7E0vtGQiB9
p715
aV@ChrisRBarron @realDonaldTrump Well then Donny John should welcome a full congressional ethics investigation....unl\u2026 https://t.co/YSmy37MflK
p716
aV@KimStrassel @DonaldJTrumpJr The Ken Starr investigation into whitewater went 3 years .... mueller has just begun. Yes
p717
aVRT @funder: .@SenShelby-Everyone who retweets this demands you publicly state you won\u2019t vote for a tax bill until Doug Jones is seated in t\u2026
p718
aV@SpeakerRyan @AjitPaiFCC @FCC This is bullshit!
p719
aVRT @funder: Flashback: Republicans should follow what they said in 2010 &amp; delay #GOPTaxScam until Senator-Elect Doug Jones is seated. RT if\u2026
p720
aV@RepStevenSmith @DonaldJTrumpJr Seriously?? You\u2019re disgusting!
p721
aV@ABC @CeciliaVega I don\u2019t know how @PressSec sleeps at night defending this human garbage all day!
p722
aV@jaketapper I wish someone would ask her - So Sarah, when you see his teeets do you think to yourself  dammit man, not again??
p723
aVRT @SenGillibrand: We won't be silenced. https://t.co/Di2J4hvn1R
p724
aV@JerryFalwellJr @jaketapper @MooreSenate What? Listen to the words coming out of his mouth he is a racist!!
p725
aV@SeanJBillings @johncardillo @SenGillibrand @SenWarren In corporate America Donny John would have been fired for his!
p726
aV@johncardillo @DonaldJTrumpJr @SenGillibrand You\u2019re an idiot! You know exactly what @realDonaldTrump was implying.\u2026 https://t.co/UfsC5wEN2w
p727
aV@CNN @CNNOpinion Is it because they are both ignorant racists?
p728
aVRT @SenGillibrand: You cannot silence me or the millions of women who have gotten off the sidelines to speak out about the unfitness and sh\u2026
p729
aV@realDonaldTrump This is beyond disgusting and no one will do anything because the @GOP and @SpeakerRyan are cowards!!
p730
aVRT @cindalyv: Brock Turner raped a woman, spent three months in jail for that crime, and he wants to appeal his conviction so he doesn\u2019t ha\u2026
p731
aV@DonaldJTrumpJr You\u2019re father is a predator!!
p732
aV@kumailn finally watched the big sick, my boyfriend was like what an amazing love story, but is now pissed how I swoon for you
p733
aV@ChuckGrassley @PressSec And let the riots begin. It shouldn\u2019t be any of our business
p734
aV@ABC But will he have a psych evaluation done??
p735
aV@DonaldJTrumpJr We have a @potus who admits on tape that he assaulted women. I would hope that he pays attention to\u2026 https://t.co/72Re2lBPTa
p736
aVRT @patagonia: This is the largest elimination of protected land in American history.\u000aTake Action: https://t.co/biZPxo7PHh\u000a#BearsEars https\u2026
p737
aVRT @SenFeinstein: UPDATE: Republicans rejected our motion to adjourn until Monday so senators could read the bill they just introduced.\u000a \u000aR\u2026
p738
aV@jasoninthehouse @FoxNews They got the bill 2 hours before the vote!! So sick of the @GOP party over people tactics!!
p739
aVRT @SenatorDurbin: BREAKING: Senate Democrats just tried to get Senate Republicans to adjourn for a few days and take the time to actually\u2026
p740
aV@PRyan THIS IS A LIE!!
p741
aV@JeffFlake No no no no no!!!
p742
aV@ABC @BrianRoss It\u2019s Mueller time!!! @realDonaldTrump @DonaldJTrumpJr @GOP
p743
aVRT @ABC: MORE: Michael Flynn "is prepared to testify...against Pres. Trump, against members of the Trump family, and others in the White Ho\u2026
p744
aV@realDonaldTrump It\u2019s the judicial system you moron not the Democrats!
p745
aV@SpeakerRyan And yet you do nothing about @POTUS
p746
aV@DonaldJTrumpJr @MailOnline Dude, smear her all you want what your father did was still wrong!! #Racism
p747
aV@ABCPolitics @SpeakerRyan Did you really think Paul or the @GOP is going to stand up to Trump? Nope, party over people all the way!!
p748
aV@realDonaldTrump @senorrinhatch Obviously he is just as insane as you are!
p749
aVRT @ShaunKing: Dear @Twitter,\u000a\u000aBy allowing Donald Trump to use his massive presence on here to share anti-Muslim hate videos, created by a\u2026
p750
aV@SenJohnMcCain Nooooo!!
p751
aVRT @SethAbramson: Trump is demanding a probe of alleged sexual harrassment at NBC. \u000a\u000aMark Burnett has been protecting from release tapes of\u2026
p752
aV@realDonaldTrump @theresa_may Sorry world our president is bat shit crazy #25For45
p753
aV@SenatorTomUdall The @GOP will never stand up to Trump!
p754
aV@ABC Because @realDonaldTrump is a racist!!
p755
aV@ABC #LOCKHIMUP @DonaldJTrumpJr
p756
aV@ABC @SpeakerRyan What about the White House Paul??
p757
aV@RepLouBarletta @DonaldJTrumpJr Not because of petty personal grievances please don't get it twisted. It was the blatant lack of respect!!
p758
aV@ABC @SenateMajLdr Perhaps that was because Obama wasn't rude!!
p759
aV@LindseyGrahamSC @realDonaldTrump Why would they waste their time when trump  already said he doesn't see a deal to be had!!
p760
aV@DonaldJTrumpJr Umm Dotard Jr, it doesn't excuse your father being racist and offensive!!!
p761
aV@EricTrump Perhaps that's because you're an idiot and your father is a racist!
p762
aV@susan_dunham @ABC Susan, were you dropped on your head as a child??
p763
aV@ABC He is disgusting! #NotMyPresident
p764
aV@MarisaAnne_21 #TrueStory
p765
aV@KenyaMoore You're so pretty just not on the inside
p766
aV@realDonaldTrump You're a moron! STFU!!
p767
aV@AdamParkhomenko @JuddApatow #schooled
p768
aV@realDonaldTrump You're a fucking moron!
p769
aV@realDonaldTrump Dude, she is all you talk about!! You need to get on with your life #SheOwnsYou
p770
aV@JohnLeFevre @DonaldJTrumpJr And nothing about Donny John and the 13 women that came out about him being a sexual predator? Have a seat!
p771
aV@DonaldJTrumpJr Is it still alleged when it is caught on tape.... https://t.co/n6Zg3UbnrP
p772
aVRT @lilnativeboy: Just a reminder last year on Thanksgiving that Natives were being tortured with dogs, illegal scare tactics, being run ov\u2026
p773
aV@ABC Behind every bad man there is a dumb woman supporting him.
p774
aV@realDonaldTrump STFU how dare YOU of all people comment on this! #GrabThemByThePussy #NotAboutParty
p775
aV@realDonaldTrump You disgusting scumbag, seriously 17 women came forward against you? Pot and Pervy kettle !!
p776
aV@realDonaldTrump Grab them by the pussy!!
p777
aV@ABC This is absolutely disgusting and disgraceful #ShameOnPotus
p778
aV@Trump @TrumpNationalNY #RussianMailOrderBride
p779
aV@DSWT @ChelseaClinton Unfortunately @realDonaldTrump is a deplorable human that cares nothing of the environment or\u2026 https://t.co/aCg6rzRdTk
p780
aV@ChelseaClinton This is absolutely disgusting!
p781
aV@billyeichner Ugh, I love this show and cast so much!
p782
aV@billyeichner @julieklausner Noooooo
p783
aV@realDonaldTrump Don't get it twisted, he lost BECAUSE of you!!
p784
aV@DonaldJTrumpJr What did I miss  @DonaldJTrumpJr  is a fucking moron, I went to public school and have common sense let's tangle #dotardJR
p785
aV@benshapiro @DonaldJTrumpJr Keep your handguns and shotguns but who the fuck needs an assault rifle? People that wa\u2026 https://t.co/DWiZiSrM5R
p786
aVRT @Alyssa_Milano: Trump Signs Bill Revoking Obama-Era Gun Checks for People With Mental Illnesses https://t.co/rIlmV3Ply0 https://t.co/U77\u2026
p787
aVRT @SenatorDurbin: 94% of Americans (93% of gun owners) want background checks on every gun sale. Retweet if you do too.
p788
aV@LindseyGrahamSC OMG are you actually growing some balls???
p789
aV@LindseyGrahamSC Sorry, your president is to busy tweeting about the election to pay attention to this issue...
p790
aV@MomJar1 @DonaldJTrumpJr @Stump4TrumpPAC Umm knucklehead this had bipartisan support and was signed off by Dubya. B\u2026 https://t.co/aCt8Gy3jqR
p791
aV@DonaldJTrumpJr Don't take her candy she will need to eat her feelings when you and your dad are in jail \U0001f629
p792
aV@kayleighmcenany @DonaldJTrumpJr It's only beginning ....
p793
aV@realDonaldTrump Oh sweetie, it's all just started!
p794
aV@MeghanMcCain @TheView I just can't with you and your dad, you both are adorable!
p795
aV@DonaldJTrumpJr @azcentral Your father is a scumbag and this man has principles! Something you know nothing of!
p796
aV@realDonaldTrump Shut up Donnie John, we all know you can't read!
p797
aV@DonaldJTrumpJr Don't deflect from your rapey father
p798
aV@USArmy333 @realDonaldTrump @804StreetMedia Are you talking about golf?
p799
aV@PressSec @POTUS Finally
p800
aV@Breaking911 Because he has nothing better to do... #SoulessCoward
p801
aV@tedcruz @pouts is a serial sexual predator why do you continue to support him!!
p802
aV@DonaldJTrumpJr That's awesome! How about that one time your mom wrote in her book that your dad raped her hahaha oh good times...
p803
aV@Q_Element @Guinz @DonaldJTrumpJr 15 women have claimed donnie sexually assaulted them or was in appropriate Donnie\u2026 https://t.co/Yg0esgHeET
p804
aV@FoxNews @KellyannePolls Does that include yourself? Because you have said nothing about your boss and his repeated\u2026 https://t.co/s1D8uiup31
p805
aV@DonaldJTrumpJr Ahhh Donnie Jr and his fake moral outrage, you're the guy that said NOTHING about Bill O'Reily or your father!!  #disgusted
p806
aV@DonaldJTrumpJr Umm dude you realize your father is also a predator!
p807
aV@KellyannePolls Oh sweetie, maybe you should look at the pig you work for...
p808
aV@GOPChairwoman @seanspicer Umm you know Donnie John is in the White House #RapistInChief
p809
aV@DineshDSouza Or Donnie John!!
p810
aV@DonaldJTrumpJr I know, grab them by the pussy was so last year!
p811
aV@MarisaAnne_21 Yes!
p812
aV@Bethenny I love me some bravo, You are literally the best thing that came from a place of crazy!  But it so makes\u2026 https://t.co/TLQ1IVd3X2
p813
aV@MarisaAnne_21 https://t.co/RfsKWnga09
p814
aV@Teree @ShannonBeador Peggy is the worst
p815
aV@DonaldJTrumpJr Your father bashed the woman who was begging for help....#ZeroClass
p816
aV@Mikel_Jollett @GovHowardDean Accurate!
p817
aV@PressSec No one needs a job this badly! #ShameOnYou
p818
aV@PressSec How do you defend him and sleep at night?
p819
aV@JacobAWohl @realDonaldTrump You mean divisive
p820
aV@realDonaldTrump #DividerInChief
p821
aV@realDonaldTrump Shame on you Donnie John for making this about party, I would say you were raised better....but yo\u2026 https://t.co/CzATicdS5M
p822
aV@realDonaldTrump When a hurricane hits there are no Dems or Republicans just American citizens that are in pain and\u2026 https://t.co/IiGRfD1oPI
p823
aV@rebeccasallen2 @ABC They are Americans in peril you idiot!
p824
aV@ABC @realDonaldTrump is beyond disgusting!  I don't understand how anyone can still support him!! #OrangeLiesMatter
p825
aV@charliekirk11 @DonaldJTrumpJr Please share the positive? All I see is the stupidity and inhumanity. I don't know h\u2026 https://t.co/JKwCjMMpmr
p826
aV@Team_Trump45 @realDonaldTrump #bot
p827
aV@realDonaldTrump I think he is mostly hurt because a woman had the nerve to call him out on his bullshit!
p828
aV@realDonaldTrump These people are in crisis and you go on a rant? There is a special place in hell for people like you!
p829
aV@realDonaldTrump You're just disgusting!!! And that is bullshit, you fucking failed those people own it #OrangeLiesMatter
p830
aV@DonaldJTrumpJr No one should accuse anyone of racism unless they are a legit racist like for instance @realDonaldTrump
p831
aV@realDonaldTrump You going to think about that while you're golfing again this weekend?
p832
aV@DebraMessing It was sooo good!!
p833
aV@DonaldJTrumpJr Because your a douche?
p834
aV@mattdpearce @GovHowardDean @realDonaldTrump shame on you Donnie John!!! #ThisIsACrisis
p835
aV@realDonaldTrump Lol you haven't done anything #FakeNews
p836
aVOh look at what a real diplomat does!!  @realDonaldTrump @GOP https://t.co/fKUErEmAxP
p837
aV@jaketapper @realDonaldTrump you are a bully and a piece of crap! #dotard
p838
aV@AngeloRayGomez @DonaldJTrumpJr @realDonaldTrump Thinking NFL players are 'protesting the flag' is like thinking Ro\u2026 https://t.co/aeqDI44XFG
p839
aV@realDonaldTrump Again, #dotard Thinking NFL players are 'protesting the flag' is like thinking Rosa Parks was prot\u2026 https://t.co/zlA9qbQfZ3
p840
aV@KellyannePolls Reach across the aisle you divisive twit!
p841
aV@ZakZale @realDonaldTrump @UN @nikkihaley #LockHimUpLockHimUpLockHimUp
p842
aV@DonnaWR8 @realDonaldTrump @UN @nikkihaley @POTUS @FLOTUS #LockHimUp
p843
aV@realDonaldTrump @POTUS @UN @nikkihaley Hey fuck face, yay you!WTF are you going to do about Puerto Rico??
p844
aV@justinjm1 @JuddApatow He is a disgusting #Dotard
p845
aV@jasoninthehouse Nope #KennStar
p846
aV@LindseyGrahamSC Then reach across the aisle, really take a look and come to a bipartisan solution that works for all American people!!
p847
aV@realDonaldTrump Finally your thoughts and prayers #dotard
p848
aV@newtgingrich Thinking NFL players are 'protesting the flag' is like thinking Rosa Parks was protesting public transportation
p849
aV@tedcruz Perhaps you could focus your president!
p850
aV@thehill #LOCKHERUP
p851
aVRT @tribelaw: Players who kneel to protest racial and social injustice are the patriots.  Not Trump! RT if you're with those who kneel for\u2026
p852
aV@DonaldJTrumpJr Thinking NFL players are 'protesting the flag' is like thinking Rosa Parks was protesting public transportation
p853
aV@realDonaldTrump Thinking NFL players are 'protesting the flag' is like thinking Rosa Parks was protesting public transportation
p854
aV@DonnaWR8 @realDonaldTrump Thinking NFL players are 'protesting the flag' is like thinking Rosa Parks was protesting public transportation
p855
aV@MeghanMcCain You do you Megan! #FUCKCANCER
p856
aV@realDonaldTrump Donnie John, your gonna get us all killed with your stupidity! #dotard https://t.co/XMpqKzk6sv
p857
aV@DonaldJTrumpJr Thinking NFL players are 'protesting the flag' is like thinking Rosa Parks was protesting public transportation #DotardJR
p858
aV@SpeakerRyan Maybe you can talk your man Donnie John into focusing on this instead of the NFL
p859
aV@realDonaldTrump You have done NOTHING to earn respect from us. You lied &amp; dodged the draft. You insulted POWs. You\u2026 https://t.co/IjTDIDUkWY
p860
aV@EdKrassen @IRdotnet @realDonaldTrump You and I both know Donny John doesn't read!
p861
aV@realDonaldTrump #DotardDonnie
p862
aV@realDonaldTrump Do some work!! Focus on Puerto Rico perhaps!! #dotard
p863
aV@realDonaldTrump #dotard https://t.co/Cy6kkSJuLy
p864
aVOh Donny John! #dotard @realDonaldTrump @DonaldJTrumpJr https://t.co/pBKhit7u1l
p865
aV@realDonaldTrump Donny John can you focus on ohhh maybe the devastating impact of the recent hurricane in Puerto Rico??
p866
aV@realDonaldTrump perhaps this would be a better use of your time Donny John!! https://t.co/8eMG7F8MzG
p867
aV@ChelseaClinton He is too busy worrying about football and why steph curry won't be his friend...
p868
aV@DonaldJTrumpJr Your father is a piece of shit! Sorry dude it's true!! \U0001f618
p869
aV@HuffPost So, Kaepernick is a "son of a bitch".\u000a\u000aArpaio is a great man, worthy of pardon.\u000a\u000aIf you don't see the pro\u2026 https://t.co/M9zy6rcQN2
p870
aV@FoxNews @NASCAR @NFL So, Kaepernick is a "son of a bitch".\u000a\u000aArpaio is a great man, worthy of pardon.\u000a\u000aIf you don't\u2026 https://t.co/wlrdLjKSxm
p871
aV@realDonaldTrump So, Kaepernick is a "son of a bitch".\u000a\u000aArpaio is a great man, worthy of pardon.\u000a\u000aIf you don't see\u2026 https://t.co/1GNoIzq0jB
p872
aV@correctthemedia @DonaldJTrumpJr So, Kaepernick is a "son of a bitch".\u000a\u000aArpaio is a great man, worthy of pardon.\u000a\u000aI\u2026 https://t.co/5phibYn4bv
p873
aV@DonaldJTrumpJr So, Kaepernick is a "son of a bitch".\u000a\u000aArpaio is a great man, worthy of pardon.\u000a\u000aIf you don't see t\u2026 https://t.co/Car6IQZn29
p874
aV@realDonaldTrump You should focus on the devastation I Puerto Rico and shut up because your feelings got hurt about\u2026 https://t.co/fOZky9Ttss
p875
aV@realDonaldTrump #TakeAKneeNFL #UBum #dotard
p876
aVSo Donny John,  maybe you should just shut up now and try focusing!! @realDonaldTrump @DonaldJTrumpJr @gop https://t.co/CalQWoWURJ
p877
aV@realDonaldTrump Poor illiterate trump! Obviously didn't read the bill. Keep talking Moron!!
p878
aV@realDonaldTrump You're a disgrace!
p879
aV@kumailn I am going to start calling everyone U Bum, how's it going U bum!
p880
aV@YoungDems4Trump @NFL What about daddy's taxes???
p881
aV@realDonaldTrump You're an idiot!
p882
aVRT @RepAdamSchiff: And if a person wants the privilege of serving as President, they shouldn't be allowed to disrespect military heroes who\u2026
p883
aV@skramerbyu_82 @FemalesForTrump @realDonaldTrump He ran because of his ego and not love of country. #delusional
p884
aV@FiIibuster @realDonaldTrump He's a racist misogynistic piece of shit!
p885
aV@realDonaldTumpr @realDonaldTrump All lives matter you racist misogynistic troll
p886
aV@realDonaldTrump They chose to protest and are allowed to do so. That is what makes America great!
p887
aV@VP @POTUS No can do, every time he speaks and I listen I lose brain cells... #IdiotInChief
p888
aV@JacobAWohl @realDonaldTrump @WhiteHouse Umm what people are you talking about? He acts like a 12 year old girl! #NotPresidential
p889
aV@realDonaldTrump When I was 12 I said "you don't want to hang with me Deborah, well fine I don't want to be your fr\u2026 https://t.co/EyAhNLAy6e
p890
aV@TheHRH @IWF @SenJohnMcCain @jimmykimmel You obviously have not read the bill #VoteNOGrahamCassidy
p891
aV@realDonaldTrump How cute, I did the same thing to Debbie at my 12th birthday party #DotardTrump
p892
aV@IWF Did you read the bill? No you didn't! It's bad for republicans and democrats! It's still Obamacare lite but wi\u2026 https://t.co/AlfkQdgOQ2
p893
aV@MattBellassai @MeganMullally @Nick_Offerman Me first Matt! I'm older, no one adopts the older kids. They want the cute young ones like you
p894
aV@jaketapper @SenJohnMcCain People over political party! I love this man so much! #AmericanHero
p895
aVRT @SenJohnMcCain: I cannot in good conscience vote for Graham-Cassidy. A bill impacting so many lives deserves a bipartisan approach. http\u2026
p896
aV@tbailey7701 @SenJohnMcCain Did you read the bill? No you didn't! It's bad for republicans and democrats! It's stil\u2026 https://t.co/DN8hWQz335
p897
aV@SenJohnMcCain A true American Hero!!!! My hero! @SenateGOP
p898
aV@ScottWalker @LindseyGrahamSC No, just no! Try reading the bill! #VoteNOGrahamCassidy
p899
aV@FoxNews @KellyannePolls @POTUS @VP The @SenateGOP are so hell bent on repeal/replace that they will push this thro\u2026 https://t.co/JN8F0L1cUQ
p900
aV@realDonaldTrump Pot meet kettle!
p901
aV@realDonaldTrump It doesn't ass clown!
p902
aV@LindseyGrahamSC @SenatorTimScott I am glad I have private insur but my sis does not, she is an independent contrac\u2026 https://t.co/mmJq1QTF2R
p903
aVRT @thinkprogress: Trump blocks woman with stage 4 cancer on Twitter after she criticized his latest health care plan https://t.co/Xny8fOvt\u2026
p904
aVRT @ASlavitt: NEW: What would Graham-Cassidy ACA repeal mean for women?\u000a\u000aRT if useful. https://t.co/NRV2ohXyO7
p905
aVRT @ChrisMurphyCT: Years from now, when your child is denied health care bc of his illness and you are facing bankruptcy, you'll regret bei\u2026
p906
aV@politico @KellyannePolls @RebeccaMorin_ And yet her husband is the ULTIMATE bully!!!
p907
aV@realDonaldTrump WTF is wrong with you?? #MentalHealthCheckup
p908
aV@realDonaldTrump You're a madman!!
p909
aV@SpeakerRyan @POTUS Are you insane? The man basically called for war!!  We need tact not threats!
p910
aV@jaketapper Well Jake, keep in mind he is insane!!
p911
aV@GOP seriously? You back this guy???! https://t.co/iPaaWK5Gza
p912
aV@JoyAnnReid The man is insane! God save us all!
p913
aV@jaketapper @FrankLuntz Is he famous???
p914
aV@MarisaAnne_21 Well you gotta go then!! HIMYM is waayyy better than friends!!
p915
aVRT @JJWatt: $4 MILLION!\u000a\u000aNew Goal: $5 Million.\u000a\u000ahttps://t.co/SR6DmnNbyM https://t.co/HRffs6YcrD
p916
aV@KellyannePolls @CNN @KellyannePolls if this was a FoxNews  reporter would you care? This is not the time to play p\u2026 https://t.co/lBdhbgNQ6Y
p917
aV@NolteNC @DonaldJTrumpJr Are you fucking kidding me??? Not a huge fan of obamas choice in pardons but this is your\u2026 https://t.co/MRABLE8uTz
p918
aV@Andy @realDonaldTrump Shhh Andy he can't read...
p919
aVRT @JordanUhl: Please don\u2019t blame people who stayed behind.\u000a\u000aIf you\u2019re living paycheck-to-paycheck &amp; can\u2019t afford transportation, where wou\u2026
p920
aV@realDonaldTrump you are a waste of oxygen #Impeach45
p921
aV@PoliticalShort Really? Just Really?
p922
aVRT @funder: NEW POLL: A majority of Americans want Trump impeached-retweet if u agree with them!\u000a\u000a#ImpeachTrump #ArpaioPardon https://t.co/\u2026
p923
aV@MMwritescanada @CarolMcHoney @RealSheriffJoe @realDonaldTrump All those sketchy Hoosiers I would assume
p924
aV@newtgingrich Or they could work together as they are all elected officials #PeopleNotParty
p925
aV@MarisaAnne_21 Don't hate
p926
aV@wordsworth318 @Uncle_Jimbo @DonaldJTrumpJr Once again, revisionist history. It wasn't until he was called out publicly
p927
aV@newtgingrich It should have been immediate and without the public outrage, but you know he wouldn't want to piss off his base!! Disgusting
p928
aV@Uncle_Jimbo And trump embraced this support, don't denounce it now @DonaldJTrumpJr #trumpTrash
p929
aV@Uncle_Jimbo Oh @realDonaldTrump and @DonaldJTrumpJr , and sweet  @IvankaTrump this is your base, this is your 36%\u2026 https://t.co/Op6BryzApH
p930
aV@DailyCaller @tedcruz Oh look at Ted doing something..
p931
aV@nytopinion He is going to get us all killed! Fucking morons!!
p932
aVRT @kurteichenwald: Peter Cvjetanovic, a white nationalist, is upset that this photo of him has gone viral. So be nice: dont retweet this t\u2026
p933
aV@KellyannePolls And your boss is a racist hate monger! Hope your proud of yourself #CharlottesvilleVA
p934
aV@FoxNewsSunday @LindseyGrahamSC @POTUS Unfortunately white supremacists are @realDonaldTrump base supporters, he ca\u2026 https://t.co/6nJXC0OR4g
p935
aV@CNN Of course he didn't call them out! That's his base, he needs them... #TrumpChicken
p936
aV@KellyannePolls @POTUS @FLOTUS Unfortunately that's @POTUS base!
p937
aV@jaketapper Disgusting!
p938
aV@KellyannePolls He deserved to be fired!
p939
aV@Scaramucci Why would you call a reporter to lose your shit? That's what girlfriends are for
p940
aV@jasoninthehouse What is wrong with you??? He's going to get us all killed!!
p941
aV@jasoninthehouse Are you crazy?! He is a madman!!
p942
aV@Andy Literally terrified!
p943
aV@realDonaldTrump #FakeNews  you are simply delusional!
p944
aV@SenatorDurbin Stunning but not shocking from this President #Trumpcollusion
p945
aV@realDonaldTrump #TreasonousTrump's
p946
aV@realDonaldTrump Hahahahahaha!!!
p947
aVRT @TheDailyShow: R.I.P. Anthony Scaramucci, White House Communications Director\u000aLate July 2017 - Slightly Later July 2017 https://t.co/SeJ\u2026
p948
aV@realDonaldTrump hahahahaha https://t.co/iH5d4q18Fx
p949
aV@GOP @SenateDems or maybe we can all try to work together! Don't let @realDonaldTrump bully you!! https://t.co/6gntbCqfdR
p950
aV@realDonaldTrump .....Or maybe try working together!
p951
aV@The_Trump_Train @realDonaldTrump You're a madman and I am truly terrified!!
p952
aV@The_Trump_Train @realDonaldTrump I am a normal citizen and you are an egomaniacal madman!
p953
aV@realDonaldTrump @gop https://t.co/HccDmOZEPo
p954
aV@Andy He doesn't need to try. Trump is just an asshole!
p955
aV@DebraMessing Section 4 of the 25th amendment! #outofhismind
p956
aV@MarisaAnne_21 You're Russian, do you know Trump?
p957
aV@MarisaAnne_21 Go!!
p958
aV@realDonaldTrump Dude, you seem SUPER crazy this morning! @DonaldJTrumpJr pops needs his meds!!
p959
aVRT @funder: Reporters- #TheResistance is huge. It's not some fringe group. I'll prove it. Retweet this if you're a proud member of The Resi\u2026
p960
aVRT @jasoninthehouse: @realDonaldTrump It's your DOJ. The Trump administration is the one doing nothing. No response to Congress and no pros\u2026
p961
aV@realDonaldTrump Deflect deflect deflect! It wasn't me, oh look a bird... #TreasonousTrumps
p962
aV@realDonaldTrump @seanhannity he just doesn't know the law? Perhaps you all should have had a crash course in #hownottocommittreason
p963
aV@marcorubio are you finally speaking up??
p964
aV@HarryIsaacJr @rickygervais #dumpTrump
p965
aV@DonaldJTrumpJr @ByronYork @dcexaminer #dumptrump
p966
aV@DonaldJTrumpJr @claireatki @nypmetro @nypost #dumptrump
p967
aV@DonaldJTrumpJr @sarahcpr  #dumptrump
p968
aV@DonaldJTrumpJr @DNC @FoxNews @FoxNewsInsider as a disgusted republican perhaps not a jihad but a boycott / zero vote for Trump! #dumptrump
p969
aVRT @tedlieu: Anyone who has seen the classified info--as I have--on Russian interference knows that the "nobody really knows" stmt by @POTU\u2026
p970
aV@DonaldJTrumpJr @nytimes ummm isn't that what daddy does on a regular basis??
p971
aV@IvankaTrump @SarahHuckabee @nytimes this administration is committed to making a mockery of the office of the President!
p972
aVRT @DavidYankovich: Donald Trump is 71 years old.\u000aHe is the President.\u000aHe has the nuclear codes.\u000a\u000aHe is really proud of this tweet.\u000a25th am\u2026
p973
aV@realDonaldTrump Nothing modern about unchecked narcissism, megalomania &amp; abuse of power. They're the hallmarks of every tyrant in history.
p974
aV@DonaldJTrumpJr @CNN @KellyannePolls Donnie are you not outraged by either??? You have a daughter is this or your fathers words acceptable
p975
aV@DonaldJTrumpJr @realDonaldTrump @GOP this is how a leader behaves! https://t.co/LpQ39inXgQ
p976
aV@DonaldJTrumpJr @Harlan @realDonaldTrump except it's not the media's doing it's actual outrage by the people!
p977
aVThis is how you act presidential @potus @realDonaldTrump https://t.co/ngaVczaWLN
p978
aV@StateDept @POTUS shame on you for letting your senile old man spew hate toward women!
p979
aV@FLOTUS @POTUS @WhiteHouse oh sweet, meanwhile your husband spent the day being a misogynistic fool. How's your anti bullying camp going??
p980
aV@SenatorTomUdall @EPAScottPruitt Tom, you rock I may have to move back home to New Mexico!
p981
aV@DonaldJTrumpJr @CNNPR @MSNBC @morningmika @JoeNBC your father is what is wrong with America! Partisan and divisive with a side of misogyny!
p982
aV@FLOTUS @IvankaTrump @SarahHuckabee @gop who is going to explain this tweet to my daughter,or yours! misogyny is NO\u2026 https://t.co/UT1AbPKwxn
p983
aV@ScottAdamsSays @realDonaldTrump @Morning_Joe Donald Trump is a misogynistic pig! #ZeroClass
p984
aV@RepMikeQuigley @realDonaldTrump @Morning_Joe it is unfortunate to say that our President is a classless misogynist. Another sad day for US
p985
aV@Andy @realDonaldTrump #ZeroClass
p986
aV@FLOTUS @IvankaTrump this is your husband and father, hope your proud of his disgusting behavior #ZeroClass\u2026 https://t.co/RyLt56EphY
p987
aV@ABC @realDonaldTrump what is wrong with you? Can you grow up and act like the damn president already?? #ZeroClass
p988
aV@RepCheri @realDonaldTrump our "President" has #ZeroClass
p989
aV@realDonaldTrump @Morning_Joe @realDonaldTrump what is wrong with you? Can you grow up and act like the damn president already?? #ZeroClass
p990
aV@realDonaldTrump what is wrong with you? Can you grow up and act like the damn president already?? #ZeroClass
p991
aV@realDonaldTrump @POTUS no democrats were invited to the table!
p992
aV@tedcruz do nothing moron!
p993
aV@DonaldJTrumpJr @Project_Veritas @Acosta oh sweet silly DJ Jr. daddy still doesn't love you and probably never will. Keep sucking up
p994
aV@realDonaldTrump @DonaldJTrumpJr maybe show us your super secret healthcare bill!! #dontplaypartisonwithme
p995
aV@MarisaAnne_21 really?
p996
aV@MarisaAnne_21 gross
p997
aV@DonaldJTrumpJr @realDonaldTrump seriously?? #IdiotInChief
p998
aV@KellyannePolls @DailyCaller and did you know he had a history of domestic abuse and prev gun charge?? #NeedTougherGunLaws
p999
aV@VP @POTUS are you on sauce, the pot, or just nuts ?
p1000
aV@KellyannePolls @SteveScalise @foxandfriends or maybe you shouldn't let a man w/history of domestic violence and menacing have a gun!!!
p1001
aV@gop this was your candidate, you did this to American #shame https://t.co/0KTukpi4JD
p1002
aV@realDonaldTrump dear lord your such a child! Take your obstruction investigation like a man!
p1003
aV@DonaldJTrumpJr @Harlan no, maybe you should look at the current gun laws and how easy they are to obtain by those that shouldn't own a gun!
p1004
aV@YoungDems4Trump @realDonaldTrump crazy is crazy no matter what party you support. Perhaps we need "extreme vetting" before you can buy guns
p1005
aV@Andy #partyplane
p1006
aV@ChrisRBarron @DonaldJTrumpJr umm he did it because of the desperate need  of a special prosecutor. Let's not get it twisted! #trumprussia
p1007
aV@SenJeffMerkley @DebraMessing @usedgov @cspan @BetsyDeVosED OMG  Sen Jeff you are wonderful, I didn't know that I loved you but I do, bless!
p1008
aV@RubinReport  @DonaldJTrumpJr  I love that Jr. liked this as it reduces credibility
p1009
aV@ABC @DonaldJTrumpJr but you don't think your father and his insane tweeting is working against him?? Delusional Bad..
p1010
aV@KellyannePolls @JakeSherman @realDonaldTrump umm Kellyanne, it was a nationally televised interview! The whole world saw you say it!
p1011
aV@KellyannePolls @JakeSherman @realDonaldTrump we shouldn't have to continually worry about his insane tweets? @ pouts needs medication!
p1012
aV@DonaldJTrumpJr please take your fathers phone from him, give him his meds he is unhinged and delusional! #NeedsAPsycEvalPronto
p1013
aV@realDonaldTrump Grandpa is off his meds again!
p1014
aV@KellyannePolls @TODAYshow how can you possibly defend this man! His behavior is outrageous #TrumpNeedsAShrink
p1015
aV@KellyannePolls @POTUS @TODAYshow @NBCNews @SavannahGuthrie yes he should apologize! That was deeply insensitive and embarrassing for the US
p1016
aV@IngrahamAngle @DonaldJTrumpJr @DRUDGE_REPORT one should never be fired for speaking the truth!
p1017
aV@DonaldJTrumpJr https://t.co/Unxga9MrAO
p1018
aV@ABC @kathygriffin that's your humor and yes I giggled, I still love you and will pay to see you! #freespeach
p1019
aV@VP @POTUS Donald trump does not care about the American people. His run was a pissing competition, and your a clown!
p1020
aV@tedcruz I read your tweets and think why did I vote for you in the primary! #countryoverparty
p1021
aV@DonaldJTrumpJr @vulture your father is the worst display of what the US stands for, I don't agree, but I don't hate #freespeach
p1022
aV@foxnewsradio @SpeakerRyan @POTUS it wasn't American that withdrew it was 1 crazy denier that has sealed our fate #ClimateChangeIsReal
p1023
aVRT @MarisaAnne_21: @realDonaldTrump hope you choke on all the pollution that the United States has made #ParisAgreement
p1024
aV@EricTrump @DonaldJTrumpJr did little Barron see this? Was he traumatized?? #Disgusted https://t.co/Yr61mLxEFz
p1025
aV@gop this is how it's done! https://t.co/EGVv2Dtvnh
p1026
aV@RepKathleenRice @HouseDemocrats @washingtonpost #moroninchief
p1027
aV@tedcruz @JoyceChaplin1 #partyovercountry your a disgrace!!
p1028
aV@DonaldJTrumpJr @realDonaldTrump woo hoo @potus is this before or after you mother said she was raped by Donald?
p1029
aV@SpeakerRyan I am so disgusted at this point I have no choice but to use profanity. You fucking morons climate change is real!
p1030
aV@thehill @rickygervais are you fucking kidding me?? Insane!!
p1031
aV@TomiLahren are you kidding me with this?
p1032
aV@DonaldJTrumpJr @GingerMcQueen is that really bullying? You have bigger parental issues if your 11 year old is on twitter
p1033
aV@newtgingrich idiots! #ClimateChangeIsReal
p1034
aV@Reince @POTUS he's a moron!! #ClimatecChangeIsReal
p1035
aV@SpeakerRyan #ClimateChangeIsReal what is wrong with you people!!!
p1036
aV@VP @POTUS you idiots! There is no need for jobs when we can no longer survive #ClimateChangeIsReal
p1037
aV@realDonaldTrump @WhiteHouse dear lord what is wrong with you! So stupid!!
p1038
aV@tedcruz @POTUS are you people insane!!! No need for jobs if you can't live in the planet!! #disgusted
p1039
aV@LeahR77 @DonaldJTrumpJr @KenJennings @SimonBooks you  need to settle down did Baron hear his dad talk about women with Billy? #grabbypussy
p1040
aV@realDonaldTrump @DonaldJTrumpJr @FLOTUS  stop now with poor baron, he was raised by a terrible human, what do you\u2026 https://t.co/CdnkaNoxdZ
p1041
aVRT @ScottNevins: What she did was wrong, but just curious, how did Barron handle "grab em by the pussy", your racist remarks, calling women\u2026
p1042
aV@dmartosko @KenJennings but it was pretty funny!
p1043
aV@realDonaldTrump shut up #treasonoustrump every time you tweet my iq drops a point. Maybe you should support your son if he's so distraught
p1044
aV@KellyannePolls @Naseeoh @DNC #treasonoustrump #stopwithpartyovercountry
p1045
aV@Liz_Wheeler @DonaldJTrumpJr @kathygriffin where was the outrage when people were lynching effigies of Obama? Settle down! #doublestandards
p1046
aV@DonaldJTrumpJr @ChrisRBarron how is this worse than what the reps did with Obama? #doublestandard
p1047
aV@DonaldJTrumpJr your so bent out of shape about this but when people hung effigies of Obama being lynched did you laugh? #doublestandard
p1048
aV@DonaldJTrumpJr @DRUDGE_REPORT were you outraged when they hung Obama effigies in mocked lynching? I expect not!
p1049
aV@realDonaldTrump dpi you really think this is about the election? You're an idiot! #TreasonousTrump
p1050
aV@DonaldJTrumpJr  Nixon resigned Clinton was impeached/acquitted. Your dad is following the Clinton path, with a side of treason!
p1051
aV@VP @POTUS well that's just a lie!! #MuslimBan
p1052
aV@tedcruz @NRO planned parenthood gives medical care to women that couldn't otherwise afford it. It's more important than one article !
p1053
aV@GregForMontana and he will body slam anyone that isn't! #shameful
p1054
aV@RepBarbaraLee @RepRobinKelly @SpeakerRyan @CAPAction he is comforted because his care won't change. It only impacts poor, sick, elderly...
p1055
aV@dcexaminer @PRyan but not at the peril of the American people!
p1056
aV@ABC @potus with a prayer that he won't be impeached perhaps?
p1057
aV@VP @POTUS probably not gonna happen behind bars #TreasonousTrump
p1058
aV@Bethenny @randomnone OMG you are my spirit animal! On a side note if anyone wants to pay my rent..
p1059
aV@realDonaldTrump while it's going to be great to expose #russiagate I can't wait to see what other skeletons fall out of the closet!
p1060
aV@realDonaldTrump can't  wait to see what falls out of your closet #TreasonousTrump
p1061
aV@realDonaldTrump it's so amazing
p1062
aV@WilkowMajority @washingtonpost @DonaldJTrumpJr I hope all of your closets are clean! They found Monica when investigation whitewater!
p1063
aV@SenSchumer @SenateDems it's finally happening! God bless! #followthefacts #WhatDidHeKnowAndWhenDidHeKnowIt
p1064
aV@HouseGOP @SpeakerRyan #CountryOverParty #CowardlyRyan
p1065
aV@SpeakerRyan @HouseGOP #CowardlyRyan #CountryOverParty
p1066
aV@kumailn @realDonaldTrump @POTUS I think he might realize he is in deep shite... or his administration has duck taped his fingers together..
p1067
aV@ofctimallen were you on tv?
p1068
aV@tedcruz @RalphNorman @DecisionDeskHQ  #trumpian #countryoverparty #gopcowards
p1069
aV@DailyCaller of course he said it was appropriate, dude needs a job! On a side note, its going down and Trump isn't tweeting #gotcaught!
p1070
aV@SenSanders that was the best!
p1071
aV@jasoninthehouse @GOPoversight about time!!
p1072
aV@jasoninthehouse @GOPoversight  the citizens of the US will hold you to it! #IndependentInvestigation #TreasonousTrump #countrybeforeparty
p1073
aV@SenDuckworth @nytimes I think 7 will be the best one, that's when he brings up the election again! #IndependentInvestigationNOW
p1074
aV@charliekirk11 @DonaldJTrumpJr #CountryBeforeParty #ImpeachTreasonousTrump
p1075
aV@tedcruz you should be more concerned with your out of control @potus
p1076
aVRT @SenatorTomUdall: .@POTUS' dangerous actions call to question his fitness for office &amp; underscore need for independent investigations ht\u2026
p1077
aV@RepRobinKelly @realDonaldTrump @washingtonpost @gop for the love of god how long will we put party over country #SpecialProsecutorNow
p1078
aVRT @RepDanKildee: RT if you are part of the 78% of Americans who want an independent investigation into the troubling #TrumpRussia connecti\u2026
p1079
aV@POTUS https://t.co/qw2y73ixKs
p1080
aV@ggary59 @BrandanJR @POTUS https://t.co/3kOb11VbFT
p1081
aV@POTUS #TreasonousTrump #independentinvestigation
p1082
aV@marcorubio @POTUS @TGowdySC @JohnCornyn @McClatchyDC so disappointed you continue to support party over country! #independentinvestigation
p1083
aV@newtgingrich we didn't know then that the FBI was investigating #TrumpRussiaCollusion https://t.co/Of0Vx6CDLv
p1084
aVRT @ABC: Group of 20 attorneys general calls for appointment of independent special counsel to continue Russia probe. https://t.co/TDSzsXLE\u2026
p1085
aVRT @timkaine: The country deserves a special prosecutor now to get to the bottom of Trump / Russia connections
p1086
aV@realDonaldTrump are you scared? #whatdidyouknowandwhendidyouknowit
p1087
aV@realDonaldTrump it ends with a special investigator #whatdidyouknowandwhendidyouknowit
p1088
aV@PoliticalShort @DonaldJTrumpJr @CR #ImpeachTrump2017 https://t.co/bOrizl9shW
p1089
aV@GregForMontana @DonaldJTrumpJr @VP #ImpeachTrump2017 https://t.co/nXl0gQOhXr
p1090
aV@DonaldJTrumpJr #ImpeachTrump2017 https://t.co/U6DhxpW6UG
p1091
aV@donnabrazile @DebraMessing @ABC #ImpeachTrump2017
p1092
aV@MartinHeinrich @SenateDems #ImpeachTrump2017
p1093
aV@DailyCaller @DonaldJTrumpJr #ImpeachTrump2017
p1094
aV@PhilipRucker @DebraMessing #ImpeachTrump2017
p1095
aV@andylassner @DebraMessing @MarchForTruth17 #ImpeachTrump2017
p1096
aV@RepAdamSchiff @DebraMessing @realDonaldTrump #ImpeachTrump2017 https://t.co/0nBmgevciC
p1097
aV@intelligencer @DebraMessing https://t.co/RVJQD1YMS2
p1098
aV@GregForMontana @DonaldJTrumpJr @VP #ImpeachTrump2017 https://t.co/s8ExpMKdE1
p1099
aV@DonaldJTrumpJr #ImpeachTrump2017 https://t.co/sDpKmr5h9I
p1100
aV@DonaldJTrumpJr #treasonoustrump #ImpeachTrump2017 https://t.co/v1sx8GLmED
p1101
aV@JoyAnnReid @DebraMessing @washingtonpost @gop the American people demand a special prosecutor https://t.co/tTzQmcqGGf
p1102
aVRT @pattonoswalt: Watch this, everyone. 2 minutes long. HOW the fuck is Trump still president? https://t.co/6VBT8ukkVZ
p1103
aV@charliekirk11 @DonaldJTrumpJr https://t.co/YNC9tO6dpg
p1104
aV@GregForMontana @DonaldJTrumpJr @VP #treasonoustrump #cowardlyryan
p1105
aV@DonaldJTrumpJr https://t.co/0wmXzpza6K
p1106
aV@DonaldJTrumpJr but how true is this #TreasonousTrump #ImpeachTrump2017 https://t.co/ewpRnAhoDP
p1107
aVRT @SenatorDurbin: Here's President Trump admitting he fired Director Comey because of the FBI's investigation of him. Clear as day. https:\u2026
p1108
aV@tedcruz you're a partisan stooge and I am so upset I wasted my primary vote on you! Do what is right for the peopl\u2026 https://t.co/Uyq1lQHiR6
p1109
aV@SenatorDurbin the "word integrity" is one that @realDonaldTrump shouldn't use! The American people demand an independent investigator
p1110
aV@VP @POTUS @realDonaldTrump stop avoiding the real issue! #whatdidyouknowandwhendidyouknowit https://t.co/7lVMsHUPlc
p1111
aV@HouseGOP @Wonkblog @washingtonpost https://t.co/NDUB1KEba1
p1112
aV@HouseGOP @Wonkblog @washingtonpost umm guys I think we have bigger issues #ImpeachTrump2017
p1113
aV@realDonaldTrump if you have nothing to hide you would appoint an independent investigator! #whatdidyouknowandwhendidyouknowit
p1114
aV@realDonaldTrump and what shall we do about your collusion?? #ImpeachTrump2017
p1115
aV@realDonaldTrump you sir are an absolute disgrace to the office #whatdidyouknowandwhendidyouknowit #ImpeachTrump2017
p1116
aV@FoxNews @KellyannePolls why is it that even republicans are now asking for a special prosecutor! Stop making this\u2026 https://t.co/6QUHpT3civ
p1117
aV@DonaldJTrumpJr @Twitter @lynntowler @realDonaldTrump Donald has a new executive order removing the first amendment #TreasonousTrump
p1118
aV@SpeakerRyan once again you will be on the wrong side of history! #cowardlyRyan https://t.co/ZayFUCBhgy
p1119
aV@realDonaldTrump https://t.co/YtbqTjwfwb
p1120
aV@newtgingrich https://t.co/fSYga5Zkst
p1121
aV@mitchellvii @DonaldJTrumpJr https://t.co/kRwkji1yVS
p1122
aV@chelseahandler it's funny because it's true! https://t.co/mNi8ceQUs6
p1123
aV@PoliticalShort @KeithOlbermann https://t.co/1vyVQnjXi3
p1124
aV@POTUS https://t.co/eFGiyR7a61
p1125
aV@billoreilly https://t.co/RJk6eMZpiX
p1126
aV@DebraMessing @NBCNews https://t.co/td5P1ji6Tm
p1127
aV@ChrisRBarron @DonaldJTrumpJr @CNN https://t.co/Ga9G200BsL
p1128
aVRT @SenJohnMcCain: Removal of Director Comey only confirms need for select cmte to investigate #Russia's interference in 2016 election http\u2026
p1129
aV@realDonaldTrump https://t.co/NytxyQm2u0
p1130
aV@DonaldJTrumpJr @bpolitics https://t.co/39eFxJXYGZ
p1131
aV@realDonaldTrump https://t.co/xOPNDASktV
p1132
aV@DonaldJTrumpJr @chelseahandler lol but it's so true!!! https://t.co/2NUgZYL8rh
p1133
aV@GovMikeHuckabee https://t.co/KLd6GvtTRW
p1134
aV@newtgingrich @POTUS ummm is that the same AG that had to recuse himself on the #Trumprussia investigation ??
p1135
aV@PhaedraParks shame on you Phaedra! Ever heard of slander
p1136
aV@realDonaldTrump nervous??
p1137
aV@realDonaldTrump did you read the bill? I did, not fake news it's a terrible bill!
p1138
aV@PeterRoskam Ugh! Did u read the bill or was it just a needed win for the party? Did u think about the needs of your constituents
p1139
aV@SpeakerRyan is your evil plan to kill the weak with their pre-existing conditions? My sister will lose her healthcare #shameonyou
p1140
aV@SpeakerRyan a win for the rep party but a loss for the American people! Shame on you &amp; the @GOP! Your punishment will b in the voting booth
p1141
aV@SpeakerRyan make no mistake this bill is a political win today,  to the peril of many Americans tomorrow. Shame on you! Shame on the @GOP
p1142
aVRT @SenatorLeahy: Make no mistake, #AHCA is a $1trillion tax cut for wealthiest, in the guise of a health plan, paid by stripping insurance\u2026
p1143
aV@WhiteHouse @POTUS ummm wasn't there a reason for the separation of church and state? Oh wait constitution doesn't apply to this admin...
p1144
aV@PeterRoskam except for these ones.... https://t.co/oyLHDgYOgO
p1145
aV@PeterRoskam is that because your in a position that you will never need it? You lost my vote sir!
p1146
aV@RodneyDavis did you read the bill? Many of your constituents are going to lose healthcare! It's a sad day for us in IL!
p1147
aV@realDonaldTrump except for those 24 million that won't qualify! #VoteNoAHCA
p1148
aV@thehill @SpeakerRyan yes 24 million people losing healthcare is a great idea! #VoteNoAHCA
p1149
aV@realDonaldTrump stop, just stop! Pick up a book before you tweet, sweet Jesus you're stupid!
p1150
aV@WhiteHouse @DonaldJTrumpJr @POTUS #Delusional
p1151
aV@mmcallen @DonaldJTrumpJr  it's an outline with no actions! I am going to try this at work, wait no, I'll get fired
p1152
aV@DonaldJTrumpJr maybe if your dad didn't act like a petulant child there wouldn't be a need for spin!
p1153
aV@Scaramucci @DonaldJTrumpJr  umm this is what we have been waiting for? It's an outline not a plan.
p1154
aV@realDonaldTrump there is nothing like waking up to see the @potus is throwing a tantrum in public again #BabyTrump
p1155
aV@realDonaldTrump just because you don't like it doesn't make it untrue!
p1156
aVRT @billclinton: BREAKING: We just learned that the @ClintonCenter has been bugged. https://t.co/4Or6lrnRPN
p1157
aV@realDonaldTrump you didn't win the popular vote idiot.
p1158
aV@ABC @DonaldJTrumpJr here is the correct statistic. Take note, lowest approval rating in 45 years!! #realnews
p1159
aV@realDonaldTrump For the love of god please review your sentence structure! #Idiot
p1160
aVRT @thenation: Is Our President Bonkers? https://t.co/Uhb5jvmM98
p1161
aV@realDonaldTrump I'm sorry what have you done..beyond moving our country's social and scientific policy and back about 50 years...
p1162
aV@TexasLady4Life @ABC you my dear are an ass hat! Have you no respect for yourself?
p1163
aV@ABC @oreillyfactor @realDonaldTrump misogyny is unacceptable at least someone will be held accountable #grabthembythepussy
p1164
aV@newtgingrich except Kin Jong and Trump are both equally crazy! Hope those 50's era bomb shelters are nuke proof! #terrifiedOfTrump
p1165
aV@Andy I am living for #bunnygate #rhobh
p1166
aV@SteveKingIA dear lord your a  disgusting human being!
p1167
aVRT @Taxenders: Breaking News: All Georgians living in Jon Ossoff's District 6 who need a ride to their voting place call 770-765-5802. Plea\u2026
p1168
aV@realDonaldTrump the other 50% still despise you! #treasonousTrump
p1169
aV@realDonaldTrump and your hell bent on starting WWIII!
p1170
aV@VP @potus @SpeakerRyan why are you not terrified that Trump and Kim Jong are both cut from the same crazy trigger happy cloth?
p1171
aV@DonaldJTrumpJr @realDonaldTrump maybe one of these weekends you will do some work. Remember you complaining about Obama golfing????
p1172
aV@realDonaldTrump it never stopped being a thing #treasonousTrump
p1173
aV@DonaldJTrumpJr  ah yes, dueling scumbags!
p1174
aV@ABC @PressSec @potus stupid, silly, spicey! You need a nap!
p1175
aVRT @JoyAnnReid: Gerson: candidate Trump "was not hiding an inner sophistication." His ignorance was genuine. His presidency-soulless https:\u2026
p1176
aV@VP disgusted by the republican tactic of changing the rules mid game! #shame
p1177
aV@DonaldJTrumpJr he got the votes because reps changed the rules mid game, like petulant children!
p1178
aV@SenJohnMcCain this was not a choice it was a was an FU to democracy! But you are the man that chose Palin as a running mate!!
p1179
aV@LindseyGrahamSC @newtgingrich @thestate and if we can't get the votes we change the rules just like children!!  #shameful
p1180
aV@MarisaAnne_21 your mom must be AWEFUL lol
p1181
aV@FLOTUS pretty, lack of substance, but pretty...
p1182
aV@realDonaldTrump u r a FRAUD I'm working this week but you are not, and haven't since elected #TressonousTrump #RussianConnection #slacker
p1183
aV@realDonaldTrump shut up!  nothing like having the hard conversations at your vacation home that my taxes pay $$$$$$ per visit !
p1184
aV@seanspicer @JuddApatow hahahahaha!
p1185
aVRT @ABC: Idaho woman tells police she crashed into a deer because she was distracted by a sasquatch in her rearview mirror https://t.co/z4g\u2026
p1186
aV@jsftennis @DTaylor_19 @DennisPerkins5 @newtgingrich of course he is not a racist some of his best friends are black lol
p1187
aV@newtgingrich because @realDonaldTrump and @SpeakerRyan forget that this is a democracy
p1188
aV@PressSec  @POTUS and damn the indigenous people and the environment, who needs it we will all be gone soon enough #TrumpWillRuinThePlanet
p1189
aV@SpeakerRyan admit your solution was a cluster f*ck! Obamacare isn't great but come on You can review and do better!
p1190
aV@ABC @POTUS @SpeakerRyan now maybe you should go back to your constituency and find out what the people want!
p1191
aV@RepKevinBrady @SpeakerRyan @POTUS @realDonaldTrump why? Dear lord did any of you actually read the bill?
p1192
aV@RepAbraham @SpeakerRyan but this bill is soooo bad! Don't vote for garbage just so you keep a promise!
p1193
aVRT @KeithOlbermann: Since last night: Lincoln. Manafort. Tanks. Nunes. Trump is a failed president and those around him are idiots https://\u2026
p1194
aVRT @Mediaite: WSJ Editorial: Trump Has a Credibility Problem, Most Americans \u2018May Conclude He\u2019s a Fake President\u2019 https://t.co/IH8MN2PRAO h\u2026
p1195
aVRude!
p1196
aV@MarisaAnne_21 quote me directly "children are terrorists and teens are worse than Al Qaeda"
p1197
aV@MarisaAnne_21 don't hate the truth
p1198
aV@MichaelRapaport @Andy @Bravotv was AMAZING!!
p1199
aVRT @mattwhouse: Schumer: It is unseemly to be moving forward on #SCOTUS nominee with cloud of FBI investigation hanging over @POTUS\u000a\u000aRT if\u2026
p1200
aV@realDonaldTrump you might want to take a seat, this is not looking good for you! #treasonousTrump
p1201
aV@ABC @potus silly little oompa doesn't know the meaning of check and balance. Knucklehead thinks he is a dictator lol
p1202
aV@newtgingrich what is wrong with you? Are you drunk?
p1203
aV@newtgingrich and yet she is not the president waxing poetic about how she loves Putin
p1204
aV@ABC I love this story so much!
p1205
aVRT @tonyposnanski: @realDonaldTrump You telling the media to be nice is like Casey Anthony telling people to be better parents.
p1206
aV@SpeakerRyan and yet 15 million Americans will lose healthcare with your solution
p1207
aV@ABC morons and incompetence is the Trump Cabinet!
p1208
aV@realDonaldTrump "I just start kissing them. It's like a magnet. Just kiss. I don't even wait. And when you're a star they let you do it\u2026"
p1209
aV@POTUS "I just start kissing them. It's like a magnet. Just kiss. I don't even wait. And when you're a star they let you do it\u2026" #NotMyPres
p1210
aV@POTUS lol #alternativefacts
p1211
aV@ABC  @gop @potus investigate dig in to everything! What did the pres know and when did he know it !! #TreasonousTrump #CowarldyRyan
p1212
aVRT @JuddApatow: This is so fucked up.  How many fucked up things will he do before his supporters realize they are next? https://t.co/uZvPB\u2026
p1213
aV@realDonaldTrump @foxandfriends dodge and deflect, but it isn't working "what did @potus know and when did he know it" #treasonousTrump
p1214
aV@PressSec umm I know you said no further comment but @potus is off his meds and tweeting again. Can you get him? I think he needs help..
p1215
aV@realDonaldTrump well knucklehead if true that means a federal judge had probable cause of a criminal activity #RussiaGate
p1216
aV@realDonaldTrump STOP trying to divert our attention with your delusion! #RussiaGate #TreasonousTrump #CowardlyRyan
p1217
aV@realDonaldTrump @GOP can you    Get him some water and his meds, @potus is having a moment #delusional
p1218
aV@realDonaldTrump as I needed any additional proof that you are bat shit crazy this is it! @GOP your man is off his meds again!
p1219
aV@realDonaldTrump keep trying to divert our attention...#TreasonousTrump #CowardlyRyan
p1220
aV@realDonaldTrump OMG are you drunk? Hahahahaha
p1221
aVWell?? @POTUS @realDonaldTrump @SpeakerRyan @gop open your eyes!! https://t.co/KnxhJRZEqd
p1222
aVRT @maziehirono: How about an independent investigation into Russia's interference in our democracy? RT if you agree #justsaying https://t.\u2026
p1223
aV@realDonaldTrump @SenSchumer  stop deflecting! "Don't look at me, look at them!!" #RussiaSessionsFlynnTrump...
p1224
aV@realDonaldTrump @politico keep deflecting! "Don't look at me look at them!" What are you hiding?? #RussiaSessionsFlynnTrump
p1225
aV@realDonaldTrump @SenSchumer  that's right Donnie keep trying to divert our attention into your obvious collusion and your corruption
p1226
aV@ABC @SpeakerRyan @GOP @potus Nothing to see here people, this shouldn't concern any of you...#corruption
p1227
aVRT @mattwhouse: Schumer: 1st the @TheJusticeDept must appoint special prosecutor to investigate ties between Russia and Trump campaign/tran\u2026
p1228
aV@rafalhill @JuddApatow @RepAdamSchiff corruption and collusion that goes all the way to the @POTUS
p1229
aV@RepHartzler @SpeakerRyan corruption and obvious collusion with Russia that goes all the way to @potus? Focus on #treason
p1230
aVAnd @POTUS @SpeakerRyan will continue to do nothing... #TreasonousTrump #CowardlyRyan https://t.co/CMcF5BeBII
p1231
aV@realDonaldTrump well then let's investigate if you have nothing to hide! What did you know and when did you know it!
p1232
aV@realDonaldTrump umm obamas wasn't approved until early April. Chill out, maybe try appointing less shady people too..
p1233
aV@realDonaldTrump no, the point to to get to the truth. What did you know and when did you know it. This administration reeks corruption!
p1234
aV@realDonaldTrump again the question is what did you know and when did you know it #russiagate #treasonoustrump
p1235
aV@SenateDems because @potus Trump is complicit in these activities! #TreasonousTrump #CowardlyRyan
p1236
aV@SpeakerRyan open your eyes the American people demand an investigation to this administrations ties to Russia #sessions #TrumpsRussiaTies
p1237
aV@gop @SpeakerRyan @VP @POTUS the American People would like to know... https://t.co/z1dgypGamb
p1238
aV@PRyan I honestly believe the republican obsession with obamacare is simply an effort to divert attention from the issue at hand #AGSessions
p1239
aV@PressSec @CNN @POTUS #fakenews
p1240
aV@PressSec @POTUS Administration is an environmental nightmare!
p1241
aV@POTUS but not the pleas to implement a special investigator into your Russian ties #TreasonousTrump #CowardlyRyan
p1242
aV@PressSec @POTUS @uscapitol @cathymcmorris preparing to watch trump spew his simple stupidity. #treasonoustrump
p1243
aV@ABC  @GOP @potus even "W" wants to know what's going  down... #TreasonousTrump #CowardlyRyan
p1244
aV@realDonaldTrump @HotlineJosh @Scribd I love that you lead the free world but are OBSESSED with your popularity #SororityTrump
p1245
aV@kumailn @netflix @melanielynskey @MaconBlair I get upset that Netflix is so judgy . Yes I spent Friday on a binge #areyoustillwatching
p1246
aV@ABC @POTUS even George is calling you out
p1247
aV@POTUS insurance company's don't provide healthcare, they assist in coverage or denial for treatment and payment VERY different!!
p1248
aV@POTUS the more you rant the more the American people question! What are you hiding Mr Nixon..I mean Trump
p1249
aV@realDonaldTrump Trump is the new Nixon! What did you know and when did you know it?
p1250
aV@realDonaldTrump then select a bipartisan investigator and the world will move on. What are you hiding???
p1251
aVRT @TomPerez: Call me Tom. And don't get too happy. @keithellison and I, and Democrats united across the country, will be your worst nightm\u2026
p1252
aV@VP @POTUS maybe ensure the wealthy pay taxes. Might want to look into that #TreasonousTrump
p1253
aV@ABC @potus @SpeakerRyan so tired of this do nothing, cover it up administration and his party lemmings #TreasonousTrump #CowarldyRyan
p1254
aV@realDonaldTrump BREAKING NEWS 90% of the correspondents have been banned, so now it will not be a dinner but a small brunch!
p1255
aVNow @POTUS and @PressSec actions make sense!! https://t.co/vs1GQcuRs8
p1256
aV@ABC @realDonaldTrump @potus is this why you're all fired up this morning about fake news? Are you having a Jan Brady moment?
p1257
aVRT @KellyScaletta: @realDonaldTrump You inherited a government run by a competent person. Obama didn't. You inherited a budget that was ALR\u2026
p1258
aVRT @KellyScaletta: @realDonaldTrump I don't know what's scarier, that you don't understand why this tweet is stupid or that your supporters\u2026
p1259
aV@realDonaldTrump @nytimes @CNN because any outlet that disagrees has to be fake? Your an idiot! #TreasonousTrump
p1260
aVRT @SenSanders: .@realDonaldTrump They did. It wasn't. https://t.co/xqt29RJPEr
p1261
aV@repjoecrowley @HouseDemocrats @realDonaldTrump "what did the @potus know and when did he know it!!" #TreasonousTrump #CowardlyRyan
p1262
aV@MarisaAnne_21  you better get your butt to class
p1263
aV@SenatorDurbin @realDonaldTrump @nytimes @NBCNews @ABC @CBS @CNN the man has obviously lost his mind! Do SOMETHING! #SaveUsFromHisDelusion
p1264
aV@realDonaldTrump really your quoting Rush Limbaugh?? Now I know your batshit crazy!!
p1265
aVRT @SenatorTomUdall: The #1stAmendment is the foundation of our democracy. Keep up the work @nytimes, @NBCNews, @ABC, @CBS, @CNN &amp; others h\u2026
p1266
aV@jasoninthehouse it's a little late now! Our @POTUS is beyond insane!!
p1267
aV@GOP seriously? https://t.co/VyrN04fJjW
p1268
aV@SpeakerRyan for the love of god please focus on the real issue..what did he know and when did he know it #cowardlyRyan
p1269
aV@realDonaldTrump you won the electoral vote but not the popular one. #TreasonousTrump  #cowardlyRyan
p1270
aV@ABC  it's real news!! #TreasonousTrump  #CowardlyRyan
p1271
aV@RepTerriSewell @HouseDemocrats @HouseGOP  what did the @potus know and when did he know it ?!?! #TreasonousTrump #CowardlyRyan
p1272
aV@ABC #TreasonousTrump
p1273
aV@realDonaldTrump then prove us wrong and assign a bipartisan investigator!
p1274
aV@newtgingrich @vp what did the president know and when did he know it?! #TreasonousTrump #CowardlyRyan
p1275
aV@NancyHankins54 @AliAbunimah @CREDITSAVIOR   Nancy, racist much?
p1276
aV@realDonaldTrump #TreasonousTrump #CowardlyRyan
p1277
aV@realDonaldTrump @nytimes #TreasonousTrump #CowardlyRyan
p1278
aV@realDonaldTrump tweet all you want, call it all fake, whine about leaks, truth is your getting nervous! #TreasonousTrump #CowardlyRyan
p1279
aVRT @JuddApatow: Clearly Trump and Pence were directing Flynn.  This Pence angle is a cover story.  The true story is just pure collusion.\u2026
p1280
aVRT @mattwhouse: The reports of Trump campaign contacts with Russia should alarm all Americans and demand an independent investigation. RT i\u2026
p1281
aV@realDonaldTrump your ride is here... https://t.co/3TDSz2Qo5s
p1282
aVhttps://t.co/qPMEtr8qQ5
p1283
aV@realDonaldTrump @SpeakerRyan investigate or are you trying to cover up and deflect??? #cowardlyRyan #TreasonousTrump
p1284
aV@ABC @SpeakerRyan @POTUS when will you order an independent investigation? #cowardlyRyan #TreasonousTrump
p1285
aV@Andy @realDonaldTrump someone is off their meds...
p1286
aV@realDonaldTrump stop deflecting and appoint an independent investigator! Are you afraid of what they will find? #TreasonousTrump
p1287
aVRT @nytimes: Intercepted calls show Trump campaign members had repeated contact with Russian intelligence before the election https://t.co/\u2026
p1288
aV@ABC @SpeakerRyan @potus the problem is that the current administration will never actually investigate because they are complicit!
p1289
aV@jon_lunsford  @POTUS it's not about being a sore loser it's about ensuring accountability. Taking on Wall St by hiring them is questionable
p1290
aV@realDonaldTrump drain the swamp and put them in the White House #TrumpsBrokenPromises
p1291
aV@WhiteHouse @VP @POTUS proof positive that this administration gives ZERO fucks about the middle class #TrumpsBrokenPromises
p1292
aV@SenWarren @realDonaldTrump @SenateDems @potus I am beyond disgusted and disheartened #TrumpsBrokenPromises
p1293
aV@SenatorShaheen @JuddApatow @realDonaldTrump didn't win the pop vote, it must be voter fraud, don't  like what's in the news, fake news..
p1294
aV@JuddApatow @realDonaldTrump   I think he wasn't hugged enough as a child! #PresidentManChild
p1295
aV@ABC @RepCummings do your job and investigate!
p1296
aV@FLOTUS @BBTSchurch @POTUS #freeMelania run girl!!
p1297
aV@realDonaldTrump very good talks? I talks good! #mentalhealth
p1298
aV@SpeakerRyan stop glossing over the issue that your president is completely off the rails #mentalhealth
p1299
aV@FLOTUS  free melainia! You poor woman #MarriedToAMadMan
p1300
aV@realDonaldTrump  she is great, thank god she was raised by her mother and boarding school!!
p1301
aV@SpeakerRyan you have a madman in the White House, get him under control and then start worry about Obamacare!
p1302
aV@realDonaldTrump my kid got an A on his constitution test, just saying you may need a little help #checksandbalances
p1303
aVOfficial: Flynn Discussed Sanctions With Russians Before Taking Office - NBC News https://t.co/dWNLmnT891
p1304
aVRT @ABC: Supreme Court pick Neil Gorsuch calls Pres. Trump's comments on judiciary "demoralizing" and "disheartening." https://t.co/XAF5cFq\u2026
p1305
aV@realDonaldTrump #bannonized https://t.co/vUnz8WPgZn
p1306
aV@potus again just not true #factcheck https://t.co/6mPwDsgP04
p1307
aV@realDonaldTrump her sales were WAY down!!! Love that you have to be "pushed" to do the right thing #NotFakeNews https://t.co/PTioPHtXF5
p1308
aV@SpeakerRyan the environment, clean drinking water, and not to mention sacred lands of the indigenous people don't\u2026 https://t.co/cOArilbxz4
p1309
aVThe American people??? You did is a huge disservice today! @betsydevos #shameful https://t.co/CpVhgbCBhr
p1310
aVPerhaps we can setup a tutoring session, you can cram for the office!! @realDonaldTrump @potus @SenSanders https://t.co/QUgN5HiSln
p1311
aV@realDonaldTrump just because you can't deal with the truth doesn't mean it's fake #delusional https://t.co/vSOARfYHVp
p1312
aVRT @DanRather: There is no world where the moral equivalence of the United States and Putin's Russia is equal. https://t.co/sY3tqs0Us9
p1313
aVPerhaps @realDonaldTrump you should spend more time learning the constitution and immigration law and a little less\u2026 https://t.co/mQGiuAyqQ4
p1314
aV@realDonaldTrump it's called the US constitution, look it up! You can probably google it. Maybe ask your SCOTUS nom\u2026 https://t.co/EbiReXCann
p1315
aVYour ridiculous and need to be impeached! You can't just waive a pen and overturn what made this country great!\u2026 https://t.co/05DYmFqRRn
p1316
aVYay your leaving @potus https://t.co/9lJU3Adfly
p1317
aVMaybe you shouldn't pick unqualified people  with their own agenda and special interests! #UnfitToLead https://t.co/8fFGp3qYVP
p1318
aVUmmm wasn't your daughter one of them #votedin2states @POTUS https://t.co/WOHupsnvpk
p1319
aVDisgusting! https://t.co/ErEp8IabGs
p1320
aVYou win the election and claim there was no fraud, you lost the popular vote but now it's fraud? #moron\u2026 https://t.co/wSqnma5Fk2
p1321
aVRT @bbyvirg: LOOK AT THESE GOOD BOYS https://t.co/kGArlLU0XJ
p1322
aVRT @softmanda: so precious look at these woke doggos https://t.co/8a9jmukhDJ
p1323
aVRT @MarisaAnne_21: @beckygmh got a twitter and I'm about it
p1324
aV@MarisaAnne_21  oh yes, I read all the tweets lol
p1325
aVIs Twitter stalking @marisaanne_21
p1326
aV@NeNeLeakes your half breed apology has lost a fan \U0001f62d
p1327
aVLive you truth, love you #brucejennner
p1328
aVRT @netvenus: only adult http://t.co/aAqnHpVrbx
p1329
aVRT @MadelineMM: wine and spirits state college hours http://t.co/qjVwbBd5Dw
p1330
aVRT @Regan_Oriley: only adult http://t.co/7BuddcIEvt
p1331
aVRT @_GbrielaSilva: auto transport houston:http://t.co/iQqab02NON
p1332
aVRT @klauvargas: att stores denver http://t.co/auRHyRQFZd
p1333
aV@MarisaAnne_21 where are you???
p1334
aV@MarisaAnne_21 don't tweet my business!! jk. I wonder if they will bother with a check for .72 cents it costs like .42 for a stamp!
p1335
a.