(lp0
V@JeffFlake U r right
p1
aV@MsMollyRachael Lol
p2
aVSwet heart https://t.co/HtQedQFl2Y
p3
aVMe nd my swet heart https://t.co/wWihdajVCj
p4
aVhttps://t.co/g3ORhBQ9px
p5
aVhttps://t.co/gP3xBSHnK4
p6
aVhttps://t.co/tLs7Utgo1u
p7
aVMa swet Lve https://t.co/4B6P1i4yiN
p8
aVSwet Lve https://t.co/UCDKcNpbkh
p9
aVhttps://t.co/MPoRuaZNQv
p10
aVhttps://t.co/j0iYx61VTJ
p11
aVGud Lve https://t.co/ZIAwXKVqIH
p12
aVPwer Blesin https://t.co/2rDQgH3I9N
p13
aVhttps://t.co/fBbY4sRyoO
p14
aV@Trumptweets2020 Daddy please help me for visa
p15
aV@JohnBoozman Hello how are you doing
p16
aV@XAshleeO @V_Bottoms Hey sexy
p17
aV@somelikeitfat @MissVioletJames How are you doing my sexy baby
p18
aV@BigBootyAsshley Hello how are you doing
p19
aVhttps://t.co/dQnvBGZDPc
p20
aVhttps://t.co/eh61mN4xLw
p21
aVhttps://t.co/z2E4CcZSf7
p22
aVhttps://t.co/2lUC4i5bTt
p23
aVhttps://t.co/Bt2XR6vHDV
p24
aVGod First
p25
aVLf
p26
aVLol 4 Blesing https://t.co/TpyCEIw4MI
p27
aVhttps://t.co/6xQStl1yQa
p28
aVhttps://t.co/76zf23tQQD
p29
aVhttps://t.co/XsWJRBXbyH
p30
aVhttps://t.co/03oCO66wV7
p31
aVhttps://t.co/SgwAXnNJ8u
p32
aVhttps://t.co/g0jvNA27Jw
p33
aVhttps://t.co/wn2D44dUOh
p34
aVhttps://t.co/2U35UqK66k
p35
aVhttps://t.co/95DL68rlkI
p36
aVWait######4 My #####Food https://t.co/yJ6oZhLYti
p37
aVDnt Look Down####### Look Up And Move Up https://t.co/uaGNLfJ4on
p38
aVMove Up https://t.co/cSdHLjtjdE
p39
aVLfe Is Swet###@ https://t.co/T8DvF7Srm0
p40
aVhttps://t.co/DwZ7MmJhLN
p41
aVhttps://t.co/72WVMtFpq6
p42
aVhttps://t.co/r9qxOXLln4
p43
aV@XHNews @Ronaldo Nice
p44
aV@XHNews unbelievable
p45
aV@nglkante @ChelseaFC wow
p46
aV@ClevelandClinic serious
p47
aV@darealVAbarbii really and that's good you do that
p48
aV@darealVAbarbii what happens this morning
p49
aV@FIFAWorldCup I wish you more happy birthday
p50
aV@MiriamKariuki20 how can you get that money
p51
aV@XHNews wow
p52
aV@BBCBreaking me too
p53
aV@LuvvSyc really
p54
aV@khazar_milkers God will kill this idiot man
p55
aVhttps://t.co/gOybV5qT6U
p56
aVhttps://t.co/la5t4zQ9Kk
p57
aVhttps://t.co/JHb0GahpcM
p58
aVhttps://t.co/BLc5ifnZcx
p59
aVhttps://t.co/wWaOxXbtxZ
p60
aVhttps://t.co/ZgkjWvCRCa
p61
aVhttps://t.co/HZojt7vbWX
p62
aVhttps://t.co/AEDPEBXnhO
p63
aVNothing
p64
a.