(lp0
VRT @AmerAcadPeds: To ensure a fun, festive Halloween, make sure an adult accompanies your littlest trick-or-treaters as they go door-to-doo\u2026
p1
aVChildren can\u2019t vote, but I can! I just supported #VoteKids by adding a badge to my profile picture. Join me! https://t.co/La4pqVnt5p
p2
aVLet Kids Play https://t.co/UWdGbqcSY9
p3
aVRT @AmerAcadPeds: Drowning is the leading cause of unintentional death of children ages 1 to 4. The @TODAYshow features the tragic stories\u2026
p4
aVRT @AmerAcadPeds: Even with 26,000 bike-related pediatric brain injuries a year, many children (&amp; adults) still wear helmets incorrectly\u2013if\u2026
p5
aVMultiple people fatally shot at Capital Gazette newspaper in Annapolis https://t.co/bYOb1aS5TT
p6
aVRT @ETSshow: @AAPPres joins us to discuss #ImmigrantChildren separation, the state of the children's well-being and the impact of toxic str\u2026
p7
aVRT @AmerAcadPeds: Dr. Dale Jarka, a pediatric orthopaedic surgeon who treats far too many children seriously injured by lawn mowers, urges\u2026
p8
aVRT @AmerAcadPeds: The @US_FDA  is warning parents about teething medications that can cause a baby's oxygen levels to drop dangerously low,\u2026
p9
aVRT @AmerAcadPeds: Today is World #Asthma Day. Poor air quality from climate change can cause breathing problems, especially in children wit\u2026
p10
aVRT @D300Foundation: The Cultural Arts on the Fox Open House runs today from 12-4 p.m.  Come out and enjoy some great art by great kids from\u2026
p11
aVHundreds of AAP members urge Congress to protect children from gun violence  https://t.co/TnN6Hue5RC
p12
aVRT @AmerAcadPeds: Reading aloud to children from birth has a powerful impact, @PerriKlass writes in @nytimes. A Pediatrics study revealed t\u2026
p13
aVRT @AmerAcadPeds: Pediatricians are on Capitol Hill right now to urge Congress to #EndGunViolence. @DrBenHoffman on why gun violence is a p\u2026
p14
aVRT @AmerAcadPeds: AAP members marched and will continue to advocate to #EndGunViolence. As long as children continue to be injured and kill\u2026
p15
aVRT @AmerAcadPeds: \u201cDoctors can help reduce gun violence. Let them.\u201d @Time discusses AAP\u2019s recommendations for pediatricians to discuss fire\u2026
p16
aVRT @AAPNews: BREAKING NEWS: The @AmerAcadPeds is launching a new research initiative to protect children from firearm injuries. Details: ht\u2026
p17
aVThousands of shoes on Capitol lawn for gun death memorial @CNNPolitics https://t.co/VjZkbumbLH
p18
aVRT @AmerAcadPeds: Some physicians adopt an "exercise as medicine" philosophy with their prescription pads. @nytimes looks at initiatives su\u2026
p19
aVRT @AmerAcadPeds: Reading to a child in early infancy can boost vocabulary and reading skills. @WTOP looks at how developing early habits b\u2026
p20
aVRT @CDPulcini: Reflecting on wonderful 2013 article, interview, and call to action on firearm violence by influential mentors &amp; pediatricia\u2026
p21
aVRT @AmerAcadPeds: A #Parkland pediatrician stands proud with students as they turn grief over their school\u2019s mass shooting into strength. \u201c\u2026
p22
aVRT @CBSHealth: That's not harmless water vapor -- e-cigs expose users to a compound "so toxic that it is used in chemical weapons," researc\u2026
p23
aVDr. Robert Murray on why #SchoolBreakfast is important. \u201cSchool nurses know what happens when children don\u2019t get br\u2026 https://t.co/BIEvUC2tfa
p24
aVRT @AmerAcadPeds: RT @AmerAcadPeds: In a new #AAPvoices post, @NerissaBauer explains why pediatricians should screen all adolescents for de\u2026
p25
aVRT @AmerAcadPeds: As many as 1 in 5 teens suffer depression, but don't get the help they need. Families can start by asking their pediatric\u2026
p26
aVRT @DrRemleyAAP: To the #Parkland students: Pediatricians are with you. Thank you for continuing to speak up, despite these baseless attack\u2026
p27
aVRT @AmerAcadPeds: Our recommendation that all guns in homes with children be stored unloaded, locked, and away from ammunition, is based on\u2026
p28
aVRT @AmerAcadPeds: Following the tragic school shooting that took 17 lives and destroyed many more, our hearts are in #Parkland, Florida, an\u2026
p29
aVRT @AmerAcadPeds: A mother\u2019s sorrow as her 3-year-old son lay comatose, shot accidentally by his brother, showed Dr.  Sanghee Suh the impor\u2026
p30
aVRT @AmerAcadPeds: Medical groups are "deeply disappointed" by the repeal of the #CleanPowerPlan. @CNN  looks at the health impact: https://\u2026
p31
aVRT @AmerAcadPeds: Dr. Don Shifrin: Parents are children's "first responders," @tarahaelle Reassure them ASAP after tragedies @Forbes \u000a\u000ahttp\u2026
p32
aVDoctors join forces, warn climate change is harming our health https://t.co/KALsaa5cKJ
p33
aVRT @AmerAcadPeds: .@SenWhitehouse is correct: Climate change poses threats to children's health. Where we stand: https://t.co/Om9cLRvYfx
p34
aVRT @AmerAcadPeds: A "dead" button battery still has a charge &amp; can harm a child should it get caught in the ear, nose, or throat #KidSafeHo\u2026
p35
aVRT @AmerAcadPeds: In #AAPVoices, @AAPPres writes about e-cigarette risks for children &amp; teens on the heels of @Surgeon_General report: http\u2026
p36
aVRT @AmerAcadPeds: Speak up &amp; stand up for yourselves and others, and don't be afraid to get help. @Dr_Hansa on bullying #AAPvoices https://\u2026
p37
aVWhat Really Makes Us Vote? It May Be Our Parents https://t.co/dSl3sCL9FK
p38
aVRT @AmerAcadPeds: Top 10 reasons why this future pediatrician will #VoteKids today, and why you should, too. @AAPSOPT #AAPvoices https://t.\u2026
p39
aVRT @AmerAcadPeds: Updated safe sleep recc. calls for infants to share parents\u2019 bedroom, but not the same sleeping surface. https://t.co/KlA\u2026
p40
aVAdvice for Parents on Body Image Amid 2016 Campaign Insults https://t.co/22LXD2zZf9
p41
aVRT @AmerAcadPeds: Help families understand food packaging tricks in the fight against #childobesity, says  @DrNatalieMuth. #AAPvoices https\u2026
p42
aVDoctors Brace for Zika Babies https://t.co/euyAy1iZ4T
p43
aVRT @AmerAcadPeds: For homeless students, pediatrician says in #AAPvoices, staying in school key to staying healthy. #FACEpoverty https://t.\u2026
p44
aVRT @AmerAcadPeds: Watching our Conversation about Child Health? Submit a question to our panelists to kids1st@aap.org https://t.co/5HfKHI84\u2026
p45
aVRT @AmerAcadPeds: Meet our panelists: @AAPPres has spent his career serving poor children and families #putkids1st https://t.co/9gW09gDBHb
p46
aVRT @AmerAcadPeds: Meet our moderator: @DrRichardBesser is ABC's Chief Health and Medical Officer (and #tweetiatrician!). #putkids1st https:\u2026
p47
aVRT @ABCNewsLive: LIVE NOW: A conversation about child health in the next administration. Follow along &amp; join in using #putkids1st!\u000ahttps://\u2026
p48
aVRT @AmerAcadPeds: Happening today: A conversation about child health in the next administration. Follow along &amp; join in using #putkids1st!
p49
aVRT @AmerAcadPeds: In new #AAPvoices post, @Fernando_Ysern describes caring for patients amid Zika epidemic. https://t.co/umLWctfOxn https:/\u2026
p50
aVRT @AmerAcadPeds: As kids go #BacktoSchool, let\u2019s #STRYVE to prevent school violence https://t.co/OYND4nVyeB https://t.co/5Cxg2aa8XF
p51
aVChildren can\u2019t vote, but I can! I just supported #VoteKids by adding a badge to my profile picture. Join me: https://t.co/La4pqVnt5p
p52
aVThank you, @MarshaDRaulerso, for sharing this powerful message. #AskingSavesKids https://t.co/ZpJdlbnE4N
p53
aVRT @AmerAcadPeds: No amount of lead exposure is safe for children. AAP calls for stricter regulations https://t.co/yGGLfQa4Y3 https://t.co/\u2026
p54
aVRT @AmerAcadPeds: June 21 is ASK Day. Asking about guns in the home can save kids. https://t.co/jMjI0fHeCY #ASKingSavesKids https://t.co/4i\u2026
p55
aVRT @AmerAcadPeds: We join leading medical groups to stand with #Orlando &amp; against gun violence by calling for policy change now: https://t.\u2026
p56
aVRT @AmerAcadPeds: To commemorate its 10-year anniversary, #tweetiatrician @DrStager pens #AAPVoices blog on importance of HPV vaccine https\u2026
p57
aVRT @DrRemleyAAP: Poignant @NEJM piece by @PerriKlass on the will to end child poverty &amp; how it's reflected in children's literature: https:\u2026
p58
aVFormer AAP president Dr. Judith Palfrey shares a powerful story about losing a patient to gun violence. #WearOrange  https://t.co/EIKMSF4IlG
p59
aVRT @AmerAcadPeds: Why we #WearOrange: Pediatricians are committed to protecting children from gun violence https://t.co/iq7P8hWg3Z https://\u2026
p60
aVRT @healthychildren: Swaddling may increase #SIDS risk when infant on side or stomach. Learn safe swaddling here. https://t.co/DrixzZcyUh h\u2026
p61
aVRT @AAPNews: Study finds 1,500% increase in monthly poison center calls due to e-cigarettes. https://t.co/xqiNYfCsKn https://t.co/lYti8Mu1P6
p62
aVRT @AmerAcadPeds: "Child safety should be put first" says @GaryASmithMD in @CNN story on skyrocketing e-cigarette poisonings https://t.co/L\u2026
p63
aVRT @AmerAcadPeds: In #AAPVoices post, @Dr_ScottK describes how pediatricians can link struggling families with resources. #FACEPoverty http\u2026
p64
aVRT @AmerAcadPeds: Today, we join @AAPSOMSRFT for a day of action to highlight how pediatricians are working to #FACEpoverty https://t.co/EE\u2026
p65
aVRT @AmerAcadPeds: AAP welcomes @US_FDA\u2019s action today to regulate e-cigarettes &amp; other tobacco products https://t.co/3nsxejQXMS
p66
aVRT @AmerAcadPeds: Kids ages 8-18 spend more time with screens than any activity but sleeping. Celebrate #ScreenFreeWk May 2\u20138! https://t.co\u2026
p67
aVRT @AmerAcadPeds: Tomorrow is National Children's Mental Health Day. Join the conversation at #HeroesofHope https://t.co/DYMcfQ37s6 https:/\u2026
p68
aVIt's not just income, but how much money is left after paying bills, that may affect children's health. #PASMeeting https://t.co/imhhm7OjeB
p69
aVStudy finds that children of gay parents are well-adjusted https://t.co/ziuXH1bWsP
p70
aVBring It On! 8 Reasons Some Kids Thrive Despite Adversities | Psychology Today https://t.co/8yE77cgFxt
p71
aVRT @maggiemfox: There's some good news about #Zika. It rarely sickens children or teens. But the birth defects...https://t.co/JSfQL5ltK4
p72
aVRT @PASMeeting: Research presented at #PASMeeting "Tighter Alcohol Curbs For All Help Reduce Teen Motor Vehicle Deaths" https://t.co/b4Rvi3\u2026
p73
aVRT @PASMeeting: Research presented at #PASMeeting "The Link Between Mosquito Spraying and Autism" https://t.co/nsQn6hUHDI
p74
aVRT @PASMeeting: Research presented at #PASMeeting: "Bullying Can Turn Victims Into Bullies" https://t.co/LRxVnyGvXv
p75
aVRT @MonaHannaA: My Sunday NYT Opinion piece: "The Future for Flint\u2019s Children." Time for Congress to step up for #FlintWaterCrisis. https:/\u2026
p76
aVRT @AAPNews: Children diagnosed with #autism earlier since push for universal screening. https://t.co/AwdUyiuIjw #PASMeeting https://t.co/a\u2026
p77
aVRT @DCDelMonte: "If there is something that threatens the tomorrows of our children, we have to speak up."--@MonaHannaA  #PASmeeting
p78
aVRT @shriver_amy: .@MonaHannaA says a recent lead level from water in a Flint home was &gt;22,905 ppb! #PASmeeting https://t.co/JBovZZu7lN
p79
aVRT @CDPulcini: @AAPPres @PASMeeting "federal policies work to combat child poverty." Such an important message. @AAPSOMSRFT @AmerAcadPeds #\u2026
p80
a.