(lp0
V@goldengateblond @chrissyteigen @goldengateblond  @chrissyteigen Lots more were those cane from @MilpertHusky their\u2026 https://t.co/2LAZligIyG
p1
aV@ancatdubh2 Oh I remember.
p2
aV@mametown I\u2019d been bugging my dad for months to listen to Serial. Literally described it to him that it was like Ra\u2026 https://t.co/DX8vCJRsM9
p3
aVRT @mercedeslynz: It's a really scary time for dudes right now. So I wrote a song about it. Go #vote friends!  #TheResistance #1Thing @ACLU\u2026
p4
aVRT @ChuckModi1: Thought he\u2019d just focus on Kavanaugh. Instead he gave best response on rape culture I\u2019ve ever heard from a man! \u000aI aspire t\u2026
p5
aVRT @kumailn: So we\u2019ve realized that our entire political structure is based on the honor system.
p6
aVRT @MLBNetwork: .@kschwarb12 advances to the #HRDerby Finals with a 21-20 win over Rhys Hoskins!\u000a\u000aRETWEET now for a chance at the @Cubs slu\u2026
p7
aVRT @Cubs: Want to score tickets to the #Cubs home opener?\u000aHow about a game-used #OpeningDay baseball from @CubsAuthentics, too?\u000a \u000aRT for a\u2026
p8
aVRT @johnlegend: We don\u2019t pay our teachers enough to TEACH. Now these fools want them to double as armed security.  Meanwhile our kids are t\u2026
p9
aVRT @BobbyBigWheel: @DonaldJTrumpJr Prior to the proliferation of high speed Internet there wasn't much need to enforce neutrality, and once\u2026
p10
aVWho knew the Philadelphia Police department would have such a strong twitter game. Love the response from Texas She\u2026 https://t.co/kWZxdtVwne
p11
aVRT @MMFlint: 38 states are needed to ratify the Equal Rights Amendment for women. 36 have already voted YES! We only need 2 more. C\u2019mon! Wh\u2026
p12
aVRT @SenatorDurbin: BREAKING: Senate Democrats just tried to get Senate Republicans to adjourn for a few days and take the time to actually\u2026
p13
aVRT @JenAshleyWright: Hey women: retweet if you've ever been shown a penis you did not want or expect to see.
p14
aVRT @SenatorDurbin: 94% of Americans (93% of gun owners) want background checks on every gun sale. Retweet if you do too.
p15
aVRT @FullFrontalSamB: \u201cMass shootings are scary and impossible to predict. Except for this one big thing that\u2019s a really good predictor.\u201d\u000aht\u2026
p16
aV@jnsanchez This! A million times, this!
p17
aVRT @laurenduca: Never forget, I guess. https://t.co/jdCA2Ec2mD
p18
aVRT @cblatts: In college, I believed this deeply. It's fundamental to justify libertarian stance. Learning it was empirically false changed\u2026
p19
aVRT @ASlavitt: Trump decided not to inform people of ACA open enrollment in order to sink it.\u000a\u000aThat's not the only option. RT here if you wi\u2026
p20
aV@ancatdubh2 His use of the exclamation point is egregious.
p21
aVRT @billyeichner: So, you're all gonna vote from now on, right? Cause none of these tweets mean anything if you don't actually get off your\u2026
p22
aVRT @jk_rowling: Unbelievable. He actually did bring the Middle East together. https://t.co/miP9MyVLsS
p23
aVRT @BarackObama: "No one is born hating another person because of the color of his skin or his background or his religion..." https://t.co/\u2026
p24
aVRT @dominicibarrar: Chance the Rapper donated $1 Million to schools in Chicago, our President donates $100,000 for a whole country...just l\u2026
p25
aVThank you! @lisamurkowski @SenJohnMcCain @SenatorCollins Woke up to the best birthday present today.
p26
aVRT @SenBookerOffice: This is a make or break moment. A moral moment. Any senator who votes YES on health care repeal does so knowing 22M+ A\u2026
p27
aVRT @SenWarren: This is your moment in history, @SenateGOP. You can side with a political party, or the people you represent. Prove we're be\u2026
p28
aVRT @shannonrwatts: John McCain left hospital stay paid by taxes on flight paid by taxes to remove health insurance from taxpayers. And we p\u2026
p29
aVRT @Alt_DeptofED: Worth watching. https://t.co/Io9lZq49ay
p30
aV#VoteKB #VoteKB
p31
aVRT @NHLBlackhawks: Have you heard? It's #VoteKB Day! RT to vote @KrisBryant_23 to the 2017 #ASG!\u000a\u000a#OneCity #OneGoal https://t.co/5eif5gO9v6
p32
aVRT @Cubs: Dreams do come true! RT this by 3 p.m. for a chance to take a selfie with @KrisBryant_23, plus two tickets to a game. #VoteKB #Vo\u2026
p33
aVRT @Cubs: Look what we picked up \u2013 another baseball signed by @KrisBryant_23!\u000a\u000aRT by 3 p.m. for your chance to win it. #VoteKB #VoteX https\u2026
p34
aVRT @Cubs: We\u2019re raising the stakes! RT this post by 3 p.m. for a chance to win a signed KB jersey! #VoteKB #VoteX https://t.co/C6H2eO8sAw
p35
aV#VoteKB
p36
aVI just voted to send Kris Bryant to the 2017 #ASG! Help him win the Final Vote! https://t.co/Iucf6mRlvD
p37
aV#VoteKB https://t.co/37667ns5GO
p38
aVRT @LibyaLiberty: "To interview for their visas, the girls risked a 500 mile trek cross-country to the American embassy in Kabul."\u000a\u000aTwice.\u2026
p39
aVRT @johnlegend: I see Melania's campaign to end cyber bullying is off to a slow start
p40
aVRT @ChelseaClinton: Thank you for this important reminder of what's at risk for women's health (&amp; our country) https://t.co/kKwehm7tAE
p41
aVRT @Alt_DeptofED: RT if you like equal rights more than pie. \u000a\u000aH/t @blackonblackbk https://t.co/SLwwobvWDn
p42
aVRT @chancetherapper: I'm meeting privately with the governor Wednesday. The two of us will address funding education in Chicago. I'm eager\u2026
p43
aVRT @ChelseaClinton: Ummm... The scientific method? https://t.co/YNhYkBDRrq
p44
aVRT @DanRather: The time for normalizing, dissembling, and explaining away Donald Trump has long since passed. https://t.co/yOAracVN7w
p45
aV@ancatdubh2 Hell, I slept soundly under W, too.
p46
aVRT @SenBobCasey: .@SenateDems will hold the floor for as long as we can on Monday but we need your help! Tell @SenateGOP that you oppose @B\u2026
p47
aVRT @GeorgeTakei: Take the DeVos pledge: If your senator votes to confirm, you will vote against their reelection and donate to their oppone\u2026
p48
aVRT @NRDC: Call your senators\u2014and tell them to vote NO on Scott Pruitt\u2019s EPA nomination! Here\u2019s how: https://t.co/pO4WZK4Xsu https://t.co/mm\u2026
p49
aVRT @Alt_DeptofED: Stay in school, kids. \U0001f64f\U0001f3fd https://t.co/LBHETWQPFT
p50
aVRT @Alt_DeptofED: Let's do this! Let's make some calls, people! #DumpDevos #Resist https://t.co/wk7skcSell
p51
aVRT @Alt_DeptofED: Cloture vote was this morning but looks like REAL vote is next week, likely Tuesday. Keep calling folks!! \u260e\ufe0f\U0001f4de\U0001f4df\U0001f4f1 https://t\u2026
p52
a.