(lp0
VGet out and #VoteDem #voteblue ! https://t.co/EwrwxOy0c1
p1
aVRT @MattxRed: Just wanted to give you a very direct and friendly reminder that Election Day is on Tuesday and you should definitely bring f\u2026
p2
aVRT @NancyPelosi: .@HouseDemocrats\u2019 believe the mission of the Congress should be doing good for the American people. RT If you agree! #ForT\u2026
p3
aV@SteveKingIA Funny, I have family in Iowa, and none of them are Nazi sympathizers like you!
p4
aVRT @SethAbramson: George Papadopoulos (@GeorgePapa19) has challenged me to prove that I'm a journalist with expert Trump-Russia knowledge.\u2026
p5
aVGet out and #VOTE! #VoteDem #VoteBlue #VoteForOurLives #BlueWave #BlueTsunami2018 #BlueWave2018
p6
aVI voted early. You should too! Let's end this madness that is ruining our country and threatening our democracy!\u2026 https://t.co/20es6MxGlO
p7
aVRT @joncoopertweets: Can you do me a favor? Please retweet this if you plan to #VoteDem on Tuesday, or if you already have. Thanks! \U0001f5f3
p8
aVWho do I petition to end the practice of #DaylightSavingTime? It's the 21 century, and this practice makes 0 sense. https://t.co/r4MrZQSNDk
p9
aVRT @nowthisnews: Students across the country are walking out of class on Election Day to head to the polls \u2014 and @futurecoaltion is leading\u2026
p10
aVHey @ABABankers, do you have an answer for @JuddLegum? I'd like to know too! https://t.co/Zy09RKakGQ
p11
aVWhen you say " #RedWave " are you referring to the rivers of blood from all of the mass shootings you've inspired? https://t.co/7dWb06R4yx
p12
aVSo, the GOP are now going to refer to Constitutional law as nothing more than "absurd policy?" #Traitors https://t.co/H2NogIJois
p13
aVRT @ProudResister: Sarah Sanders just said Trump was elected by an \u201coverwhelming majority.\u201d She\u2019s lying:\u000a\u000a46.9% Didn\u2019t Vote\u000a25.6% Voted Hil\u2026
p14
aV@RealCandaceO care to comment, or are you too busy eating crow? #MAGAT #MAGATerrorist https://t.co/QqKJIOdM7m
p15
aVRT @Amy_Siskind: We need to bring UN observers into Georgia!\u000a\u201cGrimes said she went to a polling site in Bartow County Thursday and tried to\u2026
p16
aV@thehill You keep using that word. I don't think it means what you think it means! https://t.co/9nDFVruf1L
p17
aVRT @MalcolmNance: \U0001f447\U0001f3fd\U0001f447\U0001f3fd\U0001f447\U0001f3fd I AM WARNING YOU ALL. THIS MAY BE THE LAST FREE AND FAIR ELECTION IN AMERICA. IT ALL HINGES ON 18-29s &amp; TURNING OU\u2026
p18
aV#CadetBonespurs wants to go to war with refugees? What a #coward! https://t.co/X4XXPvx7mj
p19
aV@JeffFlake Shut the fuck up, flake, nobody wants to hear you pretend to have morals.
p20
aVRT @TravisAllen02: HOW TO REPORT A RUSSIAN BOT ON TWITTER:\u000a\u000a1. Go to their account \u000a2. Click on Settings (little gear) \u000a3. Report \u000a4. Selec\u2026
p21
aVRT @Alyssa_Milano: One of @SenTedCruz's top staffers lobbied for a murderous dictator.  https://t.co/O4tI4gbztc
p22
aVRT @MichaelEMann: College students: Please read my commentary on why you MUST vote--and  vote ON CLIMATE--in the upcoming mid-term election\u2026
p23
aVRT @Alyssa_Milano: You should check this out: https://t.co/mtqKhsAMmA
p24
aV@SteveScalise Are you crying? You're too emotional to be in Congress. Don't worry, we'll vote you out soon!
p25
aV@FoxNews @SenCoryGardner Prove it!
p26
aVRT @MarkJKremer: .@SenatorCollins \u000a\u000aI am a pissed off 22 year old kid with 50,000 people behind me.\u000a\u000aI'm doing everything in my power to ma\u2026
p27
aVIn response to @SenatorCollins vote for #Kavanaugh, it's time for me to #Boycott @LLBean. Support the outdoors stor\u2026 https://t.co/TQcfhnd233
p28
aV@senorrinhatch Clearly, there is no god.
p29
aVRT @nytimes: John Paul Stevens said that Judge Brett Kavanaugh's statements at the hearings revealed prejudices that would make it impossib\u2026
p30
aVRT @SenatorLeahy: THREAD #1: A point-by-point breakdown of Judge Kavanaugh's claims about the Manny Miranda email theft scandal.
p31
aVRT @RonWyden: Today, I called for the IRS to fully investigate the allegations of tax fraud committed by @realDonaldTrump and his family. h\u2026
p32
aVRT @SethAbramson: Given that Trump gave the FBI a week, handcuffed it, lied about that, promised to stop, then didn't, the FBI has an ethic\u2026
p33
aVRT @thehill: JUST IN: Largest group of Christian churches in US calls for Kavanaugh to withdraw https://t.co/uLr6VrTGn4 https://t.co/jdd4Ww\u2026
p34
aVRT @YaleLawSch: Dean Gerken Joins the ABA in Calling for Further Investigation. https://t.co/SYAsVHwsi7
p35
aVRT @funder: A large Jesuit magazine has rescinded their endorsement of Kavanaugh, and called for his nomination to be withdrawn. Kavanaugh\u2026
p36
aVRT @MichaelAvenatti: I have witnessed well over 500 witnesses testify in court and in deposition over the course of my career. There is no\u2026
p37
aVRT @MichaelAvenatti: Here is a stmt issued by the American Bar Assoc calling for an FBI investigation before Kavanaugh is confirmed. My cli\u2026
p38
aVRT @funder: The American Bar Association just called on the Senate Judiciary Committee to halt the Kavanaugh nomination until there\u2019s a FBI\u2026
p39
aVRT @ProudResister: Dear @JeffFlake, @lisamurkowski, @SenatorCollins and @BobCorker:\u000a\u000aDr. Ford was poised, articulate, credible and \u201c100% ce\u2026
p40
aV@KatrinaPierson Wow, you're dumb!
p41
aVRT @washingtonpost: American Bar Association calls for FBI investigation into Kavanaugh allegations, delay in confirmation votes https://t.\u2026
p42
aVRT @funder: Should @realDonaldTrump withdraw Kavanaugh\u2019s nomination? #VoteNo #WithdrawKavanaugh
p43
aVRT @DougJones: I have called for:\u000a\u2014Complete disclosure of all documents\u000a\u2014Subpoena Mark Judge\u000a\u2014Postpone the vote\u000aDr. Ford was credible &amp; cou\u2026
p44
aV@CBSNews Merrick Garland. #KavanaughHearings
p45
aV@MarkWarner When it comes to the GOP's court nominees,  it seems \u201cthey\u2019re bringing drugs. They\u2019re bringing crime. T\u2026 https://t.co/Is61L6iotv
p46
aVRT @funder: BREAKING: @SenatorCollins, @JeffFlake, @Sen_JoeManchin and @lisamurkowski all met today after the testimony in private. Retweet\u2026
p47
aVRT @americamag: While we previously endorsed the nomination of Judge Kavanaugh on the basis of his legal credentials and his reputation as\u2026
p48
aVRT @Alyssa_Milano: CALL:\u000a.@SenatorCollins 202-224-2523\u000a.@lisamurkowski 202-224-6665\u000a.@JeffFlake 202-224-4521\u000a.@SenBobCorker 202-224-3344\u000a\u000a#\u2026
p49
aVYou might look in a mirror and ask yourself why you continue hang around people like the trumps?\u000a\u000aWhy would any per\u2026 https://t.co/Dgi3zKZTb9
p50
aVWhy do #Evangelicals treat women as inferior? Aren't their women sick of being treated as inferior to men?
p51
aVRT @SethAbramson: PLEASE RT: Deborah Ramirez has given a *corroborated* account of sexual assault by Kavanaugh and Republicans refuse to me\u2026
p52
aVRT @BarackObama: The antidote to government by a powerful few is government by the organized, energized many. This National Voter Registrat\u2026
p53
aVRT @MillenPolitics: Only 23% of Millennials regularly vote but 60% of Boomers do.\u000a\u000aMillennials\u2014\u000a\u000aWe don\u2019t let our grandparents choose our m\u2026
p54
aV@CouchKen @ChuckGrassley "Tenterhooks?" Who talks like that? I think the translator you're using is from the 1600s!
p55
aV@MNState0fHockey @ChuckGrassley There is no respect due to him. Nor is any due to you, for you are a jackass.
p56
aV@outdoorsie500 @ChuckGrassley Your grammar is terrible. I suspect you're a Russian.
p57
aV@Michell24581719 @ChuckGrassley Is it? Is it really? Have you ever seen trump's penis?
p58
aV@AZcardFAN711 @ChuckGrassley @Driveshard75 You're terribly misinformed.
p59
aVRT @chrislhayes: So even though Dr Ford is saying please stop, slow down, I\u2019m not comfortable with the way this is going, the GOP is gonna\u2026
p60
aVRT @maziehirono: These are the 11 Republican men led by @ChuckGrassley who won't even give Dr. Blasey Ford another 24 hours. What are they\u2026
p61
aVRT @repmarkpocan: .@HouseGOP and @realDonaldTrump decided that last year's #GOPTaxScam just wasn't enough for their wealthy donors and corp\u2026
p62
aV@GeorgePapa19 Source?
p63
aVRT @Lawrence: Lying to the FBI is a crime. \u000a\u000aDr. Christine Blasey Ford wants to talk to the FBI. \u000a\u000aBrett Kavanaugh doesn\u2019t want to talk to\u2026
p64
aVRT @funder: Share. This. Video. Now. Please. Thanks.\u000a\u000aKavanaugh: What happens at Georgetown prep, stays at Georgetown prep. That\u2019s been a g\u2026
p65
aVRT @tedlieu: As a former prosecutor, we look for indicia of credibility. Christine Blasey Ford has them:\u000a\u000a-Privately told her husband &amp; the\u2026
p66
aVRT @joncoopertweets: Christine Blasey Ford offered a detailed account of her sexual assault by #BrettKavanaugh &amp; passed a polygraph test gi\u2026
p67
aV@IngrahamAngle, so, your father was an abusive asshole. What's your excuse?
p68
aV@realDonaldTrump @IngrahamAngle Did you eat paint chips as a child?
p69
aVRT @SenFeinstein: Our motion to subpoena Brett Kavanaugh\u2019s White House records was defeated 11-10. All Republicans voted against it in orde\u2026
p70
aV@Brenter37 You're a terrible person, and I hope something bad happens to you.
p71
aVRT @LamarWhiteJr: At 2 in the morning, hundreds of Ted Cruz supporters all woke up to issue the same exact statement on Twitter. Nothing su\u2026
p72
aVRT @SenatorDurbin: In their effort to rush the Kavanaugh nomination through, Senate Rs today broke a Senate Judiciary Committee rule that p\u2026
p73
aVRT @SenatorDurbin: Republicans voted against my Kavanaugh subpoena request today. What is the purpose of administering the oath before the\u2026
p74
aVRT @RepJoeKennedy: Treating sick patients is a moral requirement. Padding a CEO\u2019s pocket isn\u2019t. https://t.co/ryg5YQ5lGa
p75
aVRT @RepJoeKennedy: Puerto Ricans can\u2019t afford to bury loved ones. Water bottles are sitting unopened on an airport tarmac a year after Mari\u2026
p76
aVRT @HillaryClinton: The administration is now seven weeks late in meeting its deadline to reunite families they separated at the border. Hu\u2026
p77
aVRT @SenJeffMerkley: Team Trump has proposed a new reg to allow family internment camps in America. Yes\u2026 internment camps! Is this what we'v\u2026
p78
aVRT @AynRandPaulRyan: BREAKING: the U.S. is holding a record 12,800 migrant children in detention, a fivefold increase from May 2017.\u000a\u000aDeten\u2026
p79
aVRT @sahluwal: This white man in Tallahassee, Florida blocked black students from going into an apartment building. The students were trying\u2026
p80
aV@EdKrassen In 20 years? I've already started!
p81
aVRT @funder: BREAKING: Trump took money meant for hurricane relief, and gave it to ICE to deport and detain more immigrants. The Trump admin\u2026
p82
aVRT @factcheckdotorg: Trump pushed back at Obama for taking partial credit for the post-recession economic recovery -- but got his facts wro\u2026
p83
aVRT @TheDemCoalition: VIDEO: @BWilliams covered our perjury complaint on the @11thHour against Kavanaugh. Keep the pressure on - tell the Se\u2026
p84
aVRT @chelseahandler: Kavanaugh voted in 2012 to uphold a South Carolina voter ID law that disenfranchised more than 80,000 minority register\u2026
p85
aVRT @sahluwal: A white woman called a black cashier at Dollar General in Shadyside, Pittsburgh the \u201cN\u201d word &amp; went on to sexually harass him\u2026
p86
aVRT @ProudResister: Mike Pence: \u201cIt\u2019s disappointing to see Barack Obama be so political.\u201d\u000a\u000aHey @mike_pence the real disappointment is seeing\u2026
p87
aV@SenatorCollins @lisamurkowski https://t.co/oHRn9G2Ojh
p88
aVRT @SuitUpMaine: Please keep calling the senators in your states. But leave Collins' phone lines open for Mainers. She has pointed to out-o\u2026
p89
aVRT @SenGillibrand: Kavanaugh is a danger to everything we value:\u000a\u000aWomen\u2019s reproductive rights.\u000aQuality, affordable health care.\u000aRights for\u2026
p90
aVRT @MaddowBlog: Good news for Kavanaugh: His confirmation hearing is over\u000aBad news for Kavanaugh: Whether he's confirmed or not, he could u\u2026
p91
aVRT @TheDemCoalition: BREAKING: @TheDemCoalition just filed a criminal complaint against Brett Kavanaugh for perjury in Congressional testim\u2026
p92
aVRT @KamalaHarris: We have a rushed Supreme Court confirmation process, hundreds of thousands of withheld or missing documents, and a nomine\u2026
p93
aVRT @SenFeinstein: Important read: \u201cFive Times Brett Kavanaugh Appears to Have Lied to Congress While Under Oath\u201d https://t.co/ie2yQgxz85
p94
aVRT @krassenstein: Brett Kavanaugh is almost certainly going to be confirmed by the GOP-lead Senate.  He does NOT deserve to be on the Supre\u2026
p95
aVRT @joncoopertweets: \u201cLying to Congress is a serious crime. But Judge Kavanaugh\u2019s crimes are even worse. He brazenly covered up aiding, abe\u2026
p96
aVRT @SenatorDurbin: What authority does GOP attorney Bill Burck have to designate docs \u201ccommittee confidential?\u201d None. Dems never agreed to\u2026
p97
aVRT @funder: BREAKING: @TheDemCoalition just filed a criminal complaint against Brett Kavanaugh for perjury in Congressional testimony. See\u2026
p98
aVRT @TheDemCoalition: BREAKING: @TheDemCoalition just filed a criminal complaint against Brett Kavanaugh for perjury in Congressional testim\u2026
p99
aVRT @funder: Brett Kavanaugh committed perjury. Retweet if you agree. That\u2019s why we filed a criminal complaint on him last night. Listen to\u2026
p100
aVRT @funder: BREAKING: @TheDemCoalition just filed a criminal complaint against Brett Kavanaugh for perjury in Congressional testimony. See\u2026
p101
aVRT @funder: BREAKING: @TheDemCoalition just filed a criminal complaint against Brett Kavanaugh for perjury in Congressional testimony. I ex\u2026
p102
aVRT @TheDemCoalition: BREAKING: @TheDemCoalition just filed a criminal complaint against Brett Kavanaugh for perjury in Congressional testim\u2026
p103
aVRT @funder: BREAKING: @TheDemCoalition just filed a criminal complaint against Brett Kavanaugh for perjury in Congressional testimony. See\u2026
p104
aVRT @TheDemCoalition: BREAKING: @TheDemCoalition just filed a criminal complaint against Brett Kavanaugh for perjury in Congressional testim\u2026
p105
aVRT @Amy_Siskind: That this even needs to be written. \u2066@lisamurkowski\u2069 \u2066@SenatorCollins\u2069 how can you support this extremist?  Let alone his\u2026
p106
aVRT @AdyBarkan: Kavanaugh must be removed from the Federal Judiciary. \u000a\u000aPlease RT if you want a member of the House to file Articles of Impe\u2026
p107
aV@AriFleischer Fascist!
p108
aVRT @SenFeinstein: Brett Kavanaugh used materials stolen from Democratic senators to advance President Bush's judicial nominees. He was aske\u2026
p109
aVRT @MaddowBlog: That appears to have been a really blatant lie that he told in sworn testimony. Judges really aren't supposed to do that. h\u2026
p110
aVIt was me! I did it! https://t.co/YV1VKUMnHp
p111
aVRT @CharlesMBlow: 1. Woodward book paints Trump as dangerous, dumb &amp; unfit.\u000a\u000a2. Anon Op-Ed by admin official says there is resistance in th\u2026
p112
aVRT @BarackObama: Today I\u2019m at the University of Illinois to deliver a simple message to young people all over the country: You need to vote\u2026
p113
aVRT @kurteichenwald: The fact that @PressSec Sarah sanders would tweet the phone number of the @nytimes and invite her followers to harass t\u2026
p114
aVRT @AynRandPaulRyan: WOW. 16k people are now pledging $450k to @SenatorCollins\u2019 future opponent if she votes to confirm Kavanaugh. \U0001f92f\U0001f92f\U0001f92f\u000a\u000aTel\u2026
p115
aVRT @SenatorDurbin: Today I asked Judge Kavanaugh whether he would ask Republicans to stop the concealment and make his full record public f\u2026
p116
aVRT @funder: BREAKING Video: Brett Kavanaugh privately told Senator Whitehouse he had never taken a position on whether a sitting President\u2026
p117
aVRT @JohnJHarwood: new Kaiser Family Foundation poll on Trump job performance: \u000a\u000a37% approve, 59% disapprove\u000a\u000a21% approve STRONGLY, 47% disa\u2026
p118
aVRT @RedTRaccoon: @fred_guttenberg Mr. Guttenberg,\u000a\u000aHere is the photo of that moment taken by @andyharnik. https://t.co/sjSPLHzIgI
p119
aVRT @fred_guttenberg: Just walked up to Judge Kavanaugh as morning session ended.  Put out my hand to introduce myself as Jaime Guttenberg's\u2026
p120
aVRT @votevets: FOR SHAME, Judge Kavanaugh!\u000a\u000aRemember all those stories about Kavanaugh being a regular dad? Well, here he is, snubbing a dad\u2026
p121
aVRT @davidhogg111: We\u2019re about to nominate a Supreme Court justice that has shown less of his record than anybody applying to college right\u2026
p122
aVRT @Emmymac1999: Retweet if you think Lindsay Graham has been blackmailed or otherwise compromised. https://t.co/zq8rNnCs7r
p123
aVRT @SenatorDurbin: All day long, Republicans on the Senate Judiciary Committee argued against transparency when it comes to Judge Kavanaugh\u2026
p124
aVRT @SenatorDurbin: It\u2019s unprecedented for the Senate Judiciary Committee to be considering a nominee for the highest court in the land with\u2026
p125
aVRT @perlmutations: Drop whatever you are doing and find a way to watch @maddow tonight. Everything you need to know about Brett Kavanaugh a\u2026
p126
aVRT @votevets: \u201cIf @SenatorCollins and @lisamurkowski vote to confirm Brett Kavanaugh they will be voting to take away many of the rights an\u2026
p127
aVRT @SenatorDurbin: The fact that the Senate Judiciary Committee can\u2019t take a few days or weeks to completely review Judge Kavanaugh\u2019s recor\u2026
p128
aVRT @SenBooker: The President of the United States was implicated in open court of a federal crime by his longtime personal lawyer. It's inc\u2026
p129
aVRT @funder: Donald Trump, Jr should be indicted. Retweet if you agree. Then listen to part 2 of our investigation into him and his daddy, t\u2026
p130
aVRT @NBCNews: Sen. Durbin: "We waited for more than a year with a vacancy on the Supreme Court under the direction of your leader in the U.S\u2026
p131
aVRT @SenatorMenendez: If Brett Kavanaugh's Bush White House years were such a formative &amp; impactful experience, why won't Republicans releas\u2026
p132
aVRT @MoveOn: If the #Senate doesn't block @realdonaldtrump's #SCOTUS pick, the rights of future generations are at risk. Call now to #SaveSC\u2026
p133
aVRT @AriBerman: Only 3% of Kavanaugh's records have been made public. This is a cover-up not a confirmation hearing
p134
aVRT @SenKamalaHarris: Chairman Grassley is pushing forward with Brett Kavanaugh's hearing, despite last night's 11th hour document dump of 4\u2026
p135
aVRT @thehill: #BREAKING: Dems interrupt Kavanaugh hearing, ask that it be adjourned https://t.co/oehAu56e0y https://t.co/iMeEXikfeg
p136
aVRT @MoveOn: Demand the #Senate block @realdonaldtrump's extreme #SCOTUS pick &amp; #SaveSCOTUS! Call now: 844-766-2707 h/t @peoplefor https://t\u2026
p137
aVRT @MoveOn: #StopKavanaugh &amp; the @GOP's #WarOnWomen. \u000aWe won't go back. https://t.co/ca957NJBrw
p138
aVRT @SethAbramson: (PLEASE RETWEET) A QUESTION FOR TEXAS, as Ted Cruz prepares to hold a big love-in with Donald Trump\u2014who called his dad a\u2026
p139
aVRT @jennycohn1: Pls help get the post below to 10,000 RTs. We deserve to know where voting machine vendor @essvote put the remote access so\u2026
p140
aV@realDonaldTrump Source?
p141
aV@realDonaldTrump @CNN @NBCNews Source?
p142
aV@realDonaldTrump Source?
p143
aV@TexasGOP Source?
p144
aV@TinoAsprilla300 @barrett506 @AshaRangappa_ @B52Hz Source?
p145
aV@realDonaldTrump Source?
p146
aVRT @joncoopertweets: Retweet if you support Beto. His powerful words of support for #TakeAKnee by football players is that of legend. An Ob\u2026
p147
aVRT @IndivisibleTeam: It is STUNNING that there are \U0001d42d\U0001d430\U0001d428 \U0001d41d\U0001d428\U0001d433\U0001d41e\U0001d427 Democratic senators who are still undecided on Brett Kavanaugh's confirmation.\u2026
p148
aVRT @funder: .@realDonaldTrump-Everyone who retweets this wants you to resign immediately. #TrumpResign
p149
aVRT @RepCummings: RT if you think Washington Republicans are aiding and abetting the Trump Administration\u2019s #CultureOfCorruption by refusing\u2026
p150
aVRT @funder: Welcome to the #TrumpResign weekend. Let\u2019s make it trend. \U0001f1fa\U0001f1f8 #TheResistance
p151
aVRT @funder: Everyone together now: Retweet this if you think @realDonaldTrump should resign today. #TrumpResign
p152
aVRT @TheTweetOfGod: Retweet this and I\u2019ll clog one of his arteries.
p153
aVRT @SethAbramson: PLEASE RETWEET: I'll keep saying this until the media acknowledges it: in January, NBC reported that Trump was telling fr\u2026
p154
aVRT @Greg_Palast: REMINDER: The man who pulled a gun on our photographer @zdroberts as he was taking the photos that helped convict the Nazi\u2026
p155
aVTraitors to our Republic! https://t.co/7FqSHezD6T
p156
aVRT @TeamPelosi: Michael Cohen. Michael Flynn. Paul Manafort. Chris Collins. Duncan Hunter. Vern Buchanan. Scott Pruitt and the Trump Admini\u2026
p157
aV@LindseyGrahamSC You have no honor! Resign, you #traitor!
p158
aVRT @funder: Brett Kavanaugh should be withdrawn as a nominee. Retweet if you agree. Help fund our investigation into him below. We\u2019ve uncov\u2026
p159
aVRT @joncoopertweets: Brett Kavanaugh should be withdrawn as a nominee. Retweet if you agree. Help fund our investigation into him below. We\u2026
p160
aVRT @funder: Trump should be impeached. Retweet if you agree. We are launching a new campaign to #ImpeachTrump. It\u2019s time for Members of Con\u2026
p161
aVRT @joncoopertweets: Trump should be impeached. Retweet if you agree. We are launching a new campaign to #ImpeachTrump. It\u2019s time for Membe\u2026
p162
aVRT @TheDemCoalition: Brett Kavanaugh should be withdrawn as a nominee. Retweet if you agree. Help fund our investigation into him below. We\u2026
p163
aV@DineshDSouza @ChelseaClinton Abortion and sterilization are not parallels. This is a false equivalency. Your logic\u2026 https://t.co/lkp2SIEI6X
p164
aV@EricTrump I truly hate people named trump.
p165
aV@adage @Chase My advice: find a better company to work for! Chase doesn't care about its employees, only its stockholders!
p166
aV@Chase Just know that when you quit working for Chase, they'll hold your final paycheck for like a month, per "comp\u2026 https://t.co/9yD8vxbfl3
p167
aV@Chase is engaged in some shady, potentially illegal, payroll practices involving final paychecks for former employ\u2026 https://t.co/Re4sTmCUl1
p168
aVRT @Alyssa_Milano: Can you do me a favor? Can you retweet this if you\u2019re sick of Republicans attacking Nancy Pelosi? They only attack her,\u2026
p169
aV@mikeparanzino @PearlJam Thoughts and prayers, you snowflake!
p170
aV@BKDaKing2 @PearlJam Thoughts and prayers, snowflake!
p171
aV@nu1ncaa @PearlJam Thoughts and prayers, you snowflake!
p172
aVRT @funder: Here\u2019s video I dug up of Trump Advisor Stephen Miller making racist comments about immigrants hiding in shadows. Would be a sha\u2026
p173
aVRT @krassenstein: Please RETWEET the hell out of this link and donate if you can!!\u000a\u000aPeter Strzok is a hero who has helped dismantle Russian\u2026
p174
aVRT @joncoopertweets: Mark Hamill suggests replacing Donald Trump's star on the Hollywood Walk of Fame with Carrie Fisher's. Retweet if you\u2026
p175
aVRT @funder: The #VoteOConnor trend session starts NOW! The election is tomorrow. Let\u2019s get the hashtag into the top 5 tonight\u2019s Share! Retw\u2026
p176
aV@counterchekist @lauferlaw Source?
p177
aV@aaronjmate @billmaher @MalcolmNance Source?
p178
aVRT @TomthunkitsMind: Rep. Stephen Lynch Destroys Republicans for holding 100 hearing into Hillary Clinton's email server AND Only 2 on Russ\u2026
p179
aVRT @funder: And absolutely under no circumstances should you retweet this photo I found of @DonaldJTrumpJr serving as the keynote speaker a\u2026
p180
aVRT @funder: Don\u2019t retweet this, or it could make @DonaldJTrumpJr even angrier than he already is. I found this video of Donald Trump Jr say\u2026
p181
aVRT @ChrisCoons: I\u2019ve been hearing @realDonaldTrump and @RudyGiuliani claiming that \u2018collusion is not a crime.\u2019 Well, I took the liberty of\u2026
p182
aVRT @NathanLerner: BREAKING: Danny O'Connor has surged in the polls and is now down by only 1% with just 6 days until the election!\u000a\u000aKeep in\u2026
p183
aVRT @SenFeinstein: The Presidential Records Act makes clear that White House records, including Brett Kavanaugh's, belong to the American pe\u2026
p184
aVRT @funder: Retweet if you agree #TrumpConspired against the United States.
p185
aVRT @EdKrassen: Murder is an IMPEACHABLE offense!!\u000a\u000aLet's get the hashtag #TrumpKilledAKid Trending!!\u000a\u000ahttps://t.co/8hULFQZMrw
p186
aVRT @funder: How quickly can we get this to 5,000 retweets? Let\u2019s see! #TrumpConspired
p187
aVRT @MarijuanaPolicy: Retweet if you think marijuana prohibition should have ended a long time ago.
p188
aVRT @funder: Colluding with Russia in the way Trump has talked about for two years, absolutely is a crime. The legal charge would be conspir\u2026
p189
aVRT @SethAbramson: (PLEASE RT) BREAKING: Actually, it IS.\u000a\u000aElection Fraud\u000aWire Fraud\u000aBribery\u000aBank Fraud\u000aComputer Crimes/Theft\u000aComputer Crime\u2026
p190
aVRT @TheDemCoalition: Jim Jordan needs to resign immediately. Retweet if you agree. Then help @TheDemCoalition put up this billboard in his\u2026
p191
aVRT @funder: .@realDonaldTrump is the least popular president of all time. Retweet if you agree. Then wait for Cry Baby Donald to have anoth\u2026
p192
aVTraitors! You should all go to prison! https://t.co/p8WRj2NHag
p193
aVRT @joncoopertweets: Don't RT these photos @funder found that prove Donald Trump Jr. met w/ a banker that was behind a massive Russian mone\u2026
p194
aVRT @funder: Whatever you do don\u2019t retweet this video I found of Donald Trump Jr saying he\u2019s \u201cbeen to Russia many times\u201d &amp; saying he \u201cspent\u2026
p195
aV@Pontifex Unless they support trump!
p196
aVRT @davidhogg111: Attention College Students! \u000a\u000aIf you know you won\u2019t be home on Election Day (November 6th) you can sign up for an absente\u2026
p197
aV#Treason! https://t.co/MNGQq1isx3
p198
aVIs this her Employee of the Year photo? https://t.co/USY5gMndYO
p199
aV@lifehaspurpose Since you brought up your misunderstanding of science, here's an article from an actual scientist. https://t.co/QlcOfW6sWD
p200
aV@BryanKemper Why not focus on giving post-born humans a better life free of poverty and hunger?
p201
aVRT @krassenstein: BREAKING: Youtube has just Banned @RealAlexJones from livestreaming and removed InfoWars videos from their platform.\u000a\u000aI c\u2026
p202
aVRT @krassenstein: These are the Traitors Who just voted to Impeach Rosenstein.  \u000a\u000aRETWEET and Blow their phones up!\u000a\u000a@RepMarkMeadows\u000a- 202-\u2026
p203
aVRT @EdKrassen: BOOM!\u000aAlex Jones was been banned from Live Streaming on Youtube and Youtube has removed many of his videos due to his hate s\u2026
p204
aVRT @TravisAllen02: BREAKING: Trump says he will delay his meeting with Vladimir Putin at the White House until after the \u201cRussian witch hun\u2026
p205
aVRT @MSNBC: .@NBCNews poll: Does President Trump deserve re-election? \u000a\u000aMore: https://t.co/D6X4Xl4hZf https://t.co/1KPg6jgzUj
p206
aVIt's a little late for Jim Jordan to be cock-blocking now! https://t.co/r1roHLnM11
p207
aVJim Jordan finally learned what cock-blocking means. Unfortunately, it's way too late for all of those college wres\u2026 https://t.co/6HwMu9uw1H
p208
aVYou're a #traitor to the U.S.A., @RepMarkMeadows!  @Realdonaldtrump is a lapdog to Putin and guilty of many crimes!\u2026 https://t.co/Ds9msDXMJE
p209
aVThe GOP are #traitors! https://t.co/TbMU2Qkwqo
p210
aVRT @TheDemCoalition: The #TrumpTapes make it clear Trump must resign, effective immediately. Retweet if you agree. Then listen to the tape\u2026
p211
aVRT @foxandfriends: The White House is seeking to revoke security clearances of several Obama-era intel officials. Do you think they should\u2026
p212
aV@realDonaldTrump \U0001f602\U0001f923\U0001f602 Should read: not very concerned...based on the falsehood...for the Republicans...definitely do\u2026 https://t.co/gqvbF8C0Bl
p213
aVhttps://t.co/JrjxwxZE4k\u000a#BlueWaveComing2018 #TheResistance https://t.co/w37qSbXdQp
p214
aVRetweetfest! \u000ahttps://t.co/JrjxwxZE4k\u000a#BlueWaveComing2018 #TheResistance https://t.co/MmzcKJBiQ9
p215
aVRT @funder: There should be a protest outside of the White House, every single night until Trump leaves office. Retweet if you agree. Then\u2026
p216
aVCheck out what Bill Browder has to say about Putin and him comrades. https://t.co/t9W9Pul0JS https://t.co/YFVnblaGOF
p217
aVRT @joncoopertweets: .@realDonaldTrump is a traitor and a criminal, yet Paul Ryan and Trump's other GOP Congressional protectors will do ab\u2026
p218
aV@realDonaldTrump @KatrinaPierson \U0001f602\U0001f602\U0001f602@realdonaldtrump diplomacy! \U0001f923\U0001f923\U0001f923 What do toy know about diplomacy?! \U0001f602\U0001f602\U0001f602 I bet yo\u2026 https://t.co/ydwFL1D0zI
p219
aVRT @funder: Michael Cohen\u2019s audio tape of Donald Trump arranging a coverup payment for his affair with Karen McDougal, should end his presi\u2026
p220
aV@DLoesch The left has no tolerance for traitors to the U.S.  You are going down!
p221
aV@GovMikeHuckabee @KatrinaPierson You really are as stupid as you look . #traitor
p222
aVRT @DemWrite: Hey @realDonaldTrump:\u000a\u000aI vow to travel to Washington to protest in person if Vladimir Putin sets one foot in my homeland. Tha\u2026
p223
aV@ABC Thanks, but that's a completely useless statement.
p224
aVRT @NormEisen: Friends, if this happens, lets plan the mother of all marches in DC--to peacefully demonstrate against Trump doing to the US\u2026
p225
aVRT @krassenstein: Michelle Obama, Tom Hanks and Many Others Team up to Get Americans to Vote.\u000a\u000aPlease share this video FAR and WIDE!!\u000a\u000aVOTE\u2026
p226
aVRT @funder: Sounds like there\u2019s a gigantic protest forming for tonight at 7pm outside of the White House. People are not happy Trump the Tr\u2026
p227
aVThey're complicit to trump's #treason! https://t.co/8zSQvcPpCL
p228
aVRT @TeaPainUSA: POLL: Has Trump committed treason against the United States of America?
p229
aV@SheriffClarke @realDonaldTrump You're not a real cowboy! \U0001f602\U0001f602\U0001f602 #dork
p230
aVRepublicans are complicit with #treason! #TrumpKnew #ImpeachTrump https://t.co/qwxLXWY7RI
p231
aVRT @funder: It\u2019s #TrumpResign o\u2019clock. It needs to trend immediately. Let\u2019s do it. \U0001f1fa\U0001f1f8
p232
aVRT @SethAbramson: RETWEET if you want Congress to subpoena Marina Gross (far left), the interpreter for the Trump-Putin meeting in Helsinki\u2026
p233
aVThe jig is up, donny, time for you to go! #TrumpResign #traitor #TreasonousTrump https://t.co/IFUSk6l0WI
p234
aV@CBSNews \U0001f923\U0001f923\U0001f923yeah, right! \U0001f923\U0001f923\U0001f923 @realDonaldTrump is #PutinsPuppet ! #TreasonousTrump
p235
aV@SenDuckworth No appointments by an illegitimate president under criminal investigation! Don't even entertain the i\u2026 https://t.co/y94ebHPwnh
p236
aV@BruceRauner your days as governor are coming to an end! https://t.co/YplGf1KMkd
p237
aVRT @MillenPolitics: Your vote matters. \u000a\u000aIf it didn\u2019t, you wouldn\u2019t have Republicans trying to suppress it. \u000a\u000aIf it didn\u2019t, you wouldn\u2019t ha\u2026
p238
aVRT @krassenstein: Texas House State Republican  Jason Villalba just called for Trump to be IMPEACHED!\u000a\u000aPlease RETWEET your praise to this f\u2026
p239
aV@Independent \U0001f602\U0001f602\U0001f602\U0001f602\U0001f602\U0001f602\U0001f602\U0001f602\U0001f602, sure he does! \U0001f602\U0001f602\U0001f602\U0001f602\U0001f602\U0001f602\U0001f602\U0001f602\U0001f602
p240
aV@Comey You will not be treated kindly by history, FYI.
p241
aVRT @NancyPelosi: A vote to confirm Brett Kavanaugh is a vote to deny millions of American women the pre-existing condition protections they\u2026
p242
aVRT @HillaryClinton: Well, now we know. https://t.co/olQlhzQiuO
p243
aVRT @funder: Donald Trump is a traitor and he should be removed from office immediately. Retweet if you agree. Listen to a new #DworkinRepor\u2026
p244
aVRT @Comey: This was the day an American president stood on foreign soil next to a murderous lying thug and refused to back his own country.\u2026
p245
aVRT @peterdaou: I DON'T WANT TO SEE A SINGLE TWEET FROM DEMOCRATIC LAWMAKERS. \u000a\u000aI WANT TO SEE THEM WALK OUT TOGETHER AND CALL FOR A LAWFUL,\u2026
p246
aVRT @SenJohnMcCain: Today\u2019s press conference in #Helsinki was one of the most disgraceful performances by an American president in memory.\u2026
p247
aVRT @joncoopertweets: .@realDonaldTrump should be arrested for treason the moment he sets foot on American soil.\u000a#TreasonSummit
p248
aVRT @funder: .@SpeakerRyan-And you sat on your hands and did nothing. I don\u2019t know who\u2019s more of a traitor. Trump, or you. Because one of th\u2026
p249
aVRT @brianly123: #TreasonSummit\u000a#TreasonSummit\u000a#TreasonSummit \u000a#TreasonSummit \u000a#TreasonSummit \u000a#TreasonSummit \u000a#TreasonSummit \u000a#TreasonSummi\u2026
p250
aV#TreasonSummit #ImpeachTrump #TreasonSummit #ImpeachTrump #TreasonSummit #ImpeachTrump #TreasonSummit #ImpeachTrump\u2026 https://t.co/kvlP85aRi5
p251
aV@ggreenwald @mozumder @DavidCornDC @RandPaul Yes.
p252
aV@ggreenwald @DavidCornDC @RandPaul Yes.
p253
aV@realDonaldTrump You're a dumbass and a #traitor! #ImpeachTrump
p254
aV@realDonaldTrump Too bad you needed Russian help to get there, you #traitor! #TreasonousTrump
p255
aVI think @jim_jordan should be forced to resign over the Ohio State wrestling sex abuse scandal, but he's likely goi\u2026 https://t.co/MiTBS9l8zi
p256
aVRT @JCTheResistance: Blast from the past... \u000a\u000a@HouseGOP members communicating with Gucifer in August 2016...\u000a#TrumpRussia\u000a#RussiaInvestigat\u2026
p257
aVRT @ABC: Aerial view shows mass of protesters gathered in London demonstrating against Pres. Trump's UK visit, which has included a joint p\u2026
p258
aVRT @DrDenaGrayson: What say you, @SpeakerRyan and @SenateMajLdr McConnell\u2049\ufe0f\u000a\u000aSurely, you have some sort of comment about Mueller\u2019s latest #\u2026
p259
aV@kurteichenwald @DevinNunes Because they're #traitors!
p260
aVIf he doesn't, articles of impeachment should immediately follow! #Treason https://t.co/9KWwmcOTu7
p261
aVRT @funder: Trump should be indicted for thousands of counts of child abuse. Retweet if you agree. Hear more about some of the terrible abu\u2026
p262
aVRT @funder: None of this madness would be occurring if Putin didn't interfere in our campaigns &amp; elections, and if Trump didn't accept Puti\u2026
p263
aVRT @funder: Trump should be removed from office for his mistreatment of refugees. Retweet if you agree. Then listen below to the most distu\u2026
p264
aVRT @funder: I promise you, I will work like we're behind, even if polling shows we're 50 pts up. I will travel the country &amp; get the vote o\u2026
p265
aVRT @RickSmithShow: Scott Dworkin: Trump is not all there, and what IS there is sinister &amp; evil. Everything he does is intentional. \u000a@funder\u2026
p266
aVRT @timpfc1: #DworkinReport 100% correct https://t.co/aCHprXjx0Z
p267
aVRT @funder: TRUMP IS TORTURING REFUGEES.\u000a\u000aREPEAT.\u000a\u000aTRUMP IS TORTURING REFUGEES.\u000a\u000aHis ICE camp employees are starving them, depriving them o\u2026
p268
aVRT @funder: BREAKING: Multiple House Ethics complaints filed on GOP Rep Devin Nunes. One of them relates to his winery\u2019s underage sex party\u2026
p269
aVRT @funder: BREAKING: ICE camp employees are torturing women and children, not providing them with medical attention, starving them, not gi\u2026
p270
aVRT @funder: BREAKING: Texas pre-med student Ashtyn Tayler just revealed Trump\u2019s ICE agents are threatening refugees who need medical help.\u2026
p271
aV#Hero\u000a\u000ahttps://t.co/3bez1EmBzk\u000a\u000a#DworkinReport
p272
aVhttps://t.co/nGeiRAIvx7\u000a\u000a#DworkinReport
p273
aV@jamesmack2988 @politico You're special.
p274
aV@CongBoyle @realDonaldTrump better add Russia to the travel ban until we can figure out what's going on over there\u2026 https://t.co/wjw49MT5cf
p275
aVThere's a lot of old white folks that need prescriptions to medical marijuana, so they can chill the f out! https://t.co/McfGNZ88pu
p276
aVRT @SethAbramson: Peter Strzok, who's spent a life in public service, may be imperfect\u2014as we all are\u2014but next to Trump and his stooges in C\u2026
p277
aV@WalshFreedom If? #Treason #TraitorTrump #ImpeachTrump
p278
aVRT @funder: Peter Strzok is an American patriot. Retweet if you agree. Then subscribe to the #DworkinReport below. Tweet out the link with\u2026
p279
aV@thehill Trump has feelings? I call bullshit! #Narcissist #sociopath
p280
aVRT @funder: Welp, #DworkinReport is trending. That\u2019ll make both Donald Trump and Devin Nunes furious. It\u2019s a two for one special. God forbi\u2026
p281
aV@AP I still won't eat that shit he calls pizza!
p282
aVRT @joncoopertweets: Eight former Ohio State wrestlers \u2014 EIGHT!! \u2014 have now come forward to say that GOP Congressman @Jim_Jordan knew that\u2026
p283
aV@tomcolicchio All the very low IQ @realDonaldTrump knows is the art of the shakedown.
p284
aV@thinkprogress Bye, Felicia!
p285
aV@LenKasper Bonds is a cheater! He can be inducted posthumously, like Santo, who was not a cheater.
p286
aV@PalmerReport I think you have to move McConnell up to at least the "likely" group. Regardless, his career will be\u2026 https://t.co/K9Y82oqmde
p287
aV@AP What are they getting in return?
p288
aV@guardian And this made a $10 CD worthless with the stroke of the pen.
p289
aVRT @sahluwal: Officer James Hunt with the Chicago PD harassed two black men for crossing the street. Hunt called one them a \u201cretard\u201d &amp; adde\u2026
p290
aVRT @krassenstein: BREAKING: This is urgent. Tomorrow the Senate is expected to vote to confirm Benczkowski as Asst AG. He would be in the l\u2026
p291
aV@Scavino45 @realDonaldTrump All lies. This is propaganda for the would-be dictator, low IQ, small hands @realDonaldTrump! #ImpeachTrump
p292
aV@realDonaldTrump They're trying to purge all of the Russian bots that regurgitate your lies and propaganda. You're a #traitor! #ImpeachTrump
p293
aV@realDonaldTrump You're a liar and a #traitor, @realDonaldTrump! #ImpeachTrump
p294
aV@realDonaldTrump You're a #traitor, @realDonaldTrump! #ImpeachTrump
p295
aVRT @SethAbramson: (THREAD) THE TRUMP-KENNEDY PACT. No one is telling the full story of the Trump-Kennedy pact yet, so I'm going to do so no\u2026
p296
aV@SenWhitehouse @realDonaldTrump Vote no!
p297
aV@DougJones Vote no!
p298
aVRT @funder: .@MichaelRamos-Everyone who retweets this wants to know what it takes for you to fire this dude. He called a Congresswoman a c*\u2026
p299
aVRT @funder: Whatever you do don\u2019t tweet this link out. It\u2019ll make Trump furious.\u000a\u000aAlso you can subscribe to The #DworkinReport podcast belo\u2026
p300
aVRT @funder: There should be #NoSCOTUSvote until after the November election.\u000a\u000aRetweet if you agree. Needs to be trending when he announces\u2026
p301
aV@krassenstein I've got 5 on that!
p302
aVRT @funder: Watch Mitch McConnell run away from protesters who are chanting \u201cVote you out!\u201d at him in Louisville. https://t.co/a8RAlro26l
p303
aV@KimStrassel At least they weren't run over by a nazi in a car. Amiright?
p304
aV@KimStrassel Skank.
p305
aVRT @dabeard: .@Patagonia giving employees the day off to vote in November; urges other companies to follow https://t.co/awGaJCRbCG
p306
aVRT @GrassrootsSpeak: On INDEPENDENCE Day 7 GOP are IN Russia telling the Country who interfered w/ our elections "We don\u2019t necessarily need\u2026
p307
aVRT @DrDenaGrayson: \U0001f6d1RED ALERT\U0001f6d1\u000a\u000aTrump is trying to install Brian Benczkowski \u2013 who represented #Russia's\U0001f1f7\U0001f1faAlfa Bank, whose server was commu\u2026
p308
aVRT @perry_nelson: @northropgrumman \u000a\u000aI am a shareholder.\u000a\u000aThis is NOT o.k.\u000a\u000aWhat is wrong with you?\u000a\u000ahttps://t.co/z3mqphl1rc
p309
aVRT @JaclynCorin: Rick Scott CUT mental health funding in Florida after the Stoneman Douglas mass shooting. https://t.co/JYP1R256ky
p310
aVRT @funder: Retweet if you agree. Trump must #CancelPutinSummit. We need to know exactly what happened in 2016 before meeting with the adve\u2026
p311
aVRT @SenatorDurbin: Remember Brian Benczkowski? He represented Russia\u2019s Alfa Bank and was a top staffer to then-Senator Sessions. Senate Rep\u2026
p312
aVRT @SethAbramson: (THREAD) Tracking the in-campaign movements/ties of both Putin and Trump aides\u2014including Trump's closest advisor, Tom Bar\u2026
p313
aVRT @krassenstein: BREAKING: GOP Rep. Jim Jordan has called the police on former Ohio State wrestlers who claim he turned a blind eye on sex\u2026
p314
aVRT @krassenstein: Why the hell are 6 Republicans spending their 4th of July in Moscow, Russia????\u000a\u000aHere's the List.  ASK THEM!\u000a\u000a@SenRonJohn\u2026
p315
aVRT @joncoopertweets: \U0001f525\U0001f525\U0001f525BREAKING: Powerful GOP Rep. Jim Jordan is being accused by former college wrestlers he coached of failing to stop t\u2026
p316
aVRT @funder: BREAKING: The Democratic Coalition is filing a House Ethics complaint today on GOP Rep Jim Jordan, for ignoring sexual assault\u2026
p317
aVRT @funder: ALERT: EVERYONE should immediately demand GOP Rep Jim Jordan\u2019s resignation for knowing his wrestlers at Ohio State were being s\u2026
p318
aVRT @krassenstein: BREAKING: @DLoesch just blatantly lied about the NRA not being 'under investigation' &amp; then got so upset at me for pointi\u2026
p319
aVLOL, right, like you actually have thoughts or prayers! #WorstPresidentEver #Impeach #TraitorTrump https://t.co/dMOPV6qVhZ
p320
aV@realDonaldTrump You scared, donny? You should be! #WorstPresidentEver
p321
aVRT @TwitterSports: \u26be\U0001f440\U0001f447\u000ahttps://t.co/l71wJ26c4k
p322
aVRT @repmarkpocan: Now that we have @realDonaldTrump\u2019s attention, let\u2019s say it loud and clear: we must #AbolishICE\u000a\u000aRT if you agree! https:/\u2026
p323
aVRT @AynRandPaulRyan: Fun fact #1: \u2611\ufe0f 4 million kids turn 18 before the 2018 election.\u000a\u000aFun fact #2: \u2611\ufe0f In many states, 17yo's can register\u2026
p324
aVRT @TheDemCoalition: Retweet this if you're a proud member of #TheResistance. \U0001f1fa\U0001f1f8 https://t.co/l4BlD920Gh
p325
aVRT @RWPUSA: NO new Supreme Court nominations by Trump to replace Justice Kennedy. NONE. He is in blatant violation of the Constitution and\u2026
p326
aVRT @tedlieu: My statement on the retirement of Justice Kennedy.\u000a\u000a\u201cThe American people should have a voice in the selection of their next Su\u2026
p327
aVRT @joncoopertweets: BREAKING: Alyssa Milano just demanded Trump\u2019s resignation for separating refugee families at the border. Retweet if yo\u2026
p328
aVRT @benwikler: Update: Delaware came through. Protests are now planned in all 50 states. 523 of them. Hundreds of thousands of participants\u2026
p329
aVRT @MichaelAvenatti: I rarely ask for help but I\u2019m asking now. We need to pressure the govt to reunite families NOW by using a single stagi\u2026
p330
aVRT @thehill: Poll: 42 percent of Americans support impeaching Trump https://t.co/ekLxTrXEU0 https://t.co/h8NEgCv8Df
p331
aVRT @morningmika: /@realDonaldTrump  and @IvankaTrump don\u2019t care about the children BUT they DO CARE about how many people retweet this. The\u2026
p332
aVRT @donwinslow: Please RT\u000a\u000aIMAGES (and the outcry from those images) made @realDonaldTrump stop the separation of families so\u000a\u000aI am offerin\u2026
p333
aVRT @JosheeIRL: Lori McAllen, an employee of the Oregon Department of Transportation and #MAGA cult member is under fire today, as racist co\u2026
p334
aVRT @RavMABAY: If your synagogue, mosque, or church stays silent this upcoming Sabbath about the atrocities committed in America this week,\u2026
p335
aVRT @EdKrassen: TO ALL BORDER AGENTS:\u000aThis is a public call asking all Border Agents to Refuse any and all orders to separate children from\u2026
p336
aVRT @DearAuntCrabby: Poll for US Citizens Only:\u000a\u000aFor a broad sampling, please vote and RT\u000a\u000aThis is a straight up or down confidence vote reg\u2026
p337
aVRT @TravisAllen02: Whatever you do, please DO NOT retweet or like this video.\u000a\u000aTrump hates it and screamed at CNN about it.\u000a\u000aWe would NOT w\u2026
p338
aVRT @chrislhayes: .@RAICESTEXAS SAYS THERE ARE PARENTS WHO HAVE BEEN WAITING ***FOUR MONTHS*** POST-DEPORTATION FOR THE US TO RETURN THEIR B\u2026
p339
aVRT @funder: BREAKING: Senator Tim Kaine\u2019s opponent Corey Stewart is now under investigation @TheDemCoalition. Help fund our research team b\u2026
p340
aV@WalshFreedom Who the fuck are you, and what have you done with that right wing prick Joe Walsh? Asking because I hope he stays gone.
p341
aVRT @funder: Time to #FirePruitt. RT if you agree.
p342
aVRT @SopanDeb: Uh, David Simon (Yes, from "The Wire") is banned from Twitter currently. It is very bizarre who is allowed to remain on this\u2026
p343
aVRT @funder: Here's Rudy Giuliani defending the Sanctuary City policies in NYC. I don't think @realDonaldTrump will like this very much. Don\u2026
p344
aVWhat's so vile about calling that #twat @IvankaTrump a #cunt? Have you heard the shit that comes out of\u2026 https://t.co/E4XHM9wlld
p345
aVRT @funder: Do me a quick favor. Retweet this if you think Trump should no longer be president. #TrumpColluded
p346
aVYou're a witch! #TraitorTrump https://t.co/XmPg0eBCw2
p347
aVThe biggest political scandal in history is how you're a #traitor. https://t.co/mf8DMX0P7Q
p348
aV@realDonaldTrump You're a #TraitorTrump!
p349
aVRT @funder: .@realDonaldTrump-Since you went on your childish tirade this morning, we are going to trend #TrumpColluded. You do understand\u2026
p350
aV@realDonaldTrump You are liable.
p351
aV@realDonaldTrump You, sir, are a dipshit.
p352
aVRT @PeteBlackburn: Dustin Byfuglien is the NHL\u2019s greatest bouncer https://t.co/kdedKWIQvn
p353
aVRT @TravisAllen02: BREAKING: Mitch McConnell\u2019s brother in law has been nominated to lead an agency in the Trump administration.\u000a\u000aThis is af\u2026
p354
aV@realDonaldTrump He's a "special guy," as in, he's on the spectrum!
p355
aVRT @HamillHimself: This\u000a\u000ais\u000a\u000anot\u000a\u000aa\u000a\u000adrill\u000a\u000athe \u000a\u000aFCC\u000a\u000ajust\u000a\u000aannounced \u000a\u000a#NetNeutrality\u000a\u000aends \u000a\u000aon \u000a\u000aJune 11\u000a\u000aunless\u000a\u000awe \u000a\u000astop \u000a\u000ait\u000a\u000aretwe\u2026
p356
aVRT @TeaPainUSA: POLL: Here's a special poll for @realDonaldTrump to enjoy!  \u000a\u000aWill Michael Cohen flip on Trump?
p357
aV@vinnymag1 @FoxNews @seanhannity @POTUS Don't be jealous of my xbox! You can't have nice things because you side with Republicans.
p358
aV@vinnymag1 @FoxNews @seanhannity @POTUS You really should start paying attention in school. You might learn something!
p359
aV@vinnymag1 @FoxNews @seanhannity @POTUS What the fuck are you saying? English isn't your native language, I guess.
p360
aV@vinnymag1 @FoxNews @seanhannity @POTUS Good comeback!
p361
aV@vinnymag1 @FoxNews @seanhannity @POTUS Watch out, I've anger a prepubescent little boy!
p362
aV@vinnymag1 @FoxNews @seanhannity @POTUS Which truth is that?
p363
aV@vinnymag1 @FoxNews @seanhannity @POTUS Does your mommy know you're using Twitter? You should kind of young for thi\u2026 https://t.co/Ji0mZ8sDzs
p364
aV@vinnymag1 @FoxNews @seanhannity @POTUS That is such an idiotic statement! What, the actual fuck, do you do to get this stupid?  Eat paint?
p365
aV@vinnymag1 @FoxNews @seanhannity @POTUS Intelligence? You sound like you're on the spectrum!
p366
aV@vinnymag1 @FoxNews @seanhannity @POTUS Nothing you're saying is factually accurate. You've provided no evidence. Y\u2026 https://t.co/lLz7ORRPGM
p367
aV@vinnymag1 @FoxNews @seanhannity @POTUS Thank goodness for you! Amiright!?
p368
aV@vinnymag1 @FoxNews @seanhannity @POTUS Which news is that exactly?
p369
aV@vinnymag1 @FoxNews @seanhannity @POTUS You're incredibly dumb! Show me evidence. Anything at all that's true. I'll wait.
p370
aV@vinnymag1 @FoxNews @seanhannity @POTUS Uh.... you've been watching too much Fox "News," you simple fuck.
p371
aV@vinnymag1 @FoxNews @seanhannity @POTUS All President Obama did for eight years was clean up after the mess created\u2026 https://t.co/c4jij1w38f
p372
aV@vinnymag1 @FoxNews @seanhannity @POTUS Good one.
p373
aV@realDonaldTrump Your administration has a massive crime problem! #LockThemUp #IMPEACHTRUMP
p374
aV@realDonaldTrump @AndyPuzder Do you even know how to read?
p375
aV@FoxNews @realDonaldTrump Fascist.
p376
aV@Julie09722806 @FoxNews @realDonaldTrump Are you really as stupid as you look in your picture?
p377
aV@vinnymag1 @FoxNews @seanhannity @POTUS Trump is a fascist. Hannity is a fascist. If you support them and their age\u2026 https://t.co/4q0uwYyGhf
p378
aV@FoxNews @seanhannity @POTUS Fascist!
p379
aV@realDonaldTrump @NRA Fascist!
p380
aV@realDonaldTrump You're so fucked! #Loser.
p381
aVRT @funder: Retweet this if you miss @BarackObama!\u000a\u000aI talk about the first bill he ever signed into law, with Lilly Ledbetter herself, in t\u2026
p382
aVThis is demonstrably false. Trump has done nothing but lie, and those #deplorables in his base eat that shit up! Th\u2026 https://t.co/ava5JH4M7o
p383
aVRT @brandon_r_horan: Retweet this if you are so tired of Rand Paul, Jeff Flake, Bob Corker and Susan Collins trying to have it both ways: t\u2026
p384
aVRT @SenBooker: We should legalize marijuana AND help those who have suffered due to its prohibition. \u000a\u000aMy bill the Marijuana Justice Act le\u2026
p385
aVRT @SenSanders: Now is the time to remove the ridiculous federal prohibition on marijuana. I'm proud to co-sponsor the Marijuana Justice Ac\u2026
p386
aVRT @krassenstein: BREAKING: The National Teacher's Union just cut ties with Wells Fargo Bank over their ties to the NRA.\u000a\u000aRETWEET your supp\u2026
p387
aVRT @NathanLerner: Democrat Dr. Hiral Tipirneni has a chance to make history in Arizona's special Congressional election on Tuesday.\u000a\u000aWe nee\u2026
p388
aVRT @funder: Everyone should stop what they\u2019re doing and call @ChrisCoons right now to demand he vote no on Pompeo for Secretary of State. T\u2026
p389
aVRT @funder: McConnell slams door on Mueller protection bill: 'We'll not be having this on the floor of the Senate.' Until now, this traitor\u2026
p390
aVRT @krassenstein: Dick's has opted to destroy assault-style rifles inventory rather than return to manufacturers for refund.\u000a\u000aRETWEET if yo\u2026
p391
aVRT @funder: Retweetfest: Tweet out the link below and we will retweet and follow you!\u000a\u000a#FireHannity #TheResistance\u000ahttps://t.co/E20uF8Gn2z
p392
aVRT @RepAdamSchiff: When the dark chapter of the Trump presidency is written in the history books, the harshest criticism will be reserved f\u2026
p393
aVRT @EdKrassen: Mitch McConnell says he won\u2019t even allow a bill to be voted on, to protect Special Counsel Robert Mueller.  He is silencing\u2026
p394
aVRT @lilbutterball14: #FireHannity is trending number 2..RT and help get it to # 1!!!!\u000a\u000a#FireHannity #FireHannity #FireHannity #FireHannity\u2026
p395
aV@KellyannePolls is still trying to figure out knock-knock jokes too. https://t.co/hV1AMeEoOF
p396
aVI hope @seanhannity is wearing his adult diapers, because he's clearly shitting his pants right meow! #FireHannity https://t.co/Oiyha8JmrF
p397
aVRT @funder: Fox News must #FireHannity. If you want to help the hashtag trend, retweet this.
p398
aVRT @funder: Fox News should fire Sean Hannity. Retweet if you agree. Then help us restart our #FireHannity campaign below. We need $950 to\u2026
p399
aV"We" did not elect him. The electoral college elected him. Also, it was a minority of voters who voted for him, so\u2026 https://t.co/vXpeDnNjL8
p400
aVRT @funder: Retweetfest: Tweet this link out and we will retweet and follow you\u2014it\u2019s a quick update from me on the Mueller and Rosenstein s\u2026
p401
aV@realDonaldTrump You're so emotional, #Spanky! Do you have blood coming out of your wherever? #ImpeachTrump #MAGA
p402
aVRT @funder: Retweet this to the moon and back. It\u2019s the Mueller firing rapid response plan.\u000a\u000a#ProtectMueller #TheResistance https://t.co/gj\u2026
p403
aVRT @jennmhunter: Congress must take immediate action to #ProtectMueller. Retweet if you agree.\u000a\u000aCopy, paste &amp; post.
p404
aVRT @SethAbramson: PLEASE RT If you strenuously and unambiguously object to Trump firing Deputy Attorney General Rosenstein or Special Couns\u2026
p405
aVRT @repmarkpocan: .@SpeakerRyan\u2019s attacks on Medicare, Medicaid &amp; Social Security are (unfortunately) alive &amp; well in the radical \u201cbalanced\u2026
p406
aVRT @funder: Who are Laura Ingraham\u2019s remaining major sponsors you need to contact? \u000a\u000a@ameriprise\u000a@Arbys\u000a@carsdotcom\u000a@ChoiceHotels\u000a@DIRECTV\u2026
p407
aVRT @funder: Laura Ingraham being off air this week gave everyone a breather, which I think is good for all involved. After a lot of thinkin\u2026
p408
aV@JTM_YVA @realDonaldTrump You've got both of his nuts on your mouth, don't you?
p409
aV@peplamb We don't have kings or "rulers" in this country! Why don't you put that useless old book down and pick up\u2026 https://t.co/Mg6sXCLVpq
p410
aVRT @RobinH2222: Beware &amp; boycott all Sinclair local stations. Don't believe information you get from them. They are forced by their owner S\u2026
p411
aV@The_Trump_Train @realDonaldTrump Yes, go straight to the source for all the freshest, unfiltered #Propaganda.\u2026 https://t.co/R73NLNCgaK
p412
aV@JTM_YVA @realDonaldTrump You're a pussy. Maybe a late-tern abortion will put you out of your misery!
p413
aVThis message brought to you by #FakeNews. #FakeNews - when the real news isn't to your liking, get #FakeNews. https://t.co/RSu7qBn59N
p414
aVEvery word out of @realDonaldTrump's mouth is #FakeNews! https://t.co/gPx3PWTch4 https://t.co/aOsHhP5oR0
p415
aV@realDonaldTrump You're a fucktard.
p416
aV@parscale You're a fucktard.
p417
aV@EricTrump Your father is an inept criminal. #ImpeachTrump
p418
aVI wish you had been aborted. https://t.co/xbxU0dcedq
p419
aVRT @funder: Trump should be impeached for inviting Putin to the White House. Everyone who retweets this agrees. #ImpeachTrump
p420
aVRT @krassenstein: May 15th, 2018 is the #SinclairStrike.\u000a\u000a1) Sinclair Broadcasting Employees call out sick\u000a2) Sinclair viewers boycott the\u2026
p421
aVRT @krassenstein: We are calling for a strike against Sinclair Broadcasting on May 15th.\u000a\u000aThis calls on the employees of Sinclair-run stati\u2026
p422
aVRT @WilDonnelly: Here is a list of local ABC, CBS, FOX and NBC affiliates, owned by Sinclair Broadcast Group, who are using their local new\u2026
p423
aVYou keep using that word.  I don't think it means what you think it means. \u000a\u000adeplorable\u000a\u000aadjective\u000a\u000adeserving st\u2026 https://t.co/bYxYAwxiPd
p424
aV@therealshawboy @bec7179 @IngrahamAngle Do you always carry on with irrational thinkers? Is that like a 'takes one\u2026 https://t.co/cWY1ns2WjP
p425
aV@therealshawboy @bec7179 @IngrahamAngle You cupcake, you're too much of a coward to fight anyone face to face. Good\u2026 https://t.co/Wdw6kWWM1q
p426
aV@therealshawboy @bec7179 @IngrahamAngle You responded, didn't you? Clearly you give a crap about my crap! #Winning
p427
aV@bec7179 @IngrahamAngle It's "are," sweety. Do your mommy and daddy know that you're on Twitter? You seem to be kin\u2026 https://t.co/Pi9fuuiuVk
p428
aVRT @funder: Let's get loud as fuck, drown out these haters, bots and trolls-the few that exist. They are outnumbered. We are #TheResistance\u2026
p429
aVRT @davidhogg111: Pick a number 1-12 contact the company next to that # \u000a\u000aTop Laura Ingraham Advertisers\u000a1. @sleepnumber \u000a2. @ATT \u000a3. Nutri\u2026
p430
aVRT @TopRopeTravis: I am calling for a nationwide boycott of these companies until they end advertising during Laura Ingraham programming:\u2026
p431
aVYou're a known, dangerous criminal. We have a right to be protected by Federal law from you! #ImpeachTrump\u2026 https://t.co/8947M1euDw
p432
aV#ImpeachTrump https://t.co/RnFuo01Km1
p433
aV@TrumpHotels @EricTrump @TrumpChicago #TheResistance https://t.co/DPiSjhI9Rh
p434
aV@BritneyJean4eva @sisente @Runningbear42 @EricTrump @LaraLeaTrump @StJude  https://t.co/NDSMIMtUV7
p435
aVRT @funder: Donald Trump is the most corrupt president ever. Retweet if you agree.\u000a\u000aI did a special report on Trump\u2019s terrible, horrible, n\u2026
p436
aV@sisente @Runningbear42 @EricTrump @LaraLeaTrump @StJude I rest my case. Game, set, match. #winning
p437
aV@sisente @Runningbear42 @EricTrump @LaraLeaTrump @StJude Fucking amo-sexual, how old is this tweet? Oh yeah, your t\u2026 https://t.co/dyn8LQJwuN
p438
aVCan I sue @facebook and @CamAnalytica for damages? They brainwashed my parents! Now I have to listen to wingnut con\u2026 https://t.co/h4pq1TiMW4
p439
aV@realDonaldTrump is completely transparent! Cadet Bonespurs doesn't want to appear less-masculine than homosexuals.\u2026 https://t.co/OCyp7GzQd6
p440
aV@FoxNews "Time and again" as in there was that one time, and there was that other time. That's it.
p441
aV@OGBodyBags @Hawkeye_GG @pearlsandtwirl1 @kylegriffin1 I believe you meant to say "moot." You're also very dumb, apparently.
p442
aV@OGBodyBags @kylegriffin1 You're a huge pussy! Sad. So very insecure. Probably from years of rejection due to severe character flaws.
p443
aVRT @funder: Please share before 10am:\u000a\u000aThere are trolls trying to throw off the hashtags for tomorrow, by doing hashtags like March4OurLive\u2026
p444
aVRT @krassenstein: RETWEET if you are sick and tired of @realDonaldTrump repeatedly lying to the American people about DACA.\u000a\u000aTRUMP STOPPED\u2026
p445
aV@realDonaldTrump Any chance you might announce your resignation?
p446
aV"You're a smart girl" he says to her. I bet he tells that to all the bimbos! https://t.co/Myas7aMcw8
p447
aV@NHLBlackhawks @PapaJohns_Chi You couldn't pay me to eat that crap-ass pizza!
p448
aV#HellYeah #ImpeachTrump #ProtectMueller https://t.co/yKFtD2UFSg
p449
aVRT @joncoopertweets: Want to REALLY piss off @realDonaldTrump? \u000a\u000a\U0001f449Retweet after me \u2014 let\u2019s make this hashtag trend!!!\u000a\u000a#DoNOTCongratulate\u000a#\u2026
p450
aV@tribelaw The National Socialist Party has no real power in the U.S. (yet). The GOP, on the other hand, controls th\u2026 https://t.co/DZ0zT7BqPx
p451
aVHave you looked at yourself in a mirror? Are you a real cowboy, or do you just play one on TV? \U0001f602\U0001f920\U0001f602 https://t.co/pOXFnSIqE3
p452
aVOh, I see. You weren't a real cop; you just played one on TV! #ImpeachTrump https://t.co/YIxZiEsygd
p453
aVWhat the actual fuck are you even trying to say, Comrade? Putin is going to fire you from your troll-bot job, when\u2026 https://t.co/BtkTl39rTf
p454
aVHave you considered that they may be behaving as if they're anti-tRump because they realize he's a #traitor? Which\u2026 https://t.co/1RKeAdkdDx
p455
aVYou're scared because you're a witch, or because you conspired with the tRump Organization? https://t.co/Ex6J04norf
p456
aVRT @SenMarkey: The clock is ticking. We have just 47 legislative days left to find #OneMoreVote to save #NetNeutrality. \u000a\u000aBut don\u2019t agonize\u2026
p457
aVHey, Comrade Dave! I see you're still struggling with English grammar. My first tip to you would be to learn how to\u2026 https://t.co/9GY9tMSFtK
p458
aVPh.D in journalism?!? Hahahahahahahaha!!!! Read this nonsensical tweet! They didn't teach you grammar? https://t.co/y0ahjBRDvG
p459
aVYou have a poor grasp of the English language. Using all caps doesn't make this nonsense more intelligible. https://t.co/oMk6dlVInn
p460
aVRT @TrueFactsStated: Hey, Cheeto. Wussup? https://t.co/sbNgxlGWeR
p461
aVSome "army" he is, amiright!? https://t.co/MVHfNTq9QX
p462
aVAnd another cupcake! Poor, pathetic fools can't take anyone disagreeing with their narrow point of view! #WINNING https://t.co/b7aGTO1yF4
p463
aVAnother cupcake! #WINNING https://t.co/gOW9JibOUN
p464
aVHere's another cupcake that can't take the heat! #WINNING https://t.co/sLFK9gSVx5
p465
aVRT @chelseahandler: There is an election tomorrow in Illinois! Vote people like this out of office. @emilyslist https://t.co/KV06vz3WEh
p466
aVWhat is a bot? Beep bop boo beep...does not compute...error...error... https://t.co/RmoUVuBn52
p467
aVWhy not focus our attention on the children who survived the birthing process? https://t.co/gvyx9CgtvW
p468
aVIt's a good idea to fact- check yourself before you say something stupid, "fucktard." https://t.co/Zj4P0yyXR3 https://t.co/vI4odYmqTW
p469
aVWhat a cupcake! #WINNING https://t.co/iFO8n4er2N
p470
aVYou're really starting to sound desperate. Is there someone you can talk to? https://t.co/ewATDKTO3v
p471
aVThere you go begging for attention again. https://t.co/p3HGKdOCWp
p472
aVI thought you liked games, no? Now quit begging for attention! https://t.co/kyohVH2k5E
p473
aVYou've embarrassed yourself, begging strangers for answers on Twitter! https://t.co/wqtUWrJhkT
p474
aVWhat will you give for my answer? https://t.co/AYPwVPjrr1
p475
aVWill you do other things at my request? https://t.co/Cd21lgm3Pt
p476
aVWhat about who? https://t.co/45sJwPAlqg
p477
aVDid you? Can you repeat it for me? https://t.co/lLSszxDZaO
p478
aV@popup82 No, sir! I'm rather enjoying myself. Since you've clearly been trolling much longer than I, maybe you have some pointers?
p479
aVGood one. https://t.co/EkWOLuc2ta
p480
aV@popup82 How's the weather in Russia?
p481
aV@popup82 What about you?
p482
aV@hook982 @EricTrump @LaraLeaTrump @StJude What time is it? Time to #ImpeachNow
p483
aV@kdealaey @MerrilyCox1 @EricTrump @LaraLeaTrump @StJude Picturing that probably gives you such a boner!
p484
aV@majorwinters22 @EricTrump @LaraLeaTrump @StJude  https://t.co/tVZhhOdH2A
p485
aV@KristensMom911 @EricTrump @LaraLeaTrump @StJude  https://t.co/P6YFJF5AZH
p486
aV@Runningbear42 @EricTrump @LaraLeaTrump @StJude What about the kids killed by crazed lunatics with easy access to weapons of war?
p487
aV@rrman48 @TrumpArmy57 @EricTrump @LaraLeaTrump @StJude It's ok to admit you support the Democratic Party. Don't be scared!
p488
aV@rrman48 @TrumpArmy57 @EricTrump @LaraLeaTrump @StJude You do realize that Thomas Jefferson founded what is now the\u2026 https://t.co/heKUiX6UuY
p489
aV@majorwinters22 @EricTrump @LaraLeaTrump @StJude It's funny that y'all refer to liberals as "libtards," considering\u2026 https://t.co/Mt4y3LPap5
p490
aV@maw218 @TrumpArmy57 @EricTrump @LaraLeaTrump @StJude How did all of those kids in Chicago die? Mostly from guns. G\u2026 https://t.co/tV5M3bJ7FX
p491
aV@majorwinters22 @EricTrump @LaraLeaTrump @StJude Dummy? Hahahahahahahahahaha! That's cute! You're out of your element, sweetie.
p492
aV@Trillion3 @EricTrump @LaraLeaTrump @StJude What about them? What other people do with their unwanted genetic mater\u2026 https://t.co/lvciSn0dgi
p493
aV@TrumpArmy57 @EricTrump @LaraLeaTrump @StJude Oh Mikey, let me try to explain in words you'll understand. Eat a dick.
p494
aV@EricTrump @LaraLeaTrump @StJude What about children that die by guns?
p495
aVRT @chrisinsilico: Suspended by @facebook. For blowing the whistle. On something they have known privately for 2 years. https://t.co/iSu6Vw\u2026
p496
aV@chuckwoolery Donald Trump is? My dear man, perhaps it's time you extricate yourself from that bubble you've been l\u2026 https://t.co/1TT7FsQHKn
p497
aVRT @carolecadwalla: This is unconscionable. Facebook's response to the Cambridge Analytica data debacle? To ban the whistleblower. Please r\u2026
p498
aV@realDonaldTrump @KatrinaPierson Sounds like you're cracking, to me. The jig is up! You're going to prison! #Impeach45
p499
aV@Vicky4Trump @realDonaldTrump @GenFlynn Hahahahahahahahahahahahahahaha!!!! That will never happen, you craaaaaaaaaaazy beeeeeeeoooootch!
p500
aV@ChunkyTWshngtn @WalshFreedom That word "objectivity." I don't think it means what you think it means.
p501
aV@Texastrue11 @WalshFreedom You poor, deluded fool!
p502
aV@realDonaldTrump You're a horrible person, an even worse President, and everybody with at least half a brain realiz\u2026 https://t.co/vofS1ckfWS
p503
aVRT @krassenstein: 60 Minutes will officially Air Stormy Daniels Interview on March 25.  It will blow your mind I am told.\u000a\u000aMake sure you te\u2026
p504
aVRT @SethAbramson: Please RETWEET: It's time for two GOP senators of conscience to announce that\u2014until the present crisis is over\u2014they will\u2026
p505
aVAnd the GOP is aiding and abetting Trump's #treason, which makes them all #traitors. https://t.co/6WsWeVr5F7
p506
aV@christinawilkie I feel like it's Christmas time, and I'm waiting to open presents! #Impeach45
p507
aV@The_MMU That's how oligarchs like to roll!
p508
aV@realDonaldTrump You're an idiot, a liar, and a #traitor to your country. #Impeach45
p509
aVRT @funder: .@SpeakerRyan @SenateMajLdr-You two clowns need to start impeachment proceedings immediately. Everyone who retweets this agrees\u2026
p510
aV@JaclynCorin I hope he's better at math than he is at sociology!
p511
aVI hope every one of them faces a progressive challenger in the near future. https://t.co/RRC6DAl1T8
p512
aV@realDonaldTrump Looks like you backed another LOSER!!! #Winning
p513
aV@realDonaldTrump Did you see what the wall did for East Berlin?
p514
aVRT @brianschatz: All of this madness will start to wane if you vote straight ticket Democrat this year. This is not the year to ticket spli\u2026
p515
aVRT @StephenKing: Hey, kids\u2014the House and Senate aren\u2019t going to do anything about guns. Neither is the president, a morally vacant boob who\u2026
p516
aV@JimmyWe58329038 @FoxNews @DICKS I'm living the dream! I love hearing from my adoring fans, so thank you for reachi\u2026 https://t.co/dfhqfmmeLS
p517
aV@realDonaldTrump You're out of your element! #ImpeachTrump https://t.co/ySVwRRPILg
p518
aV@FoxNews @DICKS Wow, this is news worthy... Oh wait, it's Fox "news." Nothing to see here, folks.
p519
aV@mflynnJR Why are you so scared? You're not a coward, are you?
p520
aV@TheLastWord When they say 'unglued,' are they talking about his hair?
p521
aV@tombrokaw Bankruptcy is what @realDonaldTrump does best! Actually, it's about the only thing he does, besides golf\u2026 https://t.co/G3UWi0tb5r
p522
aV@IrisWatts20 @FoxNews @realDonaldTrump  https://t.co/1TO2w7jUVg
p523
aV@IrisWatts20 @FoxNews @realDonaldTrump Not in the U.S., they don't.  Any more brain busters? #Winning
p524
aVRT @paulkrugman: Taxpayers, You\u2019ve Been Scammed https://t.co/MRp7lCWxIC
p525
aV@FoxNews This is the stupidest idea I've heard since @realDonaldTrump's last tweet! #SeparationOfChurch&amp;State
p526
aV@realDonaldTrump Wrong again! Are you lying, or just uniformed? Sometimes it's hard to tell.
p527
aV@realDonaldTrump Start with #pharmabro martin shkreli! Then you should resign! #ImpeachTrumpNow https://t.co/gQQ86TjLBn
p528
aV@foxandfriends @DLoesch The Executive branch is responsible for enforcement of the law. Sounds like @DLoesch is bla\u2026 https://t.co/8GagF2IxAE
p529
aV@marcorubio Is this a confession? #UnfitForOffice
p530
aVRT @funder: BREAKING Video: Police just raided Trump\u2019s hotel in Panama https://t.co/Uf8Knh90Kw
p531
aV@foxandfriends tRump is guilty of #treason. #ImpeachTrump
p532
aVRT @funder: RT if you agree #TrumpColluded. https://t.co/uHMJHNKlW7
p533
aVRT @funder: Retweet if you\u2019ll never use @FedEx again if they stick with the NRA. #BoycottFedEx #BoycottNRA
p534
aVRT @Alyssa_Milano: There\u2019s 1 Democratic Senator that has an \u201cA\u201d rating from the @NRA. \u000a\u000aShe\u2019s the only Dem Senator who refused to support b\u2026
p535
aVRT @chelseahandler: #BoycottFedEx https://t.co/1XU5XM4Xht
p536
aVRT @davidhogg111: FedEx chairman is Fred Smith. Apparently he's a huge republican donor. #BoycottFedEx
p537
aVRT @tedlieu: ICYMI, can you retweet or forward to White House Senior Advisor Ivanka Trump? She can't handle questions from a Member of Cong\u2026
p538
aVRT @krassenstein: An NRA Political boycott is what we need\u000a\u000a@realDonaldTrump $30M\u000a@SenJohnMcCain $7.7M\u000a@RichardBurr_DN  $6.9M\u000a@RoyBlunt $4.\u2026
p539
aVRT @kurteichenwald: Well, @FedEx continues to say it will remain partners in death with the @nra. Most sane companies have ended it. Not Fe\u2026
p540
aVRT @joncoopertweets: .@JeffBezos, I\u2019m one of thousands of people who\u2019ll be cancelling my #AmazonPrime membership unless @amazon cuts its bl\u2026
p541
aVRT @krassenstein: This is Conor Lamb.\u000a\u000a@ConorLambPA is running in a special election for Pennsylvania's 18th District on March 13.\u000a\u000aHe's 33\u2026
p542
aVRT @funder: .@CNN-It\u2019s time for you to part ways with Jack Kingston immediately. He\u2019s making y\u2019all look like FoxNews spouting Trump &amp; Russi\u2026
p543
aVRT @funder: Retweet if you agree the NRA needs to be investigated.\u000a\u000aWe are doing that at The Democratic Coalition. Help support our probe b\u2026
p544
aVRT @funder: If #TrumpColluded trends today, @realDonaldTrump will lose his shit. So retweet this.
p545
aVRT @EdKrassen: BREAKING: Delta Airlines(@Delta) has just ended their contract with the @NRA that provided discounts to NRA members, and dem\u2026
p546
aVRT @krassenstein: The following companies have cut ties with the NRA over the last 24 hours. \u000a\u000a- Enterprise\u000a- Wyndham\u000a- Metlife\u000a- Hertz\u000a- B\u2026
p547
aVRT @Mrsbowmanocsa: I am a teacher. Arm me. Arm me with funding for a full time school Psychologist. Arm me with funding and mandatory schoo\u2026
p548
aVRT @ProudResister: The only thing that stops a bad guy with a gun is a good guy voting out the NRA-backed GOP on November 6th, 2018. #VoteT\u2026
p549
aVRT @AHamiltonSpirit: @SethAbramson Dear @Amazon,\u000a\u000aWe're not joking. This isn't Breitbart. People are dying. Pull your NRA contracts or we #\u2026
p550
aVRT @SethAbramson: (THREAD) This thread includes all you need to know\u2014including key context others aren't reporting\u2014about today's breaking n\u2026
p551
aVRT @krassenstein: BREAKING:  Hertz just cut ties with the NRA\u000a\u000a#BoycottNRA \u000a\u000aPlease RETWEET @Hertz to encourage the other NRA sponsors to d\u2026
p552
aVRT @krassenstein: BOOM!!\u000a\u000aTwo more NRA partners just pulled out... Norton and Lifelock.  \u000a\u000aBoth are owned by @symantec \u000a\u000a#BoycottNRA gets s\u2026
p553
aVRT @krassenstein: BOOM!!\u000a\u000aMetLife just ended their partnership with the NRA. \u000a\u000aRETWEET your thanks to @MetLife \u000a\u000a#BoycottNRA
p554
aVRT @davidhogg111: Let's make the goal for this next hour to get @TrueCar  to cut ties with @NRA #BoycottNRAElite
p555
aVRT @funder: .@Amazon-You need to stop streaming NRATV immediately. You\u2019re with us or you\u2019re against us. Everyone who retweets this agrees.\u2026
p556
aVRT @krassenstein: America is speaking up!  This time will be different. The following companies have cut ties with the NRA over the last 24\u2026
p557
aVRT @krassenstein: BREAKING: Enterprise, Alamo, and National car rental have all dropped their partnership programs with the NRA. \u000a\u000aRETWEET\u2026
p558
aVRT @funder: #AlyssaAlhadeff-she died in the Parkland shooting &amp; her mom asked for everyone to tweet out her name, so if y'all could, that'd\u2026
p559
aVRT @funder: Retweet if you pledge to never vote for anyone who takes money from the NRA. #NeverAgain #BanAssaultWeapons
p560
aVRT @krassenstein: BREAKING: First National Bank of Omaha just dumped the NRA and will no longer issue NRA Visa cards!\u000a\u000aShow your appreciati\u2026
p561
aVRT @RepAdamSchiff: Talk is cheap \u2013 there have been a universal background check bill and an assault weapon ban waiting for a vote in Congre\u2026
p562
aVRT @funder: #BanAssaultWeapons is on the verge of trending! Tell the world #NeverAgain! Tweet it out! #TheResistance
p563
aVRT @funder: What CNN didn\u2019t show you last night was Dana Loesch from the NRA being escorted out, while chants of \u201cshame on you\u201d were being\u2026
p564
aVRT @funder: .@realDonaldTrump-You\u2019re the worst president ever. Everyone who retweets this agrees. #PresidentsDay2018
p565
aVRT @tedlieu: Question: How come @realDonaldTrump hasn't implemented the bipartisan congressional sanctions law on Russia yet? Why hasn't @P\u2026
p566
aVRT @cameron_kasky: Everybody please tweet #MarchForOurLives. We\u2019re trending. Need people to want to look us up. \u000a\u000aAlso come to North Commun\u2026
p567
aVRT @funder: Trump &amp; the Republican Party all need to be investigated. Everyone who retweets this agrees. Help fund our podcast where we inv\u2026
p568
aVRT @bessbell: My little brother Will is the smartest and best person I know. He is an MIT-educated robot-maker. His nanotech research has b\u2026
p569
aVRT @NancyPelosi: Earlier today, the House passed the shameful #HR620, which undermines the Americans with Disabilities Act &amp; denies discrim\u2026
p570
aVRT @funder: .@realDonaldTrump-You are failing at keeping us safe. Everyone who retweets this agrees. Time for #GunReformNow.
p571
aVRT @keithellison: Here are the congressional candidates who got the most NRA money in the 2016 campaign, by state \u2013 Florida is no. 3 https:\u2026
p572
aVRT @funder: RT if you agree the NRA needs to be investigated. We are following the money. Help fund our research op below. Tweet the link o\u2026
p573
aVRT @HamillHimself: I need to reassess my life. I got Jabba the Hutt.        https://t.co/R7vMv5eaBk
p574
aVRT @SenSanders: The Trump budget is morally bankrupt and bad economic policy. It pays for his tax breaks for the rich and large corporation\u2026
p575
aVRT @funder: Retweet if you want @IronStache to win against @SpeakerRyan in November. Me and some of my bearded friends in #TheResistance wi\u2026
p576
aVRT @funder: Retweet if you agree Trump is the worst president in the history of this country. If you tweet this link out we\u2019ll RT you. #Tru\u2026
p577
aVRT @NancyPelosi: There really is a tweet for everything.\u000a \u000aNote: #TrumpBudget cuts health care funding, including Medicaid. https://t.co/g4\u2026
p578
aVRT @krassenstein: Just a reminder that Our President has been accused of\u000a\u000a- Raping his Wife\u000a\u000a- Walking in on Naked Teens at Miss Univ. Dres\u2026
p579
aVRT @brycetache: Dear @TwitterSupport: When are you going to allow an option for us to report Russia bots? When are you going to accept that\u2026
p580
aVRT @NancyPelosi: This move by @realDonaldTrump confirms what we have all known for weeks \u2014 that his decision to release the #NunesMemo was\u2026
p581
aVRT @tedlieu: THIS IS OUTRAGEOUS. Both GOP &amp; Dems voted to release Dem memo. I read it and am convinced @realDonaldTrump is now intentionall\u2026
p582
aVRT @funder: Democrats are introducing the "PARADE" Act, otherwise known as the Preventing the Allocation of Resources for Absurd Defense Ex\u2026
p583
aVRT @tedlieu: WOW, many explosive allegations in this article:\u000a\u000a-Russians have damaging information on @realDonaldTrump that they want to se\u2026
p584
aVRT @JamesMartinSJ: This is the opposite of Christianity. Not only targeting the stranger, but targeting the poor among them.  I'm not sure\u2026
p585
aVRT @Brasilmagic: "Here are Melania's Parents. Viktor and Amalija Knavs. They live in the United States Permanently now because of Chain Mig\u2026
p586
aVRT @benwikler: HEY EVERYONE STILL ON TWITTER: TWEET HOUSE DEMOCRATS AND URGE THEM TO STAY STRONG #NoDreamNoDeal!\u000a\u000aLiterally, they're millin\u2026
p587
aVRT @MalcolmNance: RT if you agree #InvestigateRussia https://t.co/Ykt96rXeRF
p588
aVRT @SenSanders: .@SpeakerRyan: A bi-partisan majority of House members support strong legislation to protect Dreamers. Let them vote. Let d\u2026
p589
aVRT @SaysHummingbird: RT if you are proud of Nancy Pelosi. \u000a\u000aShe brought down the house with record-crushing 8-hour Dreamers speech.\u000a\u000ahttps:\u2026
p590
aVRT @funder: Whatever you do this morning don\u2019t retweet this video I found of Trump saying he has \u201cthe best Russian partners\u201d before he sign\u2026
p591
aVRT @SenMarkey: One more vote. That\u2019s all we need to secure victory in the Senate and pass my CRA to restore #NetNeutrality.\u000a \u000aBut Republica\u2026
p592
aVRT @funder: .@SpeakerRyan-Everyone who retweets this agrees that you need to be removed as Speaker immediately. #GoNancyGo\u000a\u000a#RemoveRyan #Dr\u2026
p593
aVRT @jaketapper: Anyone know who this guy is? https://t.co/914zXVVavx
p594
aVRT @ProudResister: If you think that Robert Mueller should SUBPOENA THE PRESIDENT to testify before the grand jury then please tweet #Subpo\u2026
p595
aVRT @funder: .@SpeakerRyan-So you\u2019re just gonna let Russian sanctions go? Trump does nothing and you sit on your hands? Everyone who retweet\u2026
p596
aVRT @krassenstein: Trump finally has multiple legitimate "largest" accomplishments to brag about:\u000a\u000a- Largest single day DOW Jones drop ever.\u2026
p597
aVRT @funder: BREAKING: Stock market is getting pummeled again, down 1,000 points for the day\u2014RT if you agree @realDonaldTrump is to blame\u000a\u000a#\u2026
p598
aVRT @RepAdamSchiff: Mr. President, I see you\u2019ve had a busy morning of \u201cExecutive Time.\u201d Instead of tweeting false smears, the American peopl\u2026
p599
aVRT @funder: Whatever you do don\u2019t retweet this video I found of Donald Trump Jr saying he\u2019s \u201cbeen to Russia many times\u201d &amp; saying he \u201cspent\u2026
p600
aVRT @tedlieu: Scared yet? If so, support HR 669 / S 200 by Sen @EdMarkey and me. This bipartisan legislation prevents @POTUS from launching\u2026
p601
aVRT @funder: I think it\u2019s time we say enough. I think we need to start marching &amp; demand Trump leave office. At the same time we need to dem\u2026
p602
aVRT @funder: Retweetfest: Tweet this link out in the next two hours &amp; we will RT you. RT if you agree Congress must #Impeach Trump immediate\u2026
p603
aVRT @funder: Retweetfest: Tweet this link out in the next 4 hours &amp; we'll RT you!\u000a\u000aWe are gonna do the same thing we did in Alabama, Virgini\u2026
p604
aVRT @SethAbramson: PLEASE RETWEET if you agree that, after releasing a deliberately misleading memo over the objections of the DOJ/FBI, Devi\u2026
p605
aVRT @funder: Should Devin Nunes be removed as the Chair of the Intel Cmte? Retweet for yes, like for no.\u000a\u000a#RemoveNunes #DworkinReport https:\u2026
p606
aVRT @funder: Retweet if you agree Devin Nunes should be under investigation.\u000a\u000aWe\u2019re investigating him on my podcast. Help support it below!\u2026
p607
aVRT @ananavarro: Trump says re memo: \u201cWhat\u2019s happening in this country is a disgrace. A lot of people should be ashamed.\u201d Agree. Donald Trum\u2026
p608
aVRT @EdKrassen: Dear friends, I awoke today to find my @Twitter account has been \u201cshadow banned\u201d. I didn't break any Rules or even receive a\u2026
p609
aVRT @funder: VIDEO: Impeachment Protest outside Trump\u2019s NYC Hotel\u000a\u000a#TheResistance #RemoveNunes https://t.co/Amgqe407Py
p610
aVRT @NancyPelosi: RETWEET if you are concerned about @DevinNunes\u2019 obsession with prioritizing short-term politics over America\u2019s long-term n\u2026
p611
aVRT @funder: We need to be heard LOUD &amp; CLEAR. \u000a\u000a#RemoveNunes \u000a#RemoveNunes \u000a#RemoveNunes \u000a#RemoveNunes \u000a\u000a#RemoveNunes \u000a#RemoveNunes \u000a#Remov\u2026
p612
aVRT @TheAliciaBlades: POLL: #Trump will go down as the most corrupt President in the history of the United States of America.\u000a\u000aVote &amp; RT ple\u2026
p613
aVRT @repmarkpocan: Representative @DevinNunes must be removed from his position as Chairman of the @HouseIntelComm. \u000a\u000aHe's using his positio\u2026
p614
aVRT @funder: RT if you agree Devin Nunes must be removed from the Trump-Russia probe. Remember, Nunes &amp; @SpeakerRyan both lied to the Americ\u2026
p615
aVRT @NancyPelosi: .@DevinNunes\u2019 deliberately dishonest actions make him unfit to serve as Chairman of the House Intelligence Committee. @Spe\u2026
p616
aVRT @funder: BREAKING: Pelosi sent a letter to Paul Ryan demanding the removal of Devin Nunes as chair of the House Intelligence Committee\u2026
p617
aVRT @joncoopertweets: Today\u2019s my birthday. \U0001f917 All I want for a present \U0001f381 is for Donald Trump to be indicted &amp; convicted on obstruction of jus\u2026
p618
aVRT @krassenstein: Nothing hurts Trump's ego more than a ratings defeat!\u000a\u000aThis is why on Jan 30th I'm calling for an official boycott of his\u2026
p619
aVBiased? Is that what we're calling prejudice these days?  #racist https://t.co/0smDhXh3CB
p620
aVRT @KamalaHarris: \U0001f6a8 Republicans have scheduled a vote Monday on legislation that would ban some women\u2019s health care choices \U0001f6a8\u000a\u000aWe can't tur\u2026
p621
aVRT @funder: Will Trump will lie to Mueller? RT if yes, like if no.\u000a\u000aIf u tweet the link below out from your twitter account we\u2019ll RT &amp; foll\u2026
p622
aVRT @funder: Will Trump get indicted? RT if yes, like if no.\u000a\u000aIf you tweet this link out from your twitter account we\u2019ll RT &amp; follow you: ht\u2026
p623
aVRT @BlackhawksStore: In honor of @Brinksy97's hat trick last night we are giving away a cap to 3 lucky fans! RT for a chance to win one of\u2026
p624
aVRT @funder: RT if you agree Congress should #ProtectMueller immediately\u000a\u000aRallies are being organized in over 400 cities in case Trump attem\u2026
p625
aVRT @krassenstein: BREAKING:  Joe Biden says that Senate Majority Leader Mitch McConnell stopped President Obama from speaking out about Rus\u2026
p626
aVRT @KaneCoSheriff: As of 7am there are numerous accidents on Rt 25 between South Elgin and St Charles AVOID THIS AREA.
p627
aVRT @funder: .@realDonaldTrump-How does this help reach a bipartisan deal? It doesn\u2019t. Get the hell out of the White House. You aren\u2019t fit t\u2026
p628
aVRT @KeithOlbermann: Metro New Yorkers: it\u2019s getting desperate for @Adoptabledog DeNiro. A year at a shelter, stressed, he\u2019s still losing we\u2026
p629
aVRT @funder: Democrats must stand their ground. Retweet the hell out of this if you agree. #TrumpShutdown
p630
aVRT @TheGoodGodAbove: Trumpish Christians don\u2019t care that Trump cheated on his wife with a porn star and paid her $130,000 to keep quiet.\u000a\u000aW\u2026
p631
aVRT @MoveOn: Make no mistake. #TrumpShutdown https://t.co/V04AsxuCxs
p632
aVRT @funder: .@SpeakerRyan is the worst Speaker in the history of Congress. Everyone who retweets this agrees. #TrumpShutdown
p633
aVRT @funder: Trump is a liar. RT if you agree. #TrumpShutdown
p634
aVRT @joncoopertweets: There\u2019s a March 13th special election coming up in Pennsylvania and @TheDemCoalition isn't going to stand on the sidel\u2026
p635
aVRT @funder: RT if you want Devin Nunes to lose his reelection.\u000a\u000aNew poll shows @JanzforCongress within striking distance only 5 points back\u2026
p636
aVRT @JamesMelville: Donald Trump\u2019s State of the Union speech is on January 30th. \u000a\u000aHe\u2019s obsessed by TV ratings.\u000a \u000aAmerica - don\u2019t watch his\u2026
p637
aVRT @funder: The word \u201cshithole\u201d is being projected onto Trump\u2019s DC hotel. https://t.co/pq0b7b1BEW
p638
aVRT @Alyssa_Milano: HEY, @GOP! DO YOU HEAR ME?! I AM SCREAMING. \u000a\u000aYOUR SILENCE IN CONDEMNING THE HATEFUL WORDS OF @realDonaldTrump IS DEAFEN\u2026
p639
aVRT @funder: Whatever you do don\u2019t retweet this photo evidence I found proving Donald Trump Jr did business with a banker behind a massive R\u2026
p640
aVRT @SethAbramson: Please RETWEET if you want TV networks to stop booking Trump policy advisor Stephen Miller, whose media appearances\u2014as Ja\u2026
p641
aVRT @funder: Are key Republicans sabotaging the Russia probe?\u000a\u000aRT for yes, like for no\u000a\u000aMy Take: Absolutely. What they\u2019re doing is criminal\u2026
p642
aVRT @funder: .@realDonaldTrump-You\u2019re stupid &amp; a criminal. Everyone who retweets this agrees.
p643
aVRT @funder: RT if you agree @ChuckGrassley &amp; @LindseyGrahamSC are nothing but a bunch of traitors who are Trump\u2019s little lapdogs, abusing t\u2026
p644
aVRT @SenBooker: We must stop Jeff Sessions' backwards actions. There is now great urgency to pass the Marijuana Justice Act to legalize mari\u2026
p645
aVRT @funder: RT if you agree Congress must #ImpeachTrump immediately.
p646
aVRT @krassenstein: Meet Cathy Stepp,\u000a\u000aThis unqualified woman was just appointed to run the Great Lakes region of the EPA\u000a\u000aApproximately 85%\u2026
p647
aVRT @funder: .@SpeakerRyan-Everyone who retweets this wants you to open up an investigation into the 20 sexual assault claims against Donald\u2026
p648
aV@realDonaldTrump You're an idiot. Resign already. #TrumpTreason
p649
aVRT @Alicia_Donadio: POLL: Should @DevinNunes be removed from the Intel Committee? \u000a\u000aThis one's for you, @SpeakerRyan. Please #RemoveNunes.\u2026
p650
aVRT @funder: Everyone who retweets this wants @SpeakerRyan to #RemoveNunes from the Intel Committee https://t.co/0PgPfBDLUc
p651
aV@realDonaldTrump You're an idiot. Resign already. #TrumpTreason
p652
aVRT @ElginPublicHous: Join us for Trivia Night at Elgin Public House, every Wednesday at 8 pm.\u000a847-468-8810 for more info.
p653
aVRT @chrisnchastain: I'm announcing my candidacy for South Carolina district 4 US House of Representatives. Please RT
p654
aVRT @ananavarro: Let me fix this for you. \u000a\u000aRetweet if you are SICK &amp; TIRED of Donald Trump. https://t.co/O0cagTgTBh
p655
aVRT @funder: #ProtectMueller now trending #31\u2013lets get it to #1.\U0001f525
p656
aVRT @TheDemCoalition: Retweetfest: Tweet this link out in the next 2 hours &amp; we\u2019ll RT you!\u000a\u000aFCC voted to end #NetNeutrality. In response we'\u2026
p657
aVRT @SenSchumer: RT if you think Alabama\u2019s new Senator should get a vote on the #GOPTaxScam
p658
aVRT @AGSchneiderman: #BREAKING: My office has now identified 2 million fake comments on #netneutrality that were submitted to the @FCC using\u2026
p659
aV#NetNeutrality is key to free expression, innovation &amp; public safety.\u000ahttps://t.co/PLHlQf8xEf
p660
aVRT @KamalaHarris: FCC wants to repeal net neutrality rules that protect our free &amp; open internet. We want 1 million names opposing it. http\u2026
p661
aVRT @Alyssa_Milano: ALABAMA! If they are giving you a difficult time at the polls DON\u2019T LEAVE. THIS IS VOTER INTIMIDATION OR SUPPRESSION. Ca\u2026
p662
aVRT @funder: 54 female Members of Congress sent a letter to Congressman Gowdy today calling for a probe into the 19+ sexual assault allegati\u2026
p663
aVRT @SenGillibrand: You cannot silence me or the millions of women who have gotten off the sidelines to speak out about the unfitness and sh\u2026
p664
aVRT @tribelaw: The crescendo of baseless claims that Mueller &amp; the FBI are biased and corrupt is rising at an alarming pace. It\u2019s easy to se\u2026
p665
aVRT @ShaunKing: 19 women. \u000a\u000a19 women have now accused @realDonaldTrump of sexual assault/sexual misconduct. \u000a\u000a19.
p666
aVRT @funder: There should be an immediate Congressional probe into every one of Trump\u2019s sexual assault allegations against him. RT if you ag\u2026
p667
aVRT @funder: Retweet the F out of this for Doug Jones\u2014it\u2019s a video of him delivering his closing argument to the voters of Alabama with a po\u2026
p668
aVRT @tribelaw: With polls showing most Rs don\u2019t think the Russia probe is justified (!), it\u2019s imperative that people who care about saving o\u2026
p669
aVRT @neeratanden: I demand an apology for the 10,000 times @realDonaldTrump has lied and misled the country.  Retweet if you think he should\u2026
p670
aVRT @GDouglasJones: With a 1 point lead, we can't take anything for granted. We need your help. Chip in $5 to our campaign: https://t.co/4lt\u2026
p671
aVNo! Also, impeach trump. https://t.co/KlzQ1PjYCz
p672
aVRT @funder: Poll: 70% of Americans says Congress should investigate sexual harassment allegations against Trump-RT if you agree with them\u2026
p673
aVRT @TeaPainUSA: 66% want Trump to resign?\u000a\u000aIf would be a shame if everybody retweeted this poll and @realDonaldTrump saw it.\u000a\u000ahttps://t.co/\u2026
p674
aVRT @joncoopertweets: I\u2019m happy to report that @SenJohnMcCain has lost more than 10,000 followers since I posted the below tweet. Please ret\u2026
p675
aVAlso, 33% of people surveyed are actually turnips. https://t.co/HwWeYXhG64
p676
aVRT @funder: .@SpeakerRyan-Multiple folks from the Hill tell me Trump plans on firing Mueller. Everyone who retweets this wants you to get o\u2026
p677
aVRT @SenWarren: Well there you have it: The @SenateGOP won\u2019t even give Democrats the weekend to read all the lobbyist giveaways they\u2019ve adde\u2026
p678
aVRT @SenatorDurbin: BREAKING: Senate Democrats just tried to get Senate Republicans to adjourn for a few days and take the time to actually\u2026
p679
aVRT @funder: .@Twitter-You must suspend @realDonaldTrump for endangering our national security using your platform. Everyone who retweets th\u2026
p680
aVRT @SenFeinstein: UPDATE: Democrats just offered an amendment to ensure corporations use their tax savings to raise employee wages at the s\u2026
p681
aVRT @TheMuslimGuy: Dear @Twitter...\u000a\u000aBy tweeting Anti-Muslim conspiracy theory videos which are fake...\u000a\u000a@RealDonaldTrump has violated your\u2026
p682
aVRT @funder: If you are against sexual harassment, pedophilia, and perverts in government RT this. We must stop Moore. Currently, he is ahea\u2026
p683
aVRT @AGSchneiderman: Over the last 6 mos, my office has investigated a massive scheme to corrupt the @FCC's comment process on #NetNeutralit\u2026
p684
aVRT @SenSchumer: RT &amp; tell @FCC this decision will hold America back.  \u000aConsumers, small business owners, hospitals &amp; schools across the cou\u2026
p685
aVRT @SenSanders: Once again, the Trump administration sides with big money and against democracy. If this passes, the internet and its free\u2026
p686
aVRT @KamalaHarris: Spread the word to your friends and family: The deadline to register to vote in the Alabama special election is November\u2026
p687
aVRT @funder: .@PapaJohns-Too little, too late. Retweet if you\u2019re a member of #TheResistance &amp; you\u2019ll never buy Papa John\u2019s ever again. https\u2026
p688
aVRT @tedlieu: I sit on the House Judiciary Committee and Lyin' Jeff Sessions will testify under oath this Tuesday morning. Retweet if you th\u2026
p689
aVRT @votevets: With a razor thin margin triggering a recount in Virginia's HD-28 election for Delegate, VoteVets is calling on the electoral\u2026
p690
aVRT @TomSteyer: You either believe Donald Trump is unfit for office, or you don't. I've made my position clear -- and so have 1.8 million Am\u2026
p691
aVRT @RalphNortham: It's Election Day! Thousands of Virginians have cast their votes for Ralph\u2014join them and confirm where you vote: https://\u2026
p692
aVRT @funder: If you\u2019re on twitter please stop what you\u2019re doing &amp; tweet out these three hashtags:\u000a\u000a#VoteNortham #VotePhilMurphy #VoteDem\u000a\u000aTR\u2026
p693
aVRT @SenatorDurbin: 94% of Americans (93% of gun owners) want background checks on every gun sale. Retweet if you do too.
p694
aVRT @funder: RETWEET if you\u2019re tired of innocent Americans getting murdered by unchecked maniacs with access to weapons of mass destruction\u2026
p695
aVRT @funder: Retweet if you want to ruin Trump\u2019s entire trip to Asia\u000a\u000aGeorge Papadopoulos met in Dec-16 with one of his many direct links to\u2026
p696
aVRT @MoElleithee: Dear Democrats on Twitter:\u000a\u000aThere is an election in 5 days.\u000a\u000aI know a lot of Dems in VA &amp; NJ that would appreciate you rem\u2026
p697
aVRT @funder: RT if u agree that anyone who interferes with Mueller is committing an act of treason against the United States of America #Fir\u2026
p698
aVRT @tonyposnanski: RT if you have no issues with your tax dollars being used for Mueller\u2019s investigation.
p699
aVRT @funder: .@realDonaldTrump-Every person who retweets this wants you to resign immediately. #TrumpResign
p700
aVRT @TomSteyer: Trump threatens our Constitution, our freedoms, and our lives. It\u2019s time to begin impeachment proceedings. Join us. https://\u2026
p701
aVRT @funder: Death toll in Puerto Rico is now around 450\u000a\u000aREPEAT\u000a\u000aDeath toll in Puerto Rico is now around 450\u000a\u000aNo help coming from Trump or\u2026
p702
aVRT @funder: For my birthday it\u2019d be awesome if everyone retweeted this-video proof Don Jr\u2019s done biz in Russia since 2005 #AMJoy https://t.\u2026
p703
aV@VZWSupport We're getting 2 Galaxy S8 phones free, protection plan, and 6GB of data all for $65 less per month than you.
p704
aV@verizon is losing 2 more customers because of their horrible customer service and ripoff prices! Here we come @CREDOMobile!
p705
aVRT @joncoopertweets: \U0001f449RT if you want @realDonaldTrump to know that he will be remembered as the MOST CORRUPT AND CRUEL president in the his\u2026
p706
aVRT @Cubs: Want to attend #NLCS Game 3? RT by 11 a.m. tomorrow to enter for two tix via @MLBNetwork. Be sure to catch their pre and postgame\u2026
p707
aVRT @NewsofStJohn: St. John, an island in the US Virgin Islands, has been without power since September 6. Please keep loving &amp; supporting u\u2026
p708
aVRemove this idiot! #25thAmendment
p709
aVRT @funder: If you truly believe Trump shouldn\u2019t be president anymore then retweet this then tweet out this hashtag: #25thAmendment
p710
aVRT @RepJoeKennedy: .@POTUS's Executive Order will obliterate preexisting condition protections and bankrupt families facing unexpected trag\u2026
p711
aVRT @BlackhawksStore: In honor of @BSaad20's hat trick last night we are giving away a cap to 3 lucky fans! RT for a chance to win one of th\u2026
p712
aVRT @nowthisnews: Money taken from the NRA \u000a\u000aPence: $25k \u000aMcConnell: $37k\u000aRubio: $14k\u000aMcCain: $19k \u000aBlunt: $62k\u000aCotton: $9k\u000aErnst: $9k\u000a\u000aAnd\u2026
p713
aVRT @SenatorDurbin: Retweet if you agree: The #DreamAct should be the law of the land. Dreamers are #HereToStay.
p714
aVRT @funder: NEW POLL: A majority of Americans think Trump's unfit to be president-RT if u agree Trump's unfit. #AMJoy https://t.co/IVtt86zv\u2026
p715
aVRT @RepDanKildee: RT if you think @RealDonaldTrump should release his tax returns.\u000a\u000aWe deserve to know how much Trump will benefit from his\u2026
p716
aVRT @SethAbramson: (THREAD) This is a thread about Donald Trump. If what it says conforms with how you feel, I hope you'll consider sharing\u2026
p717
aVRT @MLB: Ready? 100 random followers who retweet THIS TWEET will be entered in our #BaseballBoxes grid; results posted Wednesday.\u000a\u000aAnd ...\u2026
p718
aVRT @HamillHimself: Praising neo-Nazis as "some very good people". https://t.co/Eps4p7hVcd
p719
aVRT @funder: RT if you agree Trump's the most unethical "president" ever.\u000a\u000ahttps://t.co/XmGxvwsLmJ
p720
aVRT @KingJames: U bum @StephenCurry30 already said he ain't going! So therefore ain't no invite. Going to White House was a great honor unti\u2026
p721
aVRT @TheDemCoalition: Donate a tweet: Join our Thunderclap promoting https://t.co/zBdDniXzL7 because Trump slashed #ACA ads by 90% https://t\u2026
p722
aVRT @Impeach_D_Trump: RETWEET if you support Colin Kaepernick's right to #TakeaKnee despite Trump's attacks on him\u000a\u000aFirst Amendment!
p723
aVRT @funder: I miss having @BarackObama as our president. RT if u miss him too.\u000a\u000aAlso in this vid he rips Republicans to shreds.\U0001f525 https://t.\u2026
p724
aVRT @timkaine: RT if you want Republicans to stop their latest effort to repeal the ACA and take coverage from millions
p725
aVRT @jfkantrowitz: Retweet if you want other people's families to have health insurance. https://t.co/3jem6LOOjp
p726
aVRT @jimmykimmel: If you too are disappointed in Sen @BillCassidy #GrahamCassidy let them know it - call (202) 224-3121 https://t.co/eswlh6B\u2026
p727
aVRT @SenatorDurbin: Retweet to tell Congress to bring the #DreamAct to the floor NOW.
p728
aVRT @funder: Retweet if u agree Trump's kids should all be investigated\u000a\u000aHelp fund our investigation below #TrumpRussia #Resist\u000ahttps://t.co\u2026
p729
aVRT @MLB: @Topps No purchase necessary. Must RT by 10pm ET on 9/8/2017. Official rules: https://t.co/PYfO9vwQAs
p730
aVRT @AdamSchiffCA: .@HouseGOP JUST blocked my amendment to prevent @POTUS from profiting off of Presidency through Secret Service payments t\u2026
p731
aVRT @SenatorDurbin: I stand with Dreamers. Retweet if you do too. https://t.co/BoZEwkQQuP
p732
aVRT @KamalaHarris: RT to show Republicans in Congress that Americans support a vote on the bipartisan DREAM Act \u2192 https://t.co/BrZqFVJoLG
p733
aVRT @SenatorDurbin: The #DreamAct will make sure #Dreamers aren't deported to countries they barely remember. Congress must pass it NOW. Ret\u2026
p734
aVRT @BarackObama: To target hopeful young strivers who grew up here is wrong, because they\u2019ve done nothing wrong. My statement: https://t.co\u2026
p735
aVRT @funder: RT so Trump gets this message.\u000a\u000a@realDonaldTrump-\u000a\u000aYour Texas trip was pathetic. You talked to zero victims. You need to resign\u2026
p736
aVRT @funder: Retweet if u agree Mike Pence should leave the White House when Trump does.\u000a\u000a#ImpeachTrump #ImpeachPence #Resist\u000ahttps://t.co/g\u2026
p737
aVRT @funder: Retweet if u agree Trump needs to be impeached immediately\u000a\u000aHelp fund the #ImpeachTrump campaign here\u2b07\ufe0f#TrumpRussia\u000ahttps://t.\u2026
p738
aVRT @funder: Retweet if you want Paul Ryan to lose in 2018.\u000a\u000aHelp us run our digital &amp; grassroots efforts against #LyinRyan below https://t.\u2026
p739
aVRT @funder: NEW POLL: A majority of Americans want Trump impeached-retweet if u agree with them!\u000a\u000a#ImpeachTrump #ArpaioPardon https://t.co/\u2026
p740
aVRT @funder: I wanna know why @SenThomTillis hasn't passed bill yet making Trump unable to fire Robert Mueller-RT if u support the bill #Fir\u2026
p741
aVRT @RepSwalwell: Spend billions building #TrumpWall along our border? Or direct that money to modern schools, worker re-training, &amp; new roa\u2026
p742
aVRT @KamalaHarris: RT if you firmly believe our country should work for everyone, not just the top 1%.
p743
aVRT @felicia4217: Please share. Help identify who this person is. He is one who inflicted the most damage to my son. Please share. https://t\u2026
p744
aVRT @Impeach_D_Trump: White nationalist, Peter Cvjetanovic is upset that this photo of him has gone viral. So please dont retweet this tweet\u2026
p745
aVRT @funder: Hannity is fake news. RT if u agree. #FireHannity
p746
aVRT @funder: Do y'all wanna do a #FireHannity campaign today &amp; not stop til he's fired? RT for yes, like if no. #TheResistance
p747
aVRT @funder: Retweet if u agree @FoxNews must #FireHannity!\u000a\u000aI want this tweet to get so many retweets from #TheResistance that reporters co\u2026
p748
aVRT @funder: Sean Hannity's advertisers in link below. For this to work we gotta get it trending. \U0001f525#FireHannity\u000a\u000ahttps://t.co/J8U5G7wlOL
p749
aVRT @SenBookerOffice: .@CoryBooker Introduces Landmark Bill to End the Federal Prohibition on Marijuana: https://t.co/N4uBC2oxZJ #MarijuanaJ\u2026
p750
aVRT @MLB: Ready? 100 random followers who retweet THIS TWEET will be entered in our #BaseballBoxes grid; results posted Wednesday. \u000a   \u000aAnd\u2026
p751
aVRT @funder: RT if u agree healthcare should be available to everyone in this country. No one should die or go bankrupt for trying to live.\u2026
p752
aVRT @funder: #TheResistance is no joke \u000a\u000a#MakeMuellerNotFireableByTrump is on the verge of trending.\u000a\u000aWe can do this! \U0001f1fa\U0001f1f8\u000a\u000a#TrumpRussia #Resi\u2026
p753
aVRT @funder: RT if u agree healthcare should be available to everyone in this country. No one should die or go bankrupt for trying to live.\u2026
p754
aVRT @funder: Retweet this so much-that @realDonaldTrump blocks me.\u000a\u000aThen I can join the lawsuit against him for blocking people on Twitter.\u2026
p755
aVRT @funder: Reporters- #TheResistance is huge. It's not some fringe group. I'll prove it. Retweet this if you're a proud member of The Resi\u2026
p756
aVTell Congress: Don't let Jeff Sessions prosecute medical marijuana patients https://t.co/NuUXTC6ZT2 via @CREDOMobile #p2
p757
aVRT @funder: RT if u agree Kushner's security clearance needs to be suspended immediately #FireKushner\u000a\u000aThen take action here:https://t.co/9\u2026
p758
aVRT @RedTRaccoon: Jared Kushner is copied on the Donald Trump Jr emails\u000a\u000aRETWEET TO DEMAND THE REMOVAL OF JARED KUSHNER'S SECURITY CLEARANCE\u2026
p759
aVRT @SenatorDurbin: I can\u2019t think of a better time for the House to pass the Senate\u2019s Russia Sanctions bill. Retweet if you think so too.
p760
aVRT @joncoopertweets: RT if you think Trump's election win, Gorsuch's Supreme Court appointment and all of Trump's federal judicial appointm\u2026
p761
aV#LockDonJrUp https://t.co/pNXRMXs1do
p762
aVRT @funder: RT if u agree Don Jr. should be in jail. #LockDonJrUp
p763
aVRT @funder: If u wanna ruin Trump's day RT this\u2014it's photo evidence Trump met w/man who setup the Don Jr Russian lawyer meeting.\u000ahttps://t.\u2026
p764
aVRT @funder: I stand by my statement 110%. Donald Trump is a traitor. RT if u agree.\u000a\u000a#TrumpsATraitor\u000ahttps://t.co/KG0RPLwTbo
p765
aVRT @Alyssa_Milano: 8/31/13 https://t.co/l2dxcU0WWK
p766
aVRT @Jess__bryant: 30 minutes left in voting!! @Cubs let's do this!! Retweet &amp; tweet #VoteKB
p767
aVRT @Cubs: Last giveaway! Go big or go home. Or to Miami. \U0001f334\u000a\u000aRT by 3 p.m. to enter for our last signed jersey, then vote like crazy! #VoteKB\u2026
p768
aVRT @Cubs: KB was in second place this morning? Aww, nuts.\u000a\u000aRT for a chance to win a bag of peanuts Kris didn\u2019t eat. #VoteKB #VoteX https://\u2026
p769
aVRT @Cubs: Vote for the good guys and you could win 2 tix to see us host the White Sox. \u000a\u000aRT by 3 p.m. for a chance to win. #VoteKB #VoteX h\u2026
p770
aVTell Congress: Don't let Jeff Sessions prosecute medical marijuana patients https://t.co/NuUXTC6ZT2 via @CREDOMobile #p2
p771
aVRT @funder: RETWEET if u wanna spoil Trump's #IndependenceDay\u000a\u000aThe #DworkinReport: Evidence Tying Donald Trump to Russia\u000ahttps://t.co/mqQOx\u2026
p772
aVRT @SenatorDurbin: Calling on Illinois to refuse request to release Illinois voter files to Trump's commission on voter fraud. Read my full\u2026
p773
aVCorporate income tax rates: IA 12.00%, WI 7.90%, IL 7.75%, MO 6.25%, IN was 6.25% but went down to 6.00% on 7/1/17.\u2026 https://t.co/1CViYb9nYR
p774
aVState income tax rates: WI 7.65%, IA 8.98%, MO 6.0%, IN 3.23%. Is 4.95% really so unreasonable with some perspectiv\u2026 https://t.co/JXyKTLGJU5
p775
aVRT @joncoopertweets: \U0001f525\U0001f525WH source: Trump was FURIOUS to learn calls to remove him from office by invoking #25thAmendment are trending on Twi\u2026
p776
aVRT @KeithOlbermann: Please RT if you agree the cabinet must invoke the 25th Amendment, TODAY, and immediately remove @realDonaldTrump from\u2026
p777
aVRT @TheGoodGodAbove: QUESTION: Who is MORE trustworthy?\u000a\u000a[RT so the whole world can vote on this. The greater the sample size, the more rel\u2026
p778
aVRT @SenGillibrand: Since our President clearly has a problem with women, let's send more to Congress. Women of America, you need to run! RT\u2026
p779
aVRT @funder: Donald Trump Jr Now Tied To Russian Money Laundering Scheme &amp; Mexican Drug Cartel\u000a\u000a#TrumpRussia uncovered @funder \u000ahttps://t.co\u2026
p780
aVRT @IronStache: Only 12 hours before our filing deadline. Let's hit our goal of 350k &amp; show Paul Ryan we're serious. &gt;&gt; Donate $5:   https:\u2026
p781
aVRT @funder: Retweet if you agree Trump is the worst fake president ever\u000a\u000a#TrumpcaresUnAmerican #Resist
p782
aVRT @funder: RT if u agree healthcare should be available to everyone in this country. No one should die or go bankrupt for trying to live.\u2026
p783
aVRT @StevePasquale: Lets have this list go viral shall we?\u000a\u000a https://t.co/Hbs5vk2fZy
p784
aVRT @MaxineWaters: Instead of disabled people in wheelchairs, the only person who should be dragged anywhere is Trump - down the hall, to im\u2026
p785
aVRT @BarackObama: Health care has always been about something bigger than politics: it's about the character of our country. https://t.co/Uq\u2026
p786
aVRT @NateSilver538: The GOP health care bill isn't really a health care bill. https://t.co/I4wXR8OoaY https://t.co/231o3jwQqW
p787
aVRT @HillaryClinton: If you're waiting for the right moment to call your Senator about Trumpcare, the moment is now. Don't wait until it's t\u2026
p788
aVRT @MLB: Ready? 100 random followers who retweet THIS TWEET will be entered in our #BaseballBoxes grid; results posted Wednesday.
p789
aVRT @SenKamalaHarris: Retweet if you:\u000a \u000aHave a right to know what\u2019s in Congressional Republicans' health care plan.\u000a \u000a(This is everyone.)
p790
aVRT @Impeach_D_Trump: NBA Champions Golden State unanimously decide they will not be visiting White House\u000a\u000aRETWEET to Support This Decision!!
p791
aV@Tool gonna rock my face off tonight!!!
p792
aVRT @HamillHimself: "They come at us viciously &amp; it's truly, truly horrible."- Eric Trump https://t.co/aTovewrVSh
p793
aVRT @NetworkJunkyz: This was the biggest under-reported Trump/Russia story yesterday. This former FBI agent makes a devastating case against\u2026
p794
aVRT @SenSanders: Did Russia act independently in support of Trump or did the Trump campaign actively collude with them in attempting to win\u2026
p795
aVShow the people how rich you are @realDonaldTrump! #WhatAreYouHiding? What's the matter, are you chicken? \U0001f414bawk, ba\u2026 https://t.co/pGZZuKvpbr
p796
aV"Ruble to dollar conversion rate" #StuffCongressmenGoogle https://t.co/9FfcCqjBUp
p797
aV"How to tell if your friend's mail-order-bride is actually a Russian spy" #StuffCongressmenGoogle https://t.co/qkuvNVZuvI
p798
aV"What are ethics?" #StuffCongressmenGoogle https://t.co/zSTvccKel5
p799
aV"Does God really have a Facebook page?" #StuffCongressmenGoogle https://t.co/vXbHfgvWIa
p800
aV"How to tank an economy in under 60 days" #StuffCongressmenGoogle https://t.co/vXbHfgvWIa
p801
aVLet's play a game @MaxTemkin called "Stuff Congress has googled." Me first: How to contact Russian billionaires for\u2026 https://t.co/5X1Y97Oe5z
p802
aVRT @Impeach_D_Trump: #BLACKOUTtrump tonight 8pm.\u000a\u000aRT if u pledge not to watch this reality show tonight.\u000a\u000a#MuslimBan #resist #theresistance\u2026
p803
aVRT @MLB: In honor of his 23rd birthday, we are giving away this sweet @Addison_Russell card. Just RT for a chance to win. #MLBCards https:/\u2026
p804
aVRT @tomcolicchio: Speaker Ryan is conducting a poll on the Affordable care act. Call his office and follow the prompts (202) 225-0600
p805
aVRT @VP: Tonight\u2019s House #CuresAct vote is a big step for cancer research &amp; the #CancerMoonshot. Look forward to passage so we can sign it i\u2026
p806
aVRT @chelseahandler: The North Dakota Pipeline needs more media coverage. Pls retweet and retweet until they stop taking these poor people's\u2026
p807
aVRT @AndyRichter: SIGN THIS NOW, AND RT, PLEASE!\u000aAppoint Garland Now (Senate Has Waived Its Rights) https://t.co/7dYZUv40eM
p808
aVRT @SenSanders: NEWS: Sanders Statement on Trump https://t.co/HEWALfcXW4
p809
aVRT @SethMacFarlane: I mean, you couldn't do this with Ross Perot?  He was an okay guy.  But no.  It had to be THIS fucker?
p810
aVRT @MarijuanaPolicy: #illinois is officially the 21st state to #decriminalize #marijuana https://t.co/IzW5BAnIbV
p811
aV#POTUS with the home run! #DNC
p812
aV#NeverTrump https://t.co/0n35ouFX6j
p813
aVTrumppence: a type of junk food tasting so bad it must be swallowed hole, causing you to choke on its lies of being both delicious and food
p814
aVJamming to #Chevelle #TheNorthCorridor
p815
aV@HPSupport Laptop coming apart by left hinge, 4 months outta warranty. Lots of others have complained too. Fix ur defect? #HPSA #Envypc
p816
aV@Cleen_Rock_One you were robbed, bro! That title was yours all the way.
p817
aV#inkcleen
p818
aVAccording to @pewresearch, I'm a Solid Liberal. What's your political typology? http://t.co/rIDiv9wVfn http://t.co/6FRrjhviPk
p819
aVhttp://t.co/DToZ5FPFAI #NoNewWar
p820
aVSign the Move to Amend petition: corporations aren't people &amp; money is not free speech! http://t.co/XCdsqAQ0JW
p821
aV@The_MMU Note to self: bring a can of gas when storm chasing.
p822
aVRT @TheObamaDiary: "But you said if I like my umbrella I can keep it!" #Obamacare http://t.co/qcQmpvM7jN
p823
aVHere's a great idea: "@MotherJones: Economists to Congress: It's time to go Robin Hood on the rich http://t.co/IVwIvsZO8v".
p824
aVChris Hedges: Let\u2019s Get This Class War Started - Chris Hedges - Truthdig: http://t.co/SUCCluEoTP via @truthdig
p825
aVRT @HuffPostHawaii: Stop everything you're doing and take a break with these adorable sea turtles (PHOTOS) http://t.co/haMSFxPPCY
p826
aVRT @MoveToAmend: Hell No! to Citizens United 2.0. #MoveToAmend on @commondreams. Stop #McCutcheon! https://t.co/imFDZCl5dU
p827
aVSign the petition @MoveToAmend!
p828
aVRT @MLB: OFFICIAL: @Phillies name Ryne Sandberg 52nd manager in club history; sign him to 3-year contract with club option for 2017.
p829
aVRT @Thom_Hartmann: You Want to Own A Gun? Get It Licensed &amp; Insured! http://t.co/miwsiQVoR1
p830
aV@RepDuckworth listen to your supporters. Listen to the voters across the country, Dems and GOP. Vote #NoWarWithSyria !
p831
aVRT @GeorgeTakei: In other Florida news, this woman was handed a 20-year sentence yesterday. Our system is failing us. http://t.co/gIoDYh2Tyv
p832
aVRT @NoHookerNoPeace: If Zimmerman had shot a deer without a hunting license he would have received more punishment.
p833
aVRT @MMFlint: Trayvon was the 1 who's life was being threatened--by a guy w/ a gun chasing after him! Trayvon had the RIGHT 2 do ANYTHING 2 \u2026
p834
aVRT @DaveBolland: My friend @MKSART painted this awesome picture of Jimi that is now hanging up in the house, check it out! http://t.co/hUXB\u2026
p835
aVRT @NHL: Game on. RT if you think the @NHLBlackhawks will be hoisting the #StanleyCup after tonight's game. Watch now on NBC, CBC, RDS. #St\u2026
p836
aVWhere shall we watch the #hawks win tonight? @NHLBlackhawks
p837
aV#blackhawks for the win!
p838
aV#DontDoubleMyRate
p839
aVRT @Soumak: Tell Congress: Don't Pass a Farm Bill that Lets Monsanto Wipe Out State GMO Labeling Laws! http://t.co/pmsXwbllz8 @moveon
p840
aV@JW_Elgin: One can shove a snowball in any direction, but pushing it only makes it more of a snowball.
p841
aV@JW_Elgin:don't be surprised when it comes out on the other end as a stronger version of its former self.
p842
aV@JW_Elgin: The point being, if you push an object which is true to itself in any particular direction...
p843
aV@JW_Elgin: it becomes a nearly unstoppable force, which is in and of itself pure to form.
p844
aV@JW_Elgin: as it picks up more of that which makes it a snowball, while accumulating speed in a particular direction...
p845
aV@JW_Elgin: There is no greater good than that which benefits those around us. Appreciation is a snowball rolling down a hill...
p846
aVEloquently spoken criticism is still disdain for an approach to an issue for which you have little control over.
p847
aV@TheDailyShow Fantastic episode last night! Waiting for Republicans to come in favor of legalization of pot!
p848
aVRT @TheOnion: In Sports: Yankees\u2019 Disabled List Absolutely Stacked http://t.co/H7whDbIoH9
p849
aVI used to use sarcasm as humor, until it turned into cynicism. Now I'm just bitter. Next I hope to hose kids down from the front porch.
p850
aVRT @BarackObama: RT if you agree: It's time to stop the denial on climate change. http://t.co/Q6JarHmCF0
p851
aVNothing like blowing a 5 run lead @Cubs!  Is this going to be the norm in 2013? Here we go again...
p852
aVRT @TheEllenShow: Incredible. @NHL is partnering with @YouCanPlayTeam, an organization that fights homophobia in sports. I\u2019m officially  ...
p853
aVLiving life 140 characters at time. I'll give it a go! #CurdTurdBurglar
p854
a.