(lp0
V@John_JR7 @AdyBarkan @maddow @SenatorCollins I guess you didn't read the bill in very much detail
p1
aVThis guy is funny https://t.co/jZWFIlLddy
p2
aV@JenShahade @waitbutwhy @afekchess It wasn't hard for me to solve cause i couldn't
p3
aVGreat chess video's you have done, hope you do some more.\u000aAnyway, Does Chess Bitch empower women who don't play much chess?
p4
a.