(lp0
VRT @chelseahandler: Melania has been running around crusading for her #BeBest campaign and her husband just called Stormy Daniels \u2018Horsefac\u2026
p1
aVRT @chrissyteigen: He\u2019s such a monster like an actual monster, this isn\u2019t normal https://t.co/0b1LrbE3Hz
p2
aVRT @Amy_Siskind: \u201cWH  has heard rumors that Ford\u2019s account will be verified by women who say she told it to them contemporaneously. People\u2026
p3
aV@ItsBrooklynE_ https://t.co/txA9abb6Xi
p4
aVRT @TheEllenShow: So chic, even the French are wearing it. https://t.co/dZAsW642oP
p5
aVRT @ElArroyoATX: #ElArroyoATX #ElArroyoSign https://t.co/kum1JrTRg2 https://t.co/2jiXiGU9Ip
p6
aV@ItsBrooklynE_  go get yourself a planner https://t.co/FUGnXkRxee
p7
aVRT @donlemon: Who\u2019s the real dummy? A man who puts kids in classrooms or one who puts kids in cages? #BeBest https://t.co/XO50qVksnR
p8
aV@ItsBrooklynE_ https://t.co/HZEMUbLkUN
p9
aV@ItsBrooklynE_ https://t.co/jkIR23EwxW
p10
aV@VanderpumpRules Can't wait to press mute
p11
aV@Ryan_P_Buckley Love that Cat excavator
p12
aV@JonFrancetic Seriously, you made me tear up. What an awful experience for you
p13
aV@ItsBrooklynE_ https://t.co/3RjCr02VAw
p14
aVRT @elonmusk: Last pic of Starman in Roadster on its journey to Mars orbit and then the Asteroid Belt https://t.co/IWSjRyTr8V
p15
aVRT @ShepRose: Dinklage commercial wins so far! https://t.co/DIi7SPLi1H
p16
aVRT @elonmusk: All flamethrowers will ship with a complimentary boring fire extinguisher
p17
aVRT @SenDuckworth: I will not be lectured about what our military needs by a five-deferment draft dodger. https://t.co/gR3EbhGxBs
p18
aV@MissouriState @ItsBrooklynE_
p19
aVRT @wdsu: Do you see it? Louisiana plantation posts viral photo of supernatural sighting https://t.co/8QjZgTiamG https://t.co/smXw5qKfTA
p20
aVRT @rmc_72: I challenge you to find something better than this. https://t.co/J2OMtP3mmN
p21
aVRT @ShepRose: I can\u2019t believe this is a real tweet from an adult. Never mind a the President. \U0001f926\u200d\u2642\ufe0f https://t.co/SZXFv57nBS
p22
aVRT @jaredscott__: *knocks on door*\u000aMcConaughey: \u201cDo you have a thanksgiving turkey?\u201d\u000aResident: \u201cno, no I don\u2019t\u201d\u000aMcConaughey: \u201cBe a lot cool\u2026
p23
aVRT @everywhereist: *order pjs on Amazon\u000a*go to bed\u000a*wake to someone putting pjs on me\u000aMe: WHAT IN THE HOLY-\u000aAmazon employee: SHHHHHH, this\u2026
p24
aVRT @RickAndThangs: RT if you stand with Maggie. #TheWalkingDead #TWD100Nite https://t.co/lOPNU5eNvD
p25
aVRT @AndrewGillum: When the leader of our country turns his back on our citizens, we have truly lost our way. #PuertoRico
p26
aV@ItsBrooklynE_ https://t.co/2iylb6XFAh
p27
aVLet's go Cubbies!!!! https://t.co/6udjoIgXrc
p28
aV@ItsBrooklynE_ https://t.co/Npgb5iJ7Go
p29
aV@mrjaxtaylor Bob and weave
p30
aVRT @Cubs: Here is this afternoon's #Cubs starting lineup.\u000a\u000aGame preview: https://t.co/IkOBWwh6BN https://t.co/TxvxDeRe9M
p31
aVRT @WajahatAli: Angry men, dislocated from society, radicalized online, embraced by a community, promised glory &amp; honor. Not ISIS, see #Cha\u2026
p32
aVRT @SenWarren: Someone was murdered at a Neo-Nazi rally today. That happened. In America. In 2017. It's time to make clear where we stand \u2013\u2026
p33
aVRT @johnlegend: America elected a very shitty person to be President
p34
aVRT @fox32news: "We do not inherit the earth from our ancestors, we borrow it from our children." - Native American proverb https://t.co/yGz\u2026
p35
aV@ItsBrooklynE_ https://t.co/VfLGyHQC5A
p36
aV@ItsBrooklynE_ https://t.co/LFuGww4efw
p37
aV@MissouriState thank you for the updates. This momma Bear from Chicagoland loves you! #daughterissafe
p38
aV@ItsBrooklynE_  yes, do the study away B https://t.co/zmo1wjZEzx
p39
aVRT @TheVidSpot: This little naked bird is just TOO adorable! \U0001f60d https://t.co/SVHJKqtVOq
p40
aVRT @MSU_PSU: Missouri State was named on the America's top college list by Forbes Magazine.  #DailyFunFact
p41
aV@ItsBrooklynE_ https://t.co/RjS7wXrBNE
p42
aVRT @fox32news: The puck drops at 7 p.m. tonight as the Blackhawks look for revenge against the Blues in their season opener. https://t.co/z\u2026
p43
aVRT @FunnyPicsDepot: It just keeps getting better like WTF \U0001f602\U0001f602\U0001f602\U0001f602\U0001f602\U0001f602\U0001f602 https://t.co/HelPvVphyV
p44
aVRT @PoemHeaven: #WorldMentalHealthDay \U0001f499 https://t.co/W9d36JnNHA
p45
aVRT @dubstep4dads: hillary: i respect trumps children\u000a\u000a[camera pans to eric trump, hes chewing on his own shoe]
p46
aVRT @BayoumiMoustafa: I'm a Muslim, and I would like to report a crazy man threatening a woman on a stage in Missouri.  #debate
p47
aV@ItsBrooklynE_ https://t.co/UGLSb4q0I2
p48
aV@ItsBrooklynE_ https://t.co/JYB7j53jJd
p49
aVRT @DrJillStein: I will have trouble sleeping at night if Trump is elected. I will also have trouble sleeping at night if Hillary is electe\u2026
p50
aVBoth are ass hats and no good for the US #thisisthebestwehave? https://t.co/GnKULDdE9i
p51
aVRT @FoxNews: Fox News Poll: Honest and trustworthy. https://t.co/a0bweA6RS3
p52
aVRT @SparrowVideo: His face at the end. \U0001f602  https://t.co/89H8Fr9zA0
p53
aVRT @RickAndThangs: DID DWIGHT JUST KILL DARYL??????????? #TWD https://t.co/xzTEuAGnyK
p54
aVRT @MissouriState: Egg hunt on campus and it's #NationalPuppyDay. Today is awesome. https://t.co/s7nlrPaW70
p55
aVBut she's giving @JLJeffLewis such nice side eye... https://t.co/dovH5harKr
p56
aV@joshuagates "almost" being the most important word here.....
p57
aVRT @joshuagates: Statistically, almost nobody is allergic to hedera helix or common English ivy. I guess that makes me special? #FML https:\u2026
p58
aVCarol does not die! @WalkingDead_AMC
p59
aVNo! @Sam_MAFS and @Neil_MAFS ....no!!!! Tears........
p60
aVRT @CharlesMcMansio: Buckle up Ladies &amp; Gents,"T.I.P." Is HERE... https://t.co/EpgEU8DzEh \u000aMight wanna grab some towels &amp; close the curtain\u2026
p61
aVRT @MissouriState: Hey https://t.co/Ovb6d6FpsP
p62
aVRT @Bethenny: Tonight's ensemble. Get urs at https://t.co/bHRcAxcao8. #GoToSleep https://t.co/2oJgvhT9N7
p63
aVMaking a Murderer Episode 1: WOW, what an injustice!!!!! #MakingAMurderer
p64
aVRT @SurRestaurant: Serious question. https://t.co/3Zvz3NDrsm
p65
aVRT @WalkingDead_AMC: Brace yourselves for the return of #TWD at 9|8c. http://t.co/Uxa0ZLlvw0
p66
aVRT @MoStateBkstore: GO BEARS! We got 3 touchdowns on Saturday, which means you get 15% off at the Bookstore, so stop by tomorrow! http://t.\u2026
p67
aV@FoxNews @RandPaul she's incarcerated because she's an elected official, she took an oath, and is refusing to do her job.
p68
aVRT @MorrisHerald: Morris Library board votes to reinstate Children's Librarian Carol Hutchings with a 4-3 vote. http://t.co/yJ6EacpGzl http\u2026
p69
aVIs this for real!!! 2 goals! #usawomensoccer
p70
aVRT @missouristate: Shaw: To make a difference, you must have compassion, passion and patience. #CitizenBear
p71
aVRT @WalkingDead_AMC: Wake us up when #TheWalkingDead returns. http://t.co/mURcldniTk
p72
aVKick ass episode, and Morgan's back! @WalkingDead_AMC
p73
aVHappy Halloween! Although it looks more like Christmas with this snow #snowinoctober
p74
aVRT @itsmovies: Best reunion pic ever http://t.co/3jMrs7bYtw
p75
aVZombies are coming http://t.co/ASTmHzllK1
p76
aVI really want Kristin Taekman's "Love Me Tender" sweatshirt. Too bad it's a ridiculous $160
p77
aVRT @MorrisHerald: Tickets for the Morris-Minooka football game are on sale starting today. http://t.co/1bzIgTly5c
p78
aVRT @AuroraU: The #aurorauniversity Center for Adult &amp; Graduate Studies is excited to participate in the Illinois CPA Society\u2019s #ICPASShow o\u2026
p79
aVBack to school night at MCHS. Brooklyn has some awesome teachers!
p80
aVI love my daughter #ANGEL
p81
a.