(lp0
VRT @samalter: https://t.co/nJkGhmD6mW
p1
aV@PamelaNorkus @panerabread Yikes!  Mom
p2
aVKaine is a jerk.
p3
aVTim Kaine is such a rude bully.
p4
aVI voted for @WashSpirit's @JoannaLohman for @NWSL Goal of the Week. https://t.co/OjoGY6sYZP #GOWLohman
p5
a.